ARM GAS  /var/folders/28/j9jfyj_n4wz3qtvnym210h2c0000gn/T//ccfPNeLI.s 			page 1


   1              		.syntax unified
   2              		.cpu cortex-m4
   3              		.eabi_attribute 27, 1
   4              		.eabi_attribute 28, 1
   5              		.fpu fpv4-sp-d16
   6              		.eabi_attribute 20, 1
   7              		.eabi_attribute 21, 1
   8              		.eabi_attribute 23, 3
   9              		.eabi_attribute 24, 1
  10              		.eabi_attribute 25, 1
  11              		.eabi_attribute 26, 1
  12              		.eabi_attribute 30, 2
  13              		.eabi_attribute 34, 1
  14              		.eabi_attribute 18, 4
  15              		.thumb
  16              		.file	"main.c"
  17              		.text
  18              	.Ltext0:
  19              		.cfi_sections	.debug_frame
  20              		.section	.text.NVIC_SystemReset,"ax",%progbits
  21              		.align	2
  22              		.p2align 4,,15
  23              		.thumb
  24              		.thumb_func
  25              		.type	NVIC_SystemReset, %function
  26              	NVIC_SystemReset:
  27              	.LFB113:
  28              		.file 1 "/Applications/Axoloti.app/Contents/Java/chibios/os/ports/common/ARMCMx/CMSIS/include/core
  29              		.loc 1 1624 0
  30              		.cfi_startproc
  31              		@ Volatile: function does not return.
  32              		@ args = 0, pretend = 0, frame = 0
  33              		@ frame_needed = 0, uses_anonymous_args = 0
  34              		@ link register save eliminated.
  35              	.LBB9:
  36              	.LBB10:
  37              		.file 2 "/Applications/Axoloti.app/Contents/Java/chibios/os/ports/common/ARMCMx/CMSIS/include/core
  38              		.loc 2 343 0
  39              	@ 343 "/Applications/Axoloti.app/Contents/Java/chibios/os/ports/common/ARMCMx/CMSIS/include/core_cm
  40 0000 BFF34F8F 		dsb
  41              	@ 0 "" 2
  42              		.thumb
  43              	.LBE10:
  44              	.LBE9:
  45              		.loc 1 1628 0
  46 0004 0449     		ldr	r1, .L4
  47 0006 054B     		ldr	r3, .L4+4
  48 0008 CA68     		ldr	r2, [r1, #12]
  49 000a 02F4E062 		and	r2, r2, #1792
  50 000e 1343     		orrs	r3, r3, r2
  51              		.loc 1 1627 0
  52 0010 CB60     		str	r3, [r1, #12]
  53              	.LBB11:
  54              	.LBB12:
  55              		.loc 2 343 0
  56              	@ 343 "/Applications/Axoloti.app/Contents/Java/chibios/os/ports/common/ARMCMx/CMSIS/include/core_cm
  57 0012 BFF34F8F 		dsb
ARM GAS  /var/folders/28/j9jfyj_n4wz3qtvnym210h2c0000gn/T//ccfPNeLI.s 			page 2


  58              	@ 0 "" 2
  59              		.thumb
  60              	.L2:
  61              	.LBE12:
  62              	.LBE11:
  63              		.loc 1 1631 0 discriminator 1
  64 0016 FEE7     		b	.L2
  65              	.L5:
  66              		.align	2
  67              	.L4:
  68 0018 00ED00E0 		.word	-536810240
  69 001c 0400FA05 		.word	100270084
  70              		.cfi_endproc
  71              	.LFE113:
  72              		.size	NVIC_SystemReset, .-NVIC_SystemReset
  73              		.section	.text.dbgPrintHexDigit,"ax",%progbits
  74              		.align	2
  75              		.p2align 4,,15
  76              		.global	dbgPrintHexDigit
  77              		.thumb
  78              		.thumb_func
  79              		.type	dbgPrintHexDigit, %function
  80              	dbgPrintHexDigit:
  81              	.LFB119:
  82              		.file 3 "main.c"
  83              		.loc 3 42 0
  84              		.cfi_startproc
  85              		@ args = 0, pretend = 0, frame = 0
  86              		@ frame_needed = 0, uses_anonymous_args = 0
  87              		@ link register save eliminated.
  88              	.LVL0:
  89              		.loc 3 43 0
  90 0000 0928     		cmp	r0, #9
  91 0002 07D8     		bhi	.L8
  92              		.loc 3 47 0
  93 0004 00F13001 		add	r1, r0, #48
  94 0008 C9B2     		uxtb	r1, r1
  95 000a 0648     		ldr	r0, .L9
  96              	.LVL1:
  97 000c 4FF0FF32 		mov	r2, #-1
  98 0010 FFF7FEBF 		b	chOQPutTimeout
  99              	.LVL2:
 100              	.L8:
 101              	.LBB15:
 102              	.LBB16:
 103              		.loc 3 44 0
 104 0014 00F15701 		add	r1, r0, #87
 105 0018 C9B2     		uxtb	r1, r1
 106 001a 0248     		ldr	r0, .L9
 107              	.LVL3:
 108 001c 4FF0FF32 		mov	r2, #-1
 109 0020 FFF7FEBF 		b	chOQPutTimeout
 110              	.LVL4:
 111              	.L10:
 112              		.align	2
 113              	.L9:
 114 0024 30000000 		.word	SD2+48
ARM GAS  /var/folders/28/j9jfyj_n4wz3qtvnym210h2c0000gn/T//ccfPNeLI.s 			page 3


 115              	.LBE16:
 116              	.LBE15:
 117              		.cfi_endproc
 118              	.LFE119:
 119              		.size	dbgPrintHexDigit, .-dbgPrintHexDigit
 120              		.section	.text.refresh_LCD,"ax",%progbits
 121              		.align	2
 122              		.p2align 4,,15
 123              		.global	refresh_LCD
 124              		.thumb
 125              		.thumb_func
 126              		.type	refresh_LCD, %function
 127              	refresh_LCD:
 128              	.LFB120:
 129              		.loc 3 80 0
 130              		.cfi_startproc
 131              		@ args = 0, pretend = 0, frame = 0
 132              		@ frame_needed = 0, uses_anonymous_args = 0
 133              		@ link register save eliminated.
 134 0000 7047     		bx	lr
 135              		.cfi_endproc
 136              	.LFE120:
 137              		.size	refresh_LCD, .-refresh_LCD
 138 0002 00BF     		.section	.text.DispayAbortErr,"ax",%progbits
 139              		.align	2
 140              		.p2align 4,,15
 141              		.global	DispayAbortErr
 142              		.thumb
 143              		.thumb_func
 144              		.type	DispayAbortErr, %function
 145              	DispayAbortErr:
 146              	.LFB121:
 147              		.loc 3 90 0
 148              		.cfi_startproc
 149              		@ args = 0, pretend = 0, frame = 0
 150              		@ frame_needed = 0, uses_anonymous_args = 0
 151              	.LVL5:
 152              		.loc 3 91 0
 153 0000 00F13001 		add	r1, r0, #48
 154              		.loc 3 90 0
 155 0004 70B5     		push	{r4, r5, r6, lr}
 156              		.cfi_def_cfa_offset 16
 157              		.cfi_offset 4, -16
 158              		.cfi_offset 5, -12
 159              		.cfi_offset 6, -8
 160              		.cfi_offset 14, -4
 161              		.loc 3 91 0
 162 0006 4FF0FF32 		mov	r2, #-1
 163 000a C9B2     		uxtb	r1, r1
 164 000c 0C48     		ldr	r0, .L16
 165              	.LVL6:
 166              		.loc 3 101 0
 167 000e 0D4D     		ldr	r5, .L16+4
 168              		.loc 3 91 0
 169 0010 FFF7FEFF 		bl	chOQPutTimeout
 170              	.LVL7:
 171              		.loc 3 98 0
ARM GAS  /var/folders/28/j9jfyj_n4wz3qtvnym210h2c0000gn/T//ccfPNeLI.s 			page 4


 172 0014 0C4B     		ldr	r3, .L16+8
 173 0016 4FF48002 		mov	r2, #4194304
 174 001a 9A61     		str	r2, [r3, #24]
 175              	.LVL8:
 176 001c 0A24     		movs	r4, #10
 177              		.loc 3 101 0
 178 001e 4026     		movs	r6, #64
 179              	.LVL9:
 180              	.L13:
 181              		.loc 3 102 0
 182 0020 4FF47A70 		mov	r0, #1000
 183              		.loc 3 101 0
 184 0024 AE61     		str	r6, [r5, #24]
 185              		.loc 3 102 0
 186 0026 FFF7FEFF 		bl	chThdSleep
 187              	.LVL10:
 188              		.loc 3 103 0
 189 002a 4FF48003 		mov	r3, #4194304
 190 002e AB61     		str	r3, [r5, #24]
 191              		.loc 3 104 0
 192 0030 4FF47A70 		mov	r0, #1000
 193 0034 FFF7FEFF 		bl	chThdSleep
 194              	.LVL11:
 195              		.loc 3 100 0
 196 0038 013C     		subs	r4, r4, #1
 197              	.LVL12:
 198 003a F1D1     		bne	.L13
 199              		.loc 3 106 0
 200 003c FFF7FEFF 		bl	NVIC_SystemReset
 201              	.LVL13:
 202              	.L17:
 203              		.align	2
 204              	.L16:
 205 0040 30000000 		.word	SD2+48
 206 0044 00080240 		.word	1073874944
 207 0048 00180240 		.word	1073879040
 208              		.cfi_endproc
 209              	.LFE121:
 210              		.size	DispayAbortErr, .-DispayAbortErr
 211              		.section	.text.startup.main,"ax",%progbits
 212              		.align	2
 213              		.p2align 4,,15
 214              		.global	main
 215              		.thumb
 216              		.thumb_func
 217              		.type	main, %function
 218              	main:
 219              	.LFB122:
 220              		.loc 3 109 0
 221              		.cfi_startproc
 222              		@ args = 0, pretend = 0, frame = 104
 223              		@ frame_needed = 0, uses_anonymous_args = 0
 224 0000 2DE9F04F 		push	{r4, r5, r6, r7, r8, r9, r10, fp, lr}
 225              		.cfi_def_cfa_offset 36
 226              		.cfi_offset 4, -36
 227              		.cfi_offset 5, -32
 228              		.cfi_offset 6, -28
ARM GAS  /var/folders/28/j9jfyj_n4wz3qtvnym210h2c0000gn/T//ccfPNeLI.s 			page 5


 229              		.cfi_offset 7, -24
 230              		.cfi_offset 8, -20
 231              		.cfi_offset 9, -16
 232              		.cfi_offset 10, -12
 233              		.cfi_offset 11, -8
 234              		.cfi_offset 14, -4
 235 0004 9BB0     		sub	sp, sp, #108
 236              		.cfi_def_cfa_offset 144
 237              		.loc 3 110 0
 238 0006 FFF7FEFF 		bl	watchdog_feed
 239              	.LVL14:
 240              		.loc 3 116 0
 241 000a B04C     		ldr	r4, .L40
 242              		.loc 3 111 0
 243 000c FFF7FEFF 		bl	halInit
 244              	.LVL15:
 245              		.loc 3 114 0
 246 0010 AF48     		ldr	r0, .L40+4
 247 0012 4FF40061 		mov	r1, #2048
 248 0016 0022     		movs	r2, #0
 249 0018 FFF7FEFF 		bl	_pal_lld_setgroupmode
 250              	.LVL16:
 251 001c AC48     		ldr	r0, .L40+4
 252 001e 4FF48051 		mov	r1, #4096
 253 0022 0022     		movs	r2, #0
 254 0024 FFF7FEFF 		bl	_pal_lld_setgroupmode
 255              	.LVL17:
 256              		.loc 3 116 0
 257 0028 2046     		mov	r0, r4
 258 002a 4021     		movs	r1, #64
 259 002c 0122     		movs	r2, #1
 260 002e FFF7FEFF 		bl	_pal_lld_setgroupmode
 261              	.LVL18:
 262              		.loc 3 117 0
 263 0032 4021     		movs	r1, #64
 264 0034 2183     		strh	r1, [r4, #24]	@ movhi
 265              		.loc 3 119 0
 266 0036 A748     		ldr	r0, .L40+8
 267 0038 0122     		movs	r2, #1
 268 003a FFF7FEFF 		bl	_pal_lld_setgroupmode
 269              	.LVL19:
 270              		.loc 3 122 0
 271 003e FFF7FEFF 		bl	chSysInit
 272              	.LVL20:
 273              		.loc 3 123 0
 274 0042 FFF7FEFF 		bl	watchdog_feed
 275              	.LVL21:
 276              		.loc 3 124 0
 277 0046 FFF7FEFF 		bl	configSDRAM
 278              	.LVL22:
 279              		.loc 3 128 0
 280 004a A148     		ldr	r0, .L40+4
 281 004c 0821     		movs	r1, #8
 282 004e 40F28232 		movw	r2, #898
 283 0052 FFF7FEFF 		bl	_pal_lld_setgroupmode
 284              	.LVL23:
 285              		.loc 3 129 0
ARM GAS  /var/folders/28/j9jfyj_n4wz3qtvnym210h2c0000gn/T//ccfPNeLI.s 			page 6


 286 0056 9E48     		ldr	r0, .L40+4
 287 0058 0421     		movs	r1, #4
 288 005a 0122     		movs	r2, #1
 289 005c FFF7FEFF 		bl	_pal_lld_setgroupmode
 290              	.LVL24:
 291              		.loc 3 130 0
 292 0060 40F28232 		movw	r2, #898
 293 0064 9A48     		ldr	r0, .L40+4
 294 0066 0421     		movs	r1, #4
 295 0068 FFF7FEFF 		bl	_pal_lld_setgroupmode
 296              	.LVL25:
 297              		.loc 3 133 0
 298 006c 9A48     		ldr	r0, .L40+12
 299 006e 9B49     		ldr	r1, .L40+16
 300 0070 FFF7FEFF 		bl	sdStart
 301              	.LVL26:
 302              		.loc 3 136 0
 303 0074 6121     		movs	r1, #97
 304 0076 4FF0FF32 		mov	r2, #-1
 305 007a 9948     		ldr	r0, .L40+20
 306 007c FFF7FEFF 		bl	chOQPutTimeout
 307              	.LVL27:
 308              		.loc 3 147 0
 309 0080 4FF04044 		mov	r4, #-1073741824
 310              		.loc 3 139 0
 311 0084 0AA8     		add	r0, sp, #40
 312 0086 4FF4A021 		mov	r1, #327680
 313 008a 1022     		movs	r2, #16
 314 008c FFF7FEFF 		bl	SDRAM_ReadBuffer
 315              	.LVL28:
 316              		.loc 3 140 0
 317 0090 7821     		movs	r1, #120
 318 0092 4FF0FF32 		mov	r2, #-1
 319 0096 9248     		ldr	r0, .L40+20
 320 0098 FFF7FEFF 		bl	chOQPutTimeout
 321              	.LVL29:
 322              		.loc 3 142 0
 323 009c FFF7FEFF 		bl	watchdog_feed
 324              	.LVL30:
 325              		.loc 3 147 0
 326 00a0 2378     		ldrb	r3, [r4]	@ zero_extendqisi2
 327 00a2 662B     		cmp	r3, #102
 328 00a4 02D0     		beq	.L38
 329              	.L19:
 330              		.loc 3 150 0
 331 00a6 0120     		movs	r0, #1
 332 00a8 FFF7FEFF 		bl	DispayAbortErr
 333              	.LVL31:
 334              	.L38:
 335              		.loc 3 147 0 discriminator 1
 336 00ac 8D4B     		ldr	r3, .L40+24
 337 00ae 1B78     		ldrb	r3, [r3]	@ zero_extendqisi2
 338 00b0 6C2B     		cmp	r3, #108
 339 00b2 F8D1     		bne	.L19
 340              		.loc 3 147 0 is_stmt 0 discriminator 2
 341 00b4 8C4B     		ldr	r3, .L40+28
 342 00b6 1B78     		ldrb	r3, [r3]	@ zero_extendqisi2
ARM GAS  /var/folders/28/j9jfyj_n4wz3qtvnym210h2c0000gn/T//ccfPNeLI.s 			page 7


 343 00b8 612B     		cmp	r3, #97
 344 00ba F4D1     		bne	.L19
 345              		.loc 3 148 0 is_stmt 1
 346 00bc 8B4B     		ldr	r3, .L40+32
 347 00be 1B78     		ldrb	r3, [r3]	@ zero_extendqisi2
 348 00c0 732B     		cmp	r3, #115
 349 00c2 F0D1     		bne	.L19
 350              		.loc 3 148 0 is_stmt 0 discriminator 1
 351 00c4 8A4B     		ldr	r3, .L40+36
 352 00c6 1F78     		ldrb	r7, [r3]	@ zero_extendqisi2
 353 00c8 632F     		cmp	r7, #99
 354 00ca ECD1     		bne	.L19
 355              		.loc 3 148 0 discriminator 2
 356 00cc 0133     		adds	r3, r3, #1
 357 00ce 1B78     		ldrb	r3, [r3]	@ zero_extendqisi2
 358 00d0 6F2B     		cmp	r3, #111
 359 00d2 E8D1     		bne	.L19
 360              		.loc 3 149 0 is_stmt 1
 361 00d4 874B     		ldr	r3, .L40+40
 362 00d6 1B78     		ldrb	r3, [r3]	@ zero_extendqisi2
 363 00d8 702B     		cmp	r3, #112
 364 00da E4D1     		bne	.L19
 365              		.loc 3 149 0 is_stmt 0 discriminator 1
 366 00dc 864B     		ldr	r3, .L40+44
 367 00de 1B78     		ldrb	r3, [r3]	@ zero_extendqisi2
 368 00e0 792B     		cmp	r3, #121
 369 00e2 E0D1     		bne	.L19
 370              		.loc 3 152 0 is_stmt 1
 371 00e4 7E48     		ldr	r0, .L40+20
 372 00e6 6221     		movs	r1, #98
 373 00e8 4FF0FF32 		mov	r2, #-1
 374 00ec FFF7FEFF 		bl	chOQPutTimeout
 375              	.LVL32:
 376              		.loc 3 154 0
 377 00f0 A568     		ldr	r5, [r4, #8]
 378              	.LVL33:
 379              		.loc 3 155 0
 380 00f2 E668     		ldr	r6, [r4, #12]
 381              	.LVL34:
 382              		.loc 3 157 0
 383 00f4 B5F5801F 		cmp	r5, #1048576
 384 00f8 02D9     		bls	.L21
 385              		.loc 3 158 0
 386 00fa 0220     		movs	r0, #2
 387 00fc FFF7FEFF 		bl	DispayAbortErr
 388              	.LVL35:
 389              	.L21:
 390              		.loc 3 161 0
 391 0100 3946     		mov	r1, r7
 392 0102 4FF0FF32 		mov	r2, #-1
 393 0106 7648     		ldr	r0, .L40+20
 394 0108 FFF7FEFF 		bl	chOQPutTimeout
 395              	.LVL36:
 396              		.loc 3 163 0
 397 010c 2021     		movs	r1, #32
 398 010e 4FF0FF32 		mov	r2, #-1
 399 0112 7348     		ldr	r0, .L40+20
ARM GAS  /var/folders/28/j9jfyj_n4wz3qtvnym210h2c0000gn/T//ccfPNeLI.s 			page 8


 400 0114 FFF7FEFF 		bl	chOQPutTimeout
 401              	.LVL37:
 402 0118 3021     		movs	r1, #48
 403 011a 4FF0FF32 		mov	r2, #-1
 404 011e 7048     		ldr	r0, .L40+20
 405 0120 FFF7FEFF 		bl	chOQPutTimeout
 406              	.LVL38:
 407 0124 7821     		movs	r1, #120
 408 0126 4FF0FF32 		mov	r2, #-1
 409 012a 6D48     		ldr	r0, .L40+20
 410 012c FFF7FEFF 		bl	chOQPutTimeout
 411              	.LVL39:
 412 0130 0020     		movs	r0, #0
 413 0132 FFF7FEFF 		bl	dbgPrintHexDigit
 414              	.LVL40:
 415 0136 C5F30757 		ubfx	r7, r5, #20, #8
 416 013a 0020     		movs	r0, #0
 417 013c FFF7FEFF 		bl	dbgPrintHexDigit
 418              	.LVL41:
 419 0140 C5F30348 		ubfx	r8, r5, #16, #4
 420 0144 3846     		mov	r0, r7
 421 0146 FFF7FEFF 		bl	dbgPrintHexDigit
 422              	.LVL42:
 423 014a 4046     		mov	r0, r8
 424 014c FFF7FEFF 		bl	dbgPrintHexDigit
 425              	.LVL43:
 426 0150 C5F30339 		ubfx	r9, r5, #12, #4
 427 0154 C5F30323 		ubfx	r3, r5, #8, #4
 428 0158 1C46     		mov	r4, r3
 429 015a 4846     		mov	r0, r9
 430 015c 0893     		str	r3, [sp, #32]
 431 015e FFF7FEFF 		bl	dbgPrintHexDigit
 432              	.LVL44:
 433 0162 C5F30313 		ubfx	r3, r5, #4, #4
 434 0166 2046     		mov	r0, r4
 435 0168 0793     		str	r3, [sp, #28]
 436 016a FFF7FEFF 		bl	dbgPrintHexDigit
 437              	.LVL45:
 438 016e 05F00F02 		and	r2, r5, #15
 439 0172 1446     		mov	r4, r2
 440 0174 0798     		ldr	r0, [sp, #28]
 441 0176 0992     		str	r2, [sp, #36]
 442 0178 FFF7FEFF 		bl	dbgPrintHexDigit
 443              	.LVL46:
 444 017c 2046     		mov	r0, r4
 445 017e FFF7FEFF 		bl	dbgPrintHexDigit
 446              	.LVL47:
 447 0182 0D21     		movs	r1, #13
 448 0184 4FF0FF32 		mov	r2, #-1
 449 0188 5548     		ldr	r0, .L40+20
 450 018a FFF7FEFF 		bl	chOQPutTimeout
 451              	.LVL48:
 452 018e 4FF0FF32 		mov	r2, #-1
 453 0192 0A21     		movs	r1, #10
 454 0194 5248     		ldr	r0, .L40+20
 455 0196 FFF7FEFF 		bl	chOQPutTimeout
 456              	.LVL49:
ARM GAS  /var/folders/28/j9jfyj_n4wz3qtvnym210h2c0000gn/T//ccfPNeLI.s 			page 9


 457              		.loc 3 165 0
 458 019a 2946     		mov	r1, r5
 459 019c 5748     		ldr	r0, .L40+48
 460 019e FFF7FEFF 		bl	CalcCRC32
 461              	.LVL50:
 462              		.loc 3 167 0
 463 01a2 6421     		movs	r1, #100
 464              		.loc 3 165 0
 465 01a4 0446     		mov	r4, r0
 466              	.LVL51:
 467              		.loc 3 167 0
 468 01a6 4FF0FF32 		mov	r2, #-1
 469 01aa 4D48     		ldr	r0, .L40+20
 470              	.LVL52:
 471 01ac FFF7FEFF 		bl	chOQPutTimeout
 472              	.LVL53:
 473              		.loc 3 169 0
 474 01b0 2021     		movs	r1, #32
 475 01b2 4FF0FF32 		mov	r2, #-1
 476 01b6 4A48     		ldr	r0, .L40+20
 477 01b8 FFF7FEFF 		bl	chOQPutTimeout
 478              	.LVL54:
 479 01bc 3021     		movs	r1, #48
 480 01be 4FF0FF32 		mov	r2, #-1
 481 01c2 4748     		ldr	r0, .L40+20
 482 01c4 FFF7FEFF 		bl	chOQPutTimeout
 483              	.LVL55:
 484 01c8 7821     		movs	r1, #120
 485 01ca 4FF0FF32 		mov	r2, #-1
 486 01ce 4448     		ldr	r0, .L40+20
 487 01d0 FFF7FEFF 		bl	chOQPutTimeout
 488              	.LVL56:
 489 01d4 200F     		lsrs	r0, r4, #28
 490 01d6 FFF7FEFF 		bl	dbgPrintHexDigit
 491              	.LVL57:
 492 01da C4F30360 		ubfx	r0, r4, #24, #4
 493 01de FFF7FEFF 		bl	dbgPrintHexDigit
 494              	.LVL58:
 495 01e2 C4F30350 		ubfx	r0, r4, #20, #4
 496 01e6 FFF7FEFF 		bl	dbgPrintHexDigit
 497              	.LVL59:
 498 01ea C4F30340 		ubfx	r0, r4, #16, #4
 499 01ee FFF7FEFF 		bl	dbgPrintHexDigit
 500              	.LVL60:
 501 01f2 C4F30330 		ubfx	r0, r4, #12, #4
 502 01f6 FFF7FEFF 		bl	dbgPrintHexDigit
 503              	.LVL61:
 504 01fa C4F30320 		ubfx	r0, r4, #8, #4
 505 01fe FFF7FEFF 		bl	dbgPrintHexDigit
 506              	.LVL62:
 507 0202 C4F30310 		ubfx	r0, r4, #4, #4
 508 0206 FFF7FEFF 		bl	dbgPrintHexDigit
 509              	.LVL63:
 510 020a 04F00F00 		and	r0, r4, #15
 511 020e FFF7FEFF 		bl	dbgPrintHexDigit
 512              	.LVL64:
 513 0212 0D21     		movs	r1, #13
ARM GAS  /var/folders/28/j9jfyj_n4wz3qtvnym210h2c0000gn/T//ccfPNeLI.s 			page 10


 514 0214 4FF0FF32 		mov	r2, #-1
 515 0218 3148     		ldr	r0, .L40+20
 516 021a FFF7FEFF 		bl	chOQPutTimeout
 517              	.LVL65:
 518 021e 0A21     		movs	r1, #10
 519 0220 4FF0FF32 		mov	r2, #-1
 520 0224 2E48     		ldr	r0, .L40+20
 521 0226 FFF7FEFF 		bl	chOQPutTimeout
 522              	.LVL66:
 523              		.loc 3 170 0
 524 022a 2021     		movs	r1, #32
 525 022c 4FF0FF32 		mov	r2, #-1
 526 0230 2B48     		ldr	r0, .L40+20
 527 0232 FFF7FEFF 		bl	chOQPutTimeout
 528              	.LVL67:
 529 0236 3021     		movs	r1, #48
 530 0238 4FF0FF32 		mov	r2, #-1
 531 023c 2848     		ldr	r0, .L40+20
 532 023e FFF7FEFF 		bl	chOQPutTimeout
 533              	.LVL68:
 534 0242 4FEA167B 		lsr	fp, r6, #28
 535 0246 7821     		movs	r1, #120
 536 0248 4FF0FF32 		mov	r2, #-1
 537 024c 2448     		ldr	r0, .L40+20
 538 024e FFF7FEFF 		bl	chOQPutTimeout
 539              	.LVL69:
 540 0252 C6F3036A 		ubfx	r10, r6, #24, #4
 541 0256 5846     		mov	r0, fp
 542 0258 FFF7FEFF 		bl	dbgPrintHexDigit
 543              	.LVL70:
 544 025c C6F30353 		ubfx	r3, r6, #20, #4
 545 0260 5046     		mov	r0, r10
 546 0262 0193     		str	r3, [sp, #4]
 547 0264 FFF7FEFF 		bl	dbgPrintHexDigit
 548              	.LVL71:
 549 0268 C6F30342 		ubfx	r2, r6, #16, #4
 550 026c 0198     		ldr	r0, [sp, #4]
 551 026e 0292     		str	r2, [sp, #8]
 552 0270 FFF7FEFF 		bl	dbgPrintHexDigit
 553              	.LVL72:
 554 0274 C6F30333 		ubfx	r3, r6, #12, #4
 555 0278 0298     		ldr	r0, [sp, #8]
 556 027a 0393     		str	r3, [sp, #12]
 557 027c FFF7FEFF 		bl	dbgPrintHexDigit
 558              	.LVL73:
 559 0280 C6F30322 		ubfx	r2, r6, #8, #4
 560 0284 0398     		ldr	r0, [sp, #12]
 561 0286 0492     		str	r2, [sp, #16]
 562 0288 FFF7FEFF 		bl	dbgPrintHexDigit
 563              	.LVL74:
 564 028c C6F30313 		ubfx	r3, r6, #4, #4
 565 0290 0498     		ldr	r0, [sp, #16]
 566 0292 0593     		str	r3, [sp, #20]
 567 0294 FFF7FEFF 		bl	dbgPrintHexDigit
 568              	.LVL75:
 569 0298 06F00F02 		and	r2, r6, #15
 570 029c 0598     		ldr	r0, [sp, #20]
ARM GAS  /var/folders/28/j9jfyj_n4wz3qtvnym210h2c0000gn/T//ccfPNeLI.s 			page 11


 571 029e 0692     		str	r2, [sp, #24]
 572 02a0 FFF7FEFF 		bl	dbgPrintHexDigit
 573              	.LVL76:
 574 02a4 0698     		ldr	r0, [sp, #24]
 575 02a6 FFF7FEFF 		bl	dbgPrintHexDigit
 576              	.LVL77:
 577 02aa 0D21     		movs	r1, #13
 578 02ac 4FF0FF32 		mov	r2, #-1
 579 02b0 0B48     		ldr	r0, .L40+20
 580 02b2 FFF7FEFF 		bl	chOQPutTimeout
 581              	.LVL78:
 582 02b6 0A48     		ldr	r0, .L40+20
 583 02b8 0A21     		movs	r1, #10
 584 02ba 4FF0FF32 		mov	r2, #-1
 585 02be FFF7FEFF 		bl	chOQPutTimeout
 586              	.LVL79:
 587              		.loc 3 172 0
 588 02c2 B442     		cmp	r4, r6
 589 02c4 1CD0     		beq	.L22
 590              		.loc 3 173 0
 591 02c6 0320     		movs	r0, #3
 592 02c8 FFF7FEFF 		bl	DispayAbortErr
 593              	.LVL80:
 594              	.L41:
 595              		.align	2
 596              	.L40:
 597 02cc 00180240 		.word	1073879040
 598 02d0 00000240 		.word	1073872896
 599 02d4 00080240 		.word	1073874944
 600 02d8 00000000 		.word	SD2
 601 02dc 00000000 		.word	.LANCHOR0
 602 02e0 30000000 		.word	SD2+48
 603 02e4 010000C0 		.word	-1073741823
 604 02e8 020000C0 		.word	-1073741822
 605 02ec 030000C0 		.word	-1073741821
 606 02f0 040000C0 		.word	-1073741820
 607 02f4 060000C0 		.word	-1073741818
 608 02f8 070000C0 		.word	-1073741817
 609 02fc 100000C0 		.word	-1073741808
 610              	.L22:
 611              		.loc 3 176 0
 612 0300 6521     		movs	r1, #101
 613 0302 4FF0FF32 		mov	r2, #-1
 614 0306 8F48     		ldr	r0, .L42
 615 0308 FFF7FEFF 		bl	chOQPutTimeout
 616              	.LVL81:
 617              		.loc 3 179 0
 618 030c 8E4B     		ldr	r3, .L42+4
 619 030e 8F49     		ldr	r1, .L42+8
 620              		.loc 3 180 0
 621 0310 8F4A     		ldr	r2, .L42+12
 622              		.loc 3 179 0
 623 0312 5960     		str	r1, [r3, #4]
 624              		.loc 3 184 0
 625 0314 0026     		movs	r6, #0
 626              	.LVL82:
 627              		.loc 3 180 0
ARM GAS  /var/folders/28/j9jfyj_n4wz3qtvnym210h2c0000gn/T//ccfPNeLI.s 			page 12


 628 0316 5A60     		str	r2, [r3, #4]
 629              	.LVL83:
 630              	.L23:
 631              		.loc 3 185 0 discriminator 3
 632 0318 3046     		mov	r0, r6
 633 031a FFF7FEFF 		bl	flash_Erase_sector
 634              	.LVL84:
 635              		.loc 3 186 0 discriminator 3
 636 031e 8023     		movs	r3, #128
 637 0320 0020     		movs	r0, #0
 638 0322 0321     		movs	r1, #3
 639 0324 8B4A     		ldr	r2, .L42+16
 640 0326 FFF7FEFF 		bl	LCD_drawStringN
 641              	.LVL85:
 642              		.loc 3 187 0 discriminator 3
 643 032a 0321     		movs	r1, #3
 644 032c 3246     		mov	r2, r6
 645 032e 5020     		movs	r0, #80
 646 0330 FFF7FEFF 		bl	LCD_drawNumber3D
 647              	.LVL86:
 648              		.loc 3 189 0 discriminator 3
 649 0334 884A     		ldr	r2, .L42+20
 650 0336 4023     		movs	r3, #64
 651 0338 9361     		str	r3, [r2, #24]
 652              		.loc 3 190 0 discriminator 3
 653 033a 6420     		movs	r0, #100
 654 033c FFF7FEFF 		bl	chThdSleep
 655              	.LVL87:
 656              		.loc 3 191 0 discriminator 3
 657 0340 854A     		ldr	r2, .L42+20
 658              		.loc 3 192 0 discriminator 3
 659 0342 8048     		ldr	r0, .L42
 660              		.loc 3 191 0 discriminator 3
 661 0344 4FF48003 		mov	r3, #4194304
 662 0348 9361     		str	r3, [r2, #24]
 663              		.loc 3 192 0 discriminator 3
 664 034a 6621     		movs	r1, #102
 665 034c 4FF0FF32 		mov	r2, #-1
 666 0350 FFF7FEFF 		bl	chOQPutTimeout
 667              	.LVL88:
 668              		.loc 3 193 0 discriminator 3
 669 0354 2021     		movs	r1, #32
 670 0356 4FF0FF32 		mov	r2, #-1
 671 035a 7A48     		ldr	r0, .L42
 672 035c FFF7FEFF 		bl	chOQPutTimeout
 673              	.LVL89:
 674 0360 3021     		movs	r1, #48
 675 0362 4FF0FF32 		mov	r2, #-1
 676 0366 7748     		ldr	r0, .L42
 677 0368 FFF7FEFF 		bl	chOQPutTimeout
 678              	.LVL90:
 679 036c 7821     		movs	r1, #120
 680 036e 4FF0FF32 		mov	r2, #-1
 681 0372 7448     		ldr	r0, .L42
 682 0374 FFF7FEFF 		bl	chOQPutTimeout
 683              	.LVL91:
 684 0378 0020     		movs	r0, #0
ARM GAS  /var/folders/28/j9jfyj_n4wz3qtvnym210h2c0000gn/T//ccfPNeLI.s 			page 13


 685 037a FFF7FEFF 		bl	dbgPrintHexDigit
 686              	.LVL92:
 687 037e 0020     		movs	r0, #0
 688 0380 FFF7FEFF 		bl	dbgPrintHexDigit
 689              	.LVL93:
 690 0384 0020     		movs	r0, #0
 691 0386 FFF7FEFF 		bl	dbgPrintHexDigit
 692              	.LVL94:
 693 038a 0020     		movs	r0, #0
 694 038c FFF7FEFF 		bl	dbgPrintHexDigit
 695              	.LVL95:
 696 0390 0020     		movs	r0, #0
 697 0392 FFF7FEFF 		bl	dbgPrintHexDigit
 698              	.LVL96:
 699 0396 0020     		movs	r0, #0
 700 0398 FFF7FEFF 		bl	dbgPrintHexDigit
 701              	.LVL97:
 702 039c 0020     		movs	r0, #0
 703 039e FFF7FEFF 		bl	dbgPrintHexDigit
 704              	.LVL98:
 705 03a2 F0B2     		uxtb	r0, r6
 706 03a4 FFF7FEFF 		bl	dbgPrintHexDigit
 707              	.LVL99:
 708 03a8 0D21     		movs	r1, #13
 709 03aa 4FF0FF32 		mov	r2, #-1
 710 03ae 6548     		ldr	r0, .L42
 711 03b0 FFF7FEFF 		bl	chOQPutTimeout
 712              	.LVL100:
 713              		.loc 3 184 0 discriminator 3
 714 03b4 0136     		adds	r6, r6, #1
 715              	.LVL101:
 716              		.loc 3 193 0 discriminator 3
 717 03b6 6348     		ldr	r0, .L42
 718 03b8 0A21     		movs	r1, #10
 719 03ba 4FF0FF32 		mov	r2, #-1
 720 03be FFF7FEFF 		bl	chOQPutTimeout
 721              	.LVL102:
 722              		.loc 3 184 0 discriminator 3
 723 03c2 0C2E     		cmp	r6, #12
 724 03c4 A8D1     		bne	.L23
 725              		.loc 3 196 0
 726 03c6 6721     		movs	r1, #103
 727 03c8 4FF0FF32 		mov	r2, #-1
 728 03cc 5D48     		ldr	r0, .L42
 729 03ce FFF7FEFF 		bl	chOQPutTimeout
 730              	.LVL103:
 731              		.loc 3 198 0
 732 03d2 2021     		movs	r1, #32
 733 03d4 4FF0FF32 		mov	r2, #-1
 734 03d8 5A48     		ldr	r0, .L42
 735 03da FFF7FEFF 		bl	chOQPutTimeout
 736              	.LVL104:
 737 03de 3021     		movs	r1, #48
 738 03e0 4FF0FF32 		mov	r2, #-1
 739 03e4 5748     		ldr	r0, .L42
 740 03e6 FFF7FEFF 		bl	chOQPutTimeout
 741              	.LVL105:
ARM GAS  /var/folders/28/j9jfyj_n4wz3qtvnym210h2c0000gn/T//ccfPNeLI.s 			page 14


 742 03ea 7821     		movs	r1, #120
 743 03ec 4FF0FF32 		mov	r2, #-1
 744 03f0 5448     		ldr	r0, .L42
 745 03f2 FFF7FEFF 		bl	chOQPutTimeout
 746              	.LVL106:
 747 03f6 0020     		movs	r0, #0
 748 03f8 FFF7FEFF 		bl	dbgPrintHexDigit
 749              	.LVL107:
 750 03fc 0020     		movs	r0, #0
 751 03fe FFF7FEFF 		bl	dbgPrintHexDigit
 752              	.LVL108:
 753 0402 3846     		mov	r0, r7
 754 0404 FFF7FEFF 		bl	dbgPrintHexDigit
 755              	.LVL109:
 756 0408 4046     		mov	r0, r8
 757 040a FFF7FEFF 		bl	dbgPrintHexDigit
 758              	.LVL110:
 759 040e 4846     		mov	r0, r9
 760 0410 FFF7FEFF 		bl	dbgPrintHexDigit
 761              	.LVL111:
 762 0414 0898     		ldr	r0, [sp, #32]
 763 0416 FFF7FEFF 		bl	dbgPrintHexDigit
 764              	.LVL112:
 765 041a 0798     		ldr	r0, [sp, #28]
 766 041c FFF7FEFF 		bl	dbgPrintHexDigit
 767              	.LVL113:
 768 0420 0998     		ldr	r0, [sp, #36]
 769 0422 FFF7FEFF 		bl	dbgPrintHexDigit
 770              	.LVL114:
 771 0426 0D21     		movs	r1, #13
 772 0428 4FF0FF32 		mov	r2, #-1
 773 042c 4548     		ldr	r0, .L42
 774 042e FFF7FEFF 		bl	chOQPutTimeout
 775              	.LVL115:
 776 0432 4FF0FF32 		mov	r2, #-1
 777 0436 0A21     		movs	r1, #10
 778 0438 4248     		ldr	r0, .L42
 779 043a FFF7FEFF 		bl	chOQPutTimeout
 780              	.LVL116:
 781              		.loc 3 200 0
 782 043e 2946     		mov	r1, r5
 783 0440 4648     		ldr	r0, .L42+24
 784 0442 FFF7FEFF 		bl	CalcCRC32
 785              	.LVL117:
 786              		.loc 3 202 0
 787 0446 6821     		movs	r1, #104
 788              		.loc 3 200 0
 789 0448 0646     		mov	r6, r0
 790              	.LVL118:
 791              		.loc 3 202 0
 792 044a 4FF0FF32 		mov	r2, #-1
 793 044e 3D48     		ldr	r0, .L42
 794              	.LVL119:
 795 0450 FFF7FEFF 		bl	chOQPutTimeout
 796              	.LVL120:
 797              		.loc 3 204 0
 798 0454 2021     		movs	r1, #32
ARM GAS  /var/folders/28/j9jfyj_n4wz3qtvnym210h2c0000gn/T//ccfPNeLI.s 			page 15


 799 0456 4FF0FF32 		mov	r2, #-1
 800 045a 3A48     		ldr	r0, .L42
 801 045c FFF7FEFF 		bl	chOQPutTimeout
 802              	.LVL121:
 803 0460 3021     		movs	r1, #48
 804 0462 4FF0FF32 		mov	r2, #-1
 805 0466 3748     		ldr	r0, .L42
 806 0468 FFF7FEFF 		bl	chOQPutTimeout
 807              	.LVL122:
 808 046c 7821     		movs	r1, #120
 809 046e 4FF0FF32 		mov	r2, #-1
 810 0472 3448     		ldr	r0, .L42
 811 0474 FFF7FEFF 		bl	chOQPutTimeout
 812              	.LVL123:
 813 0478 300F     		lsrs	r0, r6, #28
 814 047a FFF7FEFF 		bl	dbgPrintHexDigit
 815              	.LVL124:
 816 047e C6F30360 		ubfx	r0, r6, #24, #4
 817 0482 FFF7FEFF 		bl	dbgPrintHexDigit
 818              	.LVL125:
 819 0486 C6F30350 		ubfx	r0, r6, #20, #4
 820 048a FFF7FEFF 		bl	dbgPrintHexDigit
 821              	.LVL126:
 822 048e C6F30340 		ubfx	r0, r6, #16, #4
 823 0492 FFF7FEFF 		bl	dbgPrintHexDigit
 824              	.LVL127:
 825 0496 C6F30330 		ubfx	r0, r6, #12, #4
 826 049a FFF7FEFF 		bl	dbgPrintHexDigit
 827              	.LVL128:
 828 049e C6F30320 		ubfx	r0, r6, #8, #4
 829 04a2 FFF7FEFF 		bl	dbgPrintHexDigit
 830              	.LVL129:
 831 04a6 C6F30310 		ubfx	r0, r6, #4, #4
 832 04aa FFF7FEFF 		bl	dbgPrintHexDigit
 833              	.LVL130:
 834 04ae 06F00F00 		and	r0, r6, #15
 835 04b2 FFF7FEFF 		bl	dbgPrintHexDigit
 836              	.LVL131:
 837 04b6 0D21     		movs	r1, #13
 838 04b8 4FF0FF32 		mov	r2, #-1
 839 04bc 2148     		ldr	r0, .L42
 840 04be FFF7FEFF 		bl	chOQPutTimeout
 841              	.LVL132:
 842 04c2 0A21     		movs	r1, #10
 843 04c4 4FF0FF32 		mov	r2, #-1
 844 04c8 1E48     		ldr	r0, .L42
 845 04ca FFF7FEFF 		bl	chOQPutTimeout
 846              	.LVL133:
 847              		.loc 3 205 0
 848 04ce 2021     		movs	r1, #32
 849 04d0 4FF0FF32 		mov	r2, #-1
 850 04d4 1B48     		ldr	r0, .L42
 851 04d6 FFF7FEFF 		bl	chOQPutTimeout
 852              	.LVL134:
 853 04da 3021     		movs	r1, #48
 854 04dc 4FF0FF32 		mov	r2, #-1
 855 04e0 1848     		ldr	r0, .L42
ARM GAS  /var/folders/28/j9jfyj_n4wz3qtvnym210h2c0000gn/T//ccfPNeLI.s 			page 16


 856 04e2 FFF7FEFF 		bl	chOQPutTimeout
 857              	.LVL135:
 858 04e6 7821     		movs	r1, #120
 859 04e8 4FF0FF32 		mov	r2, #-1
 860 04ec 1548     		ldr	r0, .L42
 861 04ee FFF7FEFF 		bl	chOQPutTimeout
 862              	.LVL136:
 863 04f2 5846     		mov	r0, fp
 864 04f4 FFF7FEFF 		bl	dbgPrintHexDigit
 865              	.LVL137:
 866 04f8 5046     		mov	r0, r10
 867 04fa FFF7FEFF 		bl	dbgPrintHexDigit
 868              	.LVL138:
 869 04fe 0198     		ldr	r0, [sp, #4]
 870 0500 FFF7FEFF 		bl	dbgPrintHexDigit
 871              	.LVL139:
 872 0504 0298     		ldr	r0, [sp, #8]
 873 0506 FFF7FEFF 		bl	dbgPrintHexDigit
 874              	.LVL140:
 875 050a 0398     		ldr	r0, [sp, #12]
 876 050c FFF7FEFF 		bl	dbgPrintHexDigit
 877              	.LVL141:
 878 0510 0498     		ldr	r0, [sp, #16]
 879 0512 FFF7FEFF 		bl	dbgPrintHexDigit
 880              	.LVL142:
 881 0516 0598     		ldr	r0, [sp, #20]
 882 0518 FFF7FEFF 		bl	dbgPrintHexDigit
 883              	.LVL143:
 884 051c 0698     		ldr	r0, [sp, #24]
 885 051e FFF7FEFF 		bl	dbgPrintHexDigit
 886              	.LVL144:
 887 0522 0D21     		movs	r1, #13
 888 0524 4FF0FF32 		mov	r2, #-1
 889 0528 0648     		ldr	r0, .L42
 890 052a FFF7FEFF 		bl	chOQPutTimeout
 891              	.LVL145:
 892 052e 0548     		ldr	r0, .L42
 893 0530 0A21     		movs	r1, #10
 894 0532 4FF0FF32 		mov	r2, #-1
 895 0536 FFF7FEFF 		bl	chOQPutTimeout
 896              	.LVL146:
 897              		.loc 3 207 0
 898 053a B442     		cmp	r4, r6
 899 053c 10D0     		beq	.L24
 900              		.loc 3 208 0
 901 053e 0420     		movs	r0, #4
 902 0540 FFF7FEFF 		bl	DispayAbortErr
 903              	.LVL147:
 904              	.L43:
 905              		.align	2
 906              	.L42:
 907 0544 30000000 		.word	SD2+48
 908 0548 003C0240 		.word	1073888256
 909 054c 23016745 		.word	1164378403
 910 0550 AB89EFCD 		.word	-839939669
 911 0554 00000000 		.word	.LC0
 912 0558 00080240 		.word	1073874944
ARM GAS  /var/folders/28/j9jfyj_n4wz3qtvnym210h2c0000gn/T//ccfPNeLI.s 			page 17


 913 055c 100000C0 		.word	-1073741808
 914              	.L24:
 915              		.loc 3 211 0
 916 0560 C948     		ldr	r0, .L44
 917              		.loc 3 216 0
 918 0562 CA4F     		ldr	r7, .L44+4
 919              	.LBB17:
 920              		.loc 3 219 0
 921 0564 CA4E     		ldr	r6, .L44+8
 922              	.LVL148:
 923              	.LBE17:
 924              		.loc 3 211 0
 925 0566 6921     		movs	r1, #105
 926 0568 4FF0FF32 		mov	r2, #-1
 927 056c FFF7FEFF 		bl	chOQPutTimeout
 928              	.LVL149:
 929              		.loc 3 216 0
 930 0570 EB1C     		adds	r3, r5, #3
 931 0572 9B08     		lsrs	r3, r3, #2
 932 0574 0793     		str	r3, [sp, #28]
 933              		.loc 3 213 0
 934 0576 4FF00068 		mov	r8, #134217728
 935              		.loc 3 216 0
 936 057a 4FF00009 		mov	r9, #0
 937              	.LVL150:
 938              	.L25:
 939              		.loc 3 216 0 is_stmt 0 discriminator 1
 940 057e 079B     		ldr	r3, [sp, #28]
 941 0580 9945     		cmp	r9, r3
 942 0582 00F0F680 		beq	.L39
 943              	.LVL151:
 944              	.LBB18:
 945              		.loc 3 218 0 is_stmt 1
 946 0586 4046     		mov	r0, r8
 947 0588 57F8041F 		ldr	r1, [r7, #4]!
 948              	.LVL152:
 949 058c FFF7FEFF 		bl	flash_ProgramWord
 950              	.LVL153:
 951              		.loc 3 219 0
 952 0590 F368     		ldr	r3, [r6, #12]
 953 0592 002B     		cmp	r3, #0
 954 0594 4DD0     		beq	.L26
 955              		.loc 3 219 0 is_stmt 0 discriminator 1
 956 0596 F368     		ldr	r3, [r6, #12]
 957 0598 012B     		cmp	r3, #1
 958 059a 4AD0     		beq	.L26
 959              		.loc 3 220 0 is_stmt 1
 960 059c 7A21     		movs	r1, #122
 961 059e 4FF0FF32 		mov	r2, #-1
 962 05a2 B948     		ldr	r0, .L44
 963 05a4 FFF7FEFF 		bl	chOQPutTimeout
 964              	.LVL154:
 965              		.loc 3 221 0
 966 05a8 2021     		movs	r1, #32
 967 05aa 4FF0FF32 		mov	r2, #-1
 968 05ae B648     		ldr	r0, .L44
 969 05b0 FFF7FEFF 		bl	chOQPutTimeout
ARM GAS  /var/folders/28/j9jfyj_n4wz3qtvnym210h2c0000gn/T//ccfPNeLI.s 			page 18


 970              	.LVL155:
 971 05b4 3021     		movs	r1, #48
 972 05b6 4FF0FF32 		mov	r2, #-1
 973 05ba B348     		ldr	r0, .L44
 974 05bc FFF7FEFF 		bl	chOQPutTimeout
 975              	.LVL156:
 976 05c0 7821     		movs	r1, #120
 977 05c2 4FF0FF32 		mov	r2, #-1
 978 05c6 B048     		ldr	r0, .L44
 979 05c8 FFF7FEFF 		bl	chOQPutTimeout
 980              	.LVL157:
 981 05cc F068     		ldr	r0, [r6, #12]
 982 05ce 000F     		lsrs	r0, r0, #28
 983 05d0 FFF7FEFF 		bl	dbgPrintHexDigit
 984              	.LVL158:
 985 05d4 F068     		ldr	r0, [r6, #12]
 986 05d6 C0F30360 		ubfx	r0, r0, #24, #4
 987 05da FFF7FEFF 		bl	dbgPrintHexDigit
 988              	.LVL159:
 989 05de F068     		ldr	r0, [r6, #12]
 990 05e0 C0F30350 		ubfx	r0, r0, #20, #4
 991 05e4 FFF7FEFF 		bl	dbgPrintHexDigit
 992              	.LVL160:
 993 05e8 F068     		ldr	r0, [r6, #12]
 994 05ea C0F30340 		ubfx	r0, r0, #16, #4
 995 05ee FFF7FEFF 		bl	dbgPrintHexDigit
 996              	.LVL161:
 997 05f2 F068     		ldr	r0, [r6, #12]
 998 05f4 C0F30330 		ubfx	r0, r0, #12, #4
 999 05f8 FFF7FEFF 		bl	dbgPrintHexDigit
 1000              	.LVL162:
 1001 05fc F068     		ldr	r0, [r6, #12]
 1002 05fe C0F30320 		ubfx	r0, r0, #8, #4
 1003 0602 FFF7FEFF 		bl	dbgPrintHexDigit
 1004              	.LVL163:
 1005 0606 F068     		ldr	r0, [r6, #12]
 1006 0608 C0F30310 		ubfx	r0, r0, #4, #4
 1007 060c FFF7FEFF 		bl	dbgPrintHexDigit
 1008              	.LVL164:
 1009 0610 F068     		ldr	r0, [r6, #12]
 1010 0612 00F00F00 		and	r0, r0, #15
 1011 0616 FFF7FEFF 		bl	dbgPrintHexDigit
 1012              	.LVL165:
 1013 061a 0D21     		movs	r1, #13
 1014 061c 4FF0FF32 		mov	r2, #-1
 1015 0620 9948     		ldr	r0, .L44
 1016 0622 FFF7FEFF 		bl	chOQPutTimeout
 1017              	.LVL166:
 1018 0626 9848     		ldr	r0, .L44
 1019 0628 0A21     		movs	r1, #10
 1020 062a 4FF0FF32 		mov	r2, #-1
 1021 062e FFF7FEFF 		bl	chOQPutTimeout
 1022              	.LVL167:
 1023              	.L26:
 1024              		.loc 3 224 0
 1025 0632 C9F30B03 		ubfx	r3, r9, #0, #12
 1026 0636 002B     		cmp	r3, #0
ARM GAS  /var/folders/28/j9jfyj_n4wz3qtvnym210h2c0000gn/T//ccfPNeLI.s 			page 19


 1027 0638 40F09680 		bne	.L27
 1028 063c 0893     		str	r3, [sp, #32]
 1029              		.loc 3 225 0
 1030 063e 03F18043 		add	r3, r3, #1073741824
 1031 0642 03F50233 		add	r3, r3, #133120
 1032 0646 4022     		movs	r2, #64
 1033 0648 9A61     		str	r2, [r3, #24]
 1034              		.loc 3 226 0
 1035 064a 6420     		movs	r0, #100
 1036 064c FFF7FEFF 		bl	chThdSleep
 1037              	.LVL168:
 1038 0650 904B     		ldr	r3, .L44+12
 1039              		.loc 3 227 0
 1040 0652 8D48     		ldr	r0, .L44
 1041              		.loc 3 226 0
 1042 0654 4FF48002 		mov	r2, #4194304
 1043 0658 9A61     		str	r2, [r3, #24]
 1044              		.loc 3 227 0
 1045 065a 6A21     		movs	r1, #106
 1046 065c 4FF0FF32 		mov	r2, #-1
 1047 0660 FFF7FEFF 		bl	chOQPutTimeout
 1048              	.LVL169:
 1049              		.loc 3 228 0
 1050 0664 2021     		movs	r1, #32
 1051 0666 4FF0FF32 		mov	r2, #-1
 1052 066a 8748     		ldr	r0, .L44
 1053 066c FFF7FEFF 		bl	chOQPutTimeout
 1054              	.LVL170:
 1055 0670 3021     		movs	r1, #48
 1056 0672 4FF0FF32 		mov	r2, #-1
 1057 0676 8448     		ldr	r0, .L44
 1058 0678 FFF7FEFF 		bl	chOQPutTimeout
 1059              	.LVL171:
 1060 067c 7821     		movs	r1, #120
 1061 067e 4FF0FF32 		mov	r2, #-1
 1062 0682 8148     		ldr	r0, .L44
 1063 0684 FFF7FEFF 		bl	chOQPutTimeout
 1064              	.LVL172:
 1065 0688 089B     		ldr	r3, [sp, #32]
 1066 068a 1846     		mov	r0, r3
 1067 068c FFF7FEFF 		bl	dbgPrintHexDigit
 1068              	.LVL173:
 1069 0690 0820     		movs	r0, #8
 1070 0692 FFF7FEFF 		bl	dbgPrintHexDigit
 1071              	.LVL174:
 1072 0696 C8F30350 		ubfx	r0, r8, #20, #4
 1073 069a FFF7FEFF 		bl	dbgPrintHexDigit
 1074              	.LVL175:
 1075 069e C8F30340 		ubfx	r0, r8, #16, #4
 1076 06a2 FFF7FEFF 		bl	dbgPrintHexDigit
 1077              	.LVL176:
 1078 06a6 C8F30330 		ubfx	r0, r8, #12, #4
 1079 06aa FFF7FEFF 		bl	dbgPrintHexDigit
 1080              	.LVL177:
 1081 06ae C8F30320 		ubfx	r0, r8, #8, #4
 1082 06b2 FFF7FEFF 		bl	dbgPrintHexDigit
 1083              	.LVL178:
ARM GAS  /var/folders/28/j9jfyj_n4wz3qtvnym210h2c0000gn/T//ccfPNeLI.s 			page 20


 1084 06b6 C8F30310 		ubfx	r0, r8, #4, #4
 1085 06ba FFF7FEFF 		bl	dbgPrintHexDigit
 1086              	.LVL179:
 1087 06be 08F00F00 		and	r0, r8, #15
 1088 06c2 FFF7FEFF 		bl	dbgPrintHexDigit
 1089              	.LVL180:
 1090 06c6 0D21     		movs	r1, #13
 1091 06c8 4FF0FF32 		mov	r2, #-1
 1092 06cc 6E48     		ldr	r0, .L44
 1093 06ce FFF7FEFF 		bl	chOQPutTimeout
 1094              	.LVL181:
 1095 06d2 0A21     		movs	r1, #10
 1096 06d4 4FF0FF32 		mov	r2, #-1
 1097 06d8 6B48     		ldr	r0, .L44
 1098 06da FFF7FEFF 		bl	chOQPutTimeout
 1099              	.LVL182:
 1100              		.loc 3 229 0
 1101 06de 2021     		movs	r1, #32
 1102 06e0 4FF0FF32 		mov	r2, #-1
 1103 06e4 6848     		ldr	r0, .L44
 1104 06e6 FFF7FEFF 		bl	chOQPutTimeout
 1105              	.LVL183:
 1106 06ea 3021     		movs	r1, #48
 1107 06ec 4FF0FF32 		mov	r2, #-1
 1108 06f0 6548     		ldr	r0, .L44
 1109 06f2 FFF7FEFF 		bl	chOQPutTimeout
 1110              	.LVL184:
 1111 06f6 7821     		movs	r1, #120
 1112 06f8 4FF0FF32 		mov	r2, #-1
 1113 06fc 6248     		ldr	r0, .L44
 1114 06fe FFF7FEFF 		bl	chOQPutTimeout
 1115              	.LVL185:
 1116 0702 3868     		ldr	r0, [r7]
 1117 0704 000F     		lsrs	r0, r0, #28
 1118 0706 FFF7FEFF 		bl	dbgPrintHexDigit
 1119              	.LVL186:
 1120 070a F878     		ldrb	r0, [r7, #3]	@ zero_extendqisi2
 1121 070c 00F00F00 		and	r0, r0, #15
 1122 0710 FFF7FEFF 		bl	dbgPrintHexDigit
 1123              	.LVL187:
 1124 0714 3868     		ldr	r0, [r7]
 1125 0716 C0F30350 		ubfx	r0, r0, #20, #4
 1126 071a FFF7FEFF 		bl	dbgPrintHexDigit
 1127              	.LVL188:
 1128 071e 7888     		ldrh	r0, [r7, #2]
 1129 0720 00F00F00 		and	r0, r0, #15
 1130 0724 FFF7FEFF 		bl	dbgPrintHexDigit
 1131              	.LVL189:
 1132 0728 3868     		ldr	r0, [r7]
 1133 072a C0F30330 		ubfx	r0, r0, #12, #4
 1134 072e FFF7FEFF 		bl	dbgPrintHexDigit
 1135              	.LVL190:
 1136 0732 3868     		ldr	r0, [r7]
 1137 0734 C0F30320 		ubfx	r0, r0, #8, #4
 1138 0738 FFF7FEFF 		bl	dbgPrintHexDigit
 1139              	.LVL191:
 1140 073c 3868     		ldr	r0, [r7]
ARM GAS  /var/folders/28/j9jfyj_n4wz3qtvnym210h2c0000gn/T//ccfPNeLI.s 			page 21


 1141 073e C0F30310 		ubfx	r0, r0, #4, #4
 1142 0742 FFF7FEFF 		bl	dbgPrintHexDigit
 1143              	.LVL192:
 1144 0746 3868     		ldr	r0, [r7]
 1145 0748 00F00F00 		and	r0, r0, #15
 1146 074c FFF7FEFF 		bl	dbgPrintHexDigit
 1147              	.LVL193:
 1148 0750 0D21     		movs	r1, #13
 1149 0752 4FF0FF32 		mov	r2, #-1
 1150 0756 4C48     		ldr	r0, .L44
 1151 0758 FFF7FEFF 		bl	chOQPutTimeout
 1152              	.LVL194:
 1153 075c 4A48     		ldr	r0, .L44
 1154 075e 0A21     		movs	r1, #10
 1155 0760 4FF0FF32 		mov	r2, #-1
 1156 0764 FFF7FEFF 		bl	chOQPutTimeout
 1157              	.LVL195:
 1158              	.L27:
 1159              		.loc 3 231 0 discriminator 2
 1160 0768 08F10408 		add	r8, r8, #4
 1161              	.LVL196:
 1162              	.LBE18:
 1163              		.loc 3 216 0 discriminator 2
 1164 076c 09F10109 		add	r9, r9, #1
 1165              	.LVL197:
 1166 0770 05E7     		b	.L25
 1167              	.L39:
 1168              		.loc 3 235 0
 1169 0772 4FF0FF32 		mov	r2, #-1
 1170 0776 6B21     		movs	r1, #107
 1171 0778 4348     		ldr	r0, .L44
 1172 077a FFF7FEFF 		bl	chOQPutTimeout
 1173              	.LVL198:
 1174              		.loc 3 237 0
 1175 077e 2946     		mov	r1, r5
 1176 0780 4FF00060 		mov	r0, #134217728
 1177 0784 FFF7FEFF 		bl	CalcCRC32
 1178              	.LVL199:
 1179              		.loc 3 239 0
 1180 0788 6C21     		movs	r1, #108
 1181              		.loc 3 237 0
 1182 078a 0546     		mov	r5, r0
 1183              	.LVL200:
 1184              		.loc 3 239 0
 1185 078c 4FF0FF32 		mov	r2, #-1
 1186 0790 3D48     		ldr	r0, .L44
 1187              	.LVL201:
 1188 0792 FFF7FEFF 		bl	chOQPutTimeout
 1189              	.LVL202:
 1190              		.loc 3 241 0
 1191 0796 2021     		movs	r1, #32
 1192 0798 4FF0FF32 		mov	r2, #-1
 1193 079c 3A48     		ldr	r0, .L44
 1194 079e FFF7FEFF 		bl	chOQPutTimeout
 1195              	.LVL203:
 1196 07a2 3021     		movs	r1, #48
 1197 07a4 4FF0FF32 		mov	r2, #-1
ARM GAS  /var/folders/28/j9jfyj_n4wz3qtvnym210h2c0000gn/T//ccfPNeLI.s 			page 22


 1198 07a8 3748     		ldr	r0, .L44
 1199 07aa FFF7FEFF 		bl	chOQPutTimeout
 1200              	.LVL204:
 1201 07ae 7821     		movs	r1, #120
 1202 07b0 4FF0FF32 		mov	r2, #-1
 1203 07b4 3448     		ldr	r0, .L44
 1204 07b6 FFF7FEFF 		bl	chOQPutTimeout
 1205              	.LVL205:
 1206 07ba 280F     		lsrs	r0, r5, #28
 1207 07bc FFF7FEFF 		bl	dbgPrintHexDigit
 1208              	.LVL206:
 1209 07c0 C5F30360 		ubfx	r0, r5, #24, #4
 1210 07c4 FFF7FEFF 		bl	dbgPrintHexDigit
 1211              	.LVL207:
 1212 07c8 C5F30350 		ubfx	r0, r5, #20, #4
 1213 07cc FFF7FEFF 		bl	dbgPrintHexDigit
 1214              	.LVL208:
 1215 07d0 C5F30340 		ubfx	r0, r5, #16, #4
 1216 07d4 FFF7FEFF 		bl	dbgPrintHexDigit
 1217              	.LVL209:
 1218 07d8 C5F30330 		ubfx	r0, r5, #12, #4
 1219 07dc FFF7FEFF 		bl	dbgPrintHexDigit
 1220              	.LVL210:
 1221 07e0 C5F30320 		ubfx	r0, r5, #8, #4
 1222 07e4 FFF7FEFF 		bl	dbgPrintHexDigit
 1223              	.LVL211:
 1224 07e8 C5F30310 		ubfx	r0, r5, #4, #4
 1225 07ec FFF7FEFF 		bl	dbgPrintHexDigit
 1226              	.LVL212:
 1227 07f0 05F00F00 		and	r0, r5, #15
 1228 07f4 FFF7FEFF 		bl	dbgPrintHexDigit
 1229              	.LVL213:
 1230 07f8 0D21     		movs	r1, #13
 1231 07fa 4FF0FF32 		mov	r2, #-1
 1232 07fe 2248     		ldr	r0, .L44
 1233 0800 FFF7FEFF 		bl	chOQPutTimeout
 1234              	.LVL214:
 1235 0804 0A21     		movs	r1, #10
 1236 0806 4FF0FF32 		mov	r2, #-1
 1237 080a 1F48     		ldr	r0, .L44
 1238 080c FFF7FEFF 		bl	chOQPutTimeout
 1239              	.LVL215:
 1240              		.loc 3 242 0
 1241 0810 2021     		movs	r1, #32
 1242 0812 4FF0FF32 		mov	r2, #-1
 1243 0816 1C48     		ldr	r0, .L44
 1244 0818 FFF7FEFF 		bl	chOQPutTimeout
 1245              	.LVL216:
 1246 081c 3021     		movs	r1, #48
 1247 081e 4FF0FF32 		mov	r2, #-1
 1248 0822 1948     		ldr	r0, .L44
 1249 0824 FFF7FEFF 		bl	chOQPutTimeout
 1250              	.LVL217:
 1251 0828 7821     		movs	r1, #120
 1252 082a 4FF0FF32 		mov	r2, #-1
 1253 082e 1648     		ldr	r0, .L44
 1254 0830 FFF7FEFF 		bl	chOQPutTimeout
ARM GAS  /var/folders/28/j9jfyj_n4wz3qtvnym210h2c0000gn/T//ccfPNeLI.s 			page 23


 1255              	.LVL218:
 1256 0834 5846     		mov	r0, fp
 1257 0836 FFF7FEFF 		bl	dbgPrintHexDigit
 1258              	.LVL219:
 1259 083a 5046     		mov	r0, r10
 1260 083c FFF7FEFF 		bl	dbgPrintHexDigit
 1261              	.LVL220:
 1262 0840 0198     		ldr	r0, [sp, #4]
 1263 0842 FFF7FEFF 		bl	dbgPrintHexDigit
 1264              	.LVL221:
 1265 0846 0298     		ldr	r0, [sp, #8]
 1266 0848 FFF7FEFF 		bl	dbgPrintHexDigit
 1267              	.LVL222:
 1268 084c 0398     		ldr	r0, [sp, #12]
 1269 084e FFF7FEFF 		bl	dbgPrintHexDigit
 1270              	.LVL223:
 1271 0852 0498     		ldr	r0, [sp, #16]
 1272 0854 FFF7FEFF 		bl	dbgPrintHexDigit
 1273              	.LVL224:
 1274 0858 0598     		ldr	r0, [sp, #20]
 1275 085a FFF7FEFF 		bl	dbgPrintHexDigit
 1276              	.LVL225:
 1277 085e 0698     		ldr	r0, [sp, #24]
 1278 0860 FFF7FEFF 		bl	dbgPrintHexDigit
 1279              	.LVL226:
 1280 0864 0D21     		movs	r1, #13
 1281 0866 4FF0FF32 		mov	r2, #-1
 1282 086a 0748     		ldr	r0, .L44
 1283 086c FFF7FEFF 		bl	chOQPutTimeout
 1284              	.LVL227:
 1285 0870 0548     		ldr	r0, .L44
 1286 0872 0A21     		movs	r1, #10
 1287 0874 4FF0FF32 		mov	r2, #-1
 1288 0878 FFF7FEFF 		bl	chOQPutTimeout
 1289              	.LVL228:
 1290              		.loc 3 244 0
 1291 087c AC42     		cmp	r4, r5
 1292 087e 0BD0     		beq	.L29
 1293              		.loc 3 245 0
 1294 0880 0520     		movs	r0, #5
 1295 0882 FFF7FEFF 		bl	DispayAbortErr
 1296              	.LVL229:
 1297              	.L45:
 1298 0886 00BF     		.align	2
 1299              	.L44:
 1300 0888 30000000 		.word	SD2+48
 1301 088c 0C0000C0 		.word	-1073741812
 1302 0890 003C0240 		.word	1073888256
 1303 0894 00080240 		.word	1073874944
 1304              	.L29:
 1305              		.loc 3 248 0
 1306 0898 0D21     		movs	r1, #13
 1307 089a 4FF0FF32 		mov	r2, #-1
 1308 089e 2248     		ldr	r0, .L46
 1309 08a0 FFF7FEFF 		bl	chOQPutTimeout
 1310              	.LVL230:
 1311              		.loc 3 249 0
ARM GAS  /var/folders/28/j9jfyj_n4wz3qtvnym210h2c0000gn/T//ccfPNeLI.s 			page 24


 1312 08a4 0A21     		movs	r1, #10
 1313 08a6 4FF0FF32 		mov	r2, #-1
 1314 08aa 1F48     		ldr	r0, .L46
 1315 08ac FFF7FEFF 		bl	chOQPutTimeout
 1316              	.LVL231:
 1317              		.loc 3 250 0
 1318 08b0 5321     		movs	r1, #83
 1319 08b2 4FF0FF32 		mov	r2, #-1
 1320 08b6 1C48     		ldr	r0, .L46
 1321 08b8 FFF7FEFF 		bl	chOQPutTimeout
 1322              	.LVL232:
 1323              		.loc 3 251 0
 1324 08bc 5521     		movs	r1, #85
 1325 08be 4FF0FF32 		mov	r2, #-1
 1326 08c2 1948     		ldr	r0, .L46
 1327 08c4 FFF7FEFF 		bl	chOQPutTimeout
 1328              	.LVL233:
 1329              		.loc 3 252 0
 1330 08c8 4321     		movs	r1, #67
 1331 08ca 4FF0FF32 		mov	r2, #-1
 1332 08ce 1648     		ldr	r0, .L46
 1333 08d0 FFF7FEFF 		bl	chOQPutTimeout
 1334              	.LVL234:
 1335              		.loc 3 253 0
 1336 08d4 4321     		movs	r1, #67
 1337 08d6 4FF0FF32 		mov	r2, #-1
 1338 08da 1348     		ldr	r0, .L46
 1339 08dc FFF7FEFF 		bl	chOQPutTimeout
 1340              	.LVL235:
 1341              		.loc 3 254 0
 1342 08e0 4521     		movs	r1, #69
 1343 08e2 4FF0FF32 		mov	r2, #-1
 1344 08e6 1048     		ldr	r0, .L46
 1345 08e8 FFF7FEFF 		bl	chOQPutTimeout
 1346              	.LVL236:
 1347              		.loc 3 255 0
 1348 08ec 5321     		movs	r1, #83
 1349 08ee 4FF0FF32 		mov	r2, #-1
 1350 08f2 0D48     		ldr	r0, .L46
 1351 08f4 FFF7FEFF 		bl	chOQPutTimeout
 1352              	.LVL237:
 1353              		.loc 3 256 0
 1354 08f8 5321     		movs	r1, #83
 1355 08fa 4FF0FF32 		mov	r2, #-1
 1356 08fe 0A48     		ldr	r0, .L46
 1357 0900 FFF7FEFF 		bl	chOQPutTimeout
 1358              	.LVL238:
 1359              		.loc 3 257 0
 1360 0904 0D21     		movs	r1, #13
 1361 0906 4FF0FF32 		mov	r2, #-1
 1362 090a 0748     		ldr	r0, .L46
 1363 090c FFF7FEFF 		bl	chOQPutTimeout
 1364              	.LVL239:
 1365              		.loc 3 258 0
 1366 0910 0A21     		movs	r1, #10
 1367 0912 4FF0FF32 		mov	r2, #-1
 1368 0916 0448     		ldr	r0, .L46
ARM GAS  /var/folders/28/j9jfyj_n4wz3qtvnym210h2c0000gn/T//ccfPNeLI.s 			page 25


 1369 0918 FFF7FEFF 		bl	chOQPutTimeout
 1370              	.LVL240:
 1371              		.loc 3 260 0
 1372 091c 4FF47A70 		mov	r0, #1000
 1373 0920 FFF7FEFF 		bl	chThdSleep
 1374              	.LVL241:
 1375              		.loc 3 261 0
 1376 0924 FFF7FEFF 		bl	NVIC_SystemReset
 1377              	.LVL242:
 1378              	.L47:
 1379              		.align	2
 1380              	.L46:
 1381 0928 30000000 		.word	SD2+48
 1382              		.cfi_endproc
 1383              	.LFE122:
 1384              		.size	main, .-main
 1385              		.global	EncBuffer
 1386              		.global	Btn_Nav_And
 1387              		.global	Btn_Nav_Or
 1388              		.global	Btn_Nav_PrevStates
 1389              		.global	Btn_Nav_CurStates
 1390              		.section	.bss.Btn_Nav_CurStates,"aw",%nobits
 1391              		.align	2
 1392              		.type	Btn_Nav_CurStates, %object
 1393              		.size	Btn_Nav_CurStates, 4
 1394              	Btn_Nav_CurStates:
 1395 0000 00000000 		.space	4
 1396              		.section	.rodata.sd2Cfg.7087,"a",%progbits
 1397              		.align	2
 1398              		.set	.LANCHOR0,. + 0
 1399              		.type	sd2Cfg.7087, %object
 1400              		.size	sd2Cfg.7087, 12
 1401              	sd2Cfg.7087:
 1402 0000 00C20100 		.word	115200
 1403 0004 0000     		.short	0
 1404 0006 0000     		.short	0
 1405 0008 0000     		.short	0
 1406 000a 0000     		.space	2
 1407              		.section	.bss.Btn_Nav_PrevStates,"aw",%nobits
 1408              		.align	2
 1409              		.type	Btn_Nav_PrevStates, %object
 1410              		.size	Btn_Nav_PrevStates, 4
 1411              	Btn_Nav_PrevStates:
 1412 0000 00000000 		.space	4
 1413              		.section	.rodata.str1.4,"aMS",%progbits,1
 1414              		.align	2
 1415              	.LC0:
 1416 0000 45726173 		.ascii	"Erased sector\000"
 1416      65642073 
 1416      6563746F 
 1416      7200
 1417              		.section	.bss.Btn_Nav_Or,"aw",%nobits
 1418              		.align	2
 1419              		.type	Btn_Nav_Or, %object
 1420              		.size	Btn_Nav_Or, 4
 1421              	Btn_Nav_Or:
 1422 0000 00000000 		.space	4
ARM GAS  /var/folders/28/j9jfyj_n4wz3qtvnym210h2c0000gn/T//ccfPNeLI.s 			page 26


 1423              		.section	.bss.Btn_Nav_And,"aw",%nobits
 1424              		.align	2
 1425              		.type	Btn_Nav_And, %object
 1426              		.size	Btn_Nav_And, 4
 1427              	Btn_Nav_And:
 1428 0000 00000000 		.space	4
 1429              		.section	.bss.EncBuffer,"aw",%nobits
 1430              		.align	2
 1431              		.type	EncBuffer, %object
 1432              		.size	EncBuffer, 4
 1433              	EncBuffer:
 1434 0000 00000000 		.space	4
 1435              		.text
 1436              	.Letext0:
 1437              		.file 4 "/Applications/axoloti_runtime/platform_osx/lib/gcc/arm-none-eabi/4.9.3/include/stddef.h"
 1438              		.file 5 "/Applications/axoloti_runtime/platform_osx/arm-none-eabi/include/machine/_default_types.h
 1439              		.file 6 "/Applications/axoloti_runtime/platform_osx/arm-none-eabi/include/sys/_stdint.h"
 1440              		.file 7 "/Applications/Axoloti.app/Contents/Java/chibios/os/ports/GCC/ARMCMx/chtypes.h"
 1441              		.file 8 "/Applications/Axoloti.app/Contents/Java/chibios/os/kernel/include/chlists.h"
 1442              		.file 9 "/Applications/Axoloti.app/Contents/Java/chibios/os/kernel/include/chthreads.h"
 1443              		.file 10 "/Applications/Axoloti.app/Contents/Java/chibios/os/ports/GCC/ARMCMx/chcore_v7m.h"
 1444              		.file 11 "/Applications/Axoloti.app/Contents/Java/chibios/os/kernel/include/chmtx.h"
 1445              		.file 12 "/Applications/Axoloti.app/Contents/Java/chibios/os/kernel/include/chevents.h"
 1446              		.file 13 "/Applications/Axoloti.app/Contents/Java/chibios/os/kernel/include/chqueues.h"
 1447              		.file 14 "/Applications/Axoloti.app/Contents/Java/chibios/os/hal/platforms/STM32F4xx/stm32f4xx.h"
 1448              		.file 15 "/Applications/Axoloti.app/Contents/Java/chibios/os/hal/platforms/STM32/GPIOv2/pal_lld.h"
 1449              		.file 16 "/Applications/Axoloti.app/Contents/Java/chibios/os/hal/include/serial.h"
 1450              		.file 17 "/Applications/Axoloti.app/Contents/Java/chibios/os/hal/platforms/STM32/USARTv1/serial_ll
 1451              		.file 18 "../ui.h"
 1452              		.file 19 "../flash.h"
 1453              		.file 20 "../exceptions.h"
 1454              		.file 21 "/Applications/Axoloti.app/Contents/Java/chibios/os/hal/include/hal.h"
 1455              		.file 22 "/Applications/Axoloti.app/Contents/Java/chibios/os/kernel/include/chsys.h"
 1456              		.file 23 "../sdram.h"
 1457              		.file 24 "../crc32.h"
 1458              		.file 25 "../axoloti_control.h"