ARM GAS  /var/folders/28/j9jfyj_n4wz3qtvnym210h2c0000gn/T//ccfP1iQY.s 			page 1


   1              		.syntax unified
   2              		.cpu cortex-m4
   3              		.eabi_attribute 27, 1
   4              		.eabi_attribute 28, 1
   5              		.fpu fpv4-sp-d16
   6              		.eabi_attribute 20, 1
   7              		.eabi_attribute 21, 1
   8              		.eabi_attribute 23, 3
   9              		.eabi_attribute 24, 1
  10              		.eabi_attribute 25, 1
  11              		.eabi_attribute 26, 1
  12              		.eabi_attribute 30, 2
  13              		.eabi_attribute 34, 1
  14              		.eabi_attribute 18, 4
  15              		.thumb
  16              		.file	"sdram.c"
  17              		.text
  18              	.Ltext0:
  19              		.cfi_sections	.debug_frame
  20              		.section	.text.test.6957,"ax",%progbits
  21              		.align	2
  22              		.p2align 4
  23              		.thumb
  24              		.thumb_func
  25              		.type	test.6957, %function
  26              	test.6957:
  27              	.LFB122:
  28              		.file 1 "../sdram.c"
  29              		.loc 1 327 0
  30              		.cfi_startproc
  31              		@ args = 0, pretend = 0, frame = 24
  32              		@ frame_needed = 1, uses_anonymous_args = 0
  33              		@ link register save eliminated.
  34 0000 80B4     		push	{r7}
  35              		.cfi_def_cfa_offset 4
  36              		.cfi_offset 7, -4
  37 0002 87B0     		sub	sp, sp, #28
  38              		.cfi_def_cfa_offset 32
  39 0004 00AF     		add	r7, sp, #0
  40              		.cfi_def_cfa_register 7
  41              		.loc 1 328 0
  42 0006 0A4B     		ldr	r3, .L2
  43 0008 1B68     		ldr	r3, [r3]
  44 000a 7B61     		str	r3, [r7, #20]
  45              	.LVL0:
  46              		.loc 1 329 0
  47 000c 084B     		ldr	r3, .L2
  48              	.LVL1:
  49 000e 5B68     		ldr	r3, [r3, #4]
  50 0010 3B61     		str	r3, [r7, #16]
  51              	.LVL2:
  52              		.loc 1 330 0
  53 0012 074B     		ldr	r3, .L2
  54              	.LVL3:
  55 0014 9B68     		ldr	r3, [r3, #8]
  56 0016 FB60     		str	r3, [r7, #12]
  57              	.LVL4:
ARM GAS  /var/folders/28/j9jfyj_n4wz3qtvnym210h2c0000gn/T//ccfP1iQY.s 			page 2


  58              		.loc 1 331 0
  59 0018 054B     		ldr	r3, .L2
  60              	.LVL5:
  61 001a DB68     		ldr	r3, [r3, #12]
  62 001c BB60     		str	r3, [r7, #8]
  63              	.LVL6:
  64              		.loc 1 332 0
  65 001e 044B     		ldr	r3, .L2
  66              	.LVL7:
  67 0020 5B6A     		ldr	r3, [r3, #36]
  68 0022 7B60     		str	r3, [r7, #4]
  69              	.LVL8:
  70              		.loc 1 333 0
  71 0024 1C37     		adds	r7, r7, #28
  72              		.cfi_def_cfa_offset 4
  73 0026 BD46     		mov	sp, r7
  74              		.cfi_def_cfa_register 13
  75              	.LVL9:
  76              		@ sp needed
  77 0028 5DF8047B 		ldr	r7, [sp], #4
  78              		.cfi_restore 7
  79              		.cfi_def_cfa_offset 0
  80 002c 7047     		bx	lr
  81              	.L3:
  82 002e 00BF     		.align	2
  83              	.L2:
  84 0030 00180240 		.word	1073879040
  85              		.cfi_endproc
  86              	.LFE122:
  87              		.size	test.6957, .-test.6957
  88              		.section	.text.memTest,"ax",%progbits
  89              		.align	2
  90              		.p2align 4,,15
  91              		.global	memTest
  92              		.thumb
  93              		.thumb_func
  94              		.type	memTest, %function
  95              	memTest:
  96              	.LFB120:
  97              		.loc 1 164 0
  98              		.cfi_startproc
  99              		@ args = 0, pretend = 0, frame = 16
 100              		@ frame_needed = 0, uses_anonymous_args = 0
 101              	.LVL10:
 102 0000 10B5     		push	{r4, lr}
 103              		.cfi_def_cfa_offset 8
 104              		.cfi_offset 4, -8
 105              		.cfi_offset 14, -4
 106 0002 84B0     		sub	sp, sp, #16
 107              		.cfi_def_cfa_offset 24
 108              		.loc 1 174 0
 109 0004 0023     		movs	r3, #0
 110              		.loc 1 175 0
 111 0006 1022     		movs	r2, #16
 112              		.loc 1 174 0
 113 0008 0193     		str	r3, [sp, #4]
 114              		.loc 1 175 0
ARM GAS  /var/folders/28/j9jfyj_n4wz3qtvnym210h2c0000gn/T//ccfP1iQY.s 			page 3


 115 000a 0292     		str	r2, [sp, #8]
 116              		.loc 1 176 0
 117 000c 0392     		str	r2, [sp, #12]
 118              	.LVL11:
 119              		.loc 1 184 0
 120 000e 0193     		str	r3, [sp, #4]
 121 0010 019B     		ldr	r3, [sp, #4]
 122 0012 029A     		ldr	r2, [sp, #8]
 123 0014 9A42     		cmp	r2, r3
 124 0016 28DD     		ble	.L12
 125              	.LBB2:
 126              		.loc 1 188 0
 127 0018 3049     		ldr	r1, .L29
 128              	.LVL12:
 129              	.L18:
 130              		.loc 1 185 0
 131 001a 019B     		ldr	r3, [sp, #4]
 132              	.LVL13:
 133 001c 4FF04042 		mov	r2, #-1073741824
 134              	.LVL14:
 135              	.L8:
 136              		.loc 1 188 0 discriminator 3
 137 0020 01FB03F3 		mul	r3, r1, r3
 138              	.LVL15:
 139 0024 0133     		adds	r3, r3, #1
 140              	.LVL16:
 141              		.loc 1 190 0 discriminator 3
 142 0026 42F8043B 		str	r3, [r2], #4
 143              		.loc 1 187 0 discriminator 3
 144 002a 12F17E5F 		cmn	r2, #1065353216
 145 002e F7D1     		bne	.L8
 146              		.loc 1 193 0
 147 0030 0198     		ldr	r0, [sp, #4]
 148              	.LVL17:
 149 0032 4FF04043 		mov	r3, #-1073741824
 150 0036 02E0     		b	.L11
 151              	.LVL18:
 152              	.L9:
 153              		.loc 1 194 0 discriminator 2
 154 0038 13F17E5F 		cmn	r3, #1065353216
 155 003c 0ED0     		beq	.L27
 156              	.LVL19:
 157              	.L11:
 158              		.loc 1 195 0
 159 003e 01FB00F2 		mul	r2, r1, r0
 160              	.LVL20:
 161              		.loc 1 196 0
 162 0042 1868     		ldr	r0, [r3]
 163              	.LVL21:
 164              		.loc 1 195 0
 165 0044 0132     		adds	r2, r2, #1
 166              		.loc 1 197 0
 167 0046 9042     		cmp	r0, r2
 168 0048 03F10403 		add	r3, r3, #4
 169 004c F4D0     		beq	.L9
 170              		.loc 1 198 0
 171 004e 0520     		movs	r0, #5
ARM GAS  /var/folders/28/j9jfyj_n4wz3qtvnym210h2c0000gn/T//ccfP1iQY.s 			page 4


 172              	.LVL22:
 173 0050 FFF7FEFF 		bl	setErrorFlag
 174              	.LVL23:
 175              	.L10:
 176              		.loc 1 200 0 discriminator 1
 177 0054 6420     		movs	r0, #100
 178 0056 FFF7FEFF 		bl	chThdSleep
 179              	.LVL24:
 180              		.loc 1 201 0 discriminator 1
 181 005a FBE7     		b	.L10
 182              	.LVL25:
 183              	.L27:
 184              	.LBE2:
 185              		.loc 1 184 0 discriminator 2
 186 005c 019B     		ldr	r3, [sp, #4]
 187 005e 0133     		adds	r3, r3, #1
 188 0060 0193     		str	r3, [sp, #4]
 189 0062 019A     		ldr	r2, [sp, #4]
 190 0064 029B     		ldr	r3, [sp, #8]
 191 0066 9A42     		cmp	r2, r3
 192 0068 D7DB     		blt	.L18
 193              	.LVL26:
 194              	.L12:
 195              		.loc 1 214 0
 196 006a 0023     		movs	r3, #0
 197 006c 0193     		str	r3, [sp, #4]
 198 006e 019B     		ldr	r3, [sp, #4]
 199 0070 039A     		ldr	r2, [sp, #12]
 200 0072 9A42     		cmp	r2, r3
 201 0074 30DD     		ble	.L4
 202              	.LBB3:
 203              		.loc 1 218 0
 204 0076 194C     		ldr	r4, .L29
 205              	.L17:
 206              		.loc 1 215 0
 207 0078 019B     		ldr	r3, [sp, #4]
 208              	.LVL27:
 209              		.loc 1 217 0
 210 007a 0022     		movs	r2, #0
 211              	.LVL28:
 212              	.L13:
 213              		.loc 1 218 0 discriminator 3
 214 007c 04FB03F3 		mul	r3, r4, r3
 215              	.LVL29:
 216 0080 0133     		adds	r3, r3, #1
 217              	.LVL30:
 218              		.loc 1 219 0 discriminator 3
 219 0082 C3F31601 		ubfx	r1, r3, #0, #23
 220 0086 D0B2     		uxtb	r0, r2
 221 0088 01F14041 		add	r1, r1, #-1073741824
 222              		.loc 1 217 0 discriminator 3
 223 008c 0132     		adds	r2, r2, #1
 224              	.LVL31:
 225 008e B2F5801F 		cmp	r2, #1048576
 226              		.loc 1 219 0 discriminator 3
 227 0092 0870     		strb	r0, [r1]
 228              		.loc 1 217 0 discriminator 3
ARM GAS  /var/folders/28/j9jfyj_n4wz3qtvnym210h2c0000gn/T//ccfP1iQY.s 			page 5


 229 0094 F2D1     		bne	.L13
 230              		.loc 1 222 0
 231 0096 019B     		ldr	r3, [sp, #4]
 232              	.LVL32:
 233              		.loc 1 223 0
 234 0098 0022     		movs	r2, #0
 235 009a 02E0     		b	.L16
 236              	.LVL33:
 237              	.L14:
 238              		.loc 1 223 0 is_stmt 0 discriminator 2
 239 009c B2F5801F 		cmp	r2, #1048576
 240 00a0 13D0     		beq	.L28
 241              	.LVL34:
 242              	.L16:
 243              		.loc 1 224 0 is_stmt 1
 244 00a2 04FB03F3 		mul	r3, r4, r3
 245              	.LVL35:
 246 00a6 0133     		adds	r3, r3, #1
 247              	.LVL36:
 248              		.loc 1 225 0
 249 00a8 C3F31600 		ubfx	r0, r3, #0, #23
 250 00ac 00F14040 		add	r0, r0, #-1073741824
 251 00b0 D1B2     		uxtb	r1, r2
 252 00b2 0078     		ldrb	r0, [r0]	@ zero_extendqisi2
 253 00b4 8842     		cmp	r0, r1
 254 00b6 02F10102 		add	r2, r2, #1
 255              	.LVL37:
 256 00ba EFD0     		beq	.L14
 257              		.loc 1 226 0
 258 00bc 0520     		movs	r0, #5
 259 00be FFF7FEFF 		bl	setErrorFlag
 260              	.LVL38:
 261              	.L15:
 262              		.loc 1 228 0 discriminator 1
 263 00c2 6420     		movs	r0, #100
 264 00c4 FFF7FEFF 		bl	chThdSleep
 265              	.LVL39:
 266              		.loc 1 229 0 discriminator 1
 267 00c8 FBE7     		b	.L15
 268              	.LVL40:
 269              	.L28:
 270              	.LBE3:
 271              		.loc 1 214 0 discriminator 2
 272 00ca 019B     		ldr	r3, [sp, #4]
 273              	.LVL41:
 274 00cc 0133     		adds	r3, r3, #1
 275 00ce 0193     		str	r3, [sp, #4]
 276 00d0 019A     		ldr	r2, [sp, #4]
 277              	.LVL42:
 278 00d2 039B     		ldr	r3, [sp, #12]
 279 00d4 9A42     		cmp	r2, r3
 280 00d6 CFDB     		blt	.L17
 281              	.L4:
 282              		.loc 1 234 0
 283 00d8 04B0     		add	sp, sp, #16
 284              		.cfi_def_cfa_offset 8
 285              		@ sp needed
ARM GAS  /var/folders/28/j9jfyj_n4wz3qtvnym210h2c0000gn/T//ccfP1iQY.s 			page 6


 286 00da 10BD     		pop	{r4, pc}
 287              	.L30:
 288              		.align	2
 289              	.L29:
 290 00dc 354E5A01 		.word	22695477
 291              		.cfi_endproc
 292              	.LFE120:
 293              		.size	memTest, .-memTest
 294              		.section	.text.SDRAM_InitSequence,"ax",%progbits
 295              		.align	2
 296              		.p2align 4,,15
 297              		.global	SDRAM_InitSequence
 298              		.thumb
 299              		.thumb_func
 300              		.type	SDRAM_InitSequence, %function
 301              	SDRAM_InitSequence:
 302              	.LFB121:
 303              		.loc 1 241 0
 304              		.cfi_startproc
 305              		@ args = 0, pretend = 0, frame = 16
 306              		@ frame_needed = 0, uses_anonymous_args = 0
 307              	.LVL43:
 308 0000 10B5     		push	{r4, lr}
 309              		.cfi_def_cfa_offset 8
 310              		.cfi_offset 4, -8
 311              		.cfi_offset 14, -4
 312 0002 84B0     		sub	sp, sp, #16
 313              		.cfi_def_cfa_offset 24
 314              		.loc 1 247 0
 315 0004 0123     		movs	r3, #1
 316              		.loc 1 248 0
 317 0006 1021     		movs	r1, #16
 318              		.loc 1 250 0
 319 0008 0022     		movs	r2, #0
 320              		.loc 1 247 0
 321 000a 0093     		str	r3, [sp]
 322              		.loc 1 249 0
 323 000c 0293     		str	r3, [sp, #8]
 324              		.loc 1 248 0
 325 000e 0191     		str	r1, [sp, #4]
 326              		.loc 1 250 0
 327 0010 0392     		str	r2, [sp, #12]
 328              	.L32:
 329              		.loc 1 252 0 discriminator 1
 330 0012 0020     		movs	r0, #0
 331 0014 2021     		movs	r1, #32
 332 0016 FFF7FEFF 		bl	FMC_GetFlagStatus
 333              	.LVL44:
 334 001a 0446     		mov	r4, r0
 335 001c 0028     		cmp	r0, #0
 336 001e F8D1     		bne	.L32
 337              		.loc 1 255 0
 338 0020 6846     		mov	r0, sp
 339 0022 FFF7FEFF 		bl	FMC_SDRAMCmdConfig
 340              	.LVL45:
 341              		.loc 1 263 0
 342 0026 6420     		movs	r0, #100
ARM GAS  /var/folders/28/j9jfyj_n4wz3qtvnym210h2c0000gn/T//ccfP1iQY.s 			page 7


 343 0028 FFF7FEFF 		bl	chThdSleep
 344              	.LVL46:
 345              		.loc 1 267 0
 346 002c 0221     		movs	r1, #2
 347              		.loc 1 268 0
 348 002e 1022     		movs	r2, #16
 349              		.loc 1 269 0
 350 0030 0123     		movs	r3, #1
 351 0032 8DE81E00 		stmia	sp, {r1, r2, r3, r4}
 352              	.L33:
 353              		.loc 1 272 0 discriminator 1
 354 0036 0020     		movs	r0, #0
 355 0038 2021     		movs	r1, #32
 356 003a FFF7FEFF 		bl	FMC_GetFlagStatus
 357              	.LVL47:
 358 003e 0446     		mov	r4, r0
 359 0040 0028     		cmp	r0, #0
 360 0042 F8D1     		bne	.L33
 361              		.loc 1 275 0
 362 0044 6846     		mov	r0, sp
 363 0046 FFF7FEFF 		bl	FMC_SDRAMCmdConfig
 364              	.LVL48:
 365              		.loc 1 279 0
 366 004a 0321     		movs	r1, #3
 367              		.loc 1 280 0
 368 004c 1022     		movs	r2, #16
 369              		.loc 1 281 0
 370 004e 0423     		movs	r3, #4
 371 0050 8DE81E00 		stmia	sp, {r1, r2, r3, r4}
 372              	.L34:
 373              		.loc 1 284 0 discriminator 1
 374 0054 0020     		movs	r0, #0
 375 0056 2021     		movs	r1, #32
 376 0058 FFF7FEFF 		bl	FMC_GetFlagStatus
 377              	.LVL49:
 378 005c 0028     		cmp	r0, #0
 379 005e F9D1     		bne	.L34
 380              		.loc 1 287 0
 381 0060 6846     		mov	r0, sp
 382 0062 FFF7FEFF 		bl	FMC_SDRAMCmdConfig
 383              	.LVL50:
 384              	.L35:
 385              		.loc 1 290 0 discriminator 1
 386 0066 0020     		movs	r0, #0
 387 0068 2021     		movs	r1, #32
 388 006a FFF7FEFF 		bl	FMC_GetFlagStatus
 389              	.LVL51:
 390 006e 0028     		cmp	r0, #0
 391 0070 F9D1     		bne	.L35
 392              		.loc 1 293 0
 393 0072 6846     		mov	r0, sp
 394 0074 FFF7FEFF 		bl	FMC_SDRAMCmdConfig
 395              	.LVL52:
 396              		.loc 1 307 0
 397 0078 0420     		movs	r0, #4
 398 007a 1021     		movs	r1, #16
 399 007c 0122     		movs	r2, #1
ARM GAS  /var/folders/28/j9jfyj_n4wz3qtvnym210h2c0000gn/T//ccfP1iQY.s 			page 8


 400 007e 40F22123 		movw	r3, #545
 401 0082 8DE80F00 		stmia	sp, {r0, r1, r2, r3}
 402              	.L36:
 403              		.loc 1 309 0 discriminator 1
 404 0086 0020     		movs	r0, #0
 405 0088 2021     		movs	r1, #32
 406 008a FFF7FEFF 		bl	FMC_GetFlagStatus
 407              	.LVL53:
 408 008e 0028     		cmp	r0, #0
 409 0090 F9D1     		bne	.L36
 410              		.loc 1 312 0
 411 0092 6846     		mov	r0, sp
 412 0094 FFF7FEFF 		bl	FMC_SDRAMCmdConfig
 413              	.LVL54:
 414              		.loc 1 319 0
 415 0098 40F2AB20 		movw	r0, #683
 416 009c FFF7FEFF 		bl	FMC_SetRefreshCount
 417              	.LVL55:
 418              	.L37:
 419              		.loc 1 321 0 discriminator 1
 420 00a0 2021     		movs	r1, #32
 421 00a2 0020     		movs	r0, #0
 422 00a4 FFF7FEFF 		bl	FMC_GetFlagStatus
 423              	.LVL56:
 424 00a8 0146     		mov	r1, r0
 425 00aa 0028     		cmp	r0, #0
 426 00ac F8D1     		bne	.L37
 427              		.loc 1 324 0
 428 00ae FFF7FEFF 		bl	FMC_SDRAMWriteProtectionConfig
 429              	.LVL57:
 430              		.loc 1 334 0
 431 00b2 FFF7FEFF 		bl	test.6957
 432              	.LVL58:
 433              		.loc 1 335 0
 434 00b6 0120     		movs	r0, #1
 435 00b8 FFF7FEFF 		bl	chThdSleep
 436              	.LVL59:
 437              		.loc 1 336 0
 438 00bc 04B0     		add	sp, sp, #16
 439              		.cfi_def_cfa_offset 8
 440              		@ sp needed
 441 00be 10BD     		pop	{r4, pc}
 442              		.cfi_endproc
 443              	.LFE121:
 444              		.size	SDRAM_InitSequence, .-SDRAM_InitSequence
 445              		.section	.text.SDRAM_Init,"ax",%progbits
 446              		.align	2
 447              		.p2align 4,,15
 448              		.global	SDRAM_Init
 449              		.thumb
 450              		.thumb_func
 451              		.type	SDRAM_Init, %function
 452              	SDRAM_Init:
 453              	.LFB118:
 454              		.loc 1 61 0
 455              		.cfi_startproc
 456              		@ args = 0, pretend = 0, frame = 72
ARM GAS  /var/folders/28/j9jfyj_n4wz3qtvnym210h2c0000gn/T//ccfP1iQY.s 			page 9


 457              		@ frame_needed = 0, uses_anonymous_args = 0
 458 0000 2DE9F041 		push	{r4, r5, r6, r7, r8, lr}
 459              		.cfi_def_cfa_offset 24
 460              		.cfi_offset 4, -24
 461              		.cfi_offset 5, -20
 462              		.cfi_offset 6, -16
 463              		.cfi_offset 7, -12
 464              		.cfi_offset 8, -8
 465              		.cfi_offset 14, -4
 466              		.loc 1 66 0
 467 0004 194A     		ldr	r2, .L47
 468 0006 936B     		ldr	r3, [r2, #56]
 469              		.loc 1 61 0
 470 0008 92B0     		sub	sp, sp, #72
 471              		.cfi_def_cfa_offset 96
 472              		.loc 1 66 0
 473 000a 43F00103 		orr	r3, r3, #1
 474 000e 9363     		str	r3, [r2, #56]
 475              		.loc 1 110 0
 476 0010 0421     		movs	r1, #4
 477              		.loc 1 106 0
 478 0012 0223     		movs	r3, #2
 479              		.loc 1 121 0
 480 0014 0022     		movs	r2, #0
 481              		.loc 1 127 0
 482 0016 4FF0400C 		mov	ip, #64
 483              		.loc 1 128 0
 484 001a 4FF4807E 		mov	lr, #256
 485              		.loc 1 108 0
 486 001e 0724     		movs	r4, #7
 487              		.loc 1 136 0
 488 0020 07A8     		add	r0, sp, #28
 489              		.loc 1 126 0
 490 0022 4FF01008 		mov	r8, #16
 491              		.loc 1 130 0
 492 0026 4FF40067 		mov	r7, #2048
 493              		.loc 1 131 0
 494 002a 4FF48056 		mov	r6, #4096
 495              		.loc 1 132 0
 496 002e 4FF40055 		mov	r5, #8192
 497              		.loc 1 106 0
 498 0032 0093     		str	r3, [sp]
 499              		.loc 1 114 0
 500 0034 0493     		str	r3, [sp, #16]
 501              		.loc 1 116 0
 502 0036 0593     		str	r3, [sp, #20]
 503              		.loc 1 118 0
 504 0038 0693     		str	r3, [sp, #24]
 505              		.loc 1 110 0
 506 003a 0291     		str	r1, [sp, #8]
 507              		.loc 1 125 0
 508 003c 0991     		str	r1, [sp, #36]
 509              		.loc 1 121 0
 510 003e 0792     		str	r2, [sp, #28]
 511              		.loc 1 123 0
 512 0040 0892     		str	r2, [sp, #32]
 513              		.loc 1 129 0
ARM GAS  /var/folders/28/j9jfyj_n4wz3qtvnym210h2c0000gn/T//ccfP1iQY.s 			page 10


 514 0042 0D92     		str	r2, [sp, #52]
 515              		.loc 1 127 0
 516 0044 CDF82CC0 		str	ip, [sp, #44]
 517              		.loc 1 128 0
 518 0048 CDF830E0 		str	lr, [sp, #48]
 519              		.loc 1 108 0
 520 004c 0194     		str	r4, [sp, #4]
 521              		.loc 1 112 0
 522 004e 0394     		str	r4, [sp, #12]
 523              		.loc 1 126 0
 524 0050 CDF82880 		str	r8, [sp, #40]
 525              		.loc 1 130 0
 526 0054 0E97     		str	r7, [sp, #56]
 527              		.loc 1 131 0
 528 0056 0F96     		str	r6, [sp, #60]
 529              		.loc 1 132 0
 530 0058 1095     		str	r5, [sp, #64]
 531              		.loc 1 133 0
 532 005a CDF844D0 		str	sp, [sp, #68]
 533              		.loc 1 136 0
 534 005e FFF7FEFF 		bl	FMC_SDRAMInit
 535              	.LVL60:
 536              		.loc 1 139 0
 537 0062 FFF7FEFF 		bl	SDRAM_InitSequence
 538              	.LVL61:
 539              		.loc 1 141 0
 540 0066 12B0     		add	sp, sp, #72
 541              		.cfi_def_cfa_offset 24
 542              		@ sp needed
 543 0068 BDE8F081 		pop	{r4, r5, r6, r7, r8, pc}
 544              	.L48:
 545              		.align	2
 546              	.L47:
 547 006c 00380240 		.word	1073887232
 548              		.cfi_endproc
 549              	.LFE118:
 550              		.size	SDRAM_Init, .-SDRAM_Init
 551              		.section	.text.configSDRAM,"ax",%progbits
 552              		.align	2
 553              		.p2align 4,,15
 554              		.global	configSDRAM
 555              		.thumb
 556              		.thumb_func
 557              		.type	configSDRAM, %function
 558              	configSDRAM:
 559              	.LFB119:
 560              		.loc 1 143 0
 561              		.cfi_startproc
 562              		@ args = 0, pretend = 0, frame = 0
 563              		@ frame_needed = 0, uses_anonymous_args = 0
 564              		@ link register save eliminated.
 565              		.loc 1 144 0
 566 0000 FFF7FEBF 		b	SDRAM_Init
 567              	.LVL62:
 568              		.cfi_endproc
 569              	.LFE119:
 570              		.size	configSDRAM, .-configSDRAM
ARM GAS  /var/folders/28/j9jfyj_n4wz3qtvnym210h2c0000gn/T//ccfP1iQY.s 			page 11


 571              		.section	.text.SDRAM_WriteBuffer,"ax",%progbits
 572              		.align	2
 573              		.p2align 4,,15
 574              		.global	SDRAM_WriteBuffer
 575              		.thumb
 576              		.thumb_func
 577              		.type	SDRAM_WriteBuffer, %function
 578              	SDRAM_WriteBuffer:
 579              	.LFB123:
 580              		.loc 1 347 0
 581              		.cfi_startproc
 582              		@ args = 0, pretend = 0, frame = 8
 583              		@ frame_needed = 0, uses_anonymous_args = 0
 584              	.LVL63:
 585 0000 30B5     		push	{r4, r5, lr}
 586              		.cfi_def_cfa_offset 12
 587              		.cfi_offset 4, -12
 588              		.cfi_offset 5, -8
 589              		.cfi_offset 14, -4
 590 0002 0546     		mov	r5, r0
 591 0004 83B0     		sub	sp, sp, #12
 592              		.cfi_def_cfa_offset 24
 593              		.loc 1 352 0
 594 0006 0020     		movs	r0, #0
 595              	.LVL64:
 596              		.loc 1 347 0
 597 0008 0B46     		mov	r3, r1
 598              		.loc 1 352 0
 599 000a 0146     		mov	r1, r0
 600              	.LVL65:
 601              		.loc 1 349 0
 602 000c 0193     		str	r3, [sp, #4]
 603              		.loc 1 347 0
 604 000e 1446     		mov	r4, r2
 605              		.loc 1 352 0
 606 0010 FFF7FEFF 		bl	FMC_SDRAMWriteProtectionConfig
 607              	.LVL66:
 608              	.L51:
 609              		.loc 1 355 0 discriminator 1
 610 0014 0020     		movs	r0, #0
 611 0016 2021     		movs	r1, #32
 612 0018 FFF7FEFF 		bl	FMC_GetFlagStatus
 613              	.LVL67:
 614 001c 0028     		cmp	r0, #0
 615 001e F9D1     		bne	.L51
 616              		.loc 1 359 0 discriminator 1
 617 0020 54B1     		cbz	r4, .L50
 618              	.LVL68:
 619              	.L53:
 620              		.loc 1 361 0 discriminator 2
 621 0022 019A     		ldr	r2, [sp, #4]
 622              	.LVL69:
 623              		.loc 1 364 0 discriminator 2
 624 0024 019B     		ldr	r3, [sp, #4]
 625              		.loc 1 361 0 discriminator 2
 626 0026 55F8041B 		ldr	r1, [r5], #4
 627              	.LVL70:
ARM GAS  /var/folders/28/j9jfyj_n4wz3qtvnym210h2c0000gn/T//ccfP1iQY.s 			page 12


 628 002a 02F14042 		add	r2, r2, #-1073741824
 629              		.loc 1 364 0 discriminator 2
 630 002e 0433     		adds	r3, r3, #4
 631              		.loc 1 359 0 discriminator 2
 632 0030 013C     		subs	r4, r4, #1
 633              	.LVL71:
 634              		.loc 1 361 0 discriminator 2
 635 0032 1160     		str	r1, [r2]
 636              		.loc 1 364 0 discriminator 2
 637 0034 0193     		str	r3, [sp, #4]
 638              		.loc 1 359 0 discriminator 2
 639 0036 F4D1     		bne	.L53
 640              	.L50:
 641              		.loc 1 367 0
 642 0038 03B0     		add	sp, sp, #12
 643              		.cfi_def_cfa_offset 12
 644              		@ sp needed
 645 003a 30BD     		pop	{r4, r5, pc}
 646              		.cfi_endproc
 647              	.LFE123:
 648              		.size	SDRAM_WriteBuffer, .-SDRAM_WriteBuffer
 649              		.section	.text.SDRAM_ReadBuffer,"ax",%progbits
 650              		.align	2
 651              		.p2align 4,,15
 652              		.global	SDRAM_ReadBuffer
 653              		.thumb
 654              		.thumb_func
 655              		.type	SDRAM_ReadBuffer, %function
 656              	SDRAM_ReadBuffer:
 657              	.LFB124:
 658              		.loc 1 378 0
 659              		.cfi_startproc
 660              		@ args = 0, pretend = 0, frame = 8
 661              		@ frame_needed = 0, uses_anonymous_args = 0
 662              	.LVL72:
 663 0000 30B5     		push	{r4, r5, lr}
 664              		.cfi_def_cfa_offset 12
 665              		.cfi_offset 4, -12
 666              		.cfi_offset 5, -8
 667              		.cfi_offset 14, -4
 668 0002 83B0     		sub	sp, sp, #12
 669              		.cfi_def_cfa_offset 24
 670              		.loc 1 378 0
 671 0004 0546     		mov	r5, r0
 672              		.loc 1 380 0
 673 0006 0191     		str	r1, [sp, #4]
 674              		.loc 1 378 0
 675 0008 1446     		mov	r4, r2
 676              	.LVL73:
 677              	.L59:
 678              		.loc 1 383 0 discriminator 1
 679 000a 0020     		movs	r0, #0
 680 000c 2021     		movs	r1, #32
 681 000e FFF7FEFF 		bl	FMC_GetFlagStatus
 682              	.LVL74:
 683 0012 0028     		cmp	r0, #0
 684 0014 F9D1     		bne	.L59
ARM GAS  /var/folders/28/j9jfyj_n4wz3qtvnym210h2c0000gn/T//ccfP1iQY.s 			page 13


 685              		.loc 1 387 0 discriminator 1
 686 0016 5CB1     		cbz	r4, .L58
 687              	.LVL75:
 688              	.L61:
 689              		.loc 1 388 0 discriminator 2
 690 0018 019B     		ldr	r3, [sp, #4]
 691 001a 03F14043 		add	r3, r3, #-1073741824
 692              		.loc 1 387 0 discriminator 2
 693 001e 013C     		subs	r4, r4, #1
 694              	.LVL76:
 695              		.loc 1 388 0 discriminator 2
 696 0020 1A68     		ldr	r2, [r3]
 697              		.loc 1 391 0 discriminator 2
 698 0022 019B     		ldr	r3, [sp, #4]
 699              		.loc 1 388 0 discriminator 2
 700 0024 45F8042B 		str	r2, [r5], #4
 701              	.LVL77:
 702              		.loc 1 391 0 discriminator 2
 703 0028 03F10403 		add	r3, r3, #4
 704 002c 0193     		str	r3, [sp, #4]
 705              		.loc 1 387 0 discriminator 2
 706 002e F3D1     		bne	.L61
 707              	.L58:
 708              		.loc 1 393 0
 709 0030 03B0     		add	sp, sp, #12
 710              		.cfi_def_cfa_offset 12
 711              		@ sp needed
 712 0032 30BD     		pop	{r4, r5, pc}
 713              		.cfi_endproc
 714              	.LFE124:
 715              		.size	SDRAM_ReadBuffer, .-SDRAM_ReadBuffer
 716              		.text
 717              	.Letext0:
 718              		.file 2 "/Applications/axoloti_runtime/platform_osx/arm-none-eabi/include/machine/_default_types.h
 719              		.file 3 "/Applications/axoloti_runtime/platform_osx/arm-none-eabi/include/sys/_stdint.h"
 720              		.file 4 "/Applications/Axoloti.app/Contents/Java/chibios/os/hal/platforms/STM32F4xx/stm32f4xx.h"
 721              		.file 5 "../stm32f4xx_fmc.h"
 722              		.file 6 "/Applications/Axoloti.app/Contents/Java/chibios/os/ports/GCC/ARMCMx/chtypes.h"
 723              		.file 7 "/Applications/Axoloti.app/Contents/Java/chibios/os/hal/platforms/STM32/GPIOv2/pal_lld.h"
 724              		.file 8 "../sysmon.h"
 725              		.file 9 "/Applications/Axoloti.app/Contents/Java/chibios/os/kernel/include/chthreads.h"
 726              		.file 10 "/Applications/Axoloti.app/Contents/Java/chibios/os/ports/common/ARMCMx/CMSIS/include/cor