ARM GAS  /var/folders/28/j9jfyj_n4wz3qtvnym210h2c0000gn/T//ccfP1iQY.s 			page 1


   1              		.syntax unified
   2              		.cpu cortex-m4
   3              		.eabi_attribute 27, 1
   4              		.eabi_attribute 28, 1
   5              		.fpu fpv4-sp-d16
   6              		.eabi_attribute 20, 1
   7              		.eabi_attribute 21, 1
   8              		.eabi_attribute 23, 3
   9              		.eabi_attribute 24, 1
  10              		.eabi_attribute 25, 1
  11              		.eabi_attribute 26, 1
  12              		.eabi_attribute 30, 2
  13              		.eabi_attribute 34, 1
  14              		.eabi_attribute 18, 4
  15              		.thumb
  16              		.file	"sdram.c"
  17              		.text
  18              	.Ltext0:
  19              		.cfi_sections	.debug_frame
  20              		.section	.text.test.6957,"ax",%progbits
  21              		.align	2
  22              		.p2align 4
  23              		.thumb
  24              		.thumb_func
  25              		.type	test.6957, %function
  26              	test.6957:
  27              	.LFB122:
  28              		.file 1 "../sdram.c"
  29              		.loc 1 327 0
  30              		.cfi_startproc
  31              		@ args = 0, pretend = 0, frame = 24
  32              		@ frame_needed = 1, uses_anonymous_args = 0
  33              		@ link register save eliminated.
  34 0000 80B4     		push	{r7}
  35              		.cfi_def_cfa_offset 4
  36              		.cfi_offset 7, -4
  37 0002 87B0     		sub	sp, sp, #28
  38              		.cfi_def_cfa_offset 32
  39 0004 00AF     		add	r7, sp, #0
  40              		.cfi_def_cfa_register 7
  41              		.loc 1 328 0
  42 0006 0A4B     		ldr	r3, .L2
  43 0008 1B68     		ldr	r3, [r3]
  44 000a 7B61     		str	r3, [r7, #20]
  45              	.LVL0:
  46              		.loc 1 329 0
  47 000c 084B     		ldr	r3, .L2
  48              	.LVL1:
  49 000e 5B68     		ldr	r3, [r3, #4]
  50 0010 3B61     		str	r3, [r7, #16]
  51              	.LVL2:
  52              		.loc 1 330 0
  53 0012 074B     		ldr	r3, .L2
  54              	.LVL3:
  55 0014 9B68     		ldr	r3, [r3, #8]
  56 0016 FB60     		str	r3, [r7, #12]
  57              	.LVL4:
ARM GAS  /var/folders/28/j9jfyj_n4wz3qtvnym210h2c0000gn/T//ccfP1iQY.s 			page 2


  58              		.loc 1 331 0
  59 0018 054B     		ldr	r3, .L2
  60              	.LVL5:
  61 001a DB68     		ldr	r3, [r3, #12]
  62 001c BB60     		str	r3, [r7, #8]
  63              	.LVL6:
  64              		.loc 1 332 0
  65 001e 044B     		ldr	r3, .L2
  66              	.LVL7:
  67 0020 5B6A     		ldr	r3, [r3, #36]
  68 0022 7B60     		str	r3, [r7, #4]
  69              	.LVL8:
  70              		.loc 1 333 0
  71 0024 1C37     		adds	r7, r7, #28
  72              		.cfi_def_cfa_offset 4
  73 0026 BD46     		mov	sp, r7
  74              		.cfi_def_cfa_register 13
  75              	.LVL9:
  76              		@ sp needed
  77 0028 5DF8047B 		ldr	r7, [sp], #4
  78              		.cfi_restore 7
  79              		.cfi_def_cfa_offset 0
  80 002c 7047     		bx	lr
  81              	.L3:
  82 002e 00BF     		.align	2
  83              	.L2:
  84 0030 00180240 		.word	1073879040
  85              		.cfi_endproc
  86              	.LFE122:
  87              		.size	test.6957, .-test.6957
  88              		.section	.text.memTest,"ax",%progbits
  89              		.align	2
  90              		.p2align 4,,15
  91              		.global	memTest
  92              		.thumb
  93              		.thumb_func
  94              		.type	memTest, %function
  95              	memTest:
  96              	.LFB120:
  97              		.loc 1 164 0
  98              		.cfi_startproc
  99              		@ args = 0, pretend = 0, frame = 16
 100              		@ frame_needed = 0, uses_anonymous_args = 0
 101              	.LVL10:
 102 0000 10B5     		push	{r4, lr}
 103              		.cfi_def_cfa_offset 8
 104              		.cfi_offset 4, -8
 105              		.cfi_offset 14, -4
 106 0002 84B0     		sub	sp, sp, #16
 107              		.cfi_def_cfa_offset 24
 108              		.loc 1 174 0
 109 0004 0023     		movs	r3, #0
 110              		.loc 1 175 0
 111 0006 1022     		movs	r2, #16
 112              		.loc 1 174 0
 113 0008 0193     		str	r3, [sp, #4]
 114              		.loc 1 175 0
ARM GAS  /var/folders/28/j9jfyj_n4wz3qtvnym210h2c0000gn/T//ccfP1iQY.s 			page 3


 115 000a 0292     		str	r2, [sp, #8]
 116              		.loc 1 176 0
 117 000c 0392     		str	r2, [sp, #12]
 118              	.LVL11:
 119              		.loc 1 184 0
 120 000e 0193     		str	r3, [sp, #4]
 121 0010 019B     		ldr	r3, [sp, #4]
 122 0012 029A     		ldr	r2, [sp, #8]
 123 0014 9A42     		cmp	r2, r3
 124 0016 28DD     		ble	.L12
 125              	.LBB2:
 126              		.loc 1 188 0
 127 0018 3049     		ldr	r1, .L29
 128              	.LVL12:
 129              	.L18:
 130              		.loc 1 185 0
 131 001a 019B     		ldr	r3, [sp, #4]
 132              	.LVL13:
 133 001c 4FF04042 		mov	r2, #-1073741824
 134              	.LVL14:
 135              	.L8:
 136              		.loc 1 188 0 discriminator 3
 137 0020 01FB03F3 		mul	r3, r1, r3
 138              	.LVL15:
 139 0024 0133     		adds	r3, r3, #1
 140              	.LVL16:
 141              		.loc 1 190 0 discriminator 3
 142 0026 42F8043B 		str	r3, [r2], #4
 143              		.loc 1 187 0 discriminator 3
 144 002a 12F17E5F 		cmn	r2, #1065353216
 145 002e F7D1     		bne	.L8
 146              		.loc 1 193 0
 147 0030 0198     		ldr	r0, [sp, #4]
 148              	.LVL17:
 149 0032 4FF04043 		mov	r3, #-1073741824
 150 0036 02E0     		b	.L11
 151              	.LVL18:
 152              	.L9:
 153              		.loc 1 194 0 discriminator 2
 154 0038 13F17E5F 		cmn	r3, #1065353216
 155 003c 0ED0     		beq	.L27
 156              	.LVL19:
 157              	.L11:
 158              		.loc 1 195 0
 159 003e 01FB00F2 		mul	r2, r1, r0
 160              	.LVL20:
 161              		.loc 1 196 0
 162 0042 1868     		ldr	r0, [r3]
 163              	.LVL21:
 164              		.loc 1 195 0
 165 0044 0132     		adds	r2, r2, #1
 166              		.loc 1 197 0
 167 0046 9042     		cmp	r0, r2
 168 0048 03F10403 		add	r3, r3, #4
 169 004c F4D0     		beq	.L9
 170              		.loc 1 198 0
 171 004e 0520     		movs	r0, #5
ARM GAS  /var/folders/28/j9jfyj_n4wz3qtvnym210h2c0000gn/T//ccfP1iQY.s 			page 4


 172              	.LVL22:
 173 0050 FFF7FEFF 		bl	setErrorFlag
 174              	.LVL23:
 175              	.L10:
 176              		.loc 1 200 0 discriminator 1
 177 0054 6420     		movs	r0, #100
 178 0056 FFF7FEFF 		bl	chThdSleep
 179              	.LVL24:
 180              		.loc 1 201 0 discriminator 1
 181 005a FBE7     		b	.L10
 182              	.LVL25:
 183              	.L27:
 184              	.LBE2:
 185              		.loc 1 184 0 discriminator 2
 186 005c 019B     		ldr	r3, [sp, #4]
 187 005e 0133     		adds	r3, r3, #1
 188 0060 0193     		str	r3, [sp, #4]
 189 0062 019A     		ldr	r2, [sp, #4]
 190 0064 029B     		ldr	r3, [sp, #8]
 191 0066 9A42     		cmp	r2, r3
 192 0068 D7DB     		blt	.L18
 193              	.LVL26:
 194              	.L12:
 195              		.loc 1 214 0
 196 006a 0023     		movs	r3, #0
 197 006c 0193     		str	r3, [sp, #4]
 198 006e 019B     		ldr	r3, [sp, #4]
 199 0070 039A     		ldr	r2, [sp, #12]
 200 0072 9A42     		cmp	r2, r3
 201 0074 30DD     		ble	.L4
 202              	.LBB3:
 203              		.loc 1 218 0
 204 0076 194C     		ldr	r4, .L29
 205              	.L17:
 206              		.loc 1 215 0
 207 0078 019B     		ldr	r3, [sp, #4]
 208              	.LVL27:
 209              		.loc 1 217 0
 210 007a 0022     		movs	r2, #0
 211              	.LVL28:
 212              	.L13:
 213              		.loc 1 218 0 discriminator 3
 214 007c 04FB03F3 		mul	r3, r4, r3
 215              	.LVL29:
 216 0080 0133     		adds	r3, r3, #1
 217              	.LVL30:
 218              		.loc 1 219 0 discriminator 3
 219 0082 C3F31601 		ubfx	r1, r3, #0, #23
 220 0086 D0B2     		uxtb	r0, r2
 221 0088 01F14041 		add	r1, r1, #-1073741824
 222              		.loc 1 217 0 discriminator 3
 223 008c 0132     		adds	r2, r2, #1
 224              	.LVL31:
 225 008e B2F5801F 		cmp	r2, #1048576
 226              		.loc 1 219 0 discriminator 3
 227 0092 0870     		strb	r0, [r1]
 228              		.loc 1 217 0 discriminator 3
ARM GAS  /var/folders/28/j9jfyj_n4wz3qtvnym210h2c0000gn/T//ccfP1iQY.s 			page 5


 229 0094 F2D1     		bne	.L13
 230              		.loc 1 222 0
 231 0096 019B     		ldr	r3, [sp, #4]
 232              	.LVL32:
 233              		.loc 1 223 0
 234 0098 0022     		movs	r2, #0
 235 009a 02E0     		b	.L16
 236              	.LVL33:
 237              	.L14:
 238              		.loc 1 223 0 is_stmt 0 discriminator 2
 239 009c B2F5801F 		cmp	r2, #1048576
 240 00a0 13D0     		beq	.L28
 241              	.LVL34:
 242              	.L16:
 243              		.loc 1 224 0 is_stmt 1
 244 00a2 04FB03F3 		mul	r3, r4, r3
 245              	.LVL35:
 246 00a6 0133     		adds	r3, r3, #1
 247              	.LVL36:
 248              		.loc 1 225 0
 249 00a8 C3F31600 		ubfx	r0, r3, #0, #23
 250 00ac 00F14040 		add	r0, r0, #-1073741824
 251 00b0 D1B2     		uxtb	r1, r2
 252 00b2 0078     		ldrb	r0, [r0]	@ zero_extendqisi2
 253 00b4 8842     		cmp	r0, r1
 254 00b6 02F10102 		add	r2, r2, #1
 255              	.LVL37:
 256 00ba EFD0     		beq	.L14
 257              		.loc 1 226 0
 258 00bc 0520     		movs	r0, #5
 259 00be FFF7FEFF 		bl	setErrorFlag
 260              	.LVL38:
 261              	.L15:
 262              		.loc 1 228 0 discriminator 1
 263 00c2 6420     		movs	r0, #100
 264 00c4 FFF7FEFF 		bl	chThdSleep
 265              	.LVL39:
 266              		.loc 1 229 0 discriminator 1
 267 00c8 FBE7     		b	.L15
 268              	.LVL40:
 269              	.L28:
 270              	.LBE3:
 271              		.loc 1 214 0 discriminator 2
 272 00ca 019B     		ldr	r3, [sp, #4]
 273              	.LVL41:
 274 00cc 0133     		adds	r3, r3, #1
 275 00ce 0193     		str	r3, [sp, #4]
 276 00d0 019A     		ldr	r2, [sp, #4]
 277              	.LVL42:
 278 00d2 039B     		ldr	r3, [sp, #12]
 279 00d4 9A42     		cmp	r2, r3
 280 00d6 CFDB     		blt	.L17
 281              	.L4:
 282              		.loc 1 234 0
 283 00d8 04B0     		add	sp, sp, #16
 284              		.cfi_def_cfa_offset 8
 285              		@ sp needed
ARM GAS  /var/folders/28/j9jfyj_n4wz3qtvnym210h2c0000gn/T//ccfP1iQY.s 			page 6


 286 00da 10BD     		pop	{r4, pc}
 287              	.L30:
 288              		.align	2
 289              	.L29:
 290 00dc 354E5A01 		.word	22695477
 291              		.cfi_endproc
 292              	.LFE120:
 293              		.size	memTest, .-memTest
 294              		.section	.text.SDRAM_InitSequence,"ax",%progbits
 295              		.align	2
 296              		.p2align 4,,15
 297              		.global	SDRAM_InitSequence
 298              		.thumb
 299              		.thumb_func
 300              		.type	SDRAM_InitSequence, %function
 301              	SDRAM_InitSequence:
 302              	.LFB121:
 303              		.loc 1 241 0
 304              		.cfi_startproc
 305              		@ args = 0, pretend = 0, frame = 16
 306              		@ frame_needed = 0, uses_anonymous_args = 0
 307              	.LVL43:
 308 0000 10B5     		push	{r4, lr}
 309              		.cfi_def_cfa_offset 8
 310              		.cfi_offset 4, -8
 311              		.cfi_offset 14, -4
 312 0002 84B0     		sub	sp, sp, #16
 313              		.cfi_def_cfa_offset 24
 314              		.loc 1 247 0
 315 0004 0123     		movs	r3, #1
 316              		.loc 1 248 0
 317 0006 1021     		movs	r1, #16
 318              		.loc 1 250 0
 319 0008 0022     		movs	r2, #0
 320              		.loc 1 247 0
 321 000a 0093     		str	r3, [sp]
 322              		.loc 1 249 0
 323 000c 0293     		str	r3, [sp, #8]
 324              		.loc 1 248 0
 325 000e 0191     		str	r1, [sp, #4]
 326              		.loc 1 250 0
 327 0010 0392     		str	r2, [sp, #12]
 328              	.L32:
 329              		.loc 1 252 0 discriminator 1
 330 0012 0020     		movs	r0, #0
 331 0014 2021     		movs	r1, #32
 332 0016 FFF7FEFF 		bl	FMC_GetFlagStatus
 333              	.LVL44:
 334 001a 0446     		mov	r4, r0
 335 001c 0028     		cmp	r0, #0
 336 001e F8D1     		bne	.L32
 337              		.loc 1 255 0
 338 0020 6846     		mov	r0, sp
 339 0022 FFF7FEFF 		bl	FMC_SDRAMCmdConfig
 340              	.LVL45:
 341              		.loc 1 263 0
 342 0026 6420     		movs	r0, #100
ARM GAS  /var/folders/28/j9jfyj_n4wz3qtvnym210h2c0000gn/T//ccfP1iQY.s 			page 7


 343 0028 FFF7FEFF 		bl	chThdSleep
 344              	.LVL46:
 345              		.loc 1 267 0
 346 002c 0221     		movs	r1, #2
 347              		.loc 1 268 0
 348 002e 1022     		movs	r2, #16
 349              		.loc 1 269 0
 350 0030 0123     		movs	r3, #1
 351 0032 8DE81E00 		stmia	sp, {r1, r2, r3, r4}
 352              	.L33:
 353              		.loc 1 272 0 discriminator 1
 354 0036 0020     		movs	r0, #0
 355 0038 2021     		movs	r1, #32
 356 003a FFF7FEFF 		bl	FMC_GetFlagStatus
 357              	.LVL47:
 358 003e 0446     		mov	r4, r0
 359 0040 0028     		cmp	r0, #0
 360 0042 F8D1     		bne	.L33
 361              		.loc 1 275 0
 362 0044 6846     		mov	r0, sp
 363 0046 FFF7FEFF 		bl	FMC_SDRAMCmdConfig
 364              	.LVL48:
 365              		.loc 1 279 0
 366 004a 0321     		movs	r1, #3
 367              		.loc 1 280 0
 368 004c 1022     		movs	r2, #16
 369              		.loc 1 281 0
 370 004e 0423     		movs	r3, #4
 371 0050 8DE81E00 		stmia	sp, {r1, r2, r3, r4}
 372              	.L34:
 373              		.loc 1 284 0 discriminator 1
 374 0054 0020     		movs	r0, #0
 375 0056 2021     		movs	r1, #32
 376 0058 FFF7FEFF 		bl	FMC_GetFlagStatus
 377              	.LVL49:
 378 005c 0028     		cmp	r0, #0
 379 005e F9D1     		bne	.L34
 380              		.loc 1 287 0
 381 0060 6846     		mov	r0, sp
 382 0062 FFF7FEFF 		bl	FMC_SDRAMCmdConfig
 383              	.LVL50:
 384              	.L35:
 385              		.loc 1 290 0 discriminator 1
 386 0066 0020     		movs	r0, #0
 387 0068 2021     		movs	r1, #32
 388 006a FFF7FEFF 		bl	FMC_GetFlagStatus
 389              	.LVL51:
 390 006e 0028     		cmp	r0, #0
 391 0070 F9D1     		bne	.L35
 392              		.loc 1 293 0
 393 0072 6846     		mov	r0, sp
 394 0074 FFF7FEFF 		bl	FMC_SDRAMCmdConfig
 395              	.LVL52:
 396              		.loc 1 307 0
 397 0078 0420     		movs	r0, #4
 398 007a 1021     		movs	r1, #16
 399 007c 0122     		movs	r2, #1
ARM GAS  /var/folders/28/j9jfyj_n4wz3qtvnym210h2c0000gn/T//ccfP1iQY.s 			page 8


 400 007e 40F22123 		movw	r3, #545
 401 0082 8DE80F00 		stmia	sp, {r0, r1, r2, r3}
 402              	.L36:
 403              		.loc 1 309 0 discriminator 1
 404 0086 0020     		movs	r0, #0
 405 0088 2021     		movs	r1, #32
 406 008a FFF7FEFF 		bl	FMC_GetFlagStatus
 407              	.LVL53:
 408 008e 0028     		cmp	r0, #0
 409 0090 F9D1     		bne	.L36
 410              		.loc 1 312 0
 411 0092 6846     		mov	r0, sp
 412 0094 FFF7FEFF 		bl	FMC_SDRAMCmdConfig
 413              	.LVL54:
 414              		.loc 1 319 0
 415 0098 40F2AB20 		movw	r0, #683
 416 009c FFF7FEFF 		bl	FMC_SetRefreshCount
 417              	.LVL55:
 418              	.L37:
 419              		.loc 1 321 0 discriminator 1
 420 00a0 2021     		movs	r1, #32
 421 00a2 0020     		movs	r0, #0
 422 00a4 FFF7FEFF 		bl	FMC_GetFlagStatus
 423              	.LVL56:
 424 00a8 0146     		mov	r1, r0
 425 00aa 0028     		cmp	r0, #0
 426 00ac F8D1     		bne	.L37
 427              		.loc 1 324 0
 428 00ae FFF7FEFF 		bl	FMC_SDRAMWriteProtectionConfig
 429              	.LVL57:
 430              		.loc 1 334 0
 431 00b2 FFF7FEFF 		bl	test.6957
 432              	.LVL58:
 433              		.loc 1 335 0
 434 00b6 0120     		movs	r0, #1
 435 00b8 FFF7FEFF 		bl	chThdSleep
 436              	.LVL59:
 437              		.loc 1 336 0
 438 00bc 04B0     		add	sp, sp, #16
 439              		.cfi_def_cfa_offset 8
 440              		@ sp needed
 441 00be 10BD     		pop	{r4, pc}
 442              		.cfi_endproc
 443              	.LFE121:
 444              		.size	SDRAM_InitSequence, .-SDRAM_InitSequence
 445              		.section	.text.SDRAM_Init,"ax",%progbits
 446              		.align	2
 447              		.p2align 4,,15
 448              		.global	SDRAM_Init
 449              		.thumb
 450              		.thumb_func
 451              		.type	SDRAM_Init, %function
 452              	SDRAM_Init:
 453              	.LFB118:
 454              		.loc 1 61 0
 455              		.cfi_startproc
 456              		@ args = 0, pretend = 0, frame = 72
ARM GAS  /var/folders/28/j9jfyj_n4wz3qtvnym210h2c0000gn/T//ccfP1iQY.s 			page 9


 457              		@ frame_needed = 0, uses_anonymous_args = 0
 458 0000 2DE9F041 		push	{r4, r5, r6, r7, r8, lr}
 459              		.cfi_def_cfa_offset 24
 460              		.cfi_offset 4, -24
 461              		.cfi_offset 5, -20
 462              		.cfi_offset 6, -16
 463              		.cfi_offset 7, -12
 464              		.cfi_offset 8, -8
 465              		.cfi_offset 14, -4
 466              		.loc 1 66 0
 467 0004 194A     		ldr	r2, .L47
 468 0006 936B     		ldr	r3, [r2, #56]
 469              		.loc 1 61 0
 470 0008 92B0     		sub	sp, sp, #72
 471              		.cfi_def_cfa_offset 96
 472              		.loc 1 66 0
 473 000a 43F00103 		orr	r3, r3, #1
 474 000e 9363     		str	r3, [r2, #56]
 475              		.loc 1 110 0
 476 0010 0421     		movs	r1, #4
 477              		.loc 1 106 0
 478 0012 0223     		movs	r3, #2
 479              		.loc 1 121 0
 480 0014 0022     		movs	r2, #0
 481              		.loc 1 127 0
 482 0016 4FF0400C 		mov	ip, #64
 483              		.loc 1 128 0
 484 001a 4FF4807E 		mov	lr, #256
 485              		.loc 1 108 0
 486 001e 0724     		movs	r4, #7
 487              		.loc 1 136 0
 488 0020 07A8     		add	r0, sp, #28
 489              		.loc 1 126 0
 490 0022 4FF01008 		mov	r8, #16
 491              		.loc 1 130 0
 492 0026 4FF40067 		mov	r7, #2048
 493              		.loc 1 131 0
 494 002a 4FF48056 		mov	r6, #4096
 495              		.loc 1 132 0
 496 002e 4FF40055 		mov	r5, #8192
 497              		.loc 1 106 0
 498 0032 0093     		str	r3, [sp]
 499              		.loc 1 114 0
 500 0034 0493     		str	r3, [sp, #16]
 501              		.loc 1 116 0
 502 0036 0593     		str	r3, [sp, #20]
 503              		.loc 1 118 0
 504 0038 0693     		str	r3, [sp, #24]
 505              		.loc 1 110 0
 506 003a 0291     		str	r1, [sp, #8]
 507              		.loc 1 125 0
 508 003c 0991     		str	r1, [sp, #36]
 509              		.loc 1 121 0
 510 003e 0792     		str	r2, [sp, #28]
 511              		.loc 1 123 0
 512 0040 0892     		str	r2, [sp, #32]
 513              		.loc 1 129 0
ARM GAS  /var/folders/28/j9jfyj_n4wz3qtvnym210h2c0000gn/T//ccfP1iQY.s 			page 10


 514 0042 0D92     		str	r2, [sp, #52]
 515              		.loc 1 127 0
 516 0044 CDF82CC0 		str	ip, [sp, #44]
 517              		.loc 1 128 0
 518 0048 CDF830E0 		str	lr, [sp, #48]
 519              		.loc 1 108 0
 520 004c 0194     		str	r4, [sp, #4]
 521              		.loc 1 112 0
 522 004e 0394     		str	r4, [sp, #12]
 523              		.loc 1 126 0
 524 0050 CDF82880 		str	r8, [sp, #40]
 525              		.loc 1 130 0
 526 0054 0E97     		str	r7, [sp, #56]
 527              		.loc 1 131 0
 528 0056 0F96     		str	r6, [sp, #60]
 529              		.loc 1 132 0
 530 0058 1095     		str	r5, [sp, #64]
 531              		.loc 1 133 0
 532 005a CDF844D0 		str	sp, [sp, #68]
 533              		.loc 1 136 0
 534 005e FFF7FEFF 		bl	FMC_SDRAMInit
 535              	.LVL60:
 536              		.loc 1 139 0
 537 0062 FFF7FEFF 		bl	SDRAM_InitSequence
 538              	.LVL61:
 539              		.loc 1 141 0
 540 0066 12B0     		add	sp, sp, #72
 541              		.cfi_def_cfa_offset 24
 542              		@ sp needed
 543 0068 BDE8F081 		pop	{r4, r5, r6, r7, r8, pc}
 544              	.L48:
 545              		.align	2
 546              	.L47:
 547 006c 00380240 		.word	1073887232
 548              		.cfi_endproc
 549              	.LFE118:
 550              		.size	SDRAM_Init, .-SDRAM_Init
 551              		.section	.text.configSDRAM,"ax",%progbits
 552              		.align	2
 553              		.p2align 4,,15
 554              		.global	configSDRAM
 555              		.thumb
 556              		.thumb_func
 557              		.type	configSDRAM, %function
 558              	configSDRAM:
 559              	.LFB119:
 560              		.loc 1 143 0
 561              		.cfi_startproc
 562              		@ args = 0, pretend = 0, frame = 0
 563              		@ frame_needed = 0, uses_anonymous_args = 0
 564              		@ link register save eliminated.
 565              		.loc 1 144 0
 566 0000 FFF7FEBF 		b	SDRAM_Init
 567              	.LVL62:
 568              		.cfi_endproc
 569              	.LFE119:
 570              		.size	configSDRAM, .-configSDRAM
ARM GAS  /var/folders/28/j9jfyj_n4wz3qtvnym210h2c0000gn/T//ccfP1iQY.s 			page 11


 571              		.section	.text.SDRAM_WriteBuffer,"ax",%progbits
 572              		.align	2
 573              		.p2align 4,,15
 574              		.global	SDRAM_WriteBuffer
 575              		.thumb
 576              		.thumb_func
 577              		.type	SDRAM_WriteBuffer, %function
 578              	SDRAM_WriteBuffer:
 579              	.LFB123:
 580              		.loc 1 347 0
 581              		.cfi_startproc
 582              		@ args = 0, pretend = 0, frame = 8
 583              		@ frame_needed = 0, uses_anonymous_args = 0
 584              	.LVL63:
 585 0000 30B5     		push	{r4, r5, lr}
 586              		.cfi_def_cfa_offset 12
 587              		.cfi_offset 4, -12
 588              		.cfi_offset 5, -8
 589              		.cfi_offset 14, -4
 590 0002 0546     		mov	r5, r0
 591 0004 83B0     		sub	sp, sp, #12
 592              		.cfi_def_cfa_offset 24
 593              		.loc 1 352 0
 594 0006 0020     		movs	r0, #0
 595              	.LVL64:
 596              		.loc 1 347 0
 597 0008 0B46     		mov	r3, r1
 598              		.loc 1 352 0
 599 000a 0146     		mov	r1, r0
 600              	.LVL65:
 601              		.loc 1 349 0
 602 000c 0193     		str	r3, [sp, #4]
 603              		.loc 1 347 0
 604 000e 1446     		mov	r4, r2
 605              		.loc 1 352 0
 606 0010 FFF7FEFF 		bl	FMC_SDRAMWriteProtectionConfig
 607              	.LVL66:
 608              	.L51:
 609              		.loc 1 355 0 discriminator 1
 610 0014 0020     		movs	r0, #0
 611 0016 2021     		movs	r1, #32
 612 0018 FFF7FEFF 		bl	FMC_GetFlagStatus
 613              	.LVL67:
 614 001c 0028     		cmp	r0, #0
 615 001e F9D1     		bne	.L51
 616              		.loc 1 359 0 discriminator 1
 617 0020 54B1     		cbz	r4, .L50
 618              	.LVL68:
 619              	.L53:
 620              		.loc 1 361 0 discriminator 2
 621 0022 019A     		ldr	r2, [sp, #4]
 622              	.LVL69:
 623              		.loc 1 364 0 discriminator 2
 624 0024 019B     		ldr	r3, [sp, #4]
 625              		.loc 1 361 0 discriminator 2
 626 0026 55F8041B 		ldr	r1, [r5], #4
 627              	.LVL70:
ARM GAS  /var/folders/28/j9jfyj_n4wz3qtvnym210h2c0000gn/T//ccfP1iQY.s 			page 12


 628 002a 02F14042 		add	r2, r2, #-1073741824
 629              		.loc 1 364 0 discriminator 2
 630 002e 0433     		adds	r3, r3, #4
 631              		.loc 1 359 0 discriminator 2
 632 0030 013C     		subs	r4, r4, #1
 633              	.LVL71:
 634              		.loc 1 361 0 discriminator 2
 635 0032 1160     		str	r1, [r2]
 636              		.loc 1 364 0 discriminator 2
 637 0034 0193     		str	r3, [sp, #4]
 638              		.loc 1 359 0 discriminator 2
 639 0036 F4D1     		bne	.L53
 640              	.L50:
 641              		.loc 1 367 0
 642 0038 03B0     		add	sp, sp, #12
 643              		.cfi_def_cfa_offset 12
 644              		@ sp needed
 645 003a 30BD     		pop	{r4, r5, pc}
 646              		.cfi_endproc
 647              	.LFE123:
 648              		.size	SDRAM_WriteBuffer, .-SDRAM_WriteBuffer
 649              		.section	.text.SDRAM_ReadBuffer,"ax",%progbits
 650              		.align	2
 651              		.p2align 4,,15
 652              		.global	SDRAM_ReadBuffer
 653              		.thumb
 654              		.thumb_func
 655              		.type	SDRAM_ReadBuffer, %function
 656              	SDRAM_ReadBuffer:
 657              	.LFB124:
 658              		.loc 1 378 0
 659              		.cfi_startproc
 660              		@ args = 0, pretend = 0, frame = 8
 661              		@ frame_needed = 0, uses_anonymous_args = 0
 662              	.LVL72:
 663 0000 30B5     		push	{r4, r5, lr}
 664              		.cfi_def_cfa_offset 12
 665              		.cfi_offset 4, -12
 666              		.cfi_offset 5, -8
 667              		.cfi_offset 14, -4
 668 0002 83B0     		sub	sp, sp, #12
 669              		.cfi_def_cfa_offset 24
 670              		.loc 1 378 0
 671 0004 0546     		mov	r5, r0
 672              		.loc 1 380 0
 673 0006 0191     		str	r1, [sp, #4]
 674              		.loc 1 378 0
 675 0008 1446     		mov	r4, r2
 676              	.LVL73:
 677              	.L59:
 678              		.loc 1 383 0 discriminator 1
 679 000a 0020     		movs	r0, #0
 680 000c 2021     		movs	r1, #32
 681 000e FFF7FEFF 		bl	FMC_GetFlagStatus
 682              	.LVL74:
 683 0012 0028     		cmp	r0, #0
 684 0014 F9D1     		bne	.L59
ARM GAS  /var/folders/28/j9jfyj_n4wz3qtvnym210h2c0000gn/T//ccfP1iQY.s 			page 13


 685              		.loc 1 387 0 discriminator 1
 686 0016 5CB1     		cbz	r4, .L58
 687              	.LVL75:
 688              	.L61:
 689              		.loc 1 388 0 discriminator 2
 690 0018 019B     		ldr	r3, [sp, #4]
 691 001a 03F14043 		add	r3, r3, #-1073741824
 692              		.loc 1 387 0 discriminator 2
 693 001e 013C     		subs	r4, r4, #1
 694              	.LVL76:
 695              		.loc 1 388 0 discriminator 2
 696 0020 1A68     		ldr	r2, [r3]
 697              		.loc 1 391 0 discriminator 2
 698 0022 019B     		ldr	r3, [sp, #4]
 699              		.loc 1 388 0 discriminator 2
 700 0024 45F8042B 		str	r2, [r5], #4
 701              	.LVL77:
 702              		.loc 1 391 0 discriminator 2
 703 0028 03F10403 		add	r3, r3, #4
 704 002c 0193     		str	r3, [sp, #4]
 705              		.loc 1 387 0 discriminator 2
 706 002e F3D1     		bne	.L61
 707              	.L58:
 708              		.loc 1 393 0
 709 0030 03B0     		add	sp, sp, #12
 710              		.cfi_def_cfa_offset 12
 711              		@ sp needed
 712 0032 30BD     		pop	{r4, r5, pc}
 713              		.cfi_endproc
 714              	.LFE124:
 715              		.size	SDRAM_ReadBuffer, .-SDRAM_ReadBuffer
 716              		.text
 717              	.Letext0:
 718              		.file 2 "/Applications/axoloti_runtime/platform_osx/arm-none-eabi/include/machine/_default_types.h
 719              		.file 3 "/Applications/axoloti_runtime/platform_osx/arm-none-eabi/include/sys/_stdint.h"
 720              		.file 4 "/Applications/Axoloti.app/Contents/Java/chibios/os/hal/platforms/STM32F4xx/stm32f4xx.h"
 721              		.file 5 "../stm32f4xx_fmc.h"
 722              		.file 6 "/Applications/Axoloti.app/Contents/Java/chibios/os/ports/GCC/ARMCMx/chtypes.h"
 723              		.file 7 "/Applications/Axoloti.app/Contents/Java/chibios/os/hal/platforms/STM32/GPIOv2/pal_lld.h"
 724              		.file 8 "../sysmon.h"
 725              		.file 9 "/Applications/Axoloti.app/Contents/Java/chibios/os/kernel/include/chthreads.h"
 726              		.file 10 "/Applications/Axoloti.app/Contents/Java/chibios/os/ports/common/ARMCMx/CMSIS/include/cor
 727              		.section	.debug_info,"",%progbits
 728              	.Ldebug_info0:
 729 0000 600A0000 		.4byte	0xa60
 730 0004 0400     		.2byte	0x4
 731 0006 00000000 		.4byte	.Ldebug_abbrev0
 732 000a 04       		.byte	0x4
 733 000b 01       		.uleb128 0x1
 734 000c 2E060000 		.4byte	.LASF131
 735 0010 01       		.byte	0x1
 736 0011 6D020000 		.4byte	.LASF132
 737 0015 B7040000 		.4byte	.LASF133
 738 0019 00000000 		.4byte	.Ldebug_ranges0+0
 739 001d 00000000 		.4byte	0
 740 0021 00000000 		.4byte	.Ldebug_line0
 741 0025 02       		.uleb128 0x2
ARM GAS  /var/folders/28/j9jfyj_n4wz3qtvnym210h2c0000gn/T//ccfP1iQY.s 			page 14


 742 0026 01       		.byte	0x1
 743 0027 06       		.byte	0x6
 744 0028 39010000 		.4byte	.LASF0
 745 002c 03       		.uleb128 0x3
 746 002d A2000000 		.4byte	.LASF3
 747 0031 02       		.byte	0x2
 748 0032 1D       		.byte	0x1d
 749 0033 37000000 		.4byte	0x37
 750 0037 02       		.uleb128 0x2
 751 0038 01       		.byte	0x1
 752 0039 08       		.byte	0x8
 753 003a A9040000 		.4byte	.LASF1
 754 003e 02       		.uleb128 0x2
 755 003f 02       		.byte	0x2
 756 0040 05       		.byte	0x5
 757 0041 81030000 		.4byte	.LASF2
 758 0045 03       		.uleb128 0x3
 759 0046 B2050000 		.4byte	.LASF4
 760 004a 02       		.byte	0x2
 761 004b 2B       		.byte	0x2b
 762 004c 50000000 		.4byte	0x50
 763 0050 02       		.uleb128 0x2
 764 0051 02       		.byte	0x2
 765 0052 07       		.byte	0x7
 766 0053 35030000 		.4byte	.LASF5
 767 0057 03       		.uleb128 0x3
 768 0058 D0050000 		.4byte	.LASF6
 769 005c 02       		.byte	0x2
 770 005d 3F       		.byte	0x3f
 771 005e 62000000 		.4byte	0x62
 772 0062 02       		.uleb128 0x2
 773 0063 04       		.byte	0x4
 774 0064 05       		.byte	0x5
 775 0065 77010000 		.4byte	.LASF7
 776 0069 03       		.uleb128 0x3
 777 006a 50020000 		.4byte	.LASF8
 778 006e 02       		.byte	0x2
 779 006f 41       		.byte	0x41
 780 0070 74000000 		.4byte	0x74
 781 0074 02       		.uleb128 0x2
 782 0075 04       		.byte	0x4
 783 0076 07       		.byte	0x7
 784 0077 D1020000 		.4byte	.LASF9
 785 007b 02       		.uleb128 0x2
 786 007c 08       		.byte	0x8
 787 007d 05       		.byte	0x5
 788 007e 2B010000 		.4byte	.LASF10
 789 0082 02       		.uleb128 0x2
 790 0083 08       		.byte	0x8
 791 0084 07       		.byte	0x7
 792 0085 55010000 		.4byte	.LASF11
 793 0089 04       		.uleb128 0x4
 794 008a 04       		.byte	0x4
 795 008b 05       		.byte	0x5
 796 008c 696E7400 		.ascii	"int\000"
 797 0090 02       		.uleb128 0x2
 798 0091 04       		.byte	0x4
ARM GAS  /var/folders/28/j9jfyj_n4wz3qtvnym210h2c0000gn/T//ccfP1iQY.s 			page 15


 799 0092 07       		.byte	0x7
 800 0093 B6020000 		.4byte	.LASF12
 801 0097 03       		.uleb128 0x3
 802 0098 8D070000 		.4byte	.LASF13
 803 009c 03       		.byte	0x3
 804 009d 14       		.byte	0x14
 805 009e 2C000000 		.4byte	0x2c
 806 00a2 03       		.uleb128 0x3
 807 00a3 05020000 		.4byte	.LASF14
 808 00a7 03       		.byte	0x3
 809 00a8 1A       		.byte	0x1a
 810 00a9 45000000 		.4byte	0x45
 811 00ad 03       		.uleb128 0x3
 812 00ae A1040000 		.4byte	.LASF15
 813 00b2 03       		.byte	0x3
 814 00b3 1F       		.byte	0x1f
 815 00b4 57000000 		.4byte	0x57
 816 00b8 03       		.uleb128 0x3
 817 00b9 8E050000 		.4byte	.LASF16
 818 00bd 03       		.byte	0x3
 819 00be 20       		.byte	0x20
 820 00bf 69000000 		.4byte	0x69
 821 00c3 02       		.uleb128 0x2
 822 00c4 04       		.byte	0x4
 823 00c5 07       		.byte	0x7
 824 00c6 A1030000 		.4byte	.LASF17
 825 00ca 05       		.uleb128 0x5
 826 00cb B8000000 		.4byte	0xb8
 827 00cf 06       		.uleb128 0x6
 828 00d0 B8000000 		.4byte	0xb8
 829 00d4 DF000000 		.4byte	0xdf
 830 00d8 07       		.uleb128 0x7
 831 00d9 C3000000 		.4byte	0xc3
 832 00dd 01       		.byte	0x1
 833 00de 00       		.byte	0
 834 00df 05       		.uleb128 0x5
 835 00e0 AD000000 		.4byte	0xad
 836 00e4 08       		.uleb128 0x8
 837 00e5 B8000000 		.4byte	0xb8
 838 00e9 09       		.uleb128 0x9
 839 00ea 01       		.byte	0x1
 840 00eb 04       		.byte	0x4
 841 00ec F701     		.2byte	0x1f7
 842 00ee FF000000 		.4byte	0xff
 843 00f2 0A       		.uleb128 0xa
 844 00f3 95040000 		.4byte	.LASF18
 845 00f7 00       		.sleb128 0
 846 00f8 0B       		.uleb128 0xb
 847 00f9 53455400 		.ascii	"SET\000"
 848 00fd 01       		.sleb128 1
 849 00fe 00       		.byte	0
 850 00ff 0C       		.uleb128 0xc
 851 0100 5F000000 		.4byte	.LASF19
 852 0104 04       		.byte	0x4
 853 0105 F701     		.2byte	0x1f7
 854 0107 E9000000 		.4byte	0xe9
 855 010b 09       		.uleb128 0x9
ARM GAS  /var/folders/28/j9jfyj_n4wz3qtvnym210h2c0000gn/T//ccfP1iQY.s 			page 16


 856 010c 01       		.byte	0x1
 857 010d 04       		.byte	0x4
 858 010e F901     		.2byte	0x1f9
 859 0110 21010000 		.4byte	0x121
 860 0114 0A       		.uleb128 0xa
 861 0115 B4000000 		.4byte	.LASF20
 862 0119 00       		.sleb128 0
 863 011a 0A       		.uleb128 0xa
 864 011b D5010000 		.4byte	.LASF21
 865 011f 01       		.sleb128 1
 866 0120 00       		.byte	0
 867 0121 0C       		.uleb128 0xc
 868 0122 EE030000 		.4byte	.LASF22
 869 0126 04       		.byte	0x4
 870 0127 F901     		.2byte	0x1f9
 871 0129 0B010000 		.4byte	0x10b
 872 012d 0D       		.uleb128 0xd
 873 012e 90       		.byte	0x90
 874 012f 04       		.byte	0x4
 875 0130 5804     		.2byte	0x458
 876 0132 D6020000 		.4byte	0x2d6
 877 0136 0E       		.uleb128 0xe
 878 0137 435200   		.ascii	"CR\000"
 879 013a 04       		.byte	0x4
 880 013b 5A04     		.2byte	0x45a
 881 013d CA000000 		.4byte	0xca
 882 0141 00       		.byte	0
 883 0142 0F       		.uleb128 0xf
 884 0143 60030000 		.4byte	.LASF23
 885 0147 04       		.byte	0x4
 886 0148 5B04     		.2byte	0x45b
 887 014a CA000000 		.4byte	0xca
 888 014e 04       		.byte	0x4
 889 014f 0F       		.uleb128 0xf
 890 0150 D1070000 		.4byte	.LASF24
 891 0154 04       		.byte	0x4
 892 0155 5C04     		.2byte	0x45c
 893 0157 CA000000 		.4byte	0xca
 894 015b 08       		.byte	0x8
 895 015c 0E       		.uleb128 0xe
 896 015d 43495200 		.ascii	"CIR\000"
 897 0161 04       		.byte	0x4
 898 0162 5D04     		.2byte	0x45d
 899 0164 CA000000 		.4byte	0xca
 900 0168 0C       		.byte	0xc
 901 0169 0F       		.uleb128 0xf
 902 016a 4C010000 		.4byte	.LASF25
 903 016e 04       		.byte	0x4
 904 016f 5E04     		.2byte	0x45e
 905 0171 CA000000 		.4byte	0xca
 906 0175 10       		.byte	0x10
 907 0176 0F       		.uleb128 0xf
 908 0177 BD050000 		.4byte	.LASF26
 909 017b 04       		.byte	0x4
 910 017c 5F04     		.2byte	0x45f
 911 017e CA000000 		.4byte	0xca
 912 0182 14       		.byte	0x14
ARM GAS  /var/folders/28/j9jfyj_n4wz3qtvnym210h2c0000gn/T//ccfP1iQY.s 			page 17


 913 0183 0F       		.uleb128 0xf
 914 0184 32050000 		.4byte	.LASF27
 915 0188 04       		.byte	0x4
 916 0189 6004     		.2byte	0x460
 917 018b CA000000 		.4byte	0xca
 918 018f 18       		.byte	0x18
 919 0190 0F       		.uleb128 0xf
 920 0191 47040000 		.4byte	.LASF28
 921 0195 04       		.byte	0x4
 922 0196 6104     		.2byte	0x461
 923 0198 B8000000 		.4byte	0xb8
 924 019c 1C       		.byte	0x1c
 925 019d 0F       		.uleb128 0xf
 926 019e 4D070000 		.4byte	.LASF29
 927 01a2 04       		.byte	0x4
 928 01a3 6204     		.2byte	0x462
 929 01a5 CA000000 		.4byte	0xca
 930 01a9 20       		.byte	0x20
 931 01aa 0F       		.uleb128 0xf
 932 01ab 80010000 		.4byte	.LASF30
 933 01af 04       		.byte	0x4
 934 01b0 6304     		.2byte	0x463
 935 01b2 CA000000 		.4byte	0xca
 936 01b6 24       		.byte	0x24
 937 01b7 0F       		.uleb128 0xf
 938 01b8 51040000 		.4byte	.LASF31
 939 01bc 04       		.byte	0x4
 940 01bd 6404     		.2byte	0x464
 941 01bf CF000000 		.4byte	0xcf
 942 01c3 28       		.byte	0x28
 943 01c4 0F       		.uleb128 0xf
 944 01c5 C9070000 		.4byte	.LASF32
 945 01c9 04       		.byte	0x4
 946 01ca 6504     		.2byte	0x465
 947 01cc CA000000 		.4byte	0xca
 948 01d0 30       		.byte	0x30
 949 01d1 0F       		.uleb128 0xf
 950 01d2 0A060000 		.4byte	.LASF33
 951 01d6 04       		.byte	0x4
 952 01d7 6604     		.2byte	0x466
 953 01d9 CA000000 		.4byte	0xca
 954 01dd 34       		.byte	0x34
 955 01de 0F       		.uleb128 0xf
 956 01df 4D050000 		.4byte	.LASF34
 957 01e3 04       		.byte	0x4
 958 01e4 6704     		.2byte	0x467
 959 01e6 CA000000 		.4byte	0xca
 960 01ea 38       		.byte	0x38
 961 01eb 0F       		.uleb128 0xf
 962 01ec 5B040000 		.4byte	.LASF35
 963 01f0 04       		.byte	0x4
 964 01f1 6804     		.2byte	0x468
 965 01f3 B8000000 		.4byte	0xb8
 966 01f7 3C       		.byte	0x3c
 967 01f8 0F       		.uleb128 0xf
 968 01f9 F5050000 		.4byte	.LASF36
 969 01fd 04       		.byte	0x4
ARM GAS  /var/folders/28/j9jfyj_n4wz3qtvnym210h2c0000gn/T//ccfP1iQY.s 			page 18


 970 01fe 6904     		.2byte	0x469
 971 0200 CA000000 		.4byte	0xca
 972 0204 40       		.byte	0x40
 973 0205 0F       		.uleb128 0xf
 974 0206 2A050000 		.4byte	.LASF37
 975 020a 04       		.byte	0x4
 976 020b 6A04     		.2byte	0x46a
 977 020d CA000000 		.4byte	0xca
 978 0211 44       		.byte	0x44
 979 0212 0F       		.uleb128 0xf
 980 0213 55050000 		.4byte	.LASF38
 981 0217 04       		.byte	0x4
 982 0218 6B04     		.2byte	0x46b
 983 021a CF000000 		.4byte	0xcf
 984 021e 48       		.byte	0x48
 985 021f 0F       		.uleb128 0xf
 986 0220 19010000 		.4byte	.LASF39
 987 0224 04       		.byte	0x4
 988 0225 6C04     		.2byte	0x46c
 989 0227 CA000000 		.4byte	0xca
 990 022b 50       		.byte	0x50
 991 022c 0F       		.uleb128 0xf
 992 022d E4030000 		.4byte	.LASF40
 993 0231 04       		.byte	0x4
 994 0232 6D04     		.2byte	0x46d
 995 0234 CA000000 		.4byte	0xca
 996 0238 54       		.byte	0x54
 997 0239 0F       		.uleb128 0xf
 998 023a 20050000 		.4byte	.LASF41
 999 023e 04       		.byte	0x4
 1000 023f 6E04     		.2byte	0x46e
 1001 0241 CA000000 		.4byte	0xca
 1002 0245 58       		.byte	0x58
 1003 0246 0F       		.uleb128 0xf
 1004 0247 77040000 		.4byte	.LASF42
 1005 024b 04       		.byte	0x4
 1006 024c 6F04     		.2byte	0x46f
 1007 024e B8000000 		.4byte	0xb8
 1008 0252 5C       		.byte	0x5c
 1009 0253 0F       		.uleb128 0xf
 1010 0254 89010000 		.4byte	.LASF43
 1011 0258 04       		.byte	0x4
 1012 0259 7004     		.2byte	0x470
 1013 025b CA000000 		.4byte	0xca
 1014 025f 60       		.byte	0x60
 1015 0260 0F       		.uleb128 0xf
 1016 0261 77030000 		.4byte	.LASF44
 1017 0265 04       		.byte	0x4
 1018 0266 7104     		.2byte	0x471
 1019 0268 CA000000 		.4byte	0xca
 1020 026c 64       		.byte	0x64
 1021 026d 0F       		.uleb128 0xf
 1022 026e 81040000 		.4byte	.LASF45
 1023 0272 04       		.byte	0x4
 1024 0273 7204     		.2byte	0x472
 1025 0275 CF000000 		.4byte	0xcf
 1026 0279 68       		.byte	0x68
ARM GAS  /var/folders/28/j9jfyj_n4wz3qtvnym210h2c0000gn/T//ccfP1iQY.s 			page 19


 1027 027a 0F       		.uleb128 0xf
 1028 027b 6A070000 		.4byte	.LASF46
 1029 027f 04       		.byte	0x4
 1030 0280 7304     		.2byte	0x473
 1031 0282 CA000000 		.4byte	0xca
 1032 0286 70       		.byte	0x70
 1033 0287 0E       		.uleb128 0xe
 1034 0288 43535200 		.ascii	"CSR\000"
 1035 028c 04       		.byte	0x4
 1036 028d 7404     		.2byte	0x474
 1037 028f CA000000 		.4byte	0xca
 1038 0293 74       		.byte	0x74
 1039 0294 0F       		.uleb128 0xf
 1040 0295 8B040000 		.4byte	.LASF47
 1041 0299 04       		.byte	0x4
 1042 029a 7504     		.2byte	0x475
 1043 029c CF000000 		.4byte	0xcf
 1044 02a0 78       		.byte	0x78
 1045 02a1 0F       		.uleb128 0xf
 1046 02a2 47070000 		.4byte	.LASF48
 1047 02a6 04       		.byte	0x4
 1048 02a7 7604     		.2byte	0x476
 1049 02a9 CA000000 		.4byte	0xca
 1050 02ad 80       		.byte	0x80
 1051 02ae 0F       		.uleb128 0xf
 1052 02af 55030000 		.4byte	.LASF49
 1053 02b3 04       		.byte	0x4
 1054 02b4 7704     		.2byte	0x477
 1055 02b6 CA000000 		.4byte	0xca
 1056 02ba 84       		.byte	0x84
 1057 02bb 0F       		.uleb128 0xf
 1058 02bc 25040000 		.4byte	.LASF50
 1059 02c0 04       		.byte	0x4
 1060 02c1 7804     		.2byte	0x478
 1061 02c3 CA000000 		.4byte	0xca
 1062 02c7 88       		.byte	0x88
 1063 02c8 0F       		.uleb128 0xf
 1064 02c9 23010000 		.4byte	.LASF51
 1065 02cd 04       		.byte	0x4
 1066 02ce 7904     		.2byte	0x479
 1067 02d0 CA000000 		.4byte	0xca
 1068 02d4 8C       		.byte	0x8c
 1069 02d5 00       		.byte	0
 1070 02d6 0C       		.uleb128 0xc
 1071 02d7 00030000 		.4byte	.LASF52
 1072 02db 04       		.byte	0x4
 1073 02dc 7B04     		.2byte	0x47b
 1074 02de 2D010000 		.4byte	0x12d
 1075 02e2 10       		.uleb128 0x10
 1076 02e3 1C       		.byte	0x1c
 1077 02e4 05       		.byte	0x5
 1078 02e5 F5       		.byte	0xf5
 1079 02e6 43030000 		.4byte	0x343
 1080 02ea 11       		.uleb128 0x11
 1081 02eb 97050000 		.4byte	.LASF53
 1082 02ef 05       		.byte	0x5
 1083 02f0 F7       		.byte	0xf7
ARM GAS  /var/folders/28/j9jfyj_n4wz3qtvnym210h2c0000gn/T//ccfP1iQY.s 			page 20


 1084 02f1 B8000000 		.4byte	0xb8
 1085 02f5 00       		.byte	0
 1086 02f6 11       		.uleb128 0x11
 1087 02f7 BC010000 		.4byte	.LASF54
 1088 02fb 05       		.byte	0x5
 1089 02fc FB       		.byte	0xfb
 1090 02fd B8000000 		.4byte	0xb8
 1091 0301 04       		.byte	0x4
 1092 0302 11       		.uleb128 0x11
 1093 0303 87000000 		.4byte	.LASF55
 1094 0307 05       		.byte	0x5
 1095 0308 FF       		.byte	0xff
 1096 0309 B8000000 		.4byte	0xb8
 1097 030d 08       		.byte	0x8
 1098 030e 0F       		.uleb128 0xf
 1099 030f 23030000 		.4byte	.LASF56
 1100 0313 05       		.byte	0x5
 1101 0314 0301     		.2byte	0x103
 1102 0316 B8000000 		.4byte	0xb8
 1103 031a 0C       		.byte	0xc
 1104 031b 0F       		.uleb128 0xf
 1105 031c F1000000 		.4byte	.LASF57
 1106 0320 05       		.byte	0x5
 1107 0321 0801     		.2byte	0x108
 1108 0323 B8000000 		.4byte	0xb8
 1109 0327 10       		.byte	0x10
 1110 0328 0F       		.uleb128 0xf
 1111 0329 90030000 		.4byte	.LASF58
 1112 032d 05       		.byte	0x5
 1113 032e 0B01     		.2byte	0x10b
 1114 0330 B8000000 		.4byte	0xb8
 1115 0334 14       		.byte	0x14
 1116 0335 0F       		.uleb128 0xf
 1117 0336 78020000 		.4byte	.LASF59
 1118 033a 05       		.byte	0x5
 1119 033b 0F01     		.2byte	0x10f
 1120 033d B8000000 		.4byte	0xb8
 1121 0341 18       		.byte	0x18
 1122 0342 00       		.byte	0
 1123 0343 0C       		.uleb128 0xc
 1124 0344 DA050000 		.4byte	.LASF60
 1125 0348 05       		.byte	0x5
 1126 0349 1301     		.2byte	0x113
 1127 034b E2020000 		.4byte	0x2e2
 1128 034f 0D       		.uleb128 0xd
 1129 0350 10       		.byte	0x10
 1130 0351 05       		.byte	0x5
 1131 0352 1A01     		.2byte	0x11a
 1132 0354 8D030000 		.4byte	0x38d
 1133 0358 0F       		.uleb128 0xf
 1134 0359 6F070000 		.4byte	.LASF61
 1135 035d 05       		.byte	0x5
 1136 035e 1C01     		.2byte	0x11c
 1137 0360 B8000000 		.4byte	0xb8
 1138 0364 00       		.byte	0
 1139 0365 0F       		.uleb128 0xf
 1140 0366 35040000 		.4byte	.LASF62
ARM GAS  /var/folders/28/j9jfyj_n4wz3qtvnym210h2c0000gn/T//ccfP1iQY.s 			page 21


 1141 036a 05       		.byte	0x5
 1142 036b 1F01     		.2byte	0x11f
 1143 036d B8000000 		.4byte	0xb8
 1144 0371 04       		.byte	0x4
 1145 0372 0F       		.uleb128 0xf
 1146 0373 32020000 		.4byte	.LASF63
 1147 0377 05       		.byte	0x5
 1148 0378 2201     		.2byte	0x122
 1149 037a B8000000 		.4byte	0xb8
 1150 037e 08       		.byte	0x8
 1151 037f 0F       		.uleb128 0xf
 1152 0380 93010000 		.4byte	.LASF64
 1153 0384 05       		.byte	0x5
 1154 0385 2601     		.2byte	0x126
 1155 0387 B8000000 		.4byte	0xb8
 1156 038b 0C       		.byte	0xc
 1157 038c 00       		.byte	0
 1158 038d 0C       		.uleb128 0xc
 1159 038e 76050000 		.4byte	.LASF65
 1160 0392 05       		.byte	0x5
 1161 0393 2801     		.2byte	0x128
 1162 0395 4F030000 		.4byte	0x34f
 1163 0399 0D       		.uleb128 0xd
 1164 039a 2C       		.byte	0x2c
 1165 039b 05       		.byte	0x5
 1166 039c 2E01     		.2byte	0x12e
 1167 039e 32040000 		.4byte	0x432
 1168 03a2 0F       		.uleb128 0xf
 1169 03a3 FE030000 		.4byte	.LASF66
 1170 03a7 05       		.byte	0x5
 1171 03a8 3001     		.2byte	0x130
 1172 03aa B8000000 		.4byte	0xb8
 1173 03ae 00       		.byte	0
 1174 03af 0F       		.uleb128 0xf
 1175 03b0 C3030000 		.4byte	.LASF67
 1176 03b4 05       		.byte	0x5
 1177 03b5 3301     		.2byte	0x133
 1178 03b7 B8000000 		.4byte	0xb8
 1179 03bb 04       		.byte	0x4
 1180 03bc 0F       		.uleb128 0xf
 1181 03bd FC040000 		.4byte	.LASF68
 1182 03c1 05       		.byte	0x5
 1183 03c2 3601     		.2byte	0x136
 1184 03c4 B8000000 		.4byte	0xb8
 1185 03c8 08       		.byte	0x8
 1186 03c9 0F       		.uleb128 0xf
 1187 03ca EF010000 		.4byte	.LASF69
 1188 03ce 05       		.byte	0x5
 1189 03cf 3901     		.2byte	0x139
 1190 03d1 B8000000 		.4byte	0xb8
 1191 03d5 0C       		.byte	0xc
 1192 03d6 0F       		.uleb128 0xf
 1193 03d7 0C030000 		.4byte	.LASF70
 1194 03db 05       		.byte	0x5
 1195 03dc 3C01     		.2byte	0x13c
 1196 03de B8000000 		.4byte	0xb8
 1197 03e2 10       		.byte	0x10
ARM GAS  /var/folders/28/j9jfyj_n4wz3qtvnym210h2c0000gn/T//ccfP1iQY.s 			page 22


 1198 03e3 0F       		.uleb128 0xf
 1199 03e4 78000000 		.4byte	.LASF71
 1200 03e8 05       		.byte	0x5
 1201 03e9 3F01     		.2byte	0x13f
 1202 03eb B8000000 		.4byte	0xb8
 1203 03ef 14       		.byte	0x14
 1204 03f0 0F       		.uleb128 0xf
 1205 03f1 56070000 		.4byte	.LASF72
 1206 03f5 05       		.byte	0x5
 1207 03f6 4201     		.2byte	0x142
 1208 03f8 B8000000 		.4byte	0xb8
 1209 03fc 18       		.byte	0x18
 1210 03fd 0F       		.uleb128 0xf
 1211 03fe 3B050000 		.4byte	.LASF73
 1212 0402 05       		.byte	0x5
 1213 0403 4501     		.2byte	0x145
 1214 0405 B8000000 		.4byte	0xb8
 1215 0409 1C       		.byte	0x1c
 1216 040a 0F       		.uleb128 0xf
 1217 040b C3020000 		.4byte	.LASF74
 1218 040f 05       		.byte	0x5
 1219 0410 4901     		.2byte	0x149
 1220 0412 B8000000 		.4byte	0xb8
 1221 0416 20       		.byte	0x20
 1222 0417 0F       		.uleb128 0xf
 1223 0418 5B020000 		.4byte	.LASF75
 1224 041c 05       		.byte	0x5
 1225 041d 4D01     		.2byte	0x14d
 1226 041f B8000000 		.4byte	0xb8
 1227 0423 24       		.byte	0x24
 1228 0424 0F       		.uleb128 0xf
 1229 0425 95070000 		.4byte	.LASF76
 1230 0429 05       		.byte	0x5
 1231 042a 5001     		.2byte	0x150
 1232 042c 32040000 		.4byte	0x432
 1233 0430 28       		.byte	0x28
 1234 0431 00       		.byte	0
 1235 0432 12       		.uleb128 0x12
 1236 0433 04       		.byte	0x4
 1237 0434 43030000 		.4byte	0x343
 1238 0438 0C       		.uleb128 0xc
 1239 0439 C2000000 		.4byte	.LASF77
 1240 043d 05       		.byte	0x5
 1241 043e 5201     		.2byte	0x152
 1242 0440 99030000 		.4byte	0x399
 1243 0444 02       		.uleb128 0x2
 1244 0445 01       		.byte	0x1
 1245 0446 02       		.byte	0x2
 1246 0447 9B040000 		.4byte	.LASF78
 1247 044b 03       		.uleb128 0x3
 1248 044c C6050000 		.4byte	.LASF79
 1249 0450 06       		.byte	0x6
 1250 0451 35       		.byte	0x35
 1251 0452 B8000000 		.4byte	0xb8
 1252 0456 13       		.uleb128 0x13
 1253 0457 04       		.byte	0x4
 1254 0458 02       		.uleb128 0x2
ARM GAS  /var/folders/28/j9jfyj_n4wz3qtvnym210h2c0000gn/T//ccfP1iQY.s 			page 23


 1255 0459 01       		.byte	0x1
 1256 045a 08       		.byte	0x8
 1257 045b AD050000 		.4byte	.LASF80
 1258 045f 10       		.uleb128 0x10
 1259 0460 04       		.byte	0x4
 1260 0461 07       		.byte	0x7
 1261 0462 96       		.byte	0x96
 1262 0463 80040000 		.4byte	0x480
 1263 0467 14       		.uleb128 0x14
 1264 0468 73657400 		.ascii	"set\000"
 1265 046c 07       		.byte	0x7
 1266 046d 97       		.byte	0x97
 1267 046e A2000000 		.4byte	0xa2
 1268 0472 00       		.byte	0
 1269 0473 11       		.uleb128 0x11
 1270 0474 AA030000 		.4byte	.LASF81
 1271 0478 07       		.byte	0x7
 1272 0479 98       		.byte	0x98
 1273 047a A2000000 		.4byte	0xa2
 1274 047e 02       		.byte	0x2
 1275 047f 00       		.byte	0
 1276 0480 15       		.uleb128 0x15
 1277 0481 04       		.byte	0x4
 1278 0482 07       		.byte	0x7
 1279 0483 94       		.byte	0x94
 1280 0484 9B040000 		.4byte	0x49b
 1281 0488 16       		.uleb128 0x16
 1282 0489 5700     		.ascii	"W\000"
 1283 048b 07       		.byte	0x7
 1284 048c 95       		.byte	0x95
 1285 048d B8000000 		.4byte	0xb8
 1286 0491 16       		.uleb128 0x16
 1287 0492 4800     		.ascii	"H\000"
 1288 0494 07       		.byte	0x7
 1289 0495 99       		.byte	0x99
 1290 0496 5F040000 		.4byte	0x45f
 1291 049a 00       		.byte	0
 1292 049b 10       		.uleb128 0x10
 1293 049c 28       		.byte	0x28
 1294 049d 07       		.byte	0x7
 1295 049e 8C       		.byte	0x8c
 1296 049f 1C050000 		.4byte	0x51c
 1297 04a3 11       		.uleb128 0x11
 1298 04a4 BC000000 		.4byte	.LASF82
 1299 04a8 07       		.byte	0x7
 1300 04a9 8E       		.byte	0x8e
 1301 04aa CA000000 		.4byte	0xca
 1302 04ae 00       		.byte	0
 1303 04af 11       		.uleb128 0x11
 1304 04b0 9B000000 		.4byte	.LASF83
 1305 04b4 07       		.byte	0x7
 1306 04b5 8F       		.byte	0x8f
 1307 04b6 CA000000 		.4byte	0xca
 1308 04ba 04       		.byte	0x4
 1309 04bb 11       		.uleb128 0x11
 1310 04bc 48020000 		.4byte	.LASF84
 1311 04c0 07       		.byte	0x7
ARM GAS  /var/folders/28/j9jfyj_n4wz3qtvnym210h2c0000gn/T//ccfP1iQY.s 			page 24


 1312 04c1 90       		.byte	0x90
 1313 04c2 CA000000 		.4byte	0xca
 1314 04c6 08       		.byte	0x8
 1315 04c7 11       		.uleb128 0x11
 1316 04c8 0D000000 		.4byte	.LASF85
 1317 04cc 07       		.byte	0x7
 1318 04cd 91       		.byte	0x91
 1319 04ce CA000000 		.4byte	0xca
 1320 04d2 0C       		.byte	0xc
 1321 04d3 14       		.uleb128 0x14
 1322 04d4 49445200 		.ascii	"IDR\000"
 1323 04d8 07       		.byte	0x7
 1324 04d9 92       		.byte	0x92
 1325 04da CA000000 		.4byte	0xca
 1326 04de 10       		.byte	0x10
 1327 04df 14       		.uleb128 0x14
 1328 04e0 4F445200 		.ascii	"ODR\000"
 1329 04e4 07       		.byte	0x7
 1330 04e5 93       		.byte	0x93
 1331 04e6 CA000000 		.4byte	0xca
 1332 04ea 14       		.byte	0x14
 1333 04eb 11       		.uleb128 0x11
 1334 04ec 30040000 		.4byte	.LASF86
 1335 04f0 07       		.byte	0x7
 1336 04f1 9A       		.byte	0x9a
 1337 04f2 1C050000 		.4byte	0x51c
 1338 04f6 18       		.byte	0x18
 1339 04f7 11       		.uleb128 0x11
 1340 04f8 1E000000 		.4byte	.LASF87
 1341 04fc 07       		.byte	0x7
 1342 04fd 9B       		.byte	0x9b
 1343 04fe CA000000 		.4byte	0xca
 1344 0502 1C       		.byte	0x1c
 1345 0503 11       		.uleb128 0x11
 1346 0504 20040000 		.4byte	.LASF88
 1347 0508 07       		.byte	0x7
 1348 0509 9C       		.byte	0x9c
 1349 050a CA000000 		.4byte	0xca
 1350 050e 20       		.byte	0x20
 1351 050f 11       		.uleb128 0x11
 1352 0510 0D040000 		.4byte	.LASF89
 1353 0514 07       		.byte	0x7
 1354 0515 9D       		.byte	0x9d
 1355 0516 CA000000 		.4byte	0xca
 1356 051a 24       		.byte	0x24
 1357 051b 00       		.byte	0
 1358 051c 05       		.uleb128 0x5
 1359 051d 80040000 		.4byte	0x480
 1360 0521 03       		.uleb128 0x3
 1361 0522 E3020000 		.4byte	.LASF90
 1362 0526 07       		.byte	0x7
 1363 0527 9E       		.byte	0x9e
 1364 0528 9B040000 		.4byte	0x49b
 1365 052c 17       		.uleb128 0x17
 1366 052d 01       		.byte	0x1
 1367 052e 08       		.byte	0x8
 1368 052f 23       		.byte	0x23
ARM GAS  /var/folders/28/j9jfyj_n4wz3qtvnym210h2c0000gn/T//ccfP1iQY.s 			page 25


 1369 0530 65050000 		.4byte	0x565
 1370 0534 0A       		.uleb128 0xa
 1371 0535 5F050000 		.4byte	.LASF91
 1372 0539 00       		.sleb128 0
 1373 053a 0A       		.uleb128 0xa
 1374 053b B7070000 		.4byte	.LASF92
 1375 053f 01       		.sleb128 1
 1376 0540 0A       		.uleb128 0xa
 1377 0541 0E050000 		.4byte	.LASF93
 1378 0545 02       		.sleb128 2
 1379 0546 0A       		.uleb128 0xa
 1380 0547 D6070000 		.4byte	.LASF94
 1381 054b 03       		.sleb128 3
 1382 054c 0A       		.uleb128 0xa
 1383 054d 4C000000 		.4byte	.LASF95
 1384 0551 04       		.sleb128 4
 1385 0552 0A       		.uleb128 0xa
 1386 0553 23000000 		.4byte	.LASF96
 1387 0557 05       		.sleb128 5
 1388 0558 0A       		.uleb128 0xa
 1389 0559 FD050000 		.4byte	.LASF97
 1390 055d 06       		.sleb128 6
 1391 055e 0A       		.uleb128 0xa
 1392 055f A6020000 		.4byte	.LASF98
 1393 0563 07       		.sleb128 7
 1394 0564 00       		.byte	0
 1395 0565 03       		.uleb128 0x3
 1396 0566 99020000 		.4byte	.LASF99
 1397 056a 08       		.byte	0x8
 1398 056b 2C       		.byte	0x2c
 1399 056c 2C050000 		.4byte	0x52c
 1400 0570 18       		.uleb128 0x18
 1401 0571 AC000000 		.4byte	.LASF105
 1402 0575 01       		.byte	0x1
 1403 0576 A4       		.byte	0xa4
 1404 0577 00000000 		.4byte	.LFB120
 1405 057b E0000000 		.4byte	.LFE120-.LFB120
 1406 057f 01       		.uleb128 0x1
 1407 0580 9C       		.byte	0x9c
 1408 0581 7A060000 		.4byte	0x67a
 1409 0585 19       		.uleb128 0x19
 1410 0586 F8020000 		.4byte	.LASF100
 1411 058a 01       		.byte	0x1
 1412 058b A5       		.byte	0xa5
 1413 058c 89000000 		.4byte	0x89
 1414 0590 00008000 		.4byte	0x800000
 1415 0594 1A       		.uleb128 0x1a
 1416 0595 9C030000 		.4byte	.LASF101
 1417 0599 01       		.byte	0x1
 1418 059a A7       		.byte	0xa7
 1419 059b 56040000 		.4byte	0x456
 1420 059f 80808080 		.sleb128 -1073741824
 1420      7C
 1421 05a4 1B       		.uleb128 0x1b
 1422 05a5 6900     		.ascii	"i\000"
 1423 05a7 01       		.byte	0x1
 1424 05a8 A9       		.byte	0xa9
ARM GAS  /var/folders/28/j9jfyj_n4wz3qtvnym210h2c0000gn/T//ccfP1iQY.s 			page 26


 1425 05a9 89000000 		.4byte	0x89
 1426 05ad 00000000 		.4byte	.LLST4
 1427 05b1 1C       		.uleb128 0x1c
 1428 05b2 6100     		.ascii	"a\000"
 1429 05b4 01       		.byte	0x1
 1430 05b5 AB       		.byte	0xab
 1431 05b6 E4000000 		.4byte	0xe4
 1432 05ba 354E5A01 		.4byte	0x15a4e35
 1433 05be 1D       		.uleb128 0x1d
 1434 05bf 6300     		.ascii	"c\000"
 1435 05c1 01       		.byte	0x1
 1436 05c2 AC       		.byte	0xac
 1437 05c3 E4000000 		.4byte	0xe4
 1438 05c7 01       		.byte	0x1
 1439 05c8 1E       		.uleb128 0x1e
 1440 05c9 8B030000 		.4byte	.LASF102
 1441 05cd 01       		.byte	0x1
 1442 05ce AE       		.byte	0xae
 1443 05cf 7A060000 		.4byte	0x67a
 1444 05d3 02       		.uleb128 0x2
 1445 05d4 91       		.byte	0x91
 1446 05d5 6C       		.sleb128 -20
 1447 05d6 1E       		.uleb128 0x1e
 1448 05d7 07040000 		.4byte	.LASF103
 1449 05db 01       		.byte	0x1
 1450 05dc AF       		.byte	0xaf
 1451 05dd 7A060000 		.4byte	0x67a
 1452 05e1 02       		.uleb128 0x2
 1453 05e2 91       		.byte	0x91
 1454 05e3 70       		.sleb128 -16
 1455 05e4 1E       		.uleb128 0x1e
 1456 05e5 45010000 		.4byte	.LASF104
 1457 05e9 01       		.byte	0x1
 1458 05ea B0       		.byte	0xb0
 1459 05eb 7A060000 		.4byte	0x67a
 1460 05ef 02       		.uleb128 0x2
 1461 05f0 91       		.byte	0x91
 1462 05f1 74       		.sleb128 -12
 1463 05f2 1B       		.uleb128 0x1b
 1464 05f3 746D7000 		.ascii	"tmp\000"
 1465 05f7 01       		.byte	0x1
 1466 05f8 B2       		.byte	0xb2
 1467 05f9 B8000000 		.4byte	0xb8
 1468 05fd 75000000 		.4byte	.LLST5
 1469 0601 1F       		.uleb128 0x1f
 1470 0602 18000000 		.4byte	.LBB2
 1471 0606 44000000 		.4byte	.LBE2-.LBB2
 1472 060a 3F060000 		.4byte	0x63f
 1473 060e 1B       		.uleb128 0x1b
 1474 060f 7800     		.ascii	"x\000"
 1475 0611 01       		.byte	0x1
 1476 0612 B9       		.byte	0xb9
 1477 0613 B8000000 		.4byte	0xb8
 1478 0617 AB000000 		.4byte	.LLST6
 1479 061b 20       		.uleb128 0x20
 1480 061c 54000000 		.4byte	.LVL23
 1481 0620 CC090000 		.4byte	0x9cc
ARM GAS  /var/folders/28/j9jfyj_n4wz3qtvnym210h2c0000gn/T//ccfP1iQY.s 			page 27


 1482 0624 2E060000 		.4byte	0x62e
 1483 0628 21       		.uleb128 0x21
 1484 0629 01       		.uleb128 0x1
 1485 062a 50       		.byte	0x50
 1486 062b 01       		.uleb128 0x1
 1487 062c 35       		.byte	0x35
 1488 062d 00       		.byte	0
 1489 062e 22       		.uleb128 0x22
 1490 062f 5A000000 		.4byte	.LVL24
 1491 0633 DD090000 		.4byte	0x9dd
 1492 0637 21       		.uleb128 0x21
 1493 0638 01       		.uleb128 0x1
 1494 0639 50       		.byte	0x50
 1495 063a 02       		.uleb128 0x2
 1496 063b 08       		.byte	0x8
 1497 063c 64       		.byte	0x64
 1498 063d 00       		.byte	0
 1499 063e 00       		.byte	0
 1500 063f 23       		.uleb128 0x23
 1501 0640 76000000 		.4byte	.LBB3
 1502 0644 54000000 		.4byte	.LBE3-.LBB3
 1503 0648 1B       		.uleb128 0x1b
 1504 0649 7800     		.ascii	"x\000"
 1505 064b 01       		.byte	0x1
 1506 064c D7       		.byte	0xd7
 1507 064d B8000000 		.4byte	0xb8
 1508 0651 F7000000 		.4byte	.LLST7
 1509 0655 20       		.uleb128 0x20
 1510 0656 C2000000 		.4byte	.LVL38
 1511 065a CC090000 		.4byte	0x9cc
 1512 065e 68060000 		.4byte	0x668
 1513 0662 21       		.uleb128 0x21
 1514 0663 01       		.uleb128 0x1
 1515 0664 50       		.byte	0x50
 1516 0665 01       		.uleb128 0x1
 1517 0666 35       		.byte	0x35
 1518 0667 00       		.byte	0
 1519 0668 22       		.uleb128 0x22
 1520 0669 C8000000 		.4byte	.LVL39
 1521 066d DD090000 		.4byte	0x9dd
 1522 0671 21       		.uleb128 0x21
 1523 0672 01       		.uleb128 0x1
 1524 0673 50       		.byte	0x50
 1525 0674 02       		.uleb128 0x2
 1526 0675 08       		.byte	0x8
 1527 0676 64       		.byte	0x64
 1528 0677 00       		.byte	0
 1529 0678 00       		.byte	0
 1530 0679 00       		.byte	0
 1531 067a 05       		.uleb128 0x5
 1532 067b 89000000 		.4byte	0x89
 1533 067f 18       		.uleb128 0x18
 1534 0680 B0030000 		.4byte	.LASF106
 1535 0684 01       		.byte	0x1
 1536 0685 F1       		.byte	0xf1
 1537 0686 00000000 		.4byte	.LFB121
 1538 068a C0000000 		.4byte	.LFE121-.LFB121
ARM GAS  /var/folders/28/j9jfyj_n4wz3qtvnym210h2c0000gn/T//ccfP1iQY.s 			page 28


 1539 068e 01       		.uleb128 0x1
 1540 068f 9C       		.byte	0x9c
 1541 0690 5B080000 		.4byte	0x85b
 1542 0694 1E       		.uleb128 0x1e
 1543 0695 D7000000 		.4byte	.LASF107
 1544 0699 01       		.byte	0x1
 1545 069a F2       		.byte	0xf2
 1546 069b 8D030000 		.4byte	0x38d
 1547 069f 02       		.uleb128 0x2
 1548 06a0 91       		.byte	0x91
 1549 06a1 68       		.sleb128 -24
 1550 06a2 24       		.uleb128 0x24
 1551 06a3 2D020000 		.4byte	.LASF108
 1552 06a7 01       		.byte	0x1
 1553 06a8 F3       		.byte	0xf3
 1554 06a9 B8000000 		.4byte	0xb8
 1555 06ad 2B010000 		.4byte	.LLST8
 1556 06b1 25       		.uleb128 0x25
 1557 06b2 07010000 		.4byte	.LASF134
 1558 06b6 01       		.byte	0x1
 1559 06b7 4701     		.2byte	0x147
 1560 06b9 00000000 		.4byte	.LFB122
 1561 06bd 34000000 		.4byte	.LFE122-.LFB122
 1562 06c1 01       		.uleb128 0x1
 1563 06c2 9C       		.byte	0x9c
 1564 06c3 16070000 		.4byte	0x716
 1565 06c7 26       		.uleb128 0x26
 1566 06c8 00080000 		.4byte	.LASF109
 1567 06cc 01       		.byte	0x1
 1568 06cd 4801     		.2byte	0x148
 1569 06cf B8000000 		.4byte	0xb8
 1570 06d3 4D010000 		.4byte	.LLST0
 1571 06d7 26       		.uleb128 0x26
 1572 06d8 0C080000 		.4byte	.LASF110
 1573 06dc 01       		.byte	0x1
 1574 06dd 4901     		.2byte	0x149
 1575 06df B8000000 		.4byte	0xb8
 1576 06e3 78010000 		.4byte	.LLST1
 1577 06e7 26       		.uleb128 0x26
 1578 06e8 7F070000 		.4byte	.LASF111
 1579 06ec 01       		.byte	0x1
 1580 06ed 4A01     		.2byte	0x14a
 1581 06ef B8000000 		.4byte	0xb8
 1582 06f3 A3010000 		.4byte	.LLST2
 1583 06f7 26       		.uleb128 0x26
 1584 06f8 AB070000 		.4byte	.LASF112
 1585 06fc 01       		.byte	0x1
 1586 06fd 4B01     		.2byte	0x14b
 1587 06ff B8000000 		.4byte	0xb8
 1588 0703 CE010000 		.4byte	.LLST3
 1589 0707 27       		.uleb128 0x27
 1590 0708 12060000 		.4byte	.LASF113
 1591 070c 01       		.byte	0x1
 1592 070d 4C01     		.2byte	0x14c
 1593 070f B8000000 		.4byte	0xb8
 1594 0713 01       		.uleb128 0x1
 1595 0714 53       		.byte	0x53
ARM GAS  /var/folders/28/j9jfyj_n4wz3qtvnym210h2c0000gn/T//ccfP1iQY.s 			page 29


 1596 0715 00       		.byte	0
 1597 0716 20       		.uleb128 0x20
 1598 0717 1A000000 		.4byte	.LVL44
 1599 071b EF090000 		.4byte	0x9ef
 1600 071f 2F070000 		.4byte	0x72f
 1601 0723 21       		.uleb128 0x21
 1602 0724 01       		.uleb128 0x1
 1603 0725 51       		.byte	0x51
 1604 0726 02       		.uleb128 0x2
 1605 0727 08       		.byte	0x8
 1606 0728 20       		.byte	0x20
 1607 0729 21       		.uleb128 0x21
 1608 072a 01       		.uleb128 0x1
 1609 072b 50       		.byte	0x50
 1610 072c 01       		.uleb128 0x1
 1611 072d 30       		.byte	0x30
 1612 072e 00       		.byte	0
 1613 072f 20       		.uleb128 0x20
 1614 0730 26000000 		.4byte	.LVL45
 1615 0734 0A0A0000 		.4byte	0xa0a
 1616 0738 43070000 		.4byte	0x743
 1617 073c 21       		.uleb128 0x21
 1618 073d 01       		.uleb128 0x1
 1619 073e 50       		.byte	0x50
 1620 073f 02       		.uleb128 0x2
 1621 0740 7D       		.byte	0x7d
 1622 0741 00       		.sleb128 0
 1623 0742 00       		.byte	0
 1624 0743 20       		.uleb128 0x20
 1625 0744 2C000000 		.4byte	.LVL46
 1626 0748 DD090000 		.4byte	0x9dd
 1627 074c 57070000 		.4byte	0x757
 1628 0750 21       		.uleb128 0x21
 1629 0751 01       		.uleb128 0x1
 1630 0752 50       		.byte	0x50
 1631 0753 02       		.uleb128 0x2
 1632 0754 08       		.byte	0x8
 1633 0755 64       		.byte	0x64
 1634 0756 00       		.byte	0
 1635 0757 20       		.uleb128 0x20
 1636 0758 3E000000 		.4byte	.LVL47
 1637 075c EF090000 		.4byte	0x9ef
 1638 0760 70070000 		.4byte	0x770
 1639 0764 21       		.uleb128 0x21
 1640 0765 01       		.uleb128 0x1
 1641 0766 51       		.byte	0x51
 1642 0767 02       		.uleb128 0x2
 1643 0768 08       		.byte	0x8
 1644 0769 20       		.byte	0x20
 1645 076a 21       		.uleb128 0x21
 1646 076b 01       		.uleb128 0x1
 1647 076c 50       		.byte	0x50
 1648 076d 01       		.uleb128 0x1
 1649 076e 30       		.byte	0x30
 1650 076f 00       		.byte	0
 1651 0770 20       		.uleb128 0x20
 1652 0771 4A000000 		.4byte	.LVL48
ARM GAS  /var/folders/28/j9jfyj_n4wz3qtvnym210h2c0000gn/T//ccfP1iQY.s 			page 30


 1653 0775 0A0A0000 		.4byte	0xa0a
 1654 0779 84070000 		.4byte	0x784
 1655 077d 21       		.uleb128 0x21
 1656 077e 01       		.uleb128 0x1
 1657 077f 50       		.byte	0x50
 1658 0780 02       		.uleb128 0x2
 1659 0781 7D       		.byte	0x7d
 1660 0782 00       		.sleb128 0
 1661 0783 00       		.byte	0
 1662 0784 20       		.uleb128 0x20
 1663 0785 5C000000 		.4byte	.LVL49
 1664 0789 EF090000 		.4byte	0x9ef
 1665 078d 9D070000 		.4byte	0x79d
 1666 0791 21       		.uleb128 0x21
 1667 0792 01       		.uleb128 0x1
 1668 0793 51       		.byte	0x51
 1669 0794 02       		.uleb128 0x2
 1670 0795 08       		.byte	0x8
 1671 0796 20       		.byte	0x20
 1672 0797 21       		.uleb128 0x21
 1673 0798 01       		.uleb128 0x1
 1674 0799 50       		.byte	0x50
 1675 079a 01       		.uleb128 0x1
 1676 079b 30       		.byte	0x30
 1677 079c 00       		.byte	0
 1678 079d 20       		.uleb128 0x20
 1679 079e 66000000 		.4byte	.LVL50
 1680 07a2 0A0A0000 		.4byte	0xa0a
 1681 07a6 B1070000 		.4byte	0x7b1
 1682 07aa 21       		.uleb128 0x21
 1683 07ab 01       		.uleb128 0x1
 1684 07ac 50       		.byte	0x50
 1685 07ad 02       		.uleb128 0x2
 1686 07ae 7D       		.byte	0x7d
 1687 07af 00       		.sleb128 0
 1688 07b0 00       		.byte	0
 1689 07b1 20       		.uleb128 0x20
 1690 07b2 6E000000 		.4byte	.LVL51
 1691 07b6 EF090000 		.4byte	0x9ef
 1692 07ba CA070000 		.4byte	0x7ca
 1693 07be 21       		.uleb128 0x21
 1694 07bf 01       		.uleb128 0x1
 1695 07c0 51       		.byte	0x51
 1696 07c1 02       		.uleb128 0x2
 1697 07c2 08       		.byte	0x8
 1698 07c3 20       		.byte	0x20
 1699 07c4 21       		.uleb128 0x21
 1700 07c5 01       		.uleb128 0x1
 1701 07c6 50       		.byte	0x50
 1702 07c7 01       		.uleb128 0x1
 1703 07c8 30       		.byte	0x30
 1704 07c9 00       		.byte	0
 1705 07ca 20       		.uleb128 0x20
 1706 07cb 78000000 		.4byte	.LVL52
 1707 07cf 0A0A0000 		.4byte	0xa0a
 1708 07d3 DE070000 		.4byte	0x7de
 1709 07d7 21       		.uleb128 0x21
ARM GAS  /var/folders/28/j9jfyj_n4wz3qtvnym210h2c0000gn/T//ccfP1iQY.s 			page 31


 1710 07d8 01       		.uleb128 0x1
 1711 07d9 50       		.byte	0x50
 1712 07da 02       		.uleb128 0x2
 1713 07db 7D       		.byte	0x7d
 1714 07dc 00       		.sleb128 0
 1715 07dd 00       		.byte	0
 1716 07de 20       		.uleb128 0x20
 1717 07df 8E000000 		.4byte	.LVL53
 1718 07e3 EF090000 		.4byte	0x9ef
 1719 07e7 F7070000 		.4byte	0x7f7
 1720 07eb 21       		.uleb128 0x21
 1721 07ec 01       		.uleb128 0x1
 1722 07ed 51       		.byte	0x51
 1723 07ee 02       		.uleb128 0x2
 1724 07ef 08       		.byte	0x8
 1725 07f0 20       		.byte	0x20
 1726 07f1 21       		.uleb128 0x21
 1727 07f2 01       		.uleb128 0x1
 1728 07f3 50       		.byte	0x50
 1729 07f4 01       		.uleb128 0x1
 1730 07f5 30       		.byte	0x30
 1731 07f6 00       		.byte	0
 1732 07f7 20       		.uleb128 0x20
 1733 07f8 98000000 		.4byte	.LVL54
 1734 07fc 0A0A0000 		.4byte	0xa0a
 1735 0800 0B080000 		.4byte	0x80b
 1736 0804 21       		.uleb128 0x21
 1737 0805 01       		.uleb128 0x1
 1738 0806 50       		.byte	0x50
 1739 0807 02       		.uleb128 0x2
 1740 0808 7D       		.byte	0x7d
 1741 0809 00       		.sleb128 0
 1742 080a 00       		.byte	0
 1743 080b 20       		.uleb128 0x20
 1744 080c A0000000 		.4byte	.LVL55
 1745 0810 220A0000 		.4byte	0xa22
 1746 0814 20080000 		.4byte	0x820
 1747 0818 21       		.uleb128 0x21
 1748 0819 01       		.uleb128 0x1
 1749 081a 50       		.byte	0x50
 1750 081b 03       		.uleb128 0x3
 1751 081c 0A       		.byte	0xa
 1752 081d AB02     		.2byte	0x2ab
 1753 081f 00       		.byte	0
 1754 0820 20       		.uleb128 0x20
 1755 0821 A8000000 		.4byte	.LVL56
 1756 0825 EF090000 		.4byte	0x9ef
 1757 0829 39080000 		.4byte	0x839
 1758 082d 21       		.uleb128 0x21
 1759 082e 01       		.uleb128 0x1
 1760 082f 51       		.byte	0x51
 1761 0830 02       		.uleb128 0x2
 1762 0831 08       		.byte	0x8
 1763 0832 20       		.byte	0x20
 1764 0833 21       		.uleb128 0x21
 1765 0834 01       		.uleb128 0x1
 1766 0835 50       		.byte	0x50
ARM GAS  /var/folders/28/j9jfyj_n4wz3qtvnym210h2c0000gn/T//ccfP1iQY.s 			page 32


 1767 0836 01       		.uleb128 0x1
 1768 0837 30       		.byte	0x30
 1769 0838 00       		.byte	0
 1770 0839 28       		.uleb128 0x28
 1771 083a B2000000 		.4byte	.LVL57
 1772 083e 340A0000 		.4byte	0xa34
 1773 0842 28       		.uleb128 0x28
 1774 0843 B6000000 		.4byte	.LVL58
 1775 0847 B1060000 		.4byte	0x6b1
 1776 084b 22       		.uleb128 0x22
 1777 084c BC000000 		.4byte	.LVL59
 1778 0850 DD090000 		.4byte	0x9dd
 1779 0854 21       		.uleb128 0x21
 1780 0855 01       		.uleb128 0x1
 1781 0856 50       		.byte	0x50
 1782 0857 01       		.uleb128 0x1
 1783 0858 31       		.byte	0x31
 1784 0859 00       		.byte	0
 1785 085a 00       		.byte	0
 1786 085b 18       		.uleb128 0x18
 1787 085c 6C010000 		.4byte	.LASF114
 1788 0860 01       		.byte	0x1
 1789 0861 3D       		.byte	0x3d
 1790 0862 00000000 		.4byte	.LFB118
 1791 0866 70000000 		.4byte	.LFE118-.LFB118
 1792 086a 01       		.uleb128 0x1
 1793 086b 9C       		.byte	0x9c
 1794 086c AD080000 		.4byte	0x8ad
 1795 0870 1E       		.uleb128 0x1e
 1796 0871 E9070000 		.4byte	.LASF115
 1797 0875 01       		.byte	0x1
 1798 0876 3E       		.byte	0x3e
 1799 0877 38040000 		.4byte	0x438
 1800 087b 03       		.uleb128 0x3
 1801 087c 91       		.byte	0x91
 1802 087d BC7F     		.sleb128 -68
 1803 087f 1E       		.uleb128 0x1e
 1804 0880 2F000000 		.4byte	.LASF116
 1805 0884 01       		.byte	0x1
 1806 0885 3F       		.byte	0x3f
 1807 0886 43030000 		.4byte	0x343
 1808 088a 03       		.uleb128 0x3
 1809 088b 91       		.byte	0x91
 1810 088c A07F     		.sleb128 -96
 1811 088e 20       		.uleb128 0x20
 1812 088f 62000000 		.4byte	.LVL60
 1813 0893 4B0A0000 		.4byte	0xa4b
 1814 0897 A3080000 		.4byte	0x8a3
 1815 089b 21       		.uleb128 0x21
 1816 089c 01       		.uleb128 0x1
 1817 089d 50       		.byte	0x50
 1818 089e 03       		.uleb128 0x3
 1819 089f 91       		.byte	0x91
 1820 08a0 BC7F     		.sleb128 -68
 1821 08a2 00       		.byte	0
 1822 08a3 28       		.uleb128 0x28
 1823 08a4 66000000 		.4byte	.LVL61
ARM GAS  /var/folders/28/j9jfyj_n4wz3qtvnym210h2c0000gn/T//ccfP1iQY.s 			page 33


 1824 08a8 7F060000 		.4byte	0x67f
 1825 08ac 00       		.byte	0
 1826 08ad 18       		.uleb128 0x18
 1827 08ae D8030000 		.4byte	.LASF117
 1828 08b2 01       		.byte	0x1
 1829 08b3 8F       		.byte	0x8f
 1830 08b4 00000000 		.4byte	.LFB119
 1831 08b8 04000000 		.4byte	.LFE119-.LFB119
 1832 08bc 01       		.uleb128 0x1
 1833 08bd 9C       		.byte	0x9c
 1834 08be CC080000 		.4byte	0x8cc
 1835 08c2 29       		.uleb128 0x29
 1836 08c3 04000000 		.4byte	.LVL62
 1837 08c7 5B080000 		.4byte	0x85b
 1838 08cb 00       		.byte	0
 1839 08cc 2A       		.uleb128 0x2a
 1840 08cd 19080000 		.4byte	.LASF118
 1841 08d1 01       		.byte	0x1
 1842 08d2 5A01     		.2byte	0x15a
 1843 08d4 00000000 		.4byte	.LFB123
 1844 08d8 3C000000 		.4byte	.LFE123-.LFB123
 1845 08dc 01       		.uleb128 0x1
 1846 08dd 9C       		.byte	0x9c
 1847 08de 4F090000 		.4byte	0x94f
 1848 08e2 2B       		.uleb128 0x2b
 1849 08e3 F0020000 		.4byte	.LASF119
 1850 08e7 01       		.byte	0x1
 1851 08e8 5A01     		.2byte	0x15a
 1852 08ea 4F090000 		.4byte	0x94f
 1853 08ee F9010000 		.4byte	.LLST9
 1854 08f2 2B       		.uleb128 0x2b
 1855 08f3 68030000 		.4byte	.LASF120
 1856 08f7 01       		.byte	0x1
 1857 08f8 5A01     		.2byte	0x15a
 1858 08fa B8000000 		.4byte	0xb8
 1859 08fe 17020000 		.4byte	.LLST10
 1860 0902 2B       		.uleb128 0x2b
 1861 0903 00000000 		.4byte	.LASF121
 1862 0907 01       		.byte	0x1
 1863 0908 5B01     		.2byte	0x15b
 1864 090a B8000000 		.4byte	0xb8
 1865 090e 4F020000 		.4byte	.LLST11
 1866 0912 27       		.uleb128 0x27
 1867 0913 12040000 		.4byte	.LASF122
 1868 0917 01       		.byte	0x1
 1869 0918 5D01     		.2byte	0x15d
 1870 091a CA000000 		.4byte	0xca
 1871 091e 02       		.uleb128 0x2
 1872 091f 91       		.byte	0x91
 1873 0920 6C       		.sleb128 -20
 1874 0921 20       		.uleb128 0x20
 1875 0922 14000000 		.4byte	.LVL66
 1876 0926 340A0000 		.4byte	0xa34
 1877 092a 39090000 		.4byte	0x939
 1878 092e 21       		.uleb128 0x21
 1879 092f 01       		.uleb128 0x1
 1880 0930 51       		.byte	0x51
ARM GAS  /var/folders/28/j9jfyj_n4wz3qtvnym210h2c0000gn/T//ccfP1iQY.s 			page 34


 1881 0931 01       		.uleb128 0x1
 1882 0932 30       		.byte	0x30
 1883 0933 21       		.uleb128 0x21
 1884 0934 01       		.uleb128 0x1
 1885 0935 50       		.byte	0x50
 1886 0936 01       		.uleb128 0x1
 1887 0937 30       		.byte	0x30
 1888 0938 00       		.byte	0
 1889 0939 22       		.uleb128 0x22
 1890 093a 1C000000 		.4byte	.LVL67
 1891 093e EF090000 		.4byte	0x9ef
 1892 0942 21       		.uleb128 0x21
 1893 0943 01       		.uleb128 0x1
 1894 0944 51       		.byte	0x51
 1895 0945 02       		.uleb128 0x2
 1896 0946 08       		.byte	0x8
 1897 0947 20       		.byte	0x20
 1898 0948 21       		.uleb128 0x21
 1899 0949 01       		.uleb128 0x1
 1900 094a 50       		.byte	0x50
 1901 094b 01       		.uleb128 0x1
 1902 094c 30       		.byte	0x30
 1903 094d 00       		.byte	0
 1904 094e 00       		.byte	0
 1905 094f 12       		.uleb128 0x12
 1906 0950 04       		.byte	0x4
 1907 0951 B8000000 		.4byte	0xb8
 1908 0955 2A       		.uleb128 0x2a
 1909 0956 1D060000 		.4byte	.LASF123
 1910 095a 01       		.byte	0x1
 1911 095b 7901     		.2byte	0x179
 1912 095d 00000000 		.4byte	.LFB124
 1913 0961 34000000 		.4byte	.LFE124-.LFB124
 1914 0965 01       		.uleb128 0x1
 1915 0966 9C       		.byte	0x9c
 1916 0967 C0090000 		.4byte	0x9c0
 1917 096b 2B       		.uleb128 0x2b
 1918 096c F0020000 		.4byte	.LASF119
 1919 0970 01       		.byte	0x1
 1920 0971 7901     		.2byte	0x179
 1921 0973 4F090000 		.4byte	0x94f
 1922 0977 85020000 		.4byte	.LLST12
 1923 097b 2B       		.uleb128 0x2b
 1924 097c AE010000 		.4byte	.LASF124
 1925 0980 01       		.byte	0x1
 1926 0981 7901     		.2byte	0x179
 1927 0983 B8000000 		.4byte	0xb8
 1928 0987 A3020000 		.4byte	.LLST13
 1929 098b 2B       		.uleb128 0x2b
 1930 098c 00000000 		.4byte	.LASF121
 1931 0990 01       		.byte	0x1
 1932 0991 7A01     		.2byte	0x17a
 1933 0993 B8000000 		.4byte	0xb8
 1934 0997 D0020000 		.4byte	.LLST14
 1935 099b 27       		.uleb128 0x27
 1936 099c 12040000 		.4byte	.LASF122
 1937 09a0 01       		.byte	0x1
ARM GAS  /var/folders/28/j9jfyj_n4wz3qtvnym210h2c0000gn/T//ccfP1iQY.s 			page 35


 1938 09a1 7C01     		.2byte	0x17c
 1939 09a3 CA000000 		.4byte	0xca
 1940 09a7 02       		.uleb128 0x2
 1941 09a8 91       		.byte	0x91
 1942 09a9 6C       		.sleb128 -20
 1943 09aa 22       		.uleb128 0x22
 1944 09ab 12000000 		.4byte	.LVL74
 1945 09af EF090000 		.4byte	0x9ef
 1946 09b3 21       		.uleb128 0x21
 1947 09b4 01       		.uleb128 0x1
 1948 09b5 51       		.byte	0x51
 1949 09b6 02       		.uleb128 0x2
 1950 09b7 08       		.byte	0x8
 1951 09b8 20       		.byte	0x20
 1952 09b9 21       		.uleb128 0x21
 1953 09ba 01       		.uleb128 0x1
 1954 09bb 50       		.byte	0x50
 1955 09bc 01       		.uleb128 0x1
 1956 09bd 30       		.byte	0x30
 1957 09be 00       		.byte	0
 1958 09bf 00       		.byte	0
 1959 09c0 2C       		.uleb128 0x2c
 1960 09c1 0C010000 		.4byte	.LASF135
 1961 09c5 0A       		.byte	0xa
 1962 09c6 9806     		.2byte	0x698
 1963 09c8 DF000000 		.4byte	0xdf
 1964 09cc 2D       		.uleb128 0x2d
 1965 09cd 48030000 		.4byte	.LASF125
 1966 09d1 08       		.byte	0x8
 1967 09d2 2E       		.byte	0x2e
 1968 09d3 DD090000 		.4byte	0x9dd
 1969 09d7 2E       		.uleb128 0x2e
 1970 09d8 65050000 		.4byte	0x565
 1971 09dc 00       		.byte	0
 1972 09dd 2F       		.uleb128 0x2f
 1973 09de 13000000 		.4byte	.LASF126
 1974 09e2 09       		.byte	0x9
 1975 09e3 7501     		.2byte	0x175
 1976 09e5 EF090000 		.4byte	0x9ef
 1977 09e9 2E       		.uleb128 0x2e
 1978 09ea 4B040000 		.4byte	0x44b
 1979 09ee 00       		.byte	0
 1980 09ef 30       		.uleb128 0x30
 1981 09f0 65040000 		.4byte	.LASF136
 1982 09f4 05       		.byte	0x5
 1983 09f5 6204     		.2byte	0x462
 1984 09f7 FF000000 		.4byte	0xff
 1985 09fb 0A0A0000 		.4byte	0xa0a
 1986 09ff 2E       		.uleb128 0x2e
 1987 0a00 B8000000 		.4byte	0xb8
 1988 0a04 2E       		.uleb128 0x2e
 1989 0a05 B8000000 		.4byte	0xb8
 1990 0a09 00       		.byte	0
 1991 0a0a 2F       		.uleb128 0x2f
 1992 0a0b DC010000 		.4byte	.LASF127
 1993 0a0f 05       		.byte	0x5
 1994 0a10 5A04     		.2byte	0x45a
ARM GAS  /var/folders/28/j9jfyj_n4wz3qtvnym210h2c0000gn/T//ccfP1iQY.s 			page 36


 1995 0a12 1C0A0000 		.4byte	0xa1c
 1996 0a16 2E       		.uleb128 0x2e
 1997 0a17 1C0A0000 		.4byte	0xa1c
 1998 0a1b 00       		.byte	0
 1999 0a1c 12       		.uleb128 0x12
 2000 0a1d 04       		.byte	0x4
 2001 0a1e 8D030000 		.4byte	0x38d
 2002 0a22 2F       		.uleb128 0x2f
 2003 0a23 85020000 		.4byte	.LASF128
 2004 0a27 05       		.byte	0x5
 2005 0a28 5C04     		.2byte	0x45c
 2006 0a2a 340A0000 		.4byte	0xa34
 2007 0a2e 2E       		.uleb128 0x2e
 2008 0a2f B8000000 		.4byte	0xb8
 2009 0a33 00       		.byte	0
 2010 0a34 2F       		.uleb128 0x2f
 2011 0a35 0E020000 		.4byte	.LASF129
 2012 0a39 05       		.byte	0x5
 2013 0a3a 5E04     		.2byte	0x45e
 2014 0a3c 4B0A0000 		.4byte	0xa4b
 2015 0a40 2E       		.uleb128 0x2e
 2016 0a41 B8000000 		.4byte	0xb8
 2017 0a45 2E       		.uleb128 0x2e
 2018 0a46 21010000 		.4byte	0x121
 2019 0a4a 00       		.byte	0
 2020 0a4b 2F       		.uleb128 0x2f
 2021 0a4c 6A000000 		.4byte	.LASF130
 2022 0a50 05       		.byte	0x5
 2023 0a51 5804     		.2byte	0x458
 2024 0a53 5D0A0000 		.4byte	0xa5d
 2025 0a57 2E       		.uleb128 0x2e
 2026 0a58 5D0A0000 		.4byte	0xa5d
 2027 0a5c 00       		.byte	0
 2028 0a5d 12       		.uleb128 0x12
 2029 0a5e 04       		.byte	0x4
 2030 0a5f 38040000 		.4byte	0x438
 2031 0a63 00       		.byte	0
 2032              		.section	.debug_abbrev,"",%progbits
 2033              	.Ldebug_abbrev0:
 2034 0000 01       		.uleb128 0x1
 2035 0001 11       		.uleb128 0x11
 2036 0002 01       		.byte	0x1
 2037 0003 25       		.uleb128 0x25
 2038 0004 0E       		.uleb128 0xe
 2039 0005 13       		.uleb128 0x13
 2040 0006 0B       		.uleb128 0xb
 2041 0007 03       		.uleb128 0x3
 2042 0008 0E       		.uleb128 0xe
 2043 0009 1B       		.uleb128 0x1b
 2044 000a 0E       		.uleb128 0xe
 2045 000b 55       		.uleb128 0x55
 2046 000c 17       		.uleb128 0x17
 2047 000d 11       		.uleb128 0x11
 2048 000e 01       		.uleb128 0x1
 2049 000f 10       		.uleb128 0x10
 2050 0010 17       		.uleb128 0x17
 2051 0011 00       		.byte	0
ARM GAS  /var/folders/28/j9jfyj_n4wz3qtvnym210h2c0000gn/T//ccfP1iQY.s 			page 37


 2052 0012 00       		.byte	0
 2053 0013 02       		.uleb128 0x2
 2054 0014 24       		.uleb128 0x24
 2055 0015 00       		.byte	0
 2056 0016 0B       		.uleb128 0xb
 2057 0017 0B       		.uleb128 0xb
 2058 0018 3E       		.uleb128 0x3e
 2059 0019 0B       		.uleb128 0xb
 2060 001a 03       		.uleb128 0x3
 2061 001b 0E       		.uleb128 0xe
 2062 001c 00       		.byte	0
 2063 001d 00       		.byte	0
 2064 001e 03       		.uleb128 0x3
 2065 001f 16       		.uleb128 0x16
 2066 0020 00       		.byte	0
 2067 0021 03       		.uleb128 0x3
 2068 0022 0E       		.uleb128 0xe
 2069 0023 3A       		.uleb128 0x3a
 2070 0024 0B       		.uleb128 0xb
 2071 0025 3B       		.uleb128 0x3b
 2072 0026 0B       		.uleb128 0xb
 2073 0027 49       		.uleb128 0x49
 2074 0028 13       		.uleb128 0x13
 2075 0029 00       		.byte	0
 2076 002a 00       		.byte	0
 2077 002b 04       		.uleb128 0x4
 2078 002c 24       		.uleb128 0x24
 2079 002d 00       		.byte	0
 2080 002e 0B       		.uleb128 0xb
 2081 002f 0B       		.uleb128 0xb
 2082 0030 3E       		.uleb128 0x3e
 2083 0031 0B       		.uleb128 0xb
 2084 0032 03       		.uleb128 0x3
 2085 0033 08       		.uleb128 0x8
 2086 0034 00       		.byte	0
 2087 0035 00       		.byte	0
 2088 0036 05       		.uleb128 0x5
 2089 0037 35       		.uleb128 0x35
 2090 0038 00       		.byte	0
 2091 0039 49       		.uleb128 0x49
 2092 003a 13       		.uleb128 0x13
 2093 003b 00       		.byte	0
 2094 003c 00       		.byte	0
 2095 003d 06       		.uleb128 0x6
 2096 003e 01       		.uleb128 0x1
 2097 003f 01       		.byte	0x1
 2098 0040 49       		.uleb128 0x49
 2099 0041 13       		.uleb128 0x13
 2100 0042 01       		.uleb128 0x1
 2101 0043 13       		.uleb128 0x13
 2102 0044 00       		.byte	0
 2103 0045 00       		.byte	0
 2104 0046 07       		.uleb128 0x7
 2105 0047 21       		.uleb128 0x21
 2106 0048 00       		.byte	0
 2107 0049 49       		.uleb128 0x49
 2108 004a 13       		.uleb128 0x13
ARM GAS  /var/folders/28/j9jfyj_n4wz3qtvnym210h2c0000gn/T//ccfP1iQY.s 			page 38


 2109 004b 2F       		.uleb128 0x2f
 2110 004c 0B       		.uleb128 0xb
 2111 004d 00       		.byte	0
 2112 004e 00       		.byte	0
 2113 004f 08       		.uleb128 0x8
 2114 0050 26       		.uleb128 0x26
 2115 0051 00       		.byte	0
 2116 0052 49       		.uleb128 0x49
 2117 0053 13       		.uleb128 0x13
 2118 0054 00       		.byte	0
 2119 0055 00       		.byte	0
 2120 0056 09       		.uleb128 0x9
 2121 0057 04       		.uleb128 0x4
 2122 0058 01       		.byte	0x1
 2123 0059 0B       		.uleb128 0xb
 2124 005a 0B       		.uleb128 0xb
 2125 005b 3A       		.uleb128 0x3a
 2126 005c 0B       		.uleb128 0xb
 2127 005d 3B       		.uleb128 0x3b
 2128 005e 05       		.uleb128 0x5
 2129 005f 01       		.uleb128 0x1
 2130 0060 13       		.uleb128 0x13
 2131 0061 00       		.byte	0
 2132 0062 00       		.byte	0
 2133 0063 0A       		.uleb128 0xa
 2134 0064 28       		.uleb128 0x28
 2135 0065 00       		.byte	0
 2136 0066 03       		.uleb128 0x3
 2137 0067 0E       		.uleb128 0xe
 2138 0068 1C       		.uleb128 0x1c
 2139 0069 0D       		.uleb128 0xd
 2140 006a 00       		.byte	0
 2141 006b 00       		.byte	0
 2142 006c 0B       		.uleb128 0xb
 2143 006d 28       		.uleb128 0x28
 2144 006e 00       		.byte	0
 2145 006f 03       		.uleb128 0x3
 2146 0070 08       		.uleb128 0x8
 2147 0071 1C       		.uleb128 0x1c
 2148 0072 0D       		.uleb128 0xd
 2149 0073 00       		.byte	0
 2150 0074 00       		.byte	0
 2151 0075 0C       		.uleb128 0xc
 2152 0076 16       		.uleb128 0x16
 2153 0077 00       		.byte	0
 2154 0078 03       		.uleb128 0x3
 2155 0079 0E       		.uleb128 0xe
 2156 007a 3A       		.uleb128 0x3a
 2157 007b 0B       		.uleb128 0xb
 2158 007c 3B       		.uleb128 0x3b
 2159 007d 05       		.uleb128 0x5
 2160 007e 49       		.uleb128 0x49
 2161 007f 13       		.uleb128 0x13
 2162 0080 00       		.byte	0
 2163 0081 00       		.byte	0
 2164 0082 0D       		.uleb128 0xd
 2165 0083 13       		.uleb128 0x13
ARM GAS  /var/folders/28/j9jfyj_n4wz3qtvnym210h2c0000gn/T//ccfP1iQY.s 			page 39


 2166 0084 01       		.byte	0x1
 2167 0085 0B       		.uleb128 0xb
 2168 0086 0B       		.uleb128 0xb
 2169 0087 3A       		.uleb128 0x3a
 2170 0088 0B       		.uleb128 0xb
 2171 0089 3B       		.uleb128 0x3b
 2172 008a 05       		.uleb128 0x5
 2173 008b 01       		.uleb128 0x1
 2174 008c 13       		.uleb128 0x13
 2175 008d 00       		.byte	0
 2176 008e 00       		.byte	0
 2177 008f 0E       		.uleb128 0xe
 2178 0090 0D       		.uleb128 0xd
 2179 0091 00       		.byte	0
 2180 0092 03       		.uleb128 0x3
 2181 0093 08       		.uleb128 0x8
 2182 0094 3A       		.uleb128 0x3a
 2183 0095 0B       		.uleb128 0xb
 2184 0096 3B       		.uleb128 0x3b
 2185 0097 05       		.uleb128 0x5
 2186 0098 49       		.uleb128 0x49
 2187 0099 13       		.uleb128 0x13
 2188 009a 38       		.uleb128 0x38
 2189 009b 0B       		.uleb128 0xb
 2190 009c 00       		.byte	0
 2191 009d 00       		.byte	0
 2192 009e 0F       		.uleb128 0xf
 2193 009f 0D       		.uleb128 0xd
 2194 00a0 00       		.byte	0
 2195 00a1 03       		.uleb128 0x3
 2196 00a2 0E       		.uleb128 0xe
 2197 00a3 3A       		.uleb128 0x3a
 2198 00a4 0B       		.uleb128 0xb
 2199 00a5 3B       		.uleb128 0x3b
 2200 00a6 05       		.uleb128 0x5
 2201 00a7 49       		.uleb128 0x49
 2202 00a8 13       		.uleb128 0x13
 2203 00a9 38       		.uleb128 0x38
 2204 00aa 0B       		.uleb128 0xb
 2205 00ab 00       		.byte	0
 2206 00ac 00       		.byte	0
 2207 00ad 10       		.uleb128 0x10
 2208 00ae 13       		.uleb128 0x13
 2209 00af 01       		.byte	0x1
 2210 00b0 0B       		.uleb128 0xb
 2211 00b1 0B       		.uleb128 0xb
 2212 00b2 3A       		.uleb128 0x3a
 2213 00b3 0B       		.uleb128 0xb
 2214 00b4 3B       		.uleb128 0x3b
 2215 00b5 0B       		.uleb128 0xb
 2216 00b6 01       		.uleb128 0x1
 2217 00b7 13       		.uleb128 0x13
 2218 00b8 00       		.byte	0
 2219 00b9 00       		.byte	0
 2220 00ba 11       		.uleb128 0x11
 2221 00bb 0D       		.uleb128 0xd
 2222 00bc 00       		.byte	0
ARM GAS  /var/folders/28/j9jfyj_n4wz3qtvnym210h2c0000gn/T//ccfP1iQY.s 			page 40


 2223 00bd 03       		.uleb128 0x3
 2224 00be 0E       		.uleb128 0xe
 2225 00bf 3A       		.uleb128 0x3a
 2226 00c0 0B       		.uleb128 0xb
 2227 00c1 3B       		.uleb128 0x3b
 2228 00c2 0B       		.uleb128 0xb
 2229 00c3 49       		.uleb128 0x49
 2230 00c4 13       		.uleb128 0x13
 2231 00c5 38       		.uleb128 0x38
 2232 00c6 0B       		.uleb128 0xb
 2233 00c7 00       		.byte	0
 2234 00c8 00       		.byte	0
 2235 00c9 12       		.uleb128 0x12
 2236 00ca 0F       		.uleb128 0xf
 2237 00cb 00       		.byte	0
 2238 00cc 0B       		.uleb128 0xb
 2239 00cd 0B       		.uleb128 0xb
 2240 00ce 49       		.uleb128 0x49
 2241 00cf 13       		.uleb128 0x13
 2242 00d0 00       		.byte	0
 2243 00d1 00       		.byte	0
 2244 00d2 13       		.uleb128 0x13
 2245 00d3 0F       		.uleb128 0xf
 2246 00d4 00       		.byte	0
 2247 00d5 0B       		.uleb128 0xb
 2248 00d6 0B       		.uleb128 0xb
 2249 00d7 00       		.byte	0
 2250 00d8 00       		.byte	0
 2251 00d9 14       		.uleb128 0x14
 2252 00da 0D       		.uleb128 0xd
 2253 00db 00       		.byte	0
 2254 00dc 03       		.uleb128 0x3
 2255 00dd 08       		.uleb128 0x8
 2256 00de 3A       		.uleb128 0x3a
 2257 00df 0B       		.uleb128 0xb
 2258 00e0 3B       		.uleb128 0x3b
 2259 00e1 0B       		.uleb128 0xb
 2260 00e2 49       		.uleb128 0x49
 2261 00e3 13       		.uleb128 0x13
 2262 00e4 38       		.uleb128 0x38
 2263 00e5 0B       		.uleb128 0xb
 2264 00e6 00       		.byte	0
 2265 00e7 00       		.byte	0
 2266 00e8 15       		.uleb128 0x15
 2267 00e9 17       		.uleb128 0x17
 2268 00ea 01       		.byte	0x1
 2269 00eb 0B       		.uleb128 0xb
 2270 00ec 0B       		.uleb128 0xb
 2271 00ed 3A       		.uleb128 0x3a
 2272 00ee 0B       		.uleb128 0xb
 2273 00ef 3B       		.uleb128 0x3b
 2274 00f0 0B       		.uleb128 0xb
 2275 00f1 01       		.uleb128 0x1
 2276 00f2 13       		.uleb128 0x13
 2277 00f3 00       		.byte	0
 2278 00f4 00       		.byte	0
 2279 00f5 16       		.uleb128 0x16
ARM GAS  /var/folders/28/j9jfyj_n4wz3qtvnym210h2c0000gn/T//ccfP1iQY.s 			page 41


 2280 00f6 0D       		.uleb128 0xd
 2281 00f7 00       		.byte	0
 2282 00f8 03       		.uleb128 0x3
 2283 00f9 08       		.uleb128 0x8
 2284 00fa 3A       		.uleb128 0x3a
 2285 00fb 0B       		.uleb128 0xb
 2286 00fc 3B       		.uleb128 0x3b
 2287 00fd 0B       		.uleb128 0xb
 2288 00fe 49       		.uleb128 0x49
 2289 00ff 13       		.uleb128 0x13
 2290 0100 00       		.byte	0
 2291 0101 00       		.byte	0
 2292 0102 17       		.uleb128 0x17
 2293 0103 04       		.uleb128 0x4
 2294 0104 01       		.byte	0x1
 2295 0105 0B       		.uleb128 0xb
 2296 0106 0B       		.uleb128 0xb
 2297 0107 3A       		.uleb128 0x3a
 2298 0108 0B       		.uleb128 0xb
 2299 0109 3B       		.uleb128 0x3b
 2300 010a 0B       		.uleb128 0xb
 2301 010b 01       		.uleb128 0x1
 2302 010c 13       		.uleb128 0x13
 2303 010d 00       		.byte	0
 2304 010e 00       		.byte	0
 2305 010f 18       		.uleb128 0x18
 2306 0110 2E       		.uleb128 0x2e
 2307 0111 01       		.byte	0x1
 2308 0112 3F       		.uleb128 0x3f
 2309 0113 19       		.uleb128 0x19
 2310 0114 03       		.uleb128 0x3
 2311 0115 0E       		.uleb128 0xe
 2312 0116 3A       		.uleb128 0x3a
 2313 0117 0B       		.uleb128 0xb
 2314 0118 3B       		.uleb128 0x3b
 2315 0119 0B       		.uleb128 0xb
 2316 011a 27       		.uleb128 0x27
 2317 011b 19       		.uleb128 0x19
 2318 011c 11       		.uleb128 0x11
 2319 011d 01       		.uleb128 0x1
 2320 011e 12       		.uleb128 0x12
 2321 011f 06       		.uleb128 0x6
 2322 0120 40       		.uleb128 0x40
 2323 0121 18       		.uleb128 0x18
 2324 0122 9742     		.uleb128 0x2117
 2325 0124 19       		.uleb128 0x19
 2326 0125 01       		.uleb128 0x1
 2327 0126 13       		.uleb128 0x13
 2328 0127 00       		.byte	0
 2329 0128 00       		.byte	0
 2330 0129 19       		.uleb128 0x19
 2331 012a 34       		.uleb128 0x34
 2332 012b 00       		.byte	0
 2333 012c 03       		.uleb128 0x3
 2334 012d 0E       		.uleb128 0xe
 2335 012e 3A       		.uleb128 0x3a
 2336 012f 0B       		.uleb128 0xb
ARM GAS  /var/folders/28/j9jfyj_n4wz3qtvnym210h2c0000gn/T//ccfP1iQY.s 			page 42


 2337 0130 3B       		.uleb128 0x3b
 2338 0131 0B       		.uleb128 0xb
 2339 0132 49       		.uleb128 0x49
 2340 0133 13       		.uleb128 0x13
 2341 0134 1C       		.uleb128 0x1c
 2342 0135 06       		.uleb128 0x6
 2343 0136 00       		.byte	0
 2344 0137 00       		.byte	0
 2345 0138 1A       		.uleb128 0x1a
 2346 0139 34       		.uleb128 0x34
 2347 013a 00       		.byte	0
 2348 013b 03       		.uleb128 0x3
 2349 013c 0E       		.uleb128 0xe
 2350 013d 3A       		.uleb128 0x3a
 2351 013e 0B       		.uleb128 0xb
 2352 013f 3B       		.uleb128 0x3b
 2353 0140 0B       		.uleb128 0xb
 2354 0141 49       		.uleb128 0x49
 2355 0142 13       		.uleb128 0x13
 2356 0143 1C       		.uleb128 0x1c
 2357 0144 0D       		.uleb128 0xd
 2358 0145 00       		.byte	0
 2359 0146 00       		.byte	0
 2360 0147 1B       		.uleb128 0x1b
 2361 0148 34       		.uleb128 0x34
 2362 0149 00       		.byte	0
 2363 014a 03       		.uleb128 0x3
 2364 014b 08       		.uleb128 0x8
 2365 014c 3A       		.uleb128 0x3a
 2366 014d 0B       		.uleb128 0xb
 2367 014e 3B       		.uleb128 0x3b
 2368 014f 0B       		.uleb128 0xb
 2369 0150 49       		.uleb128 0x49
 2370 0151 13       		.uleb128 0x13
 2371 0152 02       		.uleb128 0x2
 2372 0153 17       		.uleb128 0x17
 2373 0154 00       		.byte	0
 2374 0155 00       		.byte	0
 2375 0156 1C       		.uleb128 0x1c
 2376 0157 34       		.uleb128 0x34
 2377 0158 00       		.byte	0
 2378 0159 03       		.uleb128 0x3
 2379 015a 08       		.uleb128 0x8
 2380 015b 3A       		.uleb128 0x3a
 2381 015c 0B       		.uleb128 0xb
 2382 015d 3B       		.uleb128 0x3b
 2383 015e 0B       		.uleb128 0xb
 2384 015f 49       		.uleb128 0x49
 2385 0160 13       		.uleb128 0x13
 2386 0161 1C       		.uleb128 0x1c
 2387 0162 06       		.uleb128 0x6
 2388 0163 00       		.byte	0
 2389 0164 00       		.byte	0
 2390 0165 1D       		.uleb128 0x1d
 2391 0166 34       		.uleb128 0x34
 2392 0167 00       		.byte	0
 2393 0168 03       		.uleb128 0x3
ARM GAS  /var/folders/28/j9jfyj_n4wz3qtvnym210h2c0000gn/T//ccfP1iQY.s 			page 43


 2394 0169 08       		.uleb128 0x8
 2395 016a 3A       		.uleb128 0x3a
 2396 016b 0B       		.uleb128 0xb
 2397 016c 3B       		.uleb128 0x3b
 2398 016d 0B       		.uleb128 0xb
 2399 016e 49       		.uleb128 0x49
 2400 016f 13       		.uleb128 0x13
 2401 0170 1C       		.uleb128 0x1c
 2402 0171 0B       		.uleb128 0xb
 2403 0172 00       		.byte	0
 2404 0173 00       		.byte	0
 2405 0174 1E       		.uleb128 0x1e
 2406 0175 34       		.uleb128 0x34
 2407 0176 00       		.byte	0
 2408 0177 03       		.uleb128 0x3
 2409 0178 0E       		.uleb128 0xe
 2410 0179 3A       		.uleb128 0x3a
 2411 017a 0B       		.uleb128 0xb
 2412 017b 3B       		.uleb128 0x3b
 2413 017c 0B       		.uleb128 0xb
 2414 017d 49       		.uleb128 0x49
 2415 017e 13       		.uleb128 0x13
 2416 017f 02       		.uleb128 0x2
 2417 0180 18       		.uleb128 0x18
 2418 0181 00       		.byte	0
 2419 0182 00       		.byte	0
 2420 0183 1F       		.uleb128 0x1f
 2421 0184 0B       		.uleb128 0xb
 2422 0185 01       		.byte	0x1
 2423 0186 11       		.uleb128 0x11
 2424 0187 01       		.uleb128 0x1
 2425 0188 12       		.uleb128 0x12
 2426 0189 06       		.uleb128 0x6
 2427 018a 01       		.uleb128 0x1
 2428 018b 13       		.uleb128 0x13
 2429 018c 00       		.byte	0
 2430 018d 00       		.byte	0
 2431 018e 20       		.uleb128 0x20
 2432 018f 898201   		.uleb128 0x4109
 2433 0192 01       		.byte	0x1
 2434 0193 11       		.uleb128 0x11
 2435 0194 01       		.uleb128 0x1
 2436 0195 31       		.uleb128 0x31
 2437 0196 13       		.uleb128 0x13
 2438 0197 01       		.uleb128 0x1
 2439 0198 13       		.uleb128 0x13
 2440 0199 00       		.byte	0
 2441 019a 00       		.byte	0
 2442 019b 21       		.uleb128 0x21
 2443 019c 8A8201   		.uleb128 0x410a
 2444 019f 00       		.byte	0
 2445 01a0 02       		.uleb128 0x2
 2446 01a1 18       		.uleb128 0x18
 2447 01a2 9142     		.uleb128 0x2111
 2448 01a4 18       		.uleb128 0x18
 2449 01a5 00       		.byte	0
 2450 01a6 00       		.byte	0
ARM GAS  /var/folders/28/j9jfyj_n4wz3qtvnym210h2c0000gn/T//ccfP1iQY.s 			page 44


 2451 01a7 22       		.uleb128 0x22
 2452 01a8 898201   		.uleb128 0x4109
 2453 01ab 01       		.byte	0x1
 2454 01ac 11       		.uleb128 0x11
 2455 01ad 01       		.uleb128 0x1
 2456 01ae 31       		.uleb128 0x31
 2457 01af 13       		.uleb128 0x13
 2458 01b0 00       		.byte	0
 2459 01b1 00       		.byte	0
 2460 01b2 23       		.uleb128 0x23
 2461 01b3 0B       		.uleb128 0xb
 2462 01b4 01       		.byte	0x1
 2463 01b5 11       		.uleb128 0x11
 2464 01b6 01       		.uleb128 0x1
 2465 01b7 12       		.uleb128 0x12
 2466 01b8 06       		.uleb128 0x6
 2467 01b9 00       		.byte	0
 2468 01ba 00       		.byte	0
 2469 01bb 24       		.uleb128 0x24
 2470 01bc 34       		.uleb128 0x34
 2471 01bd 00       		.byte	0
 2472 01be 03       		.uleb128 0x3
 2473 01bf 0E       		.uleb128 0xe
 2474 01c0 3A       		.uleb128 0x3a
 2475 01c1 0B       		.uleb128 0xb
 2476 01c2 3B       		.uleb128 0x3b
 2477 01c3 0B       		.uleb128 0xb
 2478 01c4 49       		.uleb128 0x49
 2479 01c5 13       		.uleb128 0x13
 2480 01c6 02       		.uleb128 0x2
 2481 01c7 17       		.uleb128 0x17
 2482 01c8 00       		.byte	0
 2483 01c9 00       		.byte	0
 2484 01ca 25       		.uleb128 0x25
 2485 01cb 2E       		.uleb128 0x2e
 2486 01cc 01       		.byte	0x1
 2487 01cd 03       		.uleb128 0x3
 2488 01ce 0E       		.uleb128 0xe
 2489 01cf 3A       		.uleb128 0x3a
 2490 01d0 0B       		.uleb128 0xb
 2491 01d1 3B       		.uleb128 0x3b
 2492 01d2 05       		.uleb128 0x5
 2493 01d3 11       		.uleb128 0x11
 2494 01d4 01       		.uleb128 0x1
 2495 01d5 12       		.uleb128 0x12
 2496 01d6 06       		.uleb128 0x6
 2497 01d7 40       		.uleb128 0x40
 2498 01d8 18       		.uleb128 0x18
 2499 01d9 9742     		.uleb128 0x2117
 2500 01db 19       		.uleb128 0x19
 2501 01dc 01       		.uleb128 0x1
 2502 01dd 13       		.uleb128 0x13
 2503 01de 00       		.byte	0
 2504 01df 00       		.byte	0
 2505 01e0 26       		.uleb128 0x26
 2506 01e1 34       		.uleb128 0x34
 2507 01e2 00       		.byte	0
ARM GAS  /var/folders/28/j9jfyj_n4wz3qtvnym210h2c0000gn/T//ccfP1iQY.s 			page 45


 2508 01e3 03       		.uleb128 0x3
 2509 01e4 0E       		.uleb128 0xe
 2510 01e5 3A       		.uleb128 0x3a
 2511 01e6 0B       		.uleb128 0xb
 2512 01e7 3B       		.uleb128 0x3b
 2513 01e8 05       		.uleb128 0x5
 2514 01e9 49       		.uleb128 0x49
 2515 01ea 13       		.uleb128 0x13
 2516 01eb 02       		.uleb128 0x2
 2517 01ec 17       		.uleb128 0x17
 2518 01ed 00       		.byte	0
 2519 01ee 00       		.byte	0
 2520 01ef 27       		.uleb128 0x27
 2521 01f0 34       		.uleb128 0x34
 2522 01f1 00       		.byte	0
 2523 01f2 03       		.uleb128 0x3
 2524 01f3 0E       		.uleb128 0xe
 2525 01f4 3A       		.uleb128 0x3a
 2526 01f5 0B       		.uleb128 0xb
 2527 01f6 3B       		.uleb128 0x3b
 2528 01f7 05       		.uleb128 0x5
 2529 01f8 49       		.uleb128 0x49
 2530 01f9 13       		.uleb128 0x13
 2531 01fa 02       		.uleb128 0x2
 2532 01fb 18       		.uleb128 0x18
 2533 01fc 00       		.byte	0
 2534 01fd 00       		.byte	0
 2535 01fe 28       		.uleb128 0x28
 2536 01ff 898201   		.uleb128 0x4109
 2537 0202 00       		.byte	0
 2538 0203 11       		.uleb128 0x11
 2539 0204 01       		.uleb128 0x1
 2540 0205 31       		.uleb128 0x31
 2541 0206 13       		.uleb128 0x13
 2542 0207 00       		.byte	0
 2543 0208 00       		.byte	0
 2544 0209 29       		.uleb128 0x29
 2545 020a 898201   		.uleb128 0x4109
 2546 020d 00       		.byte	0
 2547 020e 11       		.uleb128 0x11
 2548 020f 01       		.uleb128 0x1
 2549 0210 9542     		.uleb128 0x2115
 2550 0212 19       		.uleb128 0x19
 2551 0213 31       		.uleb128 0x31
 2552 0214 13       		.uleb128 0x13
 2553 0215 00       		.byte	0
 2554 0216 00       		.byte	0
 2555 0217 2A       		.uleb128 0x2a
 2556 0218 2E       		.uleb128 0x2e
 2557 0219 01       		.byte	0x1
 2558 021a 3F       		.uleb128 0x3f
 2559 021b 19       		.uleb128 0x19
 2560 021c 03       		.uleb128 0x3
 2561 021d 0E       		.uleb128 0xe
 2562 021e 3A       		.uleb128 0x3a
 2563 021f 0B       		.uleb128 0xb
 2564 0220 3B       		.uleb128 0x3b
ARM GAS  /var/folders/28/j9jfyj_n4wz3qtvnym210h2c0000gn/T//ccfP1iQY.s 			page 46


 2565 0221 05       		.uleb128 0x5
 2566 0222 27       		.uleb128 0x27
 2567 0223 19       		.uleb128 0x19
 2568 0224 11       		.uleb128 0x11
 2569 0225 01       		.uleb128 0x1
 2570 0226 12       		.uleb128 0x12
 2571 0227 06       		.uleb128 0x6
 2572 0228 40       		.uleb128 0x40
 2573 0229 18       		.uleb128 0x18
 2574 022a 9742     		.uleb128 0x2117
 2575 022c 19       		.uleb128 0x19
 2576 022d 01       		.uleb128 0x1
 2577 022e 13       		.uleb128 0x13
 2578 022f 00       		.byte	0
 2579 0230 00       		.byte	0
 2580 0231 2B       		.uleb128 0x2b
 2581 0232 05       		.uleb128 0x5
 2582 0233 00       		.byte	0
 2583 0234 03       		.uleb128 0x3
 2584 0235 0E       		.uleb128 0xe
 2585 0236 3A       		.uleb128 0x3a
 2586 0237 0B       		.uleb128 0xb
 2587 0238 3B       		.uleb128 0x3b
 2588 0239 05       		.uleb128 0x5
 2589 023a 49       		.uleb128 0x49
 2590 023b 13       		.uleb128 0x13
 2591 023c 02       		.uleb128 0x2
 2592 023d 17       		.uleb128 0x17
 2593 023e 00       		.byte	0
 2594 023f 00       		.byte	0
 2595 0240 2C       		.uleb128 0x2c
 2596 0241 34       		.uleb128 0x34
 2597 0242 00       		.byte	0
 2598 0243 03       		.uleb128 0x3
 2599 0244 0E       		.uleb128 0xe
 2600 0245 3A       		.uleb128 0x3a
 2601 0246 0B       		.uleb128 0xb
 2602 0247 3B       		.uleb128 0x3b
 2603 0248 05       		.uleb128 0x5
 2604 0249 49       		.uleb128 0x49
 2605 024a 13       		.uleb128 0x13
 2606 024b 3F       		.uleb128 0x3f
 2607 024c 19       		.uleb128 0x19
 2608 024d 3C       		.uleb128 0x3c
 2609 024e 19       		.uleb128 0x19
 2610 024f 00       		.byte	0
 2611 0250 00       		.byte	0
 2612 0251 2D       		.uleb128 0x2d
 2613 0252 2E       		.uleb128 0x2e
 2614 0253 01       		.byte	0x1
 2615 0254 3F       		.uleb128 0x3f
 2616 0255 19       		.uleb128 0x19
 2617 0256 03       		.uleb128 0x3
 2618 0257 0E       		.uleb128 0xe
 2619 0258 3A       		.uleb128 0x3a
 2620 0259 0B       		.uleb128 0xb
 2621 025a 3B       		.uleb128 0x3b
ARM GAS  /var/folders/28/j9jfyj_n4wz3qtvnym210h2c0000gn/T//ccfP1iQY.s 			page 47


 2622 025b 0B       		.uleb128 0xb
 2623 025c 27       		.uleb128 0x27
 2624 025d 19       		.uleb128 0x19
 2625 025e 3C       		.uleb128 0x3c
 2626 025f 19       		.uleb128 0x19
 2627 0260 01       		.uleb128 0x1
 2628 0261 13       		.uleb128 0x13
 2629 0262 00       		.byte	0
 2630 0263 00       		.byte	0
 2631 0264 2E       		.uleb128 0x2e
 2632 0265 05       		.uleb128 0x5
 2633 0266 00       		.byte	0
 2634 0267 49       		.uleb128 0x49
 2635 0268 13       		.uleb128 0x13
 2636 0269 00       		.byte	0
 2637 026a 00       		.byte	0
 2638 026b 2F       		.uleb128 0x2f
 2639 026c 2E       		.uleb128 0x2e
 2640 026d 01       		.byte	0x1
 2641 026e 3F       		.uleb128 0x3f
 2642 026f 19       		.uleb128 0x19
 2643 0270 03       		.uleb128 0x3
 2644 0271 0E       		.uleb128 0xe
 2645 0272 3A       		.uleb128 0x3a
 2646 0273 0B       		.uleb128 0xb
 2647 0274 3B       		.uleb128 0x3b
 2648 0275 05       		.uleb128 0x5
 2649 0276 27       		.uleb128 0x27
 2650 0277 19       		.uleb128 0x19
 2651 0278 3C       		.uleb128 0x3c
 2652 0279 19       		.uleb128 0x19
 2653 027a 01       		.uleb128 0x1
 2654 027b 13       		.uleb128 0x13
 2655 027c 00       		.byte	0
 2656 027d 00       		.byte	0
 2657 027e 30       		.uleb128 0x30
 2658 027f 2E       		.uleb128 0x2e
 2659 0280 01       		.byte	0x1
 2660 0281 3F       		.uleb128 0x3f
 2661 0282 19       		.uleb128 0x19
 2662 0283 03       		.uleb128 0x3
 2663 0284 0E       		.uleb128 0xe
 2664 0285 3A       		.uleb128 0x3a
 2665 0286 0B       		.uleb128 0xb
 2666 0287 3B       		.uleb128 0x3b
 2667 0288 05       		.uleb128 0x5
 2668 0289 27       		.uleb128 0x27
 2669 028a 19       		.uleb128 0x19
 2670 028b 49       		.uleb128 0x49
 2671 028c 13       		.uleb128 0x13
 2672 028d 3C       		.uleb128 0x3c
 2673 028e 19       		.uleb128 0x19
 2674 028f 01       		.uleb128 0x1
 2675 0290 13       		.uleb128 0x13
 2676 0291 00       		.byte	0
 2677 0292 00       		.byte	0
 2678 0293 00       		.byte	0
ARM GAS  /var/folders/28/j9jfyj_n4wz3qtvnym210h2c0000gn/T//ccfP1iQY.s 			page 48


 2679              		.section	.debug_loc,"",%progbits
 2680              	.Ldebug_loc0:
 2681              	.LLST4:
 2682 0000 1C000000 		.4byte	.LVL13
 2683 0004 20000000 		.4byte	.LVL14
 2684 0008 0200     		.2byte	0x2
 2685 000a 30       		.byte	0x30
 2686 000b 9F       		.byte	0x9f
 2687 000c 32000000 		.4byte	.LVL17
 2688 0010 38000000 		.4byte	.LVL18
 2689 0014 0200     		.2byte	0x2
 2690 0016 30       		.byte	0x30
 2691 0017 9F       		.byte	0x9f
 2692 0018 7A000000 		.4byte	.LVL27
 2693 001c 7C000000 		.4byte	.LVL28
 2694 0020 0200     		.2byte	0x2
 2695 0022 30       		.byte	0x30
 2696 0023 9F       		.byte	0x9f
 2697 0024 7C000000 		.4byte	.LVL28
 2698 0028 98000000 		.4byte	.LVL32
 2699 002c 0100     		.2byte	0x1
 2700 002e 52       		.byte	0x52
 2701 002f 98000000 		.4byte	.LVL32
 2702 0033 9C000000 		.4byte	.LVL33
 2703 0037 0200     		.2byte	0x2
 2704 0039 30       		.byte	0x30
 2705 003a 9F       		.byte	0x9f
 2706 003b 9C000000 		.4byte	.LVL33
 2707 003f A2000000 		.4byte	.LVL34
 2708 0043 0300     		.2byte	0x3
 2709 0045 72       		.byte	0x72
 2710 0046 7F       		.sleb128 -1
 2711 0047 9F       		.byte	0x9f
 2712 0048 A2000000 		.4byte	.LVL34
 2713 004c BA000000 		.4byte	.LVL37
 2714 0050 0100     		.2byte	0x1
 2715 0052 52       		.byte	0x52
 2716 0053 BA000000 		.4byte	.LVL37
 2717 0057 C1000000 		.4byte	.LVL38-1
 2718 005b 0300     		.2byte	0x3
 2719 005d 72       		.byte	0x72
 2720 005e 7F       		.sleb128 -1
 2721 005f 9F       		.byte	0x9f
 2722 0060 CA000000 		.4byte	.LVL40
 2723 0064 D2000000 		.4byte	.LVL42
 2724 0068 0300     		.2byte	0x3
 2725 006a 72       		.byte	0x72
 2726 006b 7F       		.sleb128 -1
 2727 006c 9F       		.byte	0x9f
 2728 006d 00000000 		.4byte	0
 2729 0071 00000000 		.4byte	0
 2730              	.LLST5:
 2731 0075 0E000000 		.4byte	.LVL11
 2732 0079 1A000000 		.4byte	.LVL12
 2733 007d 0300     		.2byte	0x3
 2734 007f 09       		.byte	0x9
 2735 0080 FF       		.byte	0xff
ARM GAS  /var/folders/28/j9jfyj_n4wz3qtvnym210h2c0000gn/T//ccfP1iQY.s 			page 49


 2736 0081 9F       		.byte	0x9f
 2737 0082 38000000 		.4byte	.LVL18
 2738 0086 3E000000 		.4byte	.LVL19
 2739 008a 0100     		.2byte	0x1
 2740 008c 50       		.byte	0x50
 2741 008d 44000000 		.4byte	.LVL21
 2742 0091 50000000 		.4byte	.LVL22
 2743 0095 0100     		.2byte	0x1
 2744 0097 50       		.byte	0x50
 2745 0098 5C000000 		.4byte	.LVL25
 2746 009c 6A000000 		.4byte	.LVL26
 2747 00a0 0100     		.2byte	0x1
 2748 00a2 50       		.byte	0x50
 2749 00a3 00000000 		.4byte	0
 2750 00a7 00000000 		.4byte	0
 2751              	.LLST6:
 2752 00ab 1C000000 		.4byte	.LVL13
 2753 00af 24000000 		.4byte	.LVL15
 2754 00b3 0100     		.2byte	0x1
 2755 00b5 53       		.byte	0x53
 2756 00b6 26000000 		.4byte	.LVL16
 2757 00ba 32000000 		.4byte	.LVL17
 2758 00be 0100     		.2byte	0x1
 2759 00c0 53       		.byte	0x53
 2760 00c1 32000000 		.4byte	.LVL17
 2761 00c5 42000000 		.4byte	.LVL20
 2762 00c9 0100     		.2byte	0x1
 2763 00cb 50       		.byte	0x50
 2764 00cc 42000000 		.4byte	.LVL20
 2765 00d0 44000000 		.4byte	.LVL21
 2766 00d4 0300     		.2byte	0x3
 2767 00d6 72       		.byte	0x72
 2768 00d7 01       		.sleb128 1
 2769 00d8 9F       		.byte	0x9f
 2770 00d9 44000000 		.4byte	.LVL21
 2771 00dd 50000000 		.4byte	.LVL22
 2772 00e1 0100     		.2byte	0x1
 2773 00e3 50       		.byte	0x50
 2774 00e4 5C000000 		.4byte	.LVL25
 2775 00e8 6A000000 		.4byte	.LVL26
 2776 00ec 0100     		.2byte	0x1
 2777 00ee 50       		.byte	0x50
 2778 00ef 00000000 		.4byte	0
 2779 00f3 00000000 		.4byte	0
 2780              	.LLST7:
 2781 00f7 7A000000 		.4byte	.LVL27
 2782 00fb 80000000 		.4byte	.LVL29
 2783 00ff 0100     		.2byte	0x1
 2784 0101 53       		.byte	0x53
 2785 0102 82000000 		.4byte	.LVL30
 2786 0106 A6000000 		.4byte	.LVL35
 2787 010a 0100     		.2byte	0x1
 2788 010c 53       		.byte	0x53
 2789 010d A8000000 		.4byte	.LVL36
 2790 0111 C1000000 		.4byte	.LVL38-1
 2791 0115 0100     		.2byte	0x1
 2792 0117 53       		.byte	0x53
ARM GAS  /var/folders/28/j9jfyj_n4wz3qtvnym210h2c0000gn/T//ccfP1iQY.s 			page 50


 2793 0118 CA000000 		.4byte	.LVL40
 2794 011c CC000000 		.4byte	.LVL41
 2795 0120 0100     		.2byte	0x1
 2796 0122 53       		.byte	0x53
 2797 0123 00000000 		.4byte	0
 2798 0127 00000000 		.4byte	0
 2799              	.LLST8:
 2800 012b 00000000 		.4byte	.LVL43
 2801 012f 78000000 		.4byte	.LVL52
 2802 0133 0200     		.2byte	0x2
 2803 0135 30       		.byte	0x30
 2804 0136 9F       		.byte	0x9f
 2805 0137 78000000 		.4byte	.LVL52
 2806 013b C0000000 		.4byte	.LFE121
 2807 013f 0400     		.2byte	0x4
 2808 0141 0A       		.byte	0xa
 2809 0142 2102     		.2byte	0x221
 2810 0144 9F       		.byte	0x9f
 2811 0145 00000000 		.4byte	0
 2812 0149 00000000 		.4byte	0
 2813              	.LLST0:
 2814 014d 0C000000 		.4byte	.LVL0
 2815 0151 0E000000 		.4byte	.LVL1
 2816 0155 0100     		.2byte	0x1
 2817 0157 53       		.byte	0x53
 2818 0158 0E000000 		.4byte	.LVL1
 2819 015c 28000000 		.4byte	.LVL9
 2820 0160 0200     		.2byte	0x2
 2821 0162 7D       		.byte	0x7d
 2822 0163 14       		.sleb128 20
 2823 0164 28000000 		.4byte	.LVL9
 2824 0168 34000000 		.4byte	.LFE122
 2825 016c 0200     		.2byte	0x2
 2826 016e 91       		.byte	0x91
 2827 016f 74       		.sleb128 -12
 2828 0170 00000000 		.4byte	0
 2829 0174 00000000 		.4byte	0
 2830              	.LLST1:
 2831 0178 12000000 		.4byte	.LVL2
 2832 017c 14000000 		.4byte	.LVL3
 2833 0180 0100     		.2byte	0x1
 2834 0182 53       		.byte	0x53
 2835 0183 14000000 		.4byte	.LVL3
 2836 0187 28000000 		.4byte	.LVL9
 2837 018b 0200     		.2byte	0x2
 2838 018d 7D       		.byte	0x7d
 2839 018e 10       		.sleb128 16
 2840 018f 28000000 		.4byte	.LVL9
 2841 0193 34000000 		.4byte	.LFE122
 2842 0197 0200     		.2byte	0x2
 2843 0199 91       		.byte	0x91
 2844 019a 70       		.sleb128 -16
 2845 019b 00000000 		.4byte	0
 2846 019f 00000000 		.4byte	0
 2847              	.LLST2:
 2848 01a3 18000000 		.4byte	.LVL4
 2849 01a7 1A000000 		.4byte	.LVL5
ARM GAS  /var/folders/28/j9jfyj_n4wz3qtvnym210h2c0000gn/T//ccfP1iQY.s 			page 51


 2850 01ab 0100     		.2byte	0x1
 2851 01ad 53       		.byte	0x53
 2852 01ae 1A000000 		.4byte	.LVL5
 2853 01b2 28000000 		.4byte	.LVL9
 2854 01b6 0200     		.2byte	0x2
 2855 01b8 7D       		.byte	0x7d
 2856 01b9 0C       		.sleb128 12
 2857 01ba 28000000 		.4byte	.LVL9
 2858 01be 34000000 		.4byte	.LFE122
 2859 01c2 0200     		.2byte	0x2
 2860 01c4 91       		.byte	0x91
 2861 01c5 6C       		.sleb128 -20
 2862 01c6 00000000 		.4byte	0
 2863 01ca 00000000 		.4byte	0
 2864              	.LLST3:
 2865 01ce 1E000000 		.4byte	.LVL6
 2866 01d2 20000000 		.4byte	.LVL7
 2867 01d6 0100     		.2byte	0x1
 2868 01d8 53       		.byte	0x53
 2869 01d9 20000000 		.4byte	.LVL7
 2870 01dd 28000000 		.4byte	.LVL9
 2871 01e1 0200     		.2byte	0x2
 2872 01e3 7D       		.byte	0x7d
 2873 01e4 08       		.sleb128 8
 2874 01e5 28000000 		.4byte	.LVL9
 2875 01e9 34000000 		.4byte	.LFE122
 2876 01ed 0200     		.2byte	0x2
 2877 01ef 91       		.byte	0x91
 2878 01f0 68       		.sleb128 -24
 2879 01f1 00000000 		.4byte	0
 2880 01f5 00000000 		.4byte	0
 2881              	.LLST9:
 2882 01f9 00000000 		.4byte	.LVL63
 2883 01fd 08000000 		.4byte	.LVL64
 2884 0201 0100     		.2byte	0x1
 2885 0203 50       		.byte	0x50
 2886 0204 08000000 		.4byte	.LVL64
 2887 0208 3C000000 		.4byte	.LFE123
 2888 020c 0100     		.2byte	0x1
 2889 020e 55       		.byte	0x55
 2890 020f 00000000 		.4byte	0
 2891 0213 00000000 		.4byte	0
 2892              	.LLST10:
 2893 0217 00000000 		.4byte	.LVL63
 2894 021b 0C000000 		.4byte	.LVL65
 2895 021f 0100     		.2byte	0x1
 2896 0221 51       		.byte	0x51
 2897 0222 0C000000 		.4byte	.LVL65
 2898 0226 13000000 		.4byte	.LVL66-1
 2899 022a 0100     		.2byte	0x1
 2900 022c 53       		.byte	0x53
 2901 022d 13000000 		.4byte	.LVL66-1
 2902 0231 22000000 		.4byte	.LVL68
 2903 0235 0200     		.2byte	0x2
 2904 0237 91       		.byte	0x91
 2905 0238 6C       		.sleb128 -20
 2906 0239 22000000 		.4byte	.LVL68
ARM GAS  /var/folders/28/j9jfyj_n4wz3qtvnym210h2c0000gn/T//ccfP1iQY.s 			page 52


 2907 023d 3C000000 		.4byte	.LFE123
 2908 0241 0400     		.2byte	0x4
 2909 0243 F3       		.byte	0xf3
 2910 0244 01       		.uleb128 0x1
 2911 0245 51       		.byte	0x51
 2912 0246 9F       		.byte	0x9f
 2913 0247 00000000 		.4byte	0
 2914 024b 00000000 		.4byte	0
 2915              	.LLST11:
 2916 024f 00000000 		.4byte	.LVL63
 2917 0253 13000000 		.4byte	.LVL66-1
 2918 0257 0100     		.2byte	0x1
 2919 0259 52       		.byte	0x52
 2920 025a 13000000 		.4byte	.LVL66-1
 2921 025e 24000000 		.4byte	.LVL69
 2922 0262 0100     		.2byte	0x1
 2923 0264 54       		.byte	0x54
 2924 0265 24000000 		.4byte	.LVL69
 2925 0269 32000000 		.4byte	.LVL71
 2926 026d 0300     		.2byte	0x3
 2927 026f 74       		.byte	0x74
 2928 0270 7F       		.sleb128 -1
 2929 0271 9F       		.byte	0x9f
 2930 0272 32000000 		.4byte	.LVL71
 2931 0276 3C000000 		.4byte	.LFE123
 2932 027a 0100     		.2byte	0x1
 2933 027c 54       		.byte	0x54
 2934 027d 00000000 		.4byte	0
 2935 0281 00000000 		.4byte	0
 2936              	.LLST12:
 2937 0285 00000000 		.4byte	.LVL72
 2938 0289 0A000000 		.4byte	.LVL73
 2939 028d 0100     		.2byte	0x1
 2940 028f 50       		.byte	0x50
 2941 0290 0A000000 		.4byte	.LVL73
 2942 0294 34000000 		.4byte	.LFE124
 2943 0298 0100     		.2byte	0x1
 2944 029a 55       		.byte	0x55
 2945 029b 00000000 		.4byte	0
 2946 029f 00000000 		.4byte	0
 2947              	.LLST13:
 2948 02a3 00000000 		.4byte	.LVL72
 2949 02a7 0A000000 		.4byte	.LVL73
 2950 02ab 0100     		.2byte	0x1
 2951 02ad 51       		.byte	0x51
 2952 02ae 0A000000 		.4byte	.LVL73
 2953 02b2 18000000 		.4byte	.LVL75
 2954 02b6 0200     		.2byte	0x2
 2955 02b8 91       		.byte	0x91
 2956 02b9 6C       		.sleb128 -20
 2957 02ba 18000000 		.4byte	.LVL75
 2958 02be 34000000 		.4byte	.LFE124
 2959 02c2 0400     		.2byte	0x4
 2960 02c4 F3       		.byte	0xf3
 2961 02c5 01       		.uleb128 0x1
 2962 02c6 51       		.byte	0x51
 2963 02c7 9F       		.byte	0x9f
ARM GAS  /var/folders/28/j9jfyj_n4wz3qtvnym210h2c0000gn/T//ccfP1iQY.s 			page 53


 2964 02c8 00000000 		.4byte	0
 2965 02cc 00000000 		.4byte	0
 2966              	.LLST14:
 2967 02d0 00000000 		.4byte	.LVL72
 2968 02d4 0A000000 		.4byte	.LVL73
 2969 02d8 0100     		.2byte	0x1
 2970 02da 52       		.byte	0x52
 2971 02db 0A000000 		.4byte	.LVL73
 2972 02df 18000000 		.4byte	.LVL75
 2973 02e3 0100     		.2byte	0x1
 2974 02e5 54       		.byte	0x54
 2975 02e6 18000000 		.4byte	.LVL75
 2976 02ea 20000000 		.4byte	.LVL76
 2977 02ee 0300     		.2byte	0x3
 2978 02f0 74       		.byte	0x74
 2979 02f1 7F       		.sleb128 -1
 2980 02f2 9F       		.byte	0x9f
 2981 02f3 20000000 		.4byte	.LVL76
 2982 02f7 34000000 		.4byte	.LFE124
 2983 02fb 0100     		.2byte	0x1
 2984 02fd 54       		.byte	0x54
 2985 02fe 00000000 		.4byte	0
 2986 0302 00000000 		.4byte	0
 2987              		.section	.debug_aranges,"",%progbits
 2988 0000 4C000000 		.4byte	0x4c
 2989 0004 0200     		.2byte	0x2
 2990 0006 00000000 		.4byte	.Ldebug_info0
 2991 000a 04       		.byte	0x4
 2992 000b 00       		.byte	0
 2993 000c 0000     		.2byte	0
 2994 000e 0000     		.2byte	0
 2995 0010 00000000 		.4byte	.LFB122
 2996 0014 34000000 		.4byte	.LFE122-.LFB122
 2997 0018 00000000 		.4byte	.LFB120
 2998 001c E0000000 		.4byte	.LFE120-.LFB120
 2999 0020 00000000 		.4byte	.LFB121
 3000 0024 C0000000 		.4byte	.LFE121-.LFB121
 3001 0028 00000000 		.4byte	.LFB118
 3002 002c 70000000 		.4byte	.LFE118-.LFB118
 3003 0030 00000000 		.4byte	.LFB119
 3004 0034 04000000 		.4byte	.LFE119-.LFB119
 3005 0038 00000000 		.4byte	.LFB123
 3006 003c 3C000000 		.4byte	.LFE123-.LFB123
 3007 0040 00000000 		.4byte	.LFB124
 3008 0044 34000000 		.4byte	.LFE124-.LFB124
 3009 0048 00000000 		.4byte	0
 3010 004c 00000000 		.4byte	0
 3011              		.section	.debug_ranges,"",%progbits
 3012              	.Ldebug_ranges0:
 3013 0000 00000000 		.4byte	.LFB122
 3014 0004 34000000 		.4byte	.LFE122
 3015 0008 00000000 		.4byte	.LFB120
 3016 000c E0000000 		.4byte	.LFE120
 3017 0010 00000000 		.4byte	.LFB121
 3018 0014 C0000000 		.4byte	.LFE121
 3019 0018 00000000 		.4byte	.LFB118
 3020 001c 70000000 		.4byte	.LFE118
ARM GAS  /var/folders/28/j9jfyj_n4wz3qtvnym210h2c0000gn/T//ccfP1iQY.s 			page 54


 3021 0020 00000000 		.4byte	.LFB119
 3022 0024 04000000 		.4byte	.LFE119
 3023 0028 00000000 		.4byte	.LFB123
 3024 002c 3C000000 		.4byte	.LFE123
 3025 0030 00000000 		.4byte	.LFB124
 3026 0034 34000000 		.4byte	.LFE124
 3027 0038 00000000 		.4byte	0
 3028 003c 00000000 		.4byte	0
 3029              		.section	.debug_line,"",%progbits
 3030              	.Ldebug_line0:
 3031 0000 75040000 		.section	.debug_str,"MS",%progbits,1
 3031      0200A902 
 3031      00000201 
 3031      FB0E0D00 
 3031      01010101 
 3032              	.LASF121:
 3033 0000 75774275 		.ascii	"uwBufferSize\000"
 3033      66666572 
 3033      53697A65 
 3033      00
 3034              	.LASF85:
 3035 000d 50555044 		.ascii	"PUPDR\000"
 3035      5200
 3036              	.LASF126:
 3037 0013 63685468 		.ascii	"chThdSleep\000"
 3037      64536C65 
 3037      657000
 3038              	.LASF87:
 3039 001e 4C434B52 		.ascii	"LCKR\000"
 3039      00
 3040              	.LASF96:
 3041 0023 4552524F 		.ascii	"ERROR_SDRAM\000"
 3041      525F5344 
 3041      52414D00 
 3042              	.LASF116:
 3043 002f 464D435F 		.ascii	"FMC_SDRAMTimingInitStructure\000"
 3043      53445241 
 3043      4D54696D 
 3043      696E6749 
 3043      6E697453 
 3044              	.LASF95:
 3045 004c 4552524F 		.ascii	"ERROR_UNDERVOLT_33\000"
 3045      525F554E 
 3045      44455256 
 3045      4F4C545F 
 3045      333300
 3046              	.LASF19:
 3047 005f 466C6167 		.ascii	"FlagStatus\000"
 3047      53746174 
 3047      757300
 3048              	.LASF130:
 3049 006a 464D435F 		.ascii	"FMC_SDRAMInit\000"
 3049      53445241 
 3049      4D496E69 
 3049      7400
 3050              	.LASF71:
 3051 0078 464D435F 		.ascii	"FMC_CASLatency\000"
ARM GAS  /var/folders/28/j9jfyj_n4wz3qtvnym210h2c0000gn/T//ccfP1iQY.s 			page 55


 3051      4341534C 
 3051      6174656E 
 3051      637900
 3052              	.LASF55:
 3053 0087 464D435F 		.ascii	"FMC_SelfRefreshTime\000"
 3053      53656C66 
 3053      52656672 
 3053      65736854 
 3053      696D6500 
 3054              	.LASF83:
 3055 009b 4F545950 		.ascii	"OTYPER\000"
 3055      455200
 3056              	.LASF3:
 3057 00a2 5F5F7569 		.ascii	"__uint8_t\000"
 3057      6E74385F 
 3057      7400
 3058              	.LASF105:
 3059 00ac 6D656D54 		.ascii	"memTest\000"
 3059      65737400 
 3060              	.LASF20:
 3061 00b4 44495341 		.ascii	"DISABLE\000"
 3061      424C4500 
 3062              	.LASF82:
 3063 00bc 4D4F4445 		.ascii	"MODER\000"
 3063      5200
 3064              	.LASF77:
 3065 00c2 464D435F 		.ascii	"FMC_SDRAMInitTypeDef\000"
 3065      53445241 
 3065      4D496E69 
 3065      74547970 
 3065      65446566 
 3066              	.LASF107:
 3067 00d7 464D435F 		.ascii	"FMC_SDRAMCommandStructure\000"
 3067      53445241 
 3067      4D436F6D 
 3067      6D616E64 
 3067      53747275 
 3068              	.LASF57:
 3069 00f1 464D435F 		.ascii	"FMC_WriteRecoveryTime\000"
 3069      57726974 
 3069      65526563 
 3069      6F766572 
 3069      7954696D 
 3070              	.LASF134:
 3071 0107 74657374 		.ascii	"test\000"
 3071      00
 3072              	.LASF135:
 3073 010c 49544D5F 		.ascii	"ITM_RxBuffer\000"
 3073      52784275 
 3073      66666572 
 3073      00
 3074              	.LASF39:
 3075 0119 41484231 		.ascii	"AHB1LPENR\000"
 3075      4C50454E 
 3075      5200
 3076              	.LASF51:
 3077 0123 44434B43 		.ascii	"DCKCFGR\000"
ARM GAS  /var/folders/28/j9jfyj_n4wz3qtvnym210h2c0000gn/T//ccfP1iQY.s 			page 56


 3077      46475200 
 3078              	.LASF10:
 3079 012b 6C6F6E67 		.ascii	"long long int\000"
 3079      206C6F6E 
 3079      6720696E 
 3079      7400
 3080              	.LASF0:
 3081 0139 7369676E 		.ascii	"signed char\000"
 3081      65642063 
 3081      68617200 
 3082              	.LASF104:
 3083 0145 6E697465 		.ascii	"niter2\000"
 3083      723200
 3084              	.LASF25:
 3085 014c 41484231 		.ascii	"AHB1RSTR\000"
 3085      52535452 
 3085      00
 3086              	.LASF11:
 3087 0155 6C6F6E67 		.ascii	"long long unsigned int\000"
 3087      206C6F6E 
 3087      6720756E 
 3087      7369676E 
 3087      65642069 
 3088              	.LASF114:
 3089 016c 53445241 		.ascii	"SDRAM_Init\000"
 3089      4D5F496E 
 3089      697400
 3090              	.LASF7:
 3091 0177 6C6F6E67 		.ascii	"long int\000"
 3091      20696E74 
 3091      00
 3092              	.LASF30:
 3093 0180 41504232 		.ascii	"APB2RSTR\000"
 3093      52535452 
 3093      00
 3094              	.LASF43:
 3095 0189 41504231 		.ascii	"APB1LPENR\000"
 3095      4C50454E 
 3095      5200
 3096              	.LASF64:
 3097 0193 464D435F 		.ascii	"FMC_ModeRegisterDefinition\000"
 3097      4D6F6465 
 3097      52656769 
 3097      73746572 
 3097      44656669 
 3098              	.LASF124:
 3099 01ae 75775265 		.ascii	"uwReadAddress\000"
 3099      61644164 
 3099      64726573 
 3099      7300
 3100              	.LASF54:
 3101 01bc 464D435F 		.ascii	"FMC_ExitSelfRefreshDelay\000"
 3101      45786974 
 3101      53656C66 
 3101      52656672 
 3101      65736844 
 3102              	.LASF21:
ARM GAS  /var/folders/28/j9jfyj_n4wz3qtvnym210h2c0000gn/T//ccfP1iQY.s 			page 57


 3103 01d5 454E4142 		.ascii	"ENABLE\000"
 3103      4C4500
 3104              	.LASF127:
 3105 01dc 464D435F 		.ascii	"FMC_SDRAMCmdConfig\000"
 3105      53445241 
 3105      4D436D64 
 3105      436F6E66 
 3105      696700
 3106              	.LASF69:
 3107 01ef 464D435F 		.ascii	"FMC_SDMemoryDataWidth\000"
 3107      53444D65 
 3107      6D6F7279 
 3107      44617461 
 3107      57696474 
 3108              	.LASF14:
 3109 0205 75696E74 		.ascii	"uint16_t\000"
 3109      31365F74 
 3109      00
 3110              	.LASF129:
 3111 020e 464D435F 		.ascii	"FMC_SDRAMWriteProtectionConfig\000"
 3111      53445241 
 3111      4D577269 
 3111      74655072 
 3111      6F746563 
 3112              	.LASF108:
 3113 022d 746D7072 		.ascii	"tmpr\000"
 3113      00
 3114              	.LASF63:
 3115 0232 464D435F 		.ascii	"FMC_AutoRefreshNumber\000"
 3115      4175746F 
 3115      52656672 
 3115      6573684E 
 3115      756D6265 
 3116              	.LASF84:
 3117 0248 4F535045 		.ascii	"OSPEEDR\000"
 3117      45445200 
 3118              	.LASF8:
 3119 0250 5F5F7569 		.ascii	"__uint32_t\000"
 3119      6E743332 
 3119      5F7400
 3120              	.LASF75:
 3121 025b 464D435F 		.ascii	"FMC_ReadPipeDelay\000"
 3121      52656164 
 3121      50697065 
 3121      44656C61 
 3121      7900
 3122              	.LASF132:
 3123 026d 2E2E2F73 		.ascii	"../sdram.c\000"
 3123      6472616D 
 3123      2E6300
 3124              	.LASF59:
 3125 0278 464D435F 		.ascii	"FMC_RCDDelay\000"
 3125      52434444 
 3125      656C6179 
 3125      00
 3126              	.LASF128:
 3127 0285 464D435F 		.ascii	"FMC_SetRefreshCount\000"
ARM GAS  /var/folders/28/j9jfyj_n4wz3qtvnym210h2c0000gn/T//ccfP1iQY.s 			page 58


 3127      53657452 
 3127      65667265 
 3127      7368436F 
 3127      756E7400 
 3128              	.LASF99:
 3129 0299 6572726F 		.ascii	"error_flag_t\000"
 3129      725F666C 
 3129      61675F74 
 3129      00
 3130              	.LASF98:
 3131 02a6 4552524F 		.ascii	"ERROR_CODEC_I2C\000"
 3131      525F434F 
 3131      4445435F 
 3131      49324300 
 3132              	.LASF12:
 3133 02b6 756E7369 		.ascii	"unsigned int\000"
 3133      676E6564 
 3133      20696E74 
 3133      00
 3134              	.LASF74:
 3135 02c3 464D435F 		.ascii	"FMC_ReadBurst\000"
 3135      52656164 
 3135      42757273 
 3135      7400
 3136              	.LASF9:
 3137 02d1 6C6F6E67 		.ascii	"long unsigned int\000"
 3137      20756E73 
 3137      69676E65 
 3137      6420696E 
 3137      7400
 3138              	.LASF90:
 3139 02e3 4750494F 		.ascii	"GPIO_TypeDef\000"
 3139      5F547970 
 3139      65446566 
 3139      00
 3140              	.LASF119:
 3141 02f0 70427566 		.ascii	"pBuffer\000"
 3141      66657200 
 3142              	.LASF100:
 3143 02f8 6D656D53 		.ascii	"memSize\000"
 3143      697A6500 
 3144              	.LASF52:
 3145 0300 5243435F 		.ascii	"RCC_TypeDef\000"
 3145      54797065 
 3145      44656600 
 3146              	.LASF70:
 3147 030c 464D435F 		.ascii	"FMC_InternalBankNumber\000"
 3147      496E7465 
 3147      726E616C 
 3147      42616E6B 
 3147      4E756D62 
 3148              	.LASF56:
 3149 0323 464D435F 		.ascii	"FMC_RowCycleDelay\000"
 3149      526F7743 
 3149      79636C65 
 3149      44656C61 
 3149      7900
ARM GAS  /var/folders/28/j9jfyj_n4wz3qtvnym210h2c0000gn/T//ccfP1iQY.s 			page 59


 3150              	.LASF5:
 3151 0335 73686F72 		.ascii	"short unsigned int\000"
 3151      7420756E 
 3151      7369676E 
 3151      65642069 
 3151      6E7400
 3152              	.LASF125:
 3153 0348 73657445 		.ascii	"setErrorFlag\000"
 3153      72726F72 
 3153      466C6167 
 3153      00
 3154              	.LASF49:
 3155 0355 504C4C49 		.ascii	"PLLI2SCFGR\000"
 3155      32534346 
 3155      475200
 3156              	.LASF23:
 3157 0360 504C4C43 		.ascii	"PLLCFGR\000"
 3157      46475200 
 3158              	.LASF120:
 3159 0368 75775772 		.ascii	"uwWriteAddress\000"
 3159      69746541 
 3159      64647265 
 3159      737300
 3160              	.LASF44:
 3161 0377 41504232 		.ascii	"APB2LPENR\000"
 3161      4C50454E 
 3161      5200
 3162              	.LASF2:
 3163 0381 73686F72 		.ascii	"short int\000"
 3163      7420696E 
 3163      7400
 3164              	.LASF102:
 3165 038b 69746572 		.ascii	"iter\000"
 3165      00
 3166              	.LASF58:
 3167 0390 464D435F 		.ascii	"FMC_RPDelay\000"
 3167      52504465 
 3167      6C617900 
 3168              	.LASF101:
 3169 039c 62617365 		.ascii	"base\000"
 3169      00
 3170              	.LASF17:
 3171 03a1 73697A65 		.ascii	"sizetype\000"
 3171      74797065 
 3171      00
 3172              	.LASF81:
 3173 03aa 636C6561 		.ascii	"clear\000"
 3173      7200
 3174              	.LASF106:
 3175 03b0 53445241 		.ascii	"SDRAM_InitSequence\000"
 3175      4D5F496E 
 3175      69745365 
 3175      7175656E 
 3175      636500
 3176              	.LASF67:
 3177 03c3 464D435F 		.ascii	"FMC_ColumnBitsNumber\000"
 3177      436F6C75 
ARM GAS  /var/folders/28/j9jfyj_n4wz3qtvnym210h2c0000gn/T//ccfP1iQY.s 			page 60


 3177      6D6E4269 
 3177      74734E75 
 3177      6D626572 
 3178              	.LASF117:
 3179 03d8 636F6E66 		.ascii	"configSDRAM\000"
 3179      69675344 
 3179      52414D00 
 3180              	.LASF40:
 3181 03e4 41484232 		.ascii	"AHB2LPENR\000"
 3181      4C50454E 
 3181      5200
 3182              	.LASF22:
 3183 03ee 46756E63 		.ascii	"FunctionalState\000"
 3183      74696F6E 
 3183      616C5374 
 3183      61746500 
 3184              	.LASF66:
 3185 03fe 464D435F 		.ascii	"FMC_Bank\000"
 3185      42616E6B 
 3185      00
 3186              	.LASF103:
 3187 0407 6E697465 		.ascii	"niter\000"
 3187      7200
 3188              	.LASF89:
 3189 040d 41465248 		.ascii	"AFRH\000"
 3189      00
 3190              	.LASF122:
 3191 0412 77726974 		.ascii	"write_pointer\000"
 3191      655F706F 
 3191      696E7465 
 3191      7200
 3192              	.LASF88:
 3193 0420 4146524C 		.ascii	"AFRL\000"
 3193      00
 3194              	.LASF50:
 3195 0425 504C4C53 		.ascii	"PLLSAICFGR\000"
 3195      41494346 
 3195      475200
 3196              	.LASF86:
 3197 0430 42535252 		.ascii	"BSRR\000"
 3197      00
 3198              	.LASF62:
 3199 0435 464D435F 		.ascii	"FMC_CommandTarget\000"
 3199      436F6D6D 
 3199      616E6454 
 3199      61726765 
 3199      7400
 3200              	.LASF28:
 3201 0447 52455345 		.ascii	"RESERVED0\000"
 3201      52564544 
 3201      3000
 3202              	.LASF31:
 3203 0451 52455345 		.ascii	"RESERVED1\000"
 3203      52564544 
 3203      3100
 3204              	.LASF35:
 3205 045b 52455345 		.ascii	"RESERVED2\000"
ARM GAS  /var/folders/28/j9jfyj_n4wz3qtvnym210h2c0000gn/T//ccfP1iQY.s 			page 61


 3205      52564544 
 3205      3200
 3206              	.LASF136:
 3207 0465 464D435F 		.ascii	"FMC_GetFlagStatus\000"
 3207      47657446 
 3207      6C616753 
 3207      74617475 
 3207      7300
 3208              	.LASF42:
 3209 0477 52455345 		.ascii	"RESERVED4\000"
 3209      52564544 
 3209      3400
 3210              	.LASF45:
 3211 0481 52455345 		.ascii	"RESERVED5\000"
 3211      52564544 
 3211      3500
 3212              	.LASF47:
 3213 048b 52455345 		.ascii	"RESERVED6\000"
 3213      52564544 
 3213      3600
 3214              	.LASF18:
 3215 0495 52455345 		.ascii	"RESET\000"
 3215      5400
 3216              	.LASF78:
 3217 049b 5F426F6F 		.ascii	"_Bool\000"
 3217      6C00
 3218              	.LASF15:
 3219 04a1 696E7433 		.ascii	"int32_t\000"
 3219      325F7400 
 3220              	.LASF1:
 3221 04a9 756E7369 		.ascii	"unsigned char\000"
 3221      676E6564 
 3221      20636861 
 3221      7200
 3222              	.LASF133:
 3223 04b7 2F557365 		.ascii	"/Users/ryanmcgill/Documents/VONGON/SELECTOR/axoloti"
 3223      72732F72 
 3223      79616E6D 
 3223      6367696C 
 3223      6C2F446F 
 3224 04ea 2F666972 		.ascii	"/firmware/flasher\000"
 3224      6D776172 
 3224      652F666C 
 3224      61736865 
 3224      7200
 3225              	.LASF68:
 3226 04fc 464D435F 		.ascii	"FMC_RowBitsNumber\000"
 3226      526F7742 
 3226      6974734E 
 3226      756D6265 
 3226      7200
 3227              	.LASF93:
 3228 050e 4552524F 		.ascii	"ERROR_OVERVOLT_33\000"
 3228      525F4F56 
 3228      4552564F 
 3228      4C545F33 
 3228      3300
ARM GAS  /var/folders/28/j9jfyj_n4wz3qtvnym210h2c0000gn/T//ccfP1iQY.s 			page 62


 3229              	.LASF41:
 3230 0520 41484233 		.ascii	"AHB3LPENR\000"
 3230      4C50454E 
 3230      5200
 3231              	.LASF37:
 3232 052a 41504232 		.ascii	"APB2ENR\000"
 3232      454E5200 
 3233              	.LASF27:
 3234 0532 41484233 		.ascii	"AHB3RSTR\000"
 3234      52535452 
 3234      00
 3235              	.LASF73:
 3236 053b 464D435F 		.ascii	"FMC_SDClockPeriod\000"
 3236      5344436C 
 3236      6F636B50 
 3236      6572696F 
 3236      6400
 3237              	.LASF34:
 3238 054d 41484233 		.ascii	"AHB3ENR\000"
 3238      454E5200 
 3239              	.LASF38:
 3240 0555 52455345 		.ascii	"RESERVED3\000"
 3240      52564544 
 3240      3300
 3241              	.LASF91:
 3242 055f 4552524F 		.ascii	"ERROR_USBH_OVERCURRENT\000"
 3242      525F5553 
 3242      42485F4F 
 3242      56455243 
 3242      55525245 
 3243              	.LASF65:
 3244 0576 464D435F 		.ascii	"FMC_SDRAMCommandTypeDef\000"
 3244      53445241 
 3244      4D436F6D 
 3244      6D616E64 
 3244      54797065 
 3245              	.LASF16:
 3246 058e 75696E74 		.ascii	"uint32_t\000"
 3246      33325F74 
 3246      00
 3247              	.LASF53:
 3248 0597 464D435F 		.ascii	"FMC_LoadToActiveDelay\000"
 3248      4C6F6164 
 3248      546F4163 
 3248      74697665 
 3248      44656C61 
 3249              	.LASF80:
 3250 05ad 63686172 		.ascii	"char\000"
 3250      00
 3251              	.LASF4:
 3252 05b2 5F5F7569 		.ascii	"__uint16_t\000"
 3252      6E743136 
 3252      5F7400
 3253              	.LASF26:
 3254 05bd 41484232 		.ascii	"AHB2RSTR\000"
 3254      52535452 
 3254      00
ARM GAS  /var/folders/28/j9jfyj_n4wz3qtvnym210h2c0000gn/T//ccfP1iQY.s 			page 63


 3255              	.LASF79:
 3256 05c6 73797374 		.ascii	"systime_t\000"
 3256      696D655F 
 3256      7400
 3257              	.LASF6:
 3258 05d0 5F5F696E 		.ascii	"__int32_t\000"
 3258      7433325F 
 3258      7400
 3259              	.LASF60:
 3260 05da 464D435F 		.ascii	"FMC_SDRAMTimingInitTypeDef\000"
 3260      53445241 
 3260      4D54696D 
 3260      696E6749 
 3260      6E697454 
 3261              	.LASF36:
 3262 05f5 41504231 		.ascii	"APB1ENR\000"
 3262      454E5200 
 3263              	.LASF97:
 3264 05fd 4552524F 		.ascii	"ERROR_SDCARD\000"
 3264      525F5344 
 3264      43415244 
 3264      00
 3265              	.LASF33:
 3266 060a 41484232 		.ascii	"AHB2ENR\000"
 3266      454E5200 
 3267              	.LASF113:
 3268 0612 4750494F 		.ascii	"GPIOG_AFRH\000"
 3268      475F4146 
 3268      524800
 3269              	.LASF123:
 3270 061d 53445241 		.ascii	"SDRAM_ReadBuffer\000"
 3270      4D5F5265 
 3270      61644275 
 3270      66666572 
 3270      00
 3271              	.LASF131:
 3272 062e 474E5520 		.ascii	"GNU C 4.9.3 20150529 (release) [ARM/embedded-4_9-br"
 3272      4320342E 
 3272      392E3320 
 3272      32303135 
 3272      30353239 
 3273 0661 616E6368 		.ascii	"anch revision 224288] -mcpu=cortex-m4 -mfloat-abi=h"
 3273      20726576 
 3273      6973696F 
 3273      6E203232 
 3273      34323838 
 3274 0694 61726420 		.ascii	"ard -mfpu=fpv4-sp-d16 -mno-thumb-interwork -mthumb "
 3274      2D6D6670 
 3274      753D6670 
 3274      76342D73 
 3274      702D6431 
 3275 06c7 2D676764 		.ascii	"-ggdb -O2 -fomit-frame-pointer -falign-functions=16"
 3275      62202D4F 
 3275      32202D66 
 3275      6F6D6974 
 3275      2D667261 
 3276 06fa 202D6666 		.ascii	" -ffunction-sections -fdata-sections -fno-common -f"
ARM GAS  /var/folders/28/j9jfyj_n4wz3qtvnym210h2c0000gn/T//ccfP1iQY.s 			page 64


 3276      756E6374 
 3276      696F6E2D 
 3276      73656374 
 3276      696F6E73 
 3277 072d 73696E67 		.ascii	"single-precision-constant\000"
 3277      6C652D70 
 3277      72656369 
 3277      73696F6E 
 3277      2D636F6E 
 3278              	.LASF48:
 3279 0747 53534347 		.ascii	"SSCGR\000"
 3279      5200
 3280              	.LASF29:
 3281 074d 41504231 		.ascii	"APB1RSTR\000"
 3281      52535452 
 3281      00
 3282              	.LASF72:
 3283 0756 464D435F 		.ascii	"FMC_WriteProtection\000"
 3283      57726974 
 3283      6550726F 
 3283      74656374 
 3283      696F6E00 
 3284              	.LASF46:
 3285 076a 42444352 		.ascii	"BDCR\000"
 3285      00
 3286              	.LASF61:
 3287 076f 464D435F 		.ascii	"FMC_CommandMode\000"
 3287      436F6D6D 
 3287      616E644D 
 3287      6F646500 
 3288              	.LASF111:
 3289 077f 4750494F 		.ascii	"GPIOG_OSPEEDR\000"
 3289      475F4F53 
 3289      50454544 
 3289      5200
 3290              	.LASF13:
 3291 078d 75696E74 		.ascii	"uint8_t\000"
 3291      385F7400 
 3292              	.LASF76:
 3293 0795 464D435F 		.ascii	"FMC_SDRAMTimingStruct\000"
 3293      53445241 
 3293      4D54696D 
 3293      696E6753 
 3293      74727563 
 3294              	.LASF112:
 3295 07ab 4750494F 		.ascii	"GPIOG_PUPDR\000"
 3295      475F5055 
 3295      50445200 
 3296              	.LASF92:
 3297 07b7 4552524F 		.ascii	"ERROR_OVERVOLT_50\000"
 3297      525F4F56 
 3297      4552564F 
 3297      4C545F35 
 3297      3000
 3298              	.LASF32:
 3299 07c9 41484231 		.ascii	"AHB1ENR\000"
 3299      454E5200 
ARM GAS  /var/folders/28/j9jfyj_n4wz3qtvnym210h2c0000gn/T//ccfP1iQY.s 			page 65


 3300              	.LASF24:
 3301 07d1 43464752 		.ascii	"CFGR\000"
 3301      00
 3302              	.LASF94:
 3303 07d6 4552524F 		.ascii	"ERROR_UNDERVOLT_50\000"
 3303      525F554E 
 3303      44455256 
 3303      4F4C545F 
 3303      353000
 3304              	.LASF115:
 3305 07e9 464D435F 		.ascii	"FMC_SDRAMInitStructure\000"
 3305      53445241 
 3305      4D496E69 
 3305      74537472 
 3305      75637475 
 3306              	.LASF109:
 3307 0800 4750494F 		.ascii	"GPIOG_MODER\000"
 3307      475F4D4F 
 3307      44455200 
 3308              	.LASF110:
 3309 080c 4750494F 		.ascii	"GPIOG_OTYPER\000"
 3309      475F4F54 
 3309      59504552 
 3309      00
 3310              	.LASF118:
 3311 0819 53445241 		.ascii	"SDRAM_WriteBuffer\000"
 3311      4D5F5772 
 3311      69746542 
 3311      75666665 
 3311      7200
 3312              		.ident	"GCC: (GNU Tools for ARM Embedded Processors) 4.9.3 20150529 (release) [ARM/embedded-4_9-br
ARM GAS  /var/folders/28/j9jfyj_n4wz3qtvnym210h2c0000gn/T//ccfP1iQY.s 			page 66


DEFINED SYMBOLS
                            *ABS*:0000000000000000 sdram.c
/var/folders/28/j9jfyj_n4wz3qtvnym210h2c0000gn/T//ccfP1iQY.s:21     .text.test.6957:0000000000000000 $t
/var/folders/28/j9jfyj_n4wz3qtvnym210h2c0000gn/T//ccfP1iQY.s:26     .text.test.6957:0000000000000000 test.6957
/var/folders/28/j9jfyj_n4wz3qtvnym210h2c0000gn/T//ccfP1iQY.s:84     .text.test.6957:0000000000000030 $d
/var/folders/28/j9jfyj_n4wz3qtvnym210h2c0000gn/T//ccfP1iQY.s:89     .text.memTest:0000000000000000 $t
/var/folders/28/j9jfyj_n4wz3qtvnym210h2c0000gn/T//ccfP1iQY.s:95     .text.memTest:0000000000000000 memTest
/var/folders/28/j9jfyj_n4wz3qtvnym210h2c0000gn/T//ccfP1iQY.s:290    .text.memTest:00000000000000dc $d
/var/folders/28/j9jfyj_n4wz3qtvnym210h2c0000gn/T//ccfP1iQY.s:295    .text.SDRAM_InitSequence:0000000000000000 $t
/var/folders/28/j9jfyj_n4wz3qtvnym210h2c0000gn/T//ccfP1iQY.s:301    .text.SDRAM_InitSequence:0000000000000000 SDRAM_InitSequence
/var/folders/28/j9jfyj_n4wz3qtvnym210h2c0000gn/T//ccfP1iQY.s:446    .text.SDRAM_Init:0000000000000000 $t
/var/folders/28/j9jfyj_n4wz3qtvnym210h2c0000gn/T//ccfP1iQY.s:452    .text.SDRAM_Init:0000000000000000 SDRAM_Init
/var/folders/28/j9jfyj_n4wz3qtvnym210h2c0000gn/T//ccfP1iQY.s:547    .text.SDRAM_Init:000000000000006c $d
/var/folders/28/j9jfyj_n4wz3qtvnym210h2c0000gn/T//ccfP1iQY.s:552    .text.configSDRAM:0000000000000000 $t
/var/folders/28/j9jfyj_n4wz3qtvnym210h2c0000gn/T//ccfP1iQY.s:558    .text.configSDRAM:0000000000000000 configSDRAM
/var/folders/28/j9jfyj_n4wz3qtvnym210h2c0000gn/T//ccfP1iQY.s:572    .text.SDRAM_WriteBuffer:0000000000000000 $t
/var/folders/28/j9jfyj_n4wz3qtvnym210h2c0000gn/T//ccfP1iQY.s:578    .text.SDRAM_WriteBuffer:0000000000000000 SDRAM_WriteBuffer
/var/folders/28/j9jfyj_n4wz3qtvnym210h2c0000gn/T//ccfP1iQY.s:650    .text.SDRAM_ReadBuffer:0000000000000000 $t
/var/folders/28/j9jfyj_n4wz3qtvnym210h2c0000gn/T//ccfP1iQY.s:656    .text.SDRAM_ReadBuffer:0000000000000000 SDRAM_ReadBuffer
                     .debug_frame:0000000000000010 $d

UNDEFINED SYMBOLS
setErrorFlag
chThdSleep
FMC_GetFlagStatus
FMC_SDRAMCmdConfig
FMC_SetRefreshCount
FMC_SDRAMWriteProtectionConfig
FMC_SDRAMInit
