ARM GAS  /var/folders/28/j9jfyj_n4wz3qtvnym210h2c0000gn/T//cczjZjmY.s 			page 1


   1              		.syntax unified
   2              		.cpu cortex-m4
   3              		.eabi_attribute 27, 1
   4              		.eabi_attribute 28, 1
   5              		.fpu fpv4-sp-d16
   6              		.eabi_attribute 20, 1
   7              		.eabi_attribute 21, 1
   8              		.eabi_attribute 23, 3
   9              		.eabi_attribute 24, 1
  10              		.eabi_attribute 25, 1
  11              		.eabi_attribute 26, 1
  12              		.eabi_attribute 30, 2
  13              		.eabi_attribute 34, 1
  14              		.eabi_attribute 18, 4
  15              		.thumb
  16              		.file	"serial_lld.c"
  17              		.text
  18              	.Ltext0:
  19              		.cfi_sections	.debug_frame
  20              		.section	.text.notify1,"ax",%progbits
  21              		.align	2
  22              		.p2align 4,,15
  23              		.thumb
  24              		.thumb_func
  25              		.type	notify1, %function
  26              	notify1:
  27              	.LFB122:
  28              		.file 1 "/Applications/Axoloti.app/Contents/Java/chibios/os/hal/platforms/STM32/USARTv1/serial_lld
  29              		.loc 1 209 0
  30              		.cfi_startproc
  31              		@ args = 0, pretend = 0, frame = 0
  32              		@ frame_needed = 0, uses_anonymous_args = 0
  33              		@ link register save eliminated.
  34              	.LVL0:
  35              		.loc 1 212 0
  36 0000 034A     		ldr	r2, .L2
  37 0002 9389     		ldrh	r3, [r2, #12]
  38 0004 9BB2     		uxth	r3, r3
  39 0006 43F08003 		orr	r3, r3, #128
  40 000a 9381     		strh	r3, [r2, #12]	@ movhi
  41 000c 7047     		bx	lr
  42              	.L3:
  43 000e 00BF     		.align	2
  44              	.L2:
  45 0010 00100140 		.word	1073811456
  46              		.cfi_endproc
  47              	.LFE122:
  48              		.size	notify1, .-notify1
  49              		.section	.text.notify2,"ax",%progbits
  50              		.align	2
  51              		.p2align 4,,15
  52              		.thumb
  53              		.thumb_func
  54              		.type	notify2, %function
  55              	notify2:
  56              	.LFB123:
  57              		.loc 1 217 0
ARM GAS  /var/folders/28/j9jfyj_n4wz3qtvnym210h2c0000gn/T//cczjZjmY.s 			page 2


  58              		.cfi_startproc
  59              		@ args = 0, pretend = 0, frame = 0
  60              		@ frame_needed = 0, uses_anonymous_args = 0
  61              		@ link register save eliminated.
  62              	.LVL1:
  63              		.loc 1 220 0
  64 0000 034A     		ldr	r2, .L5
  65 0002 9389     		ldrh	r3, [r2, #12]
  66 0004 9BB2     		uxth	r3, r3
  67 0006 43F08003 		orr	r3, r3, #128
  68 000a 9381     		strh	r3, [r2, #12]	@ movhi
  69 000c 7047     		bx	lr
  70              	.L6:
  71 000e 00BF     		.align	2
  72              	.L5:
  73 0010 00440040 		.word	1073759232
  74              		.cfi_endproc
  75              	.LFE123:
  76              		.size	notify2, .-notify2
  77              		.section	.text.notify3,"ax",%progbits
  78              		.align	2
  79              		.p2align 4,,15
  80              		.thumb
  81              		.thumb_func
  82              		.type	notify3, %function
  83              	notify3:
  84              	.LFB124:
  85              		.loc 1 225 0
  86              		.cfi_startproc
  87              		@ args = 0, pretend = 0, frame = 0
  88              		@ frame_needed = 0, uses_anonymous_args = 0
  89              		@ link register save eliminated.
  90              	.LVL2:
  91              		.loc 1 228 0
  92 0000 034A     		ldr	r2, .L8
  93 0002 9389     		ldrh	r3, [r2, #12]
  94 0004 9BB2     		uxth	r3, r3
  95 0006 43F08003 		orr	r3, r3, #128
  96 000a 9381     		strh	r3, [r2, #12]	@ movhi
  97 000c 7047     		bx	lr
  98              	.L9:
  99 000e 00BF     		.align	2
 100              	.L8:
 101 0010 00480040 		.word	1073760256
 102              		.cfi_endproc
 103              	.LFE124:
 104              		.size	notify3, .-notify3
 105              		.section	.text.notify6,"ax",%progbits
 106              		.align	2
 107              		.p2align 4,,15
 108              		.thumb
 109              		.thumb_func
 110              		.type	notify6, %function
 111              	notify6:
 112              	.LFB125:
 113              		.loc 1 249 0
 114              		.cfi_startproc
ARM GAS  /var/folders/28/j9jfyj_n4wz3qtvnym210h2c0000gn/T//cczjZjmY.s 			page 3


 115              		@ args = 0, pretend = 0, frame = 0
 116              		@ frame_needed = 0, uses_anonymous_args = 0
 117              		@ link register save eliminated.
 118              	.LVL3:
 119              		.loc 1 252 0
 120 0000 034A     		ldr	r2, .L11
 121 0002 9389     		ldrh	r3, [r2, #12]
 122 0004 9BB2     		uxth	r3, r3
 123 0006 43F08003 		orr	r3, r3, #128
 124 000a 9381     		strh	r3, [r2, #12]	@ movhi
 125 000c 7047     		bx	lr
 126              	.L12:
 127 000e 00BF     		.align	2
 128              	.L11:
 129 0010 00140140 		.word	1073812480
 130              		.cfi_endproc
 131              	.LFE125:
 132              		.size	notify6, .-notify6
 133              		.section	.text.serve_interrupt,"ax",%progbits
 134              		.align	2
 135              		.p2align 4,,15
 136              		.thumb
 137              		.thumb_func
 138              		.type	serve_interrupt, %function
 139              	serve_interrupt:
 140              	.LFB121:
 141              		.loc 1 154 0
 142              		.cfi_startproc
 143              		@ args = 0, pretend = 0, frame = 0
 144              		@ frame_needed = 0, uses_anonymous_args = 0
 145              	.LVL4:
 146 0000 2DE9F041 		push	{r4, r5, r6, r7, r8, lr}
 147              		.cfi_def_cfa_offset 24
 148              		.cfi_offset 4, -24
 149              		.cfi_offset 5, -20
 150              		.cfi_offset 6, -16
 151              		.cfi_offset 7, -12
 152              		.cfi_offset 8, -8
 153              		.cfi_offset 14, -4
 154              		.loc 1 155 0
 155 0004 D0F89450 		ldr	r5, [r0, #148]
 156              	.LVL5:
 157              		.loc 1 156 0
 158 0008 AF89     		ldrh	r7, [r5, #12]
 159              		.loc 1 157 0
 160 000a 2C88     		ldrh	r4, [r5]
 161 000c A4B2     		uxth	r4, r4
 162              		.loc 1 160 0
 163 000e E205     		lsls	r2, r4, #23
 164              		.loc 1 154 0
 165 0010 0646     		mov	r6, r0
 166              		.loc 1 156 0
 167 0012 BFB2     		uxth	r7, r7
 168              	.LVL6:
 169              		.loc 1 160 0
 170 0014 52D4     		bmi	.L63
 171              	.LVL7:
ARM GAS  /var/folders/28/j9jfyj_n4wz3qtvnym210h2c0000gn/T//cczjZjmY.s 			page 4


 172              	.L14:
 173              	.LBB16:
 174              		.loc 1 168 0
 175 0016 2023     		movs	r3, #32
 176              	@ 168 "/Applications/Axoloti.app/Contents/Java/chibios/os/hal/platforms/STM32/USARTv1/serial_lld.c"
 177 0018 83F31188 		msr     BASEPRI, r3
 178              	@ 0 "" 2
 179              		.thumb
 180              	.LBE16:
 181              		.loc 1 169 0
 182 001c 14F02F0F 		tst	r4, #47
 183 0020 2ED0     		beq	.L15
 184              	.LBB17:
 185              	.LBB18:
 186              	.LBB19:
 187              		.loc 1 146 0
 188 0022 06F10408 		add	r8, r6, #4
 189 0026 08E0     		b	.L22
 190              	.L16:
 191              	.LBE19:
 192              	.LBE18:
 193              		.loc 1 176 0
 194 0028 A988     		ldrh	r1, [r5, #4]
 195              		.loc 1 177 0
 196 002a A006     		lsls	r0, r4, #26
 197              		.loc 1 176 0
 198 002c 89B2     		uxth	r1, r1
 199              	.LVL8:
 200              		.loc 1 177 0
 201 002e 1ED4     		bmi	.L64
 202              	.L21:
 203              		.loc 1 179 0
 204 0030 2C88     		ldrh	r4, [r5]
 205              	.LVL9:
 206 0032 A4B2     		uxth	r4, r4
 207              	.LVL10:
 208              	.LBE17:
 209              		.loc 1 169 0
 210 0034 14F02F0F 		tst	r4, #47
 211 0038 22D0     		beq	.L15
 212              	.LVL11:
 213              	.L22:
 214              	.LBB22:
 215              		.loc 1 174 0
 216 003a 2307     		lsls	r3, r4, #28
 217 003c F4D0     		beq	.L16
 218              	.LVL12:
 219              	.LBB21:
 220              	.LBB20:
 221              		.loc 1 139 0
 222 003e 14F0080F 		tst	r4, #8
 223 0042 0CBF     		ite	eq
 224 0044 0021     		moveq	r1, #0
 225 0046 8021     		movne	r1, #128
 226              	.LVL13:
 227              		.loc 1 140 0
 228 0048 E007     		lsls	r0, r4, #31
ARM GAS  /var/folders/28/j9jfyj_n4wz3qtvnym210h2c0000gn/T//cczjZjmY.s 			page 5


 229              		.loc 1 141 0
 230 004a 48BF     		it	mi
 231 004c 41F02001 		orrmi	r1, r1, #32
 232              	.LVL14:
 233              		.loc 1 142 0
 234 0050 A207     		lsls	r2, r4, #30
 235              		.loc 1 143 0
 236 0052 48BF     		it	mi
 237 0054 41F04001 		orrmi	r1, r1, #64
 238              	.LVL15:
 239              		.loc 1 144 0
 240 0058 6307     		lsls	r3, r4, #29
 241              		.loc 1 145 0
 242 005a 48BF     		it	mi
 243 005c 41F48071 		orrmi	r1, r1, #256
 244              	.LVL16:
 245              		.loc 1 146 0
 246 0060 4046     		mov	r0, r8
 247 0062 FFF7FEFF 		bl	chEvtBroadcastFlagsI
 248              	.LVL17:
 249              	.LBE20:
 250              	.LBE21:
 251              		.loc 1 176 0
 252 0066 A988     		ldrh	r1, [r5, #4]
 253              		.loc 1 177 0
 254 0068 A006     		lsls	r0, r4, #26
 255              		.loc 1 176 0
 256 006a 89B2     		uxth	r1, r1
 257              	.LVL18:
 258              		.loc 1 177 0
 259 006c E0D5     		bpl	.L21
 260              	.LVL19:
 261              	.L64:
 262              		.loc 1 178 0
 263 006e C9B2     		uxtb	r1, r1
 264 0070 3046     		mov	r0, r6
 265 0072 FFF7FEFF 		bl	sdIncomingDataI
 266              	.LVL20:
 267              		.loc 1 179 0
 268 0076 2C88     		ldrh	r4, [r5]
 269              	.LVL21:
 270 0078 A4B2     		uxth	r4, r4
 271              	.LVL22:
 272              	.LBE22:
 273              		.loc 1 169 0
 274 007a 14F02F0F 		tst	r4, #47
 275 007e DCD1     		bne	.L22
 276              	.L15:
 277              	.LBB23:
 278              		.loc 1 181 0
 279 0080 0023     		movs	r3, #0
 280              	@ 181 "/Applications/Axoloti.app/Contents/Java/chibios/os/hal/platforms/STM32/USARTv1/serial_lld.c"
 281 0082 83F31188 		msr     BASEPRI, r3
 282              	@ 0 "" 2
 283              		.thumb
 284              	.LBE23:
 285              		.loc 1 184 0
ARM GAS  /var/folders/28/j9jfyj_n4wz3qtvnym210h2c0000gn/T//cczjZjmY.s 			page 6


 286 0086 3906     		lsls	r1, r7, #24
 287 0088 01D5     		bpl	.L23
 288              		.loc 1 184 0 is_stmt 0 discriminator 1
 289 008a 2206     		lsls	r2, r4, #24
 290 008c 25D4     		bmi	.L65
 291              	.L23:
 292              		.loc 1 198 0 is_stmt 1
 293 008e 6306     		lsls	r3, r4, #25
 294 0090 12D5     		bpl	.L13
 295              	.LBB24:
 296              		.loc 1 199 0
 297 0092 2023     		movs	r3, #32
 298              	@ 199 "/Applications/Axoloti.app/Contents/Java/chibios/os/hal/platforms/STM32/USARTv1/serial_lld.c"
 299 0094 83F31188 		msr     BASEPRI, r3
 300              	@ 0 "" 2
 301              		.thumb
 302              	.LBE24:
 303              		.loc 1 200 0
 304 0098 726C     		ldr	r2, [r6, #68]
 305 009a B36C     		ldr	r3, [r6, #72]
 306 009c 9A42     		cmp	r2, r3
 307 009e 2BD0     		beq	.L66
 308              	.L27:
 309              		.loc 1 202 0
 310 00a0 27F04007 		bic	r7, r7, #64
 311              	.LVL23:
 312 00a4 BFB2     		uxth	r7, r7
 313              		.loc 1 203 0
 314 00a6 4FF6BF72 		movw	r2, #65471
 315              		.loc 1 202 0
 316 00aa AF81     		strh	r7, [r5, #12]	@ movhi
 317              	.LBB25:
 318              		.loc 1 204 0
 319 00ac 0023     		movs	r3, #0
 320              	.LBE25:
 321              		.loc 1 203 0
 322 00ae 2A80     		strh	r2, [r5]	@ movhi
 323              	.LBB26:
 324              		.loc 1 204 0
 325              	@ 204 "/Applications/Axoloti.app/Contents/Java/chibios/os/hal/platforms/STM32/USARTv1/serial_lld.c"
 326 00b0 83F31188 		msr     BASEPRI, r3
 327              	@ 0 "" 2
 328              		.thumb
 329 00b4 BDE8F081 		pop	{r4, r5, r6, r7, r8, pc}
 330              	.LVL24:
 331              	.L13:
 332 00b8 BDE8F081 		pop	{r4, r5, r6, r7, r8, pc}
 333              	.LVL25:
 334              	.L63:
 335              	.LBE26:
 336              	.LBB27:
 337              		.loc 1 161 0
 338 00bc 2023     		movs	r3, #32
 339              	@ 161 "/Applications/Axoloti.app/Contents/Java/chibios/os/hal/platforms/STM32/USARTv1/serial_lld.c"
 340 00be 83F31188 		msr     BASEPRI, r3
 341              	@ 0 "" 2
 342              		.thumb
ARM GAS  /var/folders/28/j9jfyj_n4wz3qtvnym210h2c0000gn/T//cczjZjmY.s 			page 7


 343              	.LBE27:
 344              		.loc 1 162 0
 345 00c2 4FF40071 		mov	r1, #512
 346 00c6 0430     		adds	r0, r0, #4
 347              	.LVL26:
 348 00c8 FFF7FEFF 		bl	chEvtBroadcastFlagsI
 349              	.LVL27:
 350              	.LBB28:
 351              		.loc 1 163 0
 352 00cc 0023     		movs	r3, #0
 353              	@ 163 "/Applications/Axoloti.app/Contents/Java/chibios/os/hal/platforms/STM32/USARTv1/serial_lld.c"
 354 00ce 83F31188 		msr     BASEPRI, r3
 355              	@ 0 "" 2
 356              		.thumb
 357              	.LBE28:
 358              		.loc 1 164 0
 359 00d2 4FF6FF63 		movw	r3, #65279
 360 00d6 2B80     		strh	r3, [r5]	@ movhi
 361 00d8 9DE7     		b	.L14
 362              	.L65:
 363              	.LBB29:
 364              	.LBB30:
 365              		.loc 1 186 0
 366 00da 2023     		movs	r3, #32
 367              	@ 186 "/Applications/Axoloti.app/Contents/Java/chibios/os/hal/platforms/STM32/USARTv1/serial_lld.c"
 368 00dc 83F31188 		msr     BASEPRI, r3
 369              	@ 0 "" 2
 370              		.thumb
 371              	.LBE30:
 372              		.loc 1 187 0
 373 00e0 06F13000 		add	r0, r6, #48
 374 00e4 FFF7FEFF 		bl	chOQGetI
 375              	.LVL28:
 376              		.loc 1 188 0
 377 00e8 0028     		cmp	r0, #0
 378 00ea 0DDB     		blt	.L67
 379              		.loc 1 193 0
 380 00ec 80B2     		uxth	r0, r0
 381              	.LVL29:
 382 00ee A880     		strh	r0, [r5, #4]	@ movhi
 383              	.L25:
 384              	.LBB31:
 385              		.loc 1 194 0
 386 00f0 0023     		movs	r3, #0
 387              	@ 194 "/Applications/Axoloti.app/Contents/Java/chibios/os/hal/platforms/STM32/USARTv1/serial_lld.c"
 388 00f2 83F31188 		msr     BASEPRI, r3
 389              	@ 0 "" 2
 390              		.thumb
 391 00f6 CAE7     		b	.L23
 392              	.L66:
 393              	.LBE31:
 394              	.LBE29:
 395              		.loc 1 200 0 discriminator 1
 396 00f8 B36B     		ldr	r3, [r6, #56]
 397 00fa 002B     		cmp	r3, #0
 398 00fc D0D0     		beq	.L27
 399              		.loc 1 201 0
ARM GAS  /var/folders/28/j9jfyj_n4wz3qtvnym210h2c0000gn/T//cczjZjmY.s 			page 8


 400 00fe 301D     		adds	r0, r6, #4
 401 0100 1021     		movs	r1, #16
 402 0102 FFF7FEFF 		bl	chEvtBroadcastFlagsI
 403              	.LVL30:
 404 0106 CBE7     		b	.L27
 405              	.LVL31:
 406              	.L67:
 407              	.LBB32:
 408              		.loc 1 189 0
 409 0108 301D     		adds	r0, r6, #4
 410              	.LVL32:
 411 010a 0821     		movs	r1, #8
 412 010c FFF7FEFF 		bl	chEvtBroadcastFlagsI
 413              	.LVL33:
 414              		.loc 1 190 0
 415 0110 27F0C003 		bic	r3, r7, #192
 416 0114 43F04003 		orr	r3, r3, #64
 417 0118 AB81     		strh	r3, [r5, #12]	@ movhi
 418 011a E9E7     		b	.L25
 419              	.LBE32:
 420              		.cfi_endproc
 421              	.LFE121:
 422              		.size	serve_interrupt, .-serve_interrupt
 423              		.section	.text.VectorD4,"ax",%progbits
 424              		.align	2
 425              		.p2align 4,,15
 426              		.global	VectorD4
 427              		.thumb
 428              		.thumb_func
 429              		.type	VectorD4, %function
 430              	VectorD4:
 431              	.LFB126:
 432              		.loc 1 269 0
 433              		.cfi_startproc
 434              		@ args = 0, pretend = 0, frame = 0
 435              		@ frame_needed = 0, uses_anonymous_args = 0
 436 0000 08B5     		push	{r3, lr}
 437              		.cfi_def_cfa_offset 8
 438              		.cfi_offset 3, -8
 439              		.cfi_offset 14, -4
 440              		.loc 1 273 0
 441 0002 0348     		ldr	r0, .L70
 442 0004 FFF7FEFF 		bl	serve_interrupt
 443              	.LVL34:
 444              		.loc 1 276 0
 445 0008 BDE80840 		pop	{r3, lr}
 446              		.cfi_restore 14
 447              		.cfi_restore 3
 448              		.cfi_def_cfa_offset 0
 449              		.loc 1 275 0
 450 000c FFF7FEBF 		b	_port_irq_epilogue
 451              	.LVL35:
 452              	.L71:
 453              		.align	2
 454              	.L70:
 455 0010 00000000 		.word	.LANCHOR0
 456              		.cfi_endproc
ARM GAS  /var/folders/28/j9jfyj_n4wz3qtvnym210h2c0000gn/T//cczjZjmY.s 			page 9


 457              	.LFE126:
 458              		.size	VectorD4, .-VectorD4
 459              		.section	.text.VectorD8,"ax",%progbits
 460              		.align	2
 461              		.p2align 4,,15
 462              		.global	VectorD8
 463              		.thumb
 464              		.thumb_func
 465              		.type	VectorD8, %function
 466              	VectorD8:
 467              	.LFB127:
 468              		.loc 1 288 0
 469              		.cfi_startproc
 470              		@ args = 0, pretend = 0, frame = 0
 471              		@ frame_needed = 0, uses_anonymous_args = 0
 472 0000 08B5     		push	{r3, lr}
 473              		.cfi_def_cfa_offset 8
 474              		.cfi_offset 3, -8
 475              		.cfi_offset 14, -4
 476              		.loc 1 292 0
 477 0002 0348     		ldr	r0, .L74
 478 0004 FFF7FEFF 		bl	serve_interrupt
 479              	.LVL36:
 480              		.loc 1 295 0
 481 0008 BDE80840 		pop	{r3, lr}
 482              		.cfi_restore 14
 483              		.cfi_restore 3
 484              		.cfi_def_cfa_offset 0
 485              		.loc 1 294 0
 486 000c FFF7FEBF 		b	_port_irq_epilogue
 487              	.LVL37:
 488              	.L75:
 489              		.align	2
 490              	.L74:
 491 0010 00000000 		.word	.LANCHOR1
 492              		.cfi_endproc
 493              	.LFE127:
 494              		.size	VectorD8, .-VectorD8
 495              		.section	.text.VectorDC,"ax",%progbits
 496              		.align	2
 497              		.p2align 4,,15
 498              		.global	VectorDC
 499              		.thumb
 500              		.thumb_func
 501              		.type	VectorDC, %function
 502              	VectorDC:
 503              	.LFB128:
 504              		.loc 1 307 0
 505              		.cfi_startproc
 506              		@ args = 0, pretend = 0, frame = 0
 507              		@ frame_needed = 0, uses_anonymous_args = 0
 508 0000 08B5     		push	{r3, lr}
 509              		.cfi_def_cfa_offset 8
 510              		.cfi_offset 3, -8
 511              		.cfi_offset 14, -4
 512              		.loc 1 311 0
 513 0002 0348     		ldr	r0, .L78
ARM GAS  /var/folders/28/j9jfyj_n4wz3qtvnym210h2c0000gn/T//cczjZjmY.s 			page 10


 514 0004 FFF7FEFF 		bl	serve_interrupt
 515              	.LVL38:
 516              		.loc 1 314 0
 517 0008 BDE80840 		pop	{r3, lr}
 518              		.cfi_restore 14
 519              		.cfi_restore 3
 520              		.cfi_def_cfa_offset 0
 521              		.loc 1 313 0
 522 000c FFF7FEBF 		b	_port_irq_epilogue
 523              	.LVL39:
 524              	.L79:
 525              		.align	2
 526              	.L78:
 527 0010 00000000 		.word	.LANCHOR2
 528              		.cfi_endproc
 529              	.LFE128:
 530              		.size	VectorDC, .-VectorDC
 531              		.section	.text.Vector15C,"ax",%progbits
 532              		.align	2
 533              		.p2align 4,,15
 534              		.global	Vector15C
 535              		.thumb
 536              		.thumb_func
 537              		.type	Vector15C, %function
 538              	Vector15C:
 539              	.LFB129:
 540              		.loc 1 364 0
 541              		.cfi_startproc
 542              		@ args = 0, pretend = 0, frame = 0
 543              		@ frame_needed = 0, uses_anonymous_args = 0
 544 0000 08B5     		push	{r3, lr}
 545              		.cfi_def_cfa_offset 8
 546              		.cfi_offset 3, -8
 547              		.cfi_offset 14, -4
 548              		.loc 1 368 0
 549 0002 0348     		ldr	r0, .L82
 550 0004 FFF7FEFF 		bl	serve_interrupt
 551              	.LVL40:
 552              		.loc 1 371 0
 553 0008 BDE80840 		pop	{r3, lr}
 554              		.cfi_restore 14
 555              		.cfi_restore 3
 556              		.cfi_def_cfa_offset 0
 557              		.loc 1 370 0
 558 000c FFF7FEBF 		b	_port_irq_epilogue
 559              	.LVL41:
 560              	.L83:
 561              		.align	2
 562              	.L82:
 563 0010 00000000 		.word	.LANCHOR3
 564              		.cfi_endproc
 565              	.LFE129:
 566              		.size	Vector15C, .-Vector15C
 567              		.section	.text.sd_lld_init,"ax",%progbits
 568              		.align	2
 569              		.p2align 4,,15
 570              		.global	sd_lld_init
ARM GAS  /var/folders/28/j9jfyj_n4wz3qtvnym210h2c0000gn/T//cczjZjmY.s 			page 11


 571              		.thumb
 572              		.thumb_func
 573              		.type	sd_lld_init, %function
 574              	sd_lld_init:
 575              	.LFB130:
 576              		.loc 1 383 0
 577              		.cfi_startproc
 578              		@ args = 0, pretend = 0, frame = 0
 579              		@ frame_needed = 0, uses_anonymous_args = 0
 580 0000 F8B5     		push	{r3, r4, r5, r6, r7, lr}
 581              		.cfi_def_cfa_offset 24
 582              		.cfi_offset 3, -24
 583              		.cfi_offset 4, -20
 584              		.cfi_offset 5, -16
 585              		.cfi_offset 6, -12
 586              		.cfi_offset 7, -8
 587              		.cfi_offset 14, -4
 588              		.loc 1 386 0
 589 0002 124F     		ldr	r7, .L86
 590              		.loc 1 391 0
 591 0004 124E     		ldr	r6, .L86+4
 592              		.loc 1 386 0
 593 0006 134A     		ldr	r2, .L86+8
 594              		.loc 1 396 0
 595 0008 134D     		ldr	r5, .L86+12
 596              		.loc 1 411 0
 597 000a 144C     		ldr	r4, .L86+16
 598              		.loc 1 386 0
 599 000c 3846     		mov	r0, r7
 600 000e 0021     		movs	r1, #0
 601 0010 FFF7FEFF 		bl	sdObjectInit
 602              	.LVL42:
 603              		.loc 1 387 0
 604 0014 124B     		ldr	r3, .L86+20
 605              		.loc 1 391 0
 606 0016 134A     		ldr	r2, .L86+24
 607              		.loc 1 387 0
 608 0018 C7F89430 		str	r3, [r7, #148]
 609              		.loc 1 391 0
 610 001c 3046     		mov	r0, r6
 611 001e 0021     		movs	r1, #0
 612 0020 FFF7FEFF 		bl	sdObjectInit
 613              	.LVL43:
 614              		.loc 1 392 0
 615 0024 104B     		ldr	r3, .L86+28
 616              		.loc 1 396 0
 617 0026 114A     		ldr	r2, .L86+32
 618              		.loc 1 392 0
 619 0028 C6F89430 		str	r3, [r6, #148]
 620              		.loc 1 396 0
 621 002c 2846     		mov	r0, r5
 622 002e 0021     		movs	r1, #0
 623 0030 FFF7FEFF 		bl	sdObjectInit
 624              	.LVL44:
 625              		.loc 1 397 0
 626 0034 0E4B     		ldr	r3, .L86+36
 627              		.loc 1 411 0
ARM GAS  /var/folders/28/j9jfyj_n4wz3qtvnym210h2c0000gn/T//cczjZjmY.s 			page 12


 628 0036 0F4A     		ldr	r2, .L86+40
 629              		.loc 1 397 0
 630 0038 C5F89430 		str	r3, [r5, #148]
 631              		.loc 1 411 0
 632 003c 2046     		mov	r0, r4
 633 003e 0021     		movs	r1, #0
 634 0040 FFF7FEFF 		bl	sdObjectInit
 635              	.LVL45:
 636              		.loc 1 412 0
 637 0044 0C4B     		ldr	r3, .L86+44
 638 0046 C4F89430 		str	r3, [r4, #148]
 639 004a F8BD     		pop	{r3, r4, r5, r6, r7, pc}
 640              	.L87:
 641              		.align	2
 642              	.L86:
 643 004c 00000000 		.word	.LANCHOR0
 644 0050 00000000 		.word	.LANCHOR1
 645 0054 00000000 		.word	notify1
 646 0058 00000000 		.word	.LANCHOR2
 647 005c 00000000 		.word	.LANCHOR3
 648 0060 00100140 		.word	1073811456
 649 0064 00000000 		.word	notify2
 650 0068 00440040 		.word	1073759232
 651 006c 00000000 		.word	notify3
 652 0070 00480040 		.word	1073760256
 653 0074 00000000 		.word	notify6
 654 0078 00140140 		.word	1073812480
 655              		.cfi_endproc
 656              	.LFE130:
 657              		.size	sd_lld_init, .-sd_lld_init
 658              		.section	.text.sd_lld_start,"ax",%progbits
 659              		.align	2
 660              		.p2align 4,,15
 661              		.global	sd_lld_start
 662              		.thumb
 663              		.thumb_func
 664              		.type	sd_lld_start, %function
 665              	sd_lld_start:
 666              	.LFB131:
 667              		.loc 1 426 0
 668              		.cfi_startproc
 669              		@ args = 0, pretend = 0, frame = 0
 670              		@ frame_needed = 0, uses_anonymous_args = 0
 671              	.LVL46:
 672 0000 38B5     		push	{r3, r4, r5, lr}
 673              		.cfi_def_cfa_offset 16
 674              		.cfi_offset 3, -16
 675              		.cfi_offset 4, -12
 676              		.cfi_offset 5, -8
 677              		.cfi_offset 14, -4
 678              		.loc 1 429 0
 679 0002 344C     		ldr	r4, .L104
 680              		.loc 1 431 0
 681 0004 037A     		ldrb	r3, [r0, #8]	@ zero_extendqisi2
 682              		.loc 1 429 0
 683 0006 0029     		cmp	r1, #0
 684 0008 18BF     		it	ne
ARM GAS  /var/folders/28/j9jfyj_n4wz3qtvnym210h2c0000gn/T//cczjZjmY.s 			page 13


 685 000a 0C46     		movne	r4, r1
 686              	.LVL47:
 687              		.loc 1 431 0
 688 000c 012B     		cmp	r3, #1
 689              		.loc 1 426 0
 690 000e 0546     		mov	r5, r0
 691              		.loc 1 431 0
 692 0010 24D0     		beq	.L100
 693              	.LVL48:
 694              	.L91:
 695 0012 D5F89430 		ldr	r3, [r5, #148]
 696              	.LVL49:
 697              	.LBB35:
 698              	.LBB36:
 699              		.loc 1 97 0
 700 0016 304A     		ldr	r2, .L104+4
 701 0018 9342     		cmp	r3, r2
 702 001a 35D0     		beq	.L96
 703 001c 02F58062 		add	r2, r2, #1024
 704 0020 9342     		cmp	r3, r2
 705 0022 31D0     		beq	.L96
 706              		.loc 1 103 0
 707 0024 2168     		ldr	r1, [r4]
 708 0026 2D4A     		ldr	r2, .L104+8
 709 0028 B2FBF1F2 		udiv	r2, r2, r1
 710 002c 92B2     		uxth	r2, r2
 711 002e 1A81     		strh	r2, [r3, #8]	@ movhi
 712              	.L98:
 713              		.loc 1 108 0
 714 0030 A288     		ldrh	r2, [r4, #4]
 715              		.loc 1 106 0
 716 0032 E088     		ldrh	r0, [r4, #6]
 717              		.loc 1 107 0
 718 0034 2189     		ldrh	r1, [r4, #8]
 719              		.loc 1 108 0
 720 0036 42F40452 		orr	r2, r2, #8448
 721              		.loc 1 106 0
 722 003a 40F04000 		orr	r0, r0, #64
 723              		.loc 1 108 0
 724 003e 42F02C02 		orr	r2, r2, #44
 725              		.loc 1 107 0
 726 0042 41F00101 		orr	r1, r1, #1
 727              		.loc 1 108 0
 728 0046 92B2     		uxth	r2, r2
 729              		.loc 1 106 0
 730 0048 80B2     		uxth	r0, r0
 731              		.loc 1 107 0
 732 004a 89B2     		uxth	r1, r1
 733              		.loc 1 111 0
 734 004c 0024     		movs	r4, #0
 735              	.LVL50:
 736              		.loc 1 106 0
 737 004e 1882     		strh	r0, [r3, #16]	@ movhi
 738              		.loc 1 107 0
 739 0050 9982     		strh	r1, [r3, #20]	@ movhi
 740              		.loc 1 108 0
 741 0052 9A81     		strh	r2, [r3, #12]	@ movhi
ARM GAS  /var/folders/28/j9jfyj_n4wz3qtvnym210h2c0000gn/T//cczjZjmY.s 			page 14


 742              		.loc 1 111 0
 743 0054 1C80     		strh	r4, [r3]	@ movhi
 744              		.loc 1 112 0
 745 0056 1A88     		ldrh	r2, [r3]
 746              		.loc 1 113 0
 747 0058 9B88     		ldrh	r3, [r3, #4]
 748              	.LVL51:
 749 005a 38BD     		pop	{r3, r4, r5, pc}
 750              	.LVL52:
 751              	.L100:
 752              	.LBE36:
 753              	.LBE35:
 754              		.loc 1 433 0
 755 005c 204B     		ldr	r3, .L104+12
 756 005e 9842     		cmp	r0, r3
 757 0060 2DD0     		beq	.L101
 758              		.loc 1 440 0
 759 0062 204B     		ldr	r3, .L104+16
 760 0064 9842     		cmp	r0, r3
 761 0066 16D0     		beq	.L102
 762              		.loc 1 447 0
 763 0068 1F4B     		ldr	r3, .L104+20
 764 006a 9842     		cmp	r0, r3
 765 006c 1DD0     		beq	.L103
 766              		.loc 1 468 0
 767 006e 1F4B     		ldr	r3, .L104+24
 768 0070 9842     		cmp	r0, r3
 769 0072 CED1     		bne	.L91
 770              		.loc 1 469 0
 771 0074 1E4A     		ldr	r2, .L104+28
 772 0076 536C     		ldr	r3, [r2, #68]
 773 0078 43F02003 		orr	r3, r3, #32
 774 007c 5364     		str	r3, [r2, #68]
 775              		.loc 1 470 0
 776 007e 4720     		movs	r0, #71
 777              	.LVL53:
 778 0080 C021     		movs	r1, #192
 779 0082 FFF7FEFF 		bl	nvicEnableVector
 780              	.LVL54:
 781 0086 C4E7     		b	.L91
 782              	.LVL55:
 783              	.L96:
 784              	.LBB38:
 785              	.LBB37:
 786              		.loc 1 101 0
 787 0088 2168     		ldr	r1, [r4]
 788 008a 1A4A     		ldr	r2, .L104+32
 789 008c B2FBF1F2 		udiv	r2, r2, r1
 790 0090 92B2     		uxth	r2, r2
 791 0092 1A81     		strh	r2, [r3, #8]	@ movhi
 792 0094 CCE7     		b	.L98
 793              	.LVL56:
 794              	.L102:
 795              	.LBE37:
 796              	.LBE38:
 797              		.loc 1 441 0
 798 0096 164A     		ldr	r2, .L104+28
ARM GAS  /var/folders/28/j9jfyj_n4wz3qtvnym210h2c0000gn/T//cczjZjmY.s 			page 15


 799 0098 136C     		ldr	r3, [r2, #64]
 800 009a 43F40033 		orr	r3, r3, #131072
 801 009e 1364     		str	r3, [r2, #64]
 802              		.loc 1 442 0
 803 00a0 2620     		movs	r0, #38
 804              	.LVL57:
 805 00a2 C021     		movs	r1, #192
 806 00a4 FFF7FEFF 		bl	nvicEnableVector
 807              	.LVL58:
 808 00a8 B3E7     		b	.L91
 809              	.LVL59:
 810              	.L103:
 811              		.loc 1 448 0
 812 00aa 114A     		ldr	r2, .L104+28
 813 00ac 136C     		ldr	r3, [r2, #64]
 814 00ae 43F48023 		orr	r3, r3, #262144
 815 00b2 1364     		str	r3, [r2, #64]
 816              		.loc 1 449 0
 817 00b4 2720     		movs	r0, #39
 818              	.LVL60:
 819 00b6 C021     		movs	r1, #192
 820 00b8 FFF7FEFF 		bl	nvicEnableVector
 821              	.LVL61:
 822 00bc A9E7     		b	.L91
 823              	.LVL62:
 824              	.L101:
 825              		.loc 1 434 0
 826 00be 0C4A     		ldr	r2, .L104+28
 827 00c0 536C     		ldr	r3, [r2, #68]
 828 00c2 43F01003 		orr	r3, r3, #16
 829 00c6 5364     		str	r3, [r2, #68]
 830              		.loc 1 435 0
 831 00c8 2520     		movs	r0, #37
 832              	.LVL63:
 833 00ca C021     		movs	r1, #192
 834 00cc FFF7FEFF 		bl	nvicEnableVector
 835              	.LVL64:
 836 00d0 9FE7     		b	.L91
 837              	.L105:
 838 00d2 00BF     		.align	2
 839              	.L104:
 840 00d4 00000000 		.word	.LANCHOR4
 841 00d8 00100140 		.word	1073811456
 842 00dc 80DE8002 		.word	42000000
 843 00e0 00000000 		.word	.LANCHOR0
 844 00e4 00000000 		.word	.LANCHOR1
 845 00e8 00000000 		.word	.LANCHOR2
 846 00ec 00000000 		.word	.LANCHOR3
 847 00f0 00380240 		.word	1073887232
 848 00f4 00BD0105 		.word	84000000
 849              		.cfi_endproc
 850              	.LFE131:
 851              		.size	sd_lld_start, .-sd_lld_start
 852              		.section	.text.sd_lld_stop,"ax",%progbits
 853              		.align	2
 854              		.p2align 4,,15
 855              		.global	sd_lld_stop
ARM GAS  /var/folders/28/j9jfyj_n4wz3qtvnym210h2c0000gn/T//cczjZjmY.s 			page 16


 856              		.thumb
 857              		.thumb_func
 858              		.type	sd_lld_stop, %function
 859              	sd_lld_stop:
 860              	.LFB132:
 861              		.loc 1 487 0
 862              		.cfi_startproc
 863              		@ args = 0, pretend = 0, frame = 0
 864              		@ frame_needed = 0, uses_anonymous_args = 0
 865              		@ link register save eliminated.
 866              	.LVL65:
 867              		.loc 1 489 0
 868 0000 037A     		ldrb	r3, [r0, #8]	@ zero_extendqisi2
 869 0002 022B     		cmp	r3, #2
 870 0004 00D0     		beq	.L113
 871              	.L106:
 872 0006 7047     		bx	lr
 873              	.L113:
 874              		.loc 1 492 0
 875 0008 1849     		ldr	r1, .L117
 876              		.loc 1 490 0
 877 000a D0F89430 		ldr	r3, [r0, #148]
 878              	.LVL66:
 879              	.LBB39:
 880              	.LBB40:
 881              		.loc 1 124 0
 882 000e 0022     		movs	r2, #0
 883              	.LBE40:
 884              	.LBE39:
 885              		.loc 1 492 0
 886 0010 8842     		cmp	r0, r1
 887              	.LBB42:
 888              	.LBB41:
 889              		.loc 1 124 0
 890 0012 9A81     		strh	r2, [r3, #12]	@ movhi
 891              		.loc 1 125 0
 892 0014 1A82     		strh	r2, [r3, #16]	@ movhi
 893              		.loc 1 126 0
 894 0016 9A82     		strh	r2, [r3, #20]	@ movhi
 895              	.LBE41:
 896              	.LBE42:
 897              		.loc 1 492 0
 898 0018 10D0     		beq	.L114
 899              		.loc 1 499 0
 900 001a 154B     		ldr	r3, .L117+4
 901              	.LVL67:
 902 001c 9842     		cmp	r0, r3
 903 001e 15D0     		beq	.L115
 904              		.loc 1 506 0
 905 0020 144B     		ldr	r3, .L117+8
 906 0022 9842     		cmp	r0, r3
 907 0024 1AD0     		beq	.L116
 908              		.loc 1 527 0
 909 0026 144B     		ldr	r3, .L117+12
 910 0028 9842     		cmp	r0, r3
 911 002a ECD1     		bne	.L106
 912              		.loc 1 528 0
ARM GAS  /var/folders/28/j9jfyj_n4wz3qtvnym210h2c0000gn/T//cczjZjmY.s 			page 17


 913 002c 134A     		ldr	r2, .L117+16
 914 002e 536C     		ldr	r3, [r2, #68]
 915 0030 23F02003 		bic	r3, r3, #32
 916 0034 5364     		str	r3, [r2, #68]
 917              		.loc 1 529 0
 918 0036 4720     		movs	r0, #71
 919              	.LVL68:
 920 0038 FFF7FEBF 		b	nvicDisableVector
 921              	.LVL69:
 922              	.L114:
 923              		.loc 1 493 0
 924 003c 0F4A     		ldr	r2, .L117+16
 925 003e 536C     		ldr	r3, [r2, #68]
 926              	.LVL70:
 927 0040 23F01003 		bic	r3, r3, #16
 928 0044 5364     		str	r3, [r2, #68]
 929              		.loc 1 494 0
 930 0046 2520     		movs	r0, #37
 931              	.LVL71:
 932 0048 FFF7FEBF 		b	nvicDisableVector
 933              	.LVL72:
 934              	.L115:
 935              		.loc 1 500 0
 936 004c 0B4A     		ldr	r2, .L117+16
 937 004e 136C     		ldr	r3, [r2, #64]
 938 0050 23F40033 		bic	r3, r3, #131072
 939 0054 1364     		str	r3, [r2, #64]
 940              		.loc 1 501 0
 941 0056 2620     		movs	r0, #38
 942              	.LVL73:
 943 0058 FFF7FEBF 		b	nvicDisableVector
 944              	.LVL74:
 945              	.L116:
 946              		.loc 1 507 0
 947 005c 074A     		ldr	r2, .L117+16
 948 005e 136C     		ldr	r3, [r2, #64]
 949 0060 23F48023 		bic	r3, r3, #262144
 950 0064 1364     		str	r3, [r2, #64]
 951              		.loc 1 508 0
 952 0066 2720     		movs	r0, #39
 953              	.LVL75:
 954 0068 FFF7FEBF 		b	nvicDisableVector
 955              	.LVL76:
 956              	.L118:
 957              		.align	2
 958              	.L117:
 959 006c 00000000 		.word	.LANCHOR0
 960 0070 00000000 		.word	.LANCHOR1
 961 0074 00000000 		.word	.LANCHOR2
 962 0078 00000000 		.word	.LANCHOR3
 963 007c 00380240 		.word	1073887232
 964              		.cfi_endproc
 965              	.LFE132:
 966              		.size	sd_lld_stop, .-sd_lld_stop
 967              		.global	SD6
 968              		.global	SD3
 969              		.global	SD2
ARM GAS  /var/folders/28/j9jfyj_n4wz3qtvnym210h2c0000gn/T//cczjZjmY.s 			page 18


 970              		.global	SD1
 971              		.section	.rodata.default_config,"a",%progbits
 972              		.align	2
 973              		.set	.LANCHOR4,. + 0
 974              		.type	default_config, %object
 975              		.size	default_config, 12
 976              	default_config:
 977 0000 00960000 		.word	38400
 978 0004 0000     		.short	0
 979 0006 0040     		.short	16384
 980 0008 0000     		.short	0
 981 000a 0000     		.space	2
 982              		.section	.bss.SD1,"aw",%nobits
 983              		.align	2
 984              		.set	.LANCHOR0,. + 0
 985              		.type	SD1, %object
 986              		.size	SD1, 152
 987              	SD1:
 988 0000 00000000 		.space	152
 988      00000000 
 988      00000000 
 988      00000000 
 988      00000000 
 989              		.section	.bss.SD2,"aw",%nobits
 990              		.align	2
 991              		.set	.LANCHOR1,. + 0
 992              		.type	SD2, %object
 993              		.size	SD2, 152
 994              	SD2:
 995 0000 00000000 		.space	152
 995      00000000 
 995      00000000 
 995      00000000 
 995      00000000 
 996              		.section	.bss.SD3,"aw",%nobits
 997              		.align	2
 998              		.set	.LANCHOR2,. + 0
 999              		.type	SD3, %object
 1000              		.size	SD3, 152
 1001              	SD3:
 1002 0000 00000000 		.space	152
 1002      00000000 
 1002      00000000 
 1002      00000000 
 1002      00000000 
 1003              		.section	.bss.SD6,"aw",%nobits
 1004              		.align	2
 1005              		.set	.LANCHOR3,. + 0
 1006              		.type	SD6, %object
 1007              		.size	SD6, 152
 1008              	SD6:
 1009 0000 00000000 		.space	152
 1009      00000000 
 1009      00000000 
 1009      00000000 
 1009      00000000 
 1010              		.text
ARM GAS  /var/folders/28/j9jfyj_n4wz3qtvnym210h2c0000gn/T//cczjZjmY.s 			page 19


 1011              	.Letext0:
 1012              		.file 2 "/Applications/axoloti_runtime/platform_osx/lib/gcc/arm-none-eabi/4.9.3/include/stddef.h"
 1013              		.file 3 "/Applications/axoloti_runtime/platform_osx/arm-none-eabi/include/machine/_default_types.h
 1014              		.file 4 "/Applications/axoloti_runtime/platform_osx/arm-none-eabi/include/sys/_stdint.h"
 1015              		.file 5 "/Applications/Axoloti.app/Contents/Java/chibios/os/ports/GCC/ARMCMx/chtypes.h"
 1016              		.file 6 "/Applications/Axoloti.app/Contents/Java/chibios/os/kernel/include/chlists.h"
 1017              		.file 7 "/Applications/Axoloti.app/Contents/Java/chibios/os/kernel/include/chthreads.h"
 1018              		.file 8 "/Applications/Axoloti.app/Contents/Java/chibios/os/ports/GCC/ARMCMx/chcore_v7m.h"
 1019              		.file 9 "/Applications/Axoloti.app/Contents/Java/chibios/os/kernel/include/chmtx.h"
 1020              		.file 10 "/Applications/Axoloti.app/Contents/Java/chibios/os/kernel/include/chevents.h"
 1021              		.file 11 "/Applications/Axoloti.app/Contents/Java/chibios/os/kernel/include/chqueues.h"
 1022              		.file 12 "/Applications/Axoloti.app/Contents/Java/chibios/os/hal/platforms/STM32F4xx/stm32f4xx.h"
 1023              		.file 13 "/Applications/Axoloti.app/Contents/Java/chibios/os/hal/include/serial.h"
 1024              		.file 14 "/Applications/Axoloti.app/Contents/Java/chibios/os/hal/platforms/STM32/USARTv1/serial_ll
 1025              		.file 15 "/Applications/Axoloti.app/Contents/Java/chibios/os/ports/common/ARMCMx/nvic.h"
 1026              		.file 16 "/Applications/Axoloti.app/Contents/Java/chibios/os/ports/common/ARMCMx/CMSIS/include/cor