ARM GAS  /var/folders/28/j9jfyj_n4wz3qtvnym210h2c0000gn/T//ccXbR1jW.s 			page 1


   1              		.syntax unified
   2              		.cpu cortex-m4
   3              		.eabi_attribute 27, 1
   4              		.eabi_attribute 28, 1
   5              		.fpu fpv4-sp-d16
   6              		.eabi_attribute 20, 1
   7              		.eabi_attribute 21, 1
   8              		.eabi_attribute 23, 3
   9              		.eabi_attribute 24, 1
  10              		.eabi_attribute 25, 1
  11              		.eabi_attribute 26, 1
  12              		.eabi_attribute 30, 2
  13              		.eabi_attribute 34, 1
  14              		.eabi_attribute 18, 4
  15              		.thumb
  16              		.file	"axoloti_board.c"
  17              		.text
  18              	.Ltext0:
  19              		.cfi_sections	.debug_frame
  20              		.align	2
  21              		.p2align 4,,15
  22              		.global	axoloti_board_init
  23              		.thumb
  24              		.thumb_func
  25              		.type	axoloti_board_init, %function
  26              	axoloti_board_init:
  27              	.LFB130:
  28              		.file 1 "axoloti_board.c"
  29              		.loc 1 27 0
  30              		.cfi_startproc
  31              		@ args = 0, pretend = 0, frame = 0
  32              		@ frame_needed = 0, uses_anonymous_args = 0
  33              		@ link register save eliminated.
  34              		.loc 1 31 0
  35 0000 074B     		ldr	r3, .L2
  36              		.loc 1 36 0
  37 0002 0848     		ldr	r0, .L2+4
  38              		.loc 1 31 0
  39 0004 1A6B     		ldr	r2, [r3, #48]
  40 0006 42F40002 		orr	r2, r2, #8388608
  41 000a 1A63     		str	r2, [r3, #48]
  42              		.loc 1 32 0
  43 000c 1A69     		ldr	r2, [r3, #16]
  44 000e 42F40002 		orr	r2, r2, #8388608
  45 0012 1A61     		str	r2, [r3, #16]
  46              		.loc 1 33 0
  47 0014 1A69     		ldr	r2, [r3, #16]
  48 0016 22F40002 		bic	r2, r2, #8388608
  49 001a 1A61     		str	r2, [r3, #16]
  50              		.loc 1 36 0
  51 001c FFF7FEBF 		b	chMtxInit
  52              	.LVL0:
  53              	.L3:
  54              		.align	2
  55              	.L2:
  56 0020 00380240 		.word	1073887232
  57 0024 00000000 		.word	Mutex_DMAStream_1_7
ARM GAS  /var/folders/28/j9jfyj_n4wz3qtvnym210h2c0000gn/T//ccXbR1jW.s 			page 2


  58              		.cfi_endproc
  59              	.LFE130:
  60              		.size	axoloti_board_init, .-axoloti_board_init
  61              		.align	2
  62 0028 AFF30080 		.p2align 4,,15
  62      AFF30080 
  63              		.global	adc_configpads
  64              		.thumb
  65              		.thumb_func
  66              		.type	adc_configpads, %function
  67              	adc_configpads:
  68              	.LFB132:
  69              		.loc 1 51 0
  70              		.cfi_startproc
  71              		@ args = 0, pretend = 0, frame = 0
  72              		@ frame_needed = 0, uses_anonymous_args = 0
  73 0030 70B5     		push	{r4, r5, r6, lr}
  74              		.cfi_def_cfa_offset 16
  75              		.cfi_offset 4, -16
  76              		.cfi_offset 5, -12
  77              		.cfi_offset 6, -8
  78              		.cfi_offset 14, -4
  79              		.loc 1 53 0
  80 0032 2A4C     		ldr	r4, .L6
  81              		.loc 1 64 0
  82 0034 2A4E     		ldr	r6, .L6+4
  83              		.loc 1 67 0
  84 0036 2B4D     		ldr	r5, .L6+8
  85              		.loc 1 53 0
  86 0038 2046     		mov	r0, r4
  87 003a 0121     		movs	r1, #1
  88 003c 0322     		movs	r2, #3
  89 003e FFF7FEFF 		bl	_pal_lld_setgroupmode
  90              	.LVL1:
  91              		.loc 1 54 0
  92 0042 2046     		mov	r0, r4
  93 0044 0221     		movs	r1, #2
  94 0046 0322     		movs	r2, #3
  95 0048 FFF7FEFF 		bl	_pal_lld_setgroupmode
  96              	.LVL2:
  97              		.loc 1 56 0
  98 004c 2046     		mov	r0, r4
  99 004e 0421     		movs	r1, #4
 100 0050 0322     		movs	r2, #3
 101 0052 FFF7FEFF 		bl	_pal_lld_setgroupmode
 102              	.LVL3:
 103              		.loc 1 57 0
 104 0056 2046     		mov	r0, r4
 105 0058 0821     		movs	r1, #8
 106 005a 0322     		movs	r2, #3
 107 005c FFF7FEFF 		bl	_pal_lld_setgroupmode
 108              	.LVL4:
 109              		.loc 1 59 0
 110 0060 2046     		mov	r0, r4
 111 0062 1021     		movs	r1, #16
 112 0064 0322     		movs	r2, #3
 113 0066 FFF7FEFF 		bl	_pal_lld_setgroupmode
ARM GAS  /var/folders/28/j9jfyj_n4wz3qtvnym210h2c0000gn/T//ccXbR1jW.s 			page 3


 114              	.LVL5:
 115              		.loc 1 60 0
 116 006a 2046     		mov	r0, r4
 117 006c 2021     		movs	r1, #32
 118 006e 0322     		movs	r2, #3
 119 0070 FFF7FEFF 		bl	_pal_lld_setgroupmode
 120              	.LVL6:
 121              		.loc 1 61 0
 122 0074 2046     		mov	r0, r4
 123 0076 4021     		movs	r1, #64
 124 0078 0322     		movs	r2, #3
 125 007a FFF7FEFF 		bl	_pal_lld_setgroupmode
 126              	.LVL7:
 127              		.loc 1 62 0
 128 007e 2046     		mov	r0, r4
 129 0080 8021     		movs	r1, #128
 130 0082 0322     		movs	r2, #3
 131 0084 FFF7FEFF 		bl	_pal_lld_setgroupmode
 132              	.LVL8:
 133              		.loc 1 64 0
 134 0088 3046     		mov	r0, r6
 135 008a 0121     		movs	r1, #1
 136 008c 0322     		movs	r2, #3
 137 008e FFF7FEFF 		bl	_pal_lld_setgroupmode
 138              	.LVL9:
 139              		.loc 1 65 0
 140 0092 3046     		mov	r0, r6
 141 0094 0221     		movs	r1, #2
 142 0096 0322     		movs	r2, #3
 143 0098 FFF7FEFF 		bl	_pal_lld_setgroupmode
 144              	.LVL10:
 145              		.loc 1 67 0
 146 009c 2846     		mov	r0, r5
 147 009e 0121     		movs	r1, #1
 148 00a0 0322     		movs	r2, #3
 149 00a2 FFF7FEFF 		bl	_pal_lld_setgroupmode
 150              	.LVL11:
 151              		.loc 1 68 0
 152 00a6 2846     		mov	r0, r5
 153 00a8 0221     		movs	r1, #2
 154 00aa 0322     		movs	r2, #3
 155 00ac FFF7FEFF 		bl	_pal_lld_setgroupmode
 156              	.LVL12:
 157              		.loc 1 69 0
 158 00b0 2846     		mov	r0, r5
 159 00b2 0421     		movs	r1, #4
 160 00b4 0322     		movs	r2, #3
 161 00b6 FFF7FEFF 		bl	_pal_lld_setgroupmode
 162              	.LVL13:
 163              		.loc 1 70 0
 164 00ba 2846     		mov	r0, r5
 165 00bc 0821     		movs	r1, #8
 166 00be 0322     		movs	r2, #3
 167 00c0 FFF7FEFF 		bl	_pal_lld_setgroupmode
 168              	.LVL14:
 169              		.loc 1 71 0
 170 00c4 2846     		mov	r0, r5
ARM GAS  /var/folders/28/j9jfyj_n4wz3qtvnym210h2c0000gn/T//ccXbR1jW.s 			page 4


 171 00c6 1021     		movs	r1, #16
 172 00c8 0322     		movs	r2, #3
 173 00ca FFF7FEFF 		bl	_pal_lld_setgroupmode
 174              	.LVL15:
 175              		.loc 1 72 0
 176 00ce 2846     		mov	r0, r5
 177 00d0 2021     		movs	r1, #32
 178 00d2 0322     		movs	r2, #3
 179              		.loc 1 95 0
 180 00d4 BDE87040 		pop	{r4, r5, r6, lr}
 181              		.cfi_restore 14
 182              		.cfi_restore 6
 183              		.cfi_restore 5
 184              		.cfi_restore 4
 185              		.cfi_def_cfa_offset 0
 186              		.loc 1 72 0
 187 00d8 FFF7FEBF 		b	_pal_lld_setgroupmode
 188              	.LVL16:
 189              	.L7:
 190              		.align	2
 191              	.L6:
 192 00dc 00000240 		.word	1073872896
 193 00e0 00040240 		.word	1073873920
 194 00e4 00080240 		.word	1073874944
 195              		.cfi_endproc
 196              	.LFE132:
 197              		.size	adc_configpads, .-adc_configpads
 198              		.align	2
 199 00e8 AFF30080 		.p2align 4,,15
 199      AFF30080 
 200              		.global	adc_init
 201              		.thumb
 202              		.thumb_func
 203              		.type	adc_init, %function
 204              	adc_init:
 205              	.LFB131:
 206              		.loc 1 45 0
 207              		.cfi_startproc
 208              		@ args = 0, pretend = 0, frame = 0
 209              		@ frame_needed = 0, uses_anonymous_args = 0
 210 00f0 08B5     		push	{r3, lr}
 211              		.cfi_def_cfa_offset 8
 212              		.cfi_offset 3, -8
 213              		.cfi_offset 14, -4
 214              		.loc 1 46 0
 215 00f2 FFF7FEFF 		bl	adc_configpads
 216              	.LVL17:
 217              		.loc 1 47 0
 218 00f6 0448     		ldr	r0, .L10
 219 00f8 0021     		movs	r1, #0
 220 00fa FFF7FEFF 		bl	adcStart
 221              	.LVL18:
 222              		.loc 1 49 0
 223 00fe BDE80840 		pop	{r3, lr}
 224              		.cfi_restore 14
 225              		.cfi_restore 3
 226              		.cfi_def_cfa_offset 0
ARM GAS  /var/folders/28/j9jfyj_n4wz3qtvnym210h2c0000gn/T//ccXbR1jW.s 			page 5


 227              		.loc 1 48 0
 228 0102 FFF7FEBF 		b	adcSTM32EnableTSVREFE
 229              	.LVL19:
 230              	.L11:
 231 0106 00BF     		.align	2
 232              	.L10:
 233 0108 00000000 		.word	ADCD1
 234              		.cfi_endproc
 235              	.LFE131:
 236              		.size	adc_init, .-adc_init
 237              		.align	2
 238 010c AFF30080 		.p2align 4,,15
 239              		.global	adc_convert
 240              		.thumb
 241              		.thumb_func
 242              		.type	adc_convert, %function
 243              	adc_convert:
 244              	.LFB133:
 245              		.loc 1 133 0
 246              		.cfi_startproc
 247              		@ args = 0, pretend = 0, frame = 0
 248              		@ frame_needed = 0, uses_anonymous_args = 0
 249 0110 10B5     		push	{r4, lr}
 250              		.cfi_def_cfa_offset 8
 251              		.cfi_offset 4, -8
 252              		.cfi_offset 14, -4
 253              		.loc 1 134 0
 254 0112 064C     		ldr	r4, .L14
 255 0114 2046     		mov	r0, r4
 256 0116 FFF7FEFF 		bl	adcStopConversion
 257              	.LVL20:
 258              		.loc 1 135 0
 259 011a 2046     		mov	r0, r4
 260 011c 0449     		ldr	r1, .L14+4
 261 011e 054A     		ldr	r2, .L14+8
 262 0120 0123     		movs	r3, #1
 263              		.loc 1 136 0
 264 0122 BDE81040 		pop	{r4, lr}
 265              		.cfi_restore 14
 266              		.cfi_restore 4
 267              		.cfi_def_cfa_offset 0
 268              		.loc 1 135 0
 269 0126 FFF7FEBF 		b	adcStartConversion
 270              	.LVL21:
 271              	.L15:
 272 012a 00BF     		.align	2
 273              	.L14:
 274 012c 00000000 		.word	ADCD1
 275 0130 00000000 		.word	.LANCHOR0
 276 0134 00000000 		.word	.LANCHOR1
 277              		.cfi_endproc
 278              	.LFE133:
 279              		.size	adc_convert, .-adc_convert
 280              		.global	adcvalues
 281              		.comm	Mutex_DMAStream_1_7,16,4
 282              		.section	.rodata
 283              		.align	2
ARM GAS  /var/folders/28/j9jfyj_n4wz3qtvnym210h2c0000gn/T//ccXbR1jW.s 			page 6


 284              		.set	.LANCHOR0,. + 0
 285              		.type	adcgrpcfg1, %object
 286              		.size	adcgrpcfg1, 40
 287              	adcgrpcfg1:
 288 0000 00       		.byte	0
 289 0001 00       		.space	1
 290 0002 1000     		.short	16
 291 0004 00000000 		.word	0
 292 0008 00000000 		.word	0
 293 000c 00000000 		.word	0
 294 0010 00000040 		.word	1073741824
 295 0014 2449DA00 		.word	14305572
 296 0018 24499224 		.word	613566756
 297 001c ACB9F800 		.word	16300460
 298 0020 E6A0A416 		.word	379887846
 299 0024 2088410A 		.word	172066848
 300              		.section	.sram2,"aw",%progbits
 301              		.align	2
 302              		.set	.LANCHOR1,. + 0
 303              		.type	adcvalues, %object
 304              		.size	adcvalues, 32
 305              	adcvalues:
 306 0000 00000000 		.space	32
 306      00000000 
 306      00000000 
 306      00000000 
 306      00000000 
 307              		.text
 308              	.Letext0:
 309              		.file 2 "/Applications/axoloti_runtime/platform_osx/lib/gcc/arm-none-eabi/4.9.3/include/stddef.h"
 310              		.file 3 "/Applications/axoloti_runtime/platform_osx/arm-none-eabi/include/machine/_default_types.h
 311              		.file 4 "/Applications/axoloti_runtime/platform_osx/arm-none-eabi/include/sys/_stdint.h"
 312              		.file 5 "/Applications/Axoloti.app/Contents/Java/chibios/os/ports/GCC/ARMCMx/chtypes.h"
 313              		.file 6 "/Applications/Axoloti.app/Contents/Java/chibios/os/kernel/include/chlists.h"
 314              		.file 7 "/Applications/Axoloti.app/Contents/Java/chibios/os/kernel/include/chthreads.h"
 315              		.file 8 "/Applications/Axoloti.app/Contents/Java/chibios/os/ports/GCC/ARMCMx/chcore_v7m.h"
 316              		.file 9 "/Applications/Axoloti.app/Contents/Java/chibios/os/kernel/include/chmtx.h"
 317              		.file 10 "/Applications/Axoloti.app/Contents/Java/chibios/os/hal/platforms/STM32F4xx/stm32f4xx.h"
 318              		.file 11 "/Applications/Axoloti.app/Contents/Java/chibios/os/hal/platforms/STM32F4xx/stm32_dma.h"
 319              		.file 12 "/Applications/Axoloti.app/Contents/Java/chibios/os/hal/platforms/STM32/GPIOv2/pal_lld.h"
 320              		.file 13 "/Applications/Axoloti.app/Contents/Java/chibios/os/hal/include/adc.h"
 321              		.file 14 "/Applications/Axoloti.app/Contents/Java/chibios/os/hal/platforms/STM32F4xx/adc_lld.h"
 322              		.file 15 "/Applications/Axoloti.app/Contents/Java/CMSIS//Include/core_cm4.h"
 323              		.section	.debug_info,"",%progbits
 324              	.Ldebug_info0:
 325 0000 CF0E0000 		.4byte	0xecf
 326 0004 0400     		.2byte	0x4
 327 0006 00000000 		.4byte	.Ldebug_abbrev0
 328 000a 04       		.byte	0x4
 329 000b 01       		.uleb128 0x1
 330 000c 73060000 		.4byte	.LASF174
 331 0010 01       		.byte	0x1
 332 0011 0D030000 		.4byte	.LASF175
 333 0015 A2010000 		.4byte	.LASF176
 334 0019 00000000 		.4byte	.Ltext0
 335 001d 38010000 		.4byte	.Letext0-.Ltext0
 336 0021 00000000 		.4byte	.Ldebug_line0
ARM GAS  /var/folders/28/j9jfyj_n4wz3qtvnym210h2c0000gn/T//ccXbR1jW.s 			page 7


 337 0025 02       		.uleb128 0x2
 338 0026 04       		.byte	0x4
 339 0027 05       		.byte	0x5
 340 0028 696E7400 		.ascii	"int\000"
 341 002c 03       		.uleb128 0x3
 342 002d 05000000 		.4byte	.LASF2
 343 0031 02       		.byte	0x2
 344 0032 D4       		.byte	0xd4
 345 0033 37000000 		.4byte	0x37
 346 0037 04       		.uleb128 0x4
 347 0038 04       		.byte	0x4
 348 0039 07       		.byte	0x7
 349 003a 33020000 		.4byte	.LASF0
 350 003e 04       		.uleb128 0x4
 351 003f 01       		.byte	0x1
 352 0040 06       		.byte	0x6
 353 0041 DB000000 		.4byte	.LASF1
 354 0045 03       		.uleb128 0x3
 355 0046 34000000 		.4byte	.LASF3
 356 004a 03       		.byte	0x3
 357 004b 1D       		.byte	0x1d
 358 004c 50000000 		.4byte	0x50
 359 0050 04       		.uleb128 0x4
 360 0051 01       		.byte	0x1
 361 0052 08       		.byte	0x8
 362 0053 4F040000 		.4byte	.LASF4
 363 0057 04       		.uleb128 0x4
 364 0058 02       		.byte	0x2
 365 0059 05       		.byte	0x5
 366 005a 67040000 		.4byte	.LASF5
 367 005e 03       		.uleb128 0x3
 368 005f 3C050000 		.4byte	.LASF6
 369 0063 03       		.byte	0x3
 370 0064 2B       		.byte	0x2b
 371 0065 69000000 		.4byte	0x69
 372 0069 04       		.uleb128 0x4
 373 006a 02       		.byte	0x2
 374 006b 07       		.byte	0x7
 375 006c 7D020000 		.4byte	.LASF7
 376 0070 03       		.uleb128 0x3
 377 0071 6A050000 		.4byte	.LASF8
 378 0075 03       		.byte	0x3
 379 0076 3F       		.byte	0x3f
 380 0077 7B000000 		.4byte	0x7b
 381 007b 04       		.uleb128 0x4
 382 007c 04       		.byte	0x4
 383 007d 05       		.byte	0x5
 384 007e 31010000 		.4byte	.LASF9
 385 0082 03       		.uleb128 0x3
 386 0083 F3010000 		.4byte	.LASF10
 387 0087 03       		.byte	0x3
 388 0088 41       		.byte	0x41
 389 0089 8D000000 		.4byte	0x8d
 390 008d 04       		.uleb128 0x4
 391 008e 04       		.byte	0x4
 392 008f 07       		.byte	0x7
 393 0090 04050000 		.4byte	.LASF11
ARM GAS  /var/folders/28/j9jfyj_n4wz3qtvnym210h2c0000gn/T//ccXbR1jW.s 			page 8


 394 0094 04       		.uleb128 0x4
 395 0095 08       		.byte	0x8
 396 0096 05       		.byte	0x5
 397 0097 CD000000 		.4byte	.LASF12
 398 009b 04       		.uleb128 0x4
 399 009c 08       		.byte	0x8
 400 009d 07       		.byte	0x7
 401 009e 6A000000 		.4byte	.LASF13
 402 00a2 03       		.uleb128 0x3
 403 00a3 2A060000 		.4byte	.LASF14
 404 00a7 04       		.byte	0x4
 405 00a8 14       		.byte	0x14
 406 00a9 45000000 		.4byte	0x45
 407 00ad 03       		.uleb128 0x3
 408 00ae 40020000 		.4byte	.LASF15
 409 00b2 04       		.byte	0x4
 410 00b3 1A       		.byte	0x1a
 411 00b4 5E000000 		.4byte	0x5e
 412 00b8 03       		.uleb128 0x3
 413 00b9 47040000 		.4byte	.LASF16
 414 00bd 04       		.byte	0x4
 415 00be 1F       		.byte	0x1f
 416 00bf 70000000 		.4byte	0x70
 417 00c3 03       		.uleb128 0x3
 418 00c4 E1040000 		.4byte	.LASF17
 419 00c8 04       		.byte	0x4
 420 00c9 20       		.byte	0x20
 421 00ca 82000000 		.4byte	0x82
 422 00ce 03       		.uleb128 0x3
 423 00cf F5000000 		.4byte	.LASF18
 424 00d3 05       		.byte	0x5
 425 00d4 2B       		.byte	0x2b
 426 00d5 D9000000 		.4byte	0xd9
 427 00d9 04       		.uleb128 0x4
 428 00da 01       		.byte	0x1
 429 00db 02       		.byte	0x2
 430 00dc 41040000 		.4byte	.LASF19
 431 00e0 03       		.uleb128 0x3
 432 00e1 D6020000 		.4byte	.LASF20
 433 00e5 05       		.byte	0x5
 434 00e6 2C       		.byte	0x2c
 435 00e7 A2000000 		.4byte	0xa2
 436 00eb 03       		.uleb128 0x3
 437 00ec 5C010000 		.4byte	.LASF21
 438 00f0 05       		.byte	0x5
 439 00f1 2D       		.byte	0x2d
 440 00f2 A2000000 		.4byte	0xa2
 441 00f6 03       		.uleb128 0x3
 442 00f7 FA040000 		.4byte	.LASF22
 443 00fb 05       		.byte	0x5
 444 00fc 2F       		.byte	0x2f
 445 00fd A2000000 		.4byte	0xa2
 446 0101 03       		.uleb128 0x3
 447 0102 33040000 		.4byte	.LASF23
 448 0106 05       		.byte	0x5
 449 0107 30       		.byte	0x30
 450 0108 C3000000 		.4byte	0xc3
ARM GAS  /var/folders/28/j9jfyj_n4wz3qtvnym210h2c0000gn/T//ccXbR1jW.s 			page 9


 451 010c 03       		.uleb128 0x3
 452 010d AB020000 		.4byte	.LASF24
 453 0111 05       		.byte	0x5
 454 0112 31       		.byte	0x31
 455 0113 B8000000 		.4byte	0xb8
 456 0117 03       		.uleb128 0x3
 457 0118 01030000 		.4byte	.LASF25
 458 011c 05       		.byte	0x5
 459 011d 33       		.byte	0x33
 460 011e C3000000 		.4byte	0xc3
 461 0122 03       		.uleb128 0x3
 462 0123 BF040000 		.4byte	.LASF26
 463 0127 06       		.byte	0x6
 464 0128 2A       		.byte	0x2a
 465 0129 2D010000 		.4byte	0x12d
 466 012d 05       		.uleb128 0x5
 467 012e BF040000 		.4byte	.LASF26
 468 0132 40       		.byte	0x40
 469 0133 07       		.byte	0x7
 470 0134 5E       		.byte	0x5e
 471 0135 06020000 		.4byte	0x206
 472 0139 06       		.uleb128 0x6
 473 013a 5C030000 		.4byte	.LASF27
 474 013e 07       		.byte	0x7
 475 013f 5F       		.byte	0x5f
 476 0140 27020000 		.4byte	0x227
 477 0144 00       		.byte	0
 478 0145 06       		.uleb128 0x6
 479 0146 0F040000 		.4byte	.LASF28
 480 014a 07       		.byte	0x7
 481 014b 61       		.byte	0x61
 482 014c 27020000 		.4byte	0x227
 483 0150 04       		.byte	0x4
 484 0151 06       		.uleb128 0x6
 485 0152 B2000000 		.4byte	.LASF29
 486 0156 07       		.byte	0x7
 487 0157 63       		.byte	0x63
 488 0158 01010000 		.4byte	0x101
 489 015c 08       		.byte	0x8
 490 015d 06       		.uleb128 0x6
 491 015e B5070000 		.4byte	.LASF30
 492 0162 07       		.byte	0x7
 493 0163 64       		.byte	0x64
 494 0164 B1030000 		.4byte	0x3b1
 495 0168 0C       		.byte	0xc
 496 0169 06       		.uleb128 0x6
 497 016a 78010000 		.4byte	.LASF31
 498 016e 07       		.byte	0x7
 499 016f 66       		.byte	0x66
 500 0170 27020000 		.4byte	0x227
 501 0174 10       		.byte	0x10
 502 0175 06       		.uleb128 0x6
 503 0176 79030000 		.4byte	.LASF32
 504 017a 07       		.byte	0x7
 505 017b 67       		.byte	0x67
 506 017c 27020000 		.4byte	0x227
 507 0180 14       		.byte	0x14
ARM GAS  /var/folders/28/j9jfyj_n4wz3qtvnym210h2c0000gn/T//ccXbR1jW.s 			page 10


 508 0181 06       		.uleb128 0x6
 509 0182 0F060000 		.4byte	.LASF33
 510 0186 07       		.byte	0x7
 511 0187 6E       		.byte	0x6e
 512 0188 55040000 		.4byte	0x455
 513 018c 18       		.byte	0x18
 514 018d 06       		.uleb128 0x6
 515 018e 71040000 		.4byte	.LASF34
 516 0192 07       		.byte	0x7
 517 0193 79       		.byte	0x79
 518 0194 EB000000 		.4byte	0xeb
 519 0198 1C       		.byte	0x1c
 520 0199 06       		.uleb128 0x6
 521 019a 93040000 		.4byte	.LASF35
 522 019e 07       		.byte	0x7
 523 019f 7D       		.byte	0x7d
 524 01a0 E0000000 		.4byte	0xe0
 525 01a4 1D       		.byte	0x1d
 526 01a5 06       		.uleb128 0x6
 527 01a6 79040000 		.4byte	.LASF36
 528 01aa 07       		.byte	0x7
 529 01ab 88       		.byte	0x88
 530 01ac F6000000 		.4byte	0xf6
 531 01b0 1E       		.byte	0x1e
 532 01b1 07       		.uleb128 0x7
 533 01b2 705F7500 		.ascii	"p_u\000"
 534 01b6 07       		.byte	0x7
 535 01b7 B4       		.byte	0xb4
 536 01b8 20040000 		.4byte	0x420
 537 01bc 20       		.byte	0x20
 538 01bd 06       		.uleb128 0x6
 539 01be BB070000 		.4byte	.LASF37
 540 01c2 07       		.byte	0x7
 541 01c3 B9       		.byte	0xb9
 542 01c4 4D020000 		.4byte	0x24d
 543 01c8 24       		.byte	0x24
 544 01c9 06       		.uleb128 0x6
 545 01ca 49020000 		.4byte	.LASF38
 546 01ce 07       		.byte	0x7
 547 01cf BF       		.byte	0xbf
 548 01d0 2D020000 		.4byte	0x22d
 549 01d4 28       		.byte	0x28
 550 01d5 06       		.uleb128 0x6
 551 01d6 8C070000 		.4byte	.LASF39
 552 01da 07       		.byte	0x7
 553 01db C3       		.byte	0xc3
 554 01dc 0C010000 		.4byte	0x10c
 555 01e0 30       		.byte	0x30
 556 01e1 06       		.uleb128 0x6
 557 01e2 C6040000 		.4byte	.LASF40
 558 01e6 07       		.byte	0x7
 559 01e7 C9       		.byte	0xc9
 560 01e8 17010000 		.4byte	0x117
 561 01ec 34       		.byte	0x34
 562 01ed 06       		.uleb128 0x6
 563 01ee 5D040000 		.4byte	.LASF41
 564 01f2 07       		.byte	0x7
ARM GAS  /var/folders/28/j9jfyj_n4wz3qtvnym210h2c0000gn/T//ccXbR1jW.s 			page 11


 565 01f3 D0       		.byte	0xd0
 566 01f4 67040000 		.4byte	0x467
 567 01f8 38       		.byte	0x38
 568 01f9 06       		.uleb128 0x6
 569 01fa 5F050000 		.4byte	.LASF42
 570 01fe 07       		.byte	0x7
 571 01ff D4       		.byte	0xd4
 572 0200 01010000 		.4byte	0x101
 573 0204 3C       		.byte	0x3c
 574 0205 00       		.byte	0
 575 0206 08       		.uleb128 0x8
 576 0207 08       		.byte	0x8
 577 0208 06       		.byte	0x6
 578 0209 61       		.byte	0x61
 579 020a 27020000 		.4byte	0x227
 580 020e 06       		.uleb128 0x6
 581 020f 5C030000 		.4byte	.LASF27
 582 0213 06       		.byte	0x6
 583 0214 62       		.byte	0x62
 584 0215 27020000 		.4byte	0x227
 585 0219 00       		.byte	0
 586 021a 06       		.uleb128 0x6
 587 021b 0F040000 		.4byte	.LASF28
 588 021f 06       		.byte	0x6
 589 0220 64       		.byte	0x64
 590 0221 27020000 		.4byte	0x227
 591 0225 04       		.byte	0x4
 592 0226 00       		.byte	0
 593 0227 09       		.uleb128 0x9
 594 0228 04       		.byte	0x4
 595 0229 22010000 		.4byte	0x122
 596 022d 03       		.uleb128 0x3
 597 022e 81030000 		.4byte	.LASF43
 598 0232 06       		.byte	0x6
 599 0233 66       		.byte	0x66
 600 0234 06020000 		.4byte	0x206
 601 0238 08       		.uleb128 0x8
 602 0239 04       		.byte	0x4
 603 023a 06       		.byte	0x6
 604 023b 6B       		.byte	0x6b
 605 023c 4D020000 		.4byte	0x24d
 606 0240 06       		.uleb128 0x6
 607 0241 5C030000 		.4byte	.LASF27
 608 0245 06       		.byte	0x6
 609 0246 6D       		.byte	0x6d
 610 0247 27020000 		.4byte	0x227
 611 024b 00       		.byte	0
 612 024c 00       		.byte	0
 613 024d 03       		.uleb128 0x3
 614 024e F5020000 		.4byte	.LASF44
 615 0252 06       		.byte	0x6
 616 0253 70       		.byte	0x70
 617 0254 38020000 		.4byte	0x238
 618 0258 03       		.uleb128 0x3
 619 0259 FE010000 		.4byte	.LASF45
 620 025d 08       		.byte	0x8
 621 025e E5       		.byte	0xe5
ARM GAS  /var/folders/28/j9jfyj_n4wz3qtvnym210h2c0000gn/T//ccXbR1jW.s 			page 12


 622 025f 63020000 		.4byte	0x263
 623 0263 0A       		.uleb128 0xa
 624 0264 04       		.byte	0x4
 625 0265 0B       		.uleb128 0xb
 626 0266 D6050000 		.4byte	.LASF46
 627 026a 64       		.byte	0x64
 628 026b 08       		.byte	0x8
 629 026c 0C01     		.2byte	0x10c
 630 026e B1030000 		.4byte	0x3b1
 631 0272 0C       		.uleb128 0xc
 632 0273 73313600 		.ascii	"s16\000"
 633 0277 08       		.byte	0x8
 634 0278 0E01     		.2byte	0x10e
 635 027a 58020000 		.4byte	0x258
 636 027e 00       		.byte	0
 637 027f 0C       		.uleb128 0xc
 638 0280 73313700 		.ascii	"s17\000"
 639 0284 08       		.byte	0x8
 640 0285 0F01     		.2byte	0x10f
 641 0287 58020000 		.4byte	0x258
 642 028b 04       		.byte	0x4
 643 028c 0C       		.uleb128 0xc
 644 028d 73313800 		.ascii	"s18\000"
 645 0291 08       		.byte	0x8
 646 0292 1001     		.2byte	0x110
 647 0294 58020000 		.4byte	0x258
 648 0298 08       		.byte	0x8
 649 0299 0C       		.uleb128 0xc
 650 029a 73313900 		.ascii	"s19\000"
 651 029e 08       		.byte	0x8
 652 029f 1101     		.2byte	0x111
 653 02a1 58020000 		.4byte	0x258
 654 02a5 0C       		.byte	0xc
 655 02a6 0C       		.uleb128 0xc
 656 02a7 73323000 		.ascii	"s20\000"
 657 02ab 08       		.byte	0x8
 658 02ac 1201     		.2byte	0x112
 659 02ae 58020000 		.4byte	0x258
 660 02b2 10       		.byte	0x10
 661 02b3 0C       		.uleb128 0xc
 662 02b4 73323100 		.ascii	"s21\000"
 663 02b8 08       		.byte	0x8
 664 02b9 1301     		.2byte	0x113
 665 02bb 58020000 		.4byte	0x258
 666 02bf 14       		.byte	0x14
 667 02c0 0C       		.uleb128 0xc
 668 02c1 73323200 		.ascii	"s22\000"
 669 02c5 08       		.byte	0x8
 670 02c6 1401     		.2byte	0x114
 671 02c8 58020000 		.4byte	0x258
 672 02cc 18       		.byte	0x18
 673 02cd 0C       		.uleb128 0xc
 674 02ce 73323300 		.ascii	"s23\000"
 675 02d2 08       		.byte	0x8
 676 02d3 1501     		.2byte	0x115
 677 02d5 58020000 		.4byte	0x258
 678 02d9 1C       		.byte	0x1c
ARM GAS  /var/folders/28/j9jfyj_n4wz3qtvnym210h2c0000gn/T//ccXbR1jW.s 			page 13


 679 02da 0C       		.uleb128 0xc
 680 02db 73323400 		.ascii	"s24\000"
 681 02df 08       		.byte	0x8
 682 02e0 1601     		.2byte	0x116
 683 02e2 58020000 		.4byte	0x258
 684 02e6 20       		.byte	0x20
 685 02e7 0C       		.uleb128 0xc
 686 02e8 73323500 		.ascii	"s25\000"
 687 02ec 08       		.byte	0x8
 688 02ed 1701     		.2byte	0x117
 689 02ef 58020000 		.4byte	0x258
 690 02f3 24       		.byte	0x24
 691 02f4 0C       		.uleb128 0xc
 692 02f5 73323600 		.ascii	"s26\000"
 693 02f9 08       		.byte	0x8
 694 02fa 1801     		.2byte	0x118
 695 02fc 58020000 		.4byte	0x258
 696 0300 28       		.byte	0x28
 697 0301 0C       		.uleb128 0xc
 698 0302 73323700 		.ascii	"s27\000"
 699 0306 08       		.byte	0x8
 700 0307 1901     		.2byte	0x119
 701 0309 58020000 		.4byte	0x258
 702 030d 2C       		.byte	0x2c
 703 030e 0C       		.uleb128 0xc
 704 030f 73323800 		.ascii	"s28\000"
 705 0313 08       		.byte	0x8
 706 0314 1A01     		.2byte	0x11a
 707 0316 58020000 		.4byte	0x258
 708 031a 30       		.byte	0x30
 709 031b 0C       		.uleb128 0xc
 710 031c 73323900 		.ascii	"s29\000"
 711 0320 08       		.byte	0x8
 712 0321 1B01     		.2byte	0x11b
 713 0323 58020000 		.4byte	0x258
 714 0327 34       		.byte	0x34
 715 0328 0C       		.uleb128 0xc
 716 0329 73333000 		.ascii	"s30\000"
 717 032d 08       		.byte	0x8
 718 032e 1C01     		.2byte	0x11c
 719 0330 58020000 		.4byte	0x258
 720 0334 38       		.byte	0x38
 721 0335 0C       		.uleb128 0xc
 722 0336 73333100 		.ascii	"s31\000"
 723 033a 08       		.byte	0x8
 724 033b 1D01     		.2byte	0x11d
 725 033d 58020000 		.4byte	0x258
 726 0341 3C       		.byte	0x3c
 727 0342 0C       		.uleb128 0xc
 728 0343 723400   		.ascii	"r4\000"
 729 0346 08       		.byte	0x8
 730 0347 1F01     		.2byte	0x11f
 731 0349 58020000 		.4byte	0x258
 732 034d 40       		.byte	0x40
 733 034e 0C       		.uleb128 0xc
 734 034f 723500   		.ascii	"r5\000"
 735 0352 08       		.byte	0x8
ARM GAS  /var/folders/28/j9jfyj_n4wz3qtvnym210h2c0000gn/T//ccXbR1jW.s 			page 14


 736 0353 2001     		.2byte	0x120
 737 0355 58020000 		.4byte	0x258
 738 0359 44       		.byte	0x44
 739 035a 0C       		.uleb128 0xc
 740 035b 723600   		.ascii	"r6\000"
 741 035e 08       		.byte	0x8
 742 035f 2101     		.2byte	0x121
 743 0361 58020000 		.4byte	0x258
 744 0365 48       		.byte	0x48
 745 0366 0C       		.uleb128 0xc
 746 0367 723700   		.ascii	"r7\000"
 747 036a 08       		.byte	0x8
 748 036b 2201     		.2byte	0x122
 749 036d 58020000 		.4byte	0x258
 750 0371 4C       		.byte	0x4c
 751 0372 0C       		.uleb128 0xc
 752 0373 723800   		.ascii	"r8\000"
 753 0376 08       		.byte	0x8
 754 0377 2301     		.2byte	0x123
 755 0379 58020000 		.4byte	0x258
 756 037d 50       		.byte	0x50
 757 037e 0C       		.uleb128 0xc
 758 037f 723900   		.ascii	"r9\000"
 759 0382 08       		.byte	0x8
 760 0383 2401     		.2byte	0x124
 761 0385 58020000 		.4byte	0x258
 762 0389 54       		.byte	0x54
 763 038a 0C       		.uleb128 0xc
 764 038b 72313000 		.ascii	"r10\000"
 765 038f 08       		.byte	0x8
 766 0390 2501     		.2byte	0x125
 767 0392 58020000 		.4byte	0x258
 768 0396 58       		.byte	0x58
 769 0397 0C       		.uleb128 0xc
 770 0398 72313100 		.ascii	"r11\000"
 771 039c 08       		.byte	0x8
 772 039d 2601     		.2byte	0x126
 773 039f 58020000 		.4byte	0x258
 774 03a3 5C       		.byte	0x5c
 775 03a4 0C       		.uleb128 0xc
 776 03a5 6C7200   		.ascii	"lr\000"
 777 03a8 08       		.byte	0x8
 778 03a9 2701     		.2byte	0x127
 779 03ab 58020000 		.4byte	0x258
 780 03af 60       		.byte	0x60
 781 03b0 00       		.byte	0
 782 03b1 0B       		.uleb128 0xb
 783 03b2 9B050000 		.4byte	.LASF47
 784 03b6 04       		.byte	0x4
 785 03b7 08       		.byte	0x8
 786 03b8 3101     		.2byte	0x131
 787 03ba CC030000 		.4byte	0x3cc
 788 03be 0C       		.uleb128 0xc
 789 03bf 72313300 		.ascii	"r13\000"
 790 03c3 08       		.byte	0x8
 791 03c4 3201     		.2byte	0x132
 792 03c6 CC030000 		.4byte	0x3cc
ARM GAS  /var/folders/28/j9jfyj_n4wz3qtvnym210h2c0000gn/T//ccXbR1jW.s 			page 15


 793 03ca 00       		.byte	0
 794 03cb 00       		.byte	0
 795 03cc 09       		.uleb128 0x9
 796 03cd 04       		.byte	0x4
 797 03ce 65020000 		.4byte	0x265
 798 03d2 0D       		.uleb128 0xd
 799 03d3 C3000000 		.4byte	0xc3
 800 03d7 04       		.uleb128 0x4
 801 03d8 04       		.byte	0x4
 802 03d9 07       		.byte	0x7
 803 03da 41030000 		.4byte	.LASF48
 804 03de 05       		.uleb128 0x5
 805 03df 56030000 		.4byte	.LASF49
 806 03e3 10       		.byte	0x10
 807 03e4 09       		.byte	0x9
 808 03e5 2C       		.byte	0x2c
 809 03e6 0F040000 		.4byte	0x40f
 810 03ea 06       		.uleb128 0x6
 811 03eb FC000000 		.4byte	.LASF50
 812 03ef 09       		.byte	0x9
 813 03f0 2D       		.byte	0x2d
 814 03f1 2D020000 		.4byte	0x22d
 815 03f5 00       		.byte	0
 816 03f6 06       		.uleb128 0x6
 817 03f7 AD070000 		.4byte	.LASF51
 818 03fb 09       		.byte	0x9
 819 03fc 2F       		.byte	0x2f
 820 03fd 27020000 		.4byte	0x227
 821 0401 08       		.byte	0x8
 822 0402 06       		.uleb128 0x6
 823 0403 A4030000 		.4byte	.LASF52
 824 0407 09       		.byte	0x9
 825 0408 31       		.byte	0x31
 826 0409 0F040000 		.4byte	0x40f
 827 040d 0C       		.byte	0xc
 828 040e 00       		.byte	0
 829 040f 09       		.uleb128 0x9
 830 0410 04       		.byte	0x4
 831 0411 DE030000 		.4byte	0x3de
 832 0415 03       		.uleb128 0x3
 833 0416 56030000 		.4byte	.LASF49
 834 041a 09       		.byte	0x9
 835 041b 33       		.byte	0x33
 836 041c DE030000 		.4byte	0x3de
 837 0420 0E       		.uleb128 0xe
 838 0421 04       		.byte	0x4
 839 0422 07       		.byte	0x7
 840 0423 96       		.byte	0x96
 841 0424 55040000 		.4byte	0x455
 842 0428 0F       		.uleb128 0xf
 843 0429 0C000000 		.4byte	.LASF53
 844 042d 07       		.byte	0x7
 845 042e 9D       		.byte	0x9d
 846 042f 0C010000 		.4byte	0x10c
 847 0433 0F       		.uleb128 0xf
 848 0434 87000000 		.4byte	.LASF54
 849 0438 07       		.byte	0x7
ARM GAS  /var/folders/28/j9jfyj_n4wz3qtvnym210h2c0000gn/T//ccXbR1jW.s 			page 16


 850 0439 A4       		.byte	0xa4
 851 043a 0C010000 		.4byte	0x10c
 852 043e 0F       		.uleb128 0xf
 853 043f 5F060000 		.4byte	.LASF55
 854 0443 07       		.byte	0x7
 855 0444 AB       		.byte	0xab
 856 0445 63020000 		.4byte	0x263
 857 0449 0F       		.uleb128 0xf
 858 044a 8C040000 		.4byte	.LASF56
 859 044e 07       		.byte	0x7
 860 044f B2       		.byte	0xb2
 861 0450 17010000 		.4byte	0x117
 862 0454 00       		.byte	0
 863 0455 09       		.uleb128 0x9
 864 0456 04       		.byte	0x4
 865 0457 5B040000 		.4byte	0x45b
 866 045b 10       		.uleb128 0x10
 867 045c 60040000 		.4byte	0x460
 868 0460 04       		.uleb128 0x4
 869 0461 01       		.byte	0x1
 870 0462 08       		.byte	0x8
 871 0463 1C050000 		.4byte	.LASF57
 872 0467 09       		.uleb128 0x9
 873 0468 04       		.byte	0x4
 874 0469 15040000 		.4byte	0x415
 875 046d 11       		.uleb128 0x11
 876 046e C3000000 		.4byte	0xc3
 877 0472 7D040000 		.4byte	0x47d
 878 0476 12       		.uleb128 0x12
 879 0477 D7030000 		.4byte	0x3d7
 880 047b 01       		.byte	0x1
 881 047c 00       		.byte	0
 882 047d 0D       		.uleb128 0xd
 883 047e B8000000 		.4byte	0xb8
 884 0482 13       		.uleb128 0x13
 885 0483 50       		.byte	0x50
 886 0484 0A       		.byte	0xa
 887 0485 0A02     		.2byte	0x20a
 888 0487 8E050000 		.4byte	0x58e
 889 048b 0C       		.uleb128 0xc
 890 048c 535200   		.ascii	"SR\000"
 891 048f 0A       		.byte	0xa
 892 0490 0C02     		.2byte	0x20c
 893 0492 D2030000 		.4byte	0x3d2
 894 0496 00       		.byte	0
 895 0497 0C       		.uleb128 0xc
 896 0498 43523100 		.ascii	"CR1\000"
 897 049c 0A       		.byte	0xa
 898 049d 0D02     		.2byte	0x20d
 899 049f D2030000 		.4byte	0x3d2
 900 04a3 04       		.byte	0x4
 901 04a4 0C       		.uleb128 0xc
 902 04a5 43523200 		.ascii	"CR2\000"
 903 04a9 0A       		.byte	0xa
 904 04aa 0E02     		.2byte	0x20e
 905 04ac D2030000 		.4byte	0x3d2
 906 04b0 08       		.byte	0x8
ARM GAS  /var/folders/28/j9jfyj_n4wz3qtvnym210h2c0000gn/T//ccXbR1jW.s 			page 17


 907 04b1 14       		.uleb128 0x14
 908 04b2 98030000 		.4byte	.LASF58
 909 04b6 0A       		.byte	0xa
 910 04b7 0F02     		.2byte	0x20f
 911 04b9 D2030000 		.4byte	0x3d2
 912 04bd 0C       		.byte	0xc
 913 04be 14       		.uleb128 0x14
 914 04bf 9E030000 		.4byte	.LASF59
 915 04c3 0A       		.byte	0xa
 916 04c4 1002     		.2byte	0x210
 917 04c6 D2030000 		.4byte	0x3d2
 918 04ca 10       		.byte	0x10
 919 04cb 14       		.uleb128 0x14
 920 04cc 22030000 		.4byte	.LASF60
 921 04d0 0A       		.byte	0xa
 922 04d1 1102     		.2byte	0x211
 923 04d3 D2030000 		.4byte	0x3d2
 924 04d7 14       		.byte	0x14
 925 04d8 14       		.uleb128 0x14
 926 04d9 28030000 		.4byte	.LASF61
 927 04dd 0A       		.byte	0xa
 928 04de 1202     		.2byte	0x212
 929 04e0 D2030000 		.4byte	0x3d2
 930 04e4 18       		.byte	0x18
 931 04e5 14       		.uleb128 0x14
 932 04e6 2E030000 		.4byte	.LASF62
 933 04ea 0A       		.byte	0xa
 934 04eb 1302     		.2byte	0x213
 935 04ed D2030000 		.4byte	0x3d2
 936 04f1 1C       		.byte	0x1c
 937 04f2 14       		.uleb128 0x14
 938 04f3 45060000 		.4byte	.LASF63
 939 04f7 0A       		.byte	0xa
 940 04f8 1402     		.2byte	0x214
 941 04fa D2030000 		.4byte	0x3d2
 942 04fe 20       		.byte	0x20
 943 04ff 0C       		.uleb128 0xc
 944 0500 48545200 		.ascii	"HTR\000"
 945 0504 0A       		.byte	0xa
 946 0505 1502     		.2byte	0x215
 947 0507 D2030000 		.4byte	0x3d2
 948 050b 24       		.byte	0x24
 949 050c 0C       		.uleb128 0xc
 950 050d 4C545200 		.ascii	"LTR\000"
 951 0511 0A       		.byte	0xa
 952 0512 1602     		.2byte	0x216
 953 0514 D2030000 		.4byte	0x3d2
 954 0518 28       		.byte	0x28
 955 0519 14       		.uleb128 0x14
 956 051a B4030000 		.4byte	.LASF64
 957 051e 0A       		.byte	0xa
 958 051f 1702     		.2byte	0x217
 959 0521 D2030000 		.4byte	0x3d2
 960 0525 2C       		.byte	0x2c
 961 0526 14       		.uleb128 0x14
 962 0527 B9030000 		.4byte	.LASF65
 963 052b 0A       		.byte	0xa
ARM GAS  /var/folders/28/j9jfyj_n4wz3qtvnym210h2c0000gn/T//ccXbR1jW.s 			page 18


 964 052c 1802     		.2byte	0x218
 965 052e D2030000 		.4byte	0x3d2
 966 0532 30       		.byte	0x30
 967 0533 14       		.uleb128 0x14
 968 0534 BE030000 		.4byte	.LASF66
 969 0538 0A       		.byte	0xa
 970 0539 1902     		.2byte	0x219
 971 053b D2030000 		.4byte	0x3d2
 972 053f 34       		.byte	0x34
 973 0540 14       		.uleb128 0x14
 974 0541 3C030000 		.4byte	.LASF67
 975 0545 0A       		.byte	0xa
 976 0546 1A02     		.2byte	0x21a
 977 0548 D2030000 		.4byte	0x3d2
 978 054c 38       		.byte	0x38
 979 054d 14       		.uleb128 0x14
 980 054e 4B060000 		.4byte	.LASF68
 981 0552 0A       		.byte	0xa
 982 0553 1B02     		.2byte	0x21b
 983 0555 D2030000 		.4byte	0x3d2
 984 0559 3C       		.byte	0x3c
 985 055a 14       		.uleb128 0x14
 986 055b 50060000 		.4byte	.LASF69
 987 055f 0A       		.byte	0xa
 988 0560 1C02     		.2byte	0x21c
 989 0562 D2030000 		.4byte	0x3d2
 990 0566 40       		.byte	0x40
 991 0567 14       		.uleb128 0x14
 992 0568 55060000 		.4byte	.LASF70
 993 056c 0A       		.byte	0xa
 994 056d 1D02     		.2byte	0x21d
 995 056f D2030000 		.4byte	0x3d2
 996 0573 44       		.byte	0x44
 997 0574 14       		.uleb128 0x14
 998 0575 5A060000 		.4byte	.LASF71
 999 0579 0A       		.byte	0xa
 1000 057a 1E02     		.2byte	0x21e
 1001 057c D2030000 		.4byte	0x3d2
 1002 0580 48       		.byte	0x48
 1003 0581 0C       		.uleb128 0xc
 1004 0582 445200   		.ascii	"DR\000"
 1005 0585 0A       		.byte	0xa
 1006 0586 1F02     		.2byte	0x21f
 1007 0588 D2030000 		.4byte	0x3d2
 1008 058c 4C       		.byte	0x4c
 1009 058d 00       		.byte	0
 1010 058e 15       		.uleb128 0x15
 1011 058f 4A030000 		.4byte	.LASF72
 1012 0593 0A       		.byte	0xa
 1013 0594 2002     		.2byte	0x220
 1014 0596 82040000 		.4byte	0x482
 1015 059a 13       		.uleb128 0x13
 1016 059b 18       		.byte	0x18
 1017 059c 0A       		.byte	0xa
 1018 059d B102     		.2byte	0x2b1
 1019 059f F1050000 		.4byte	0x5f1
 1020 05a3 0C       		.uleb128 0xc
ARM GAS  /var/folders/28/j9jfyj_n4wz3qtvnym210h2c0000gn/T//ccXbR1jW.s 			page 19


 1021 05a4 435200   		.ascii	"CR\000"
 1022 05a7 0A       		.byte	0xa
 1023 05a8 B302     		.2byte	0x2b3
 1024 05aa D2030000 		.4byte	0x3d2
 1025 05ae 00       		.byte	0
 1026 05af 14       		.uleb128 0x14
 1027 05b0 7B050000 		.4byte	.LASF73
 1028 05b4 0A       		.byte	0xa
 1029 05b5 B402     		.2byte	0x2b4
 1030 05b7 D2030000 		.4byte	0x3d2
 1031 05bb 04       		.byte	0x4
 1032 05bc 0C       		.uleb128 0xc
 1033 05bd 50415200 		.ascii	"PAR\000"
 1034 05c1 0A       		.byte	0xa
 1035 05c2 B502     		.2byte	0x2b5
 1036 05c4 D2030000 		.4byte	0x3d2
 1037 05c8 08       		.byte	0x8
 1038 05c9 14       		.uleb128 0x14
 1039 05ca 00000000 		.4byte	.LASF74
 1040 05ce 0A       		.byte	0xa
 1041 05cf B602     		.2byte	0x2b6
 1042 05d1 D2030000 		.4byte	0x3d2
 1043 05d5 0C       		.byte	0xc
 1044 05d6 14       		.uleb128 0x14
 1045 05d7 DD050000 		.4byte	.LASF75
 1046 05db 0A       		.byte	0xa
 1047 05dc B702     		.2byte	0x2b7
 1048 05de D2030000 		.4byte	0x3d2
 1049 05e2 10       		.byte	0x10
 1050 05e3 0C       		.uleb128 0xc
 1051 05e4 46435200 		.ascii	"FCR\000"
 1052 05e8 0A       		.byte	0xa
 1053 05e9 B802     		.2byte	0x2b8
 1054 05eb D2030000 		.4byte	0x3d2
 1055 05ef 14       		.byte	0x14
 1056 05f0 00       		.byte	0
 1057 05f1 15       		.uleb128 0x15
 1058 05f2 C3020000 		.4byte	.LASF76
 1059 05f6 0A       		.byte	0xa
 1060 05f7 B902     		.2byte	0x2b9
 1061 05f9 9A050000 		.4byte	0x59a
 1062 05fd 13       		.uleb128 0x13
 1063 05fe 90       		.byte	0x90
 1064 05ff 0A       		.byte	0xa
 1065 0600 5804     		.2byte	0x458
 1066 0602 A6070000 		.4byte	0x7a6
 1067 0606 0C       		.uleb128 0xc
 1068 0607 435200   		.ascii	"CR\000"
 1069 060a 0A       		.byte	0xa
 1070 060b 5A04     		.2byte	0x45a
 1071 060d D2030000 		.4byte	0x3d2
 1072 0611 00       		.byte	0
 1073 0612 14       		.uleb128 0x14
 1074 0613 B1020000 		.4byte	.LASF77
 1075 0617 0A       		.byte	0xa
 1076 0618 5B04     		.2byte	0x45b
 1077 061a D2030000 		.4byte	0x3d2
ARM GAS  /var/folders/28/j9jfyj_n4wz3qtvnym210h2c0000gn/T//ccXbR1jW.s 			page 20


 1078 061e 04       		.byte	0x4
 1079 061f 14       		.uleb128 0x14
 1080 0620 87070000 		.4byte	.LASF78
 1081 0624 0A       		.byte	0xa
 1082 0625 5C04     		.2byte	0x45c
 1083 0627 D2030000 		.4byte	0x3d2
 1084 062b 08       		.byte	0x8
 1085 062c 0C       		.uleb128 0xc
 1086 062d 43495200 		.ascii	"CIR\000"
 1087 0631 0A       		.byte	0xa
 1088 0632 5D04     		.2byte	0x45d
 1089 0634 D2030000 		.4byte	0x3d2
 1090 0638 0C       		.byte	0xc
 1091 0639 14       		.uleb128 0x14
 1092 063a EC000000 		.4byte	.LASF79
 1093 063e 0A       		.byte	0xa
 1094 063f 5E04     		.2byte	0x45e
 1095 0641 D2030000 		.4byte	0x3d2
 1096 0645 10       		.byte	0x10
 1097 0646 14       		.uleb128 0x14
 1098 0647 47050000 		.4byte	.LASF80
 1099 064b 0A       		.byte	0xa
 1100 064c 5F04     		.2byte	0x45f
 1101 064e D2030000 		.4byte	0x3d2
 1102 0652 14       		.byte	0x14
 1103 0653 14       		.uleb128 0x14
 1104 0654 B6040000 		.4byte	.LASF81
 1105 0658 0A       		.byte	0xa
 1106 0659 6004     		.2byte	0x460
 1107 065b D2030000 		.4byte	0x3d2
 1108 065f 18       		.byte	0x18
 1109 0660 14       		.uleb128 0x14
 1110 0661 DD030000 		.4byte	.LASF82
 1111 0665 0A       		.byte	0xa
 1112 0666 6104     		.2byte	0x461
 1113 0668 C3000000 		.4byte	0xc3
 1114 066c 1C       		.byte	0x1c
 1115 066d 14       		.uleb128 0x14
 1116 066e AB030000 		.4byte	.LASF83
 1117 0672 0A       		.byte	0xa
 1118 0673 6204     		.2byte	0x462
 1119 0675 D2030000 		.4byte	0x3d2
 1120 0679 20       		.byte	0x20
 1121 067a 14       		.uleb128 0x14
 1122 067b 4D010000 		.4byte	.LASF84
 1123 067f 0A       		.byte	0xa
 1124 0680 6304     		.2byte	0x463
 1125 0682 D2030000 		.4byte	0x3d2
 1126 0686 24       		.byte	0x24
 1127 0687 14       		.uleb128 0x14
 1128 0688 E7030000 		.4byte	.LASF85
 1129 068c 0A       		.byte	0xa
 1130 068d 6404     		.2byte	0x464
 1131 068f 6D040000 		.4byte	0x46d
 1132 0693 28       		.byte	0x28
 1133 0694 14       		.uleb128 0x14
 1134 0695 6C070000 		.4byte	.LASF86
ARM GAS  /var/folders/28/j9jfyj_n4wz3qtvnym210h2c0000gn/T//ccXbR1jW.s 			page 21


 1135 0699 0A       		.byte	0xa
 1136 069a 6504     		.2byte	0x465
 1137 069c D2030000 		.4byte	0x3d2
 1138 06a0 30       		.byte	0x30
 1139 06a1 14       		.uleb128 0x14
 1140 06a2 93050000 		.4byte	.LASF87
 1141 06a6 0A       		.byte	0xa
 1142 06a7 6604     		.2byte	0x466
 1143 06a9 D2030000 		.4byte	0x3d2
 1144 06ad 34       		.byte	0x34
 1145 06ae 14       		.uleb128 0x14
 1146 06af 54020000 		.4byte	.LASF88
 1147 06b3 0A       		.byte	0xa
 1148 06b4 6704     		.2byte	0x467
 1149 06b6 D2030000 		.4byte	0x3d2
 1150 06ba 38       		.byte	0x38
 1151 06bb 14       		.uleb128 0x14
 1152 06bc F1030000 		.4byte	.LASF89
 1153 06c0 0A       		.byte	0xa
 1154 06c1 6804     		.2byte	0x468
 1155 06c3 C3000000 		.4byte	0xc3
 1156 06c7 3C       		.byte	0x3c
 1157 06c8 14       		.uleb128 0x14
 1158 06c9 80050000 		.4byte	.LASF90
 1159 06cd 0A       		.byte	0xa
 1160 06ce 6904     		.2byte	0x469
 1161 06d0 D2030000 		.4byte	0x3d2
 1162 06d4 40       		.byte	0x40
 1163 06d5 14       		.uleb128 0x14
 1164 06d6 AE040000 		.4byte	.LASF91
 1165 06da 0A       		.byte	0xa
 1166 06db 6A04     		.2byte	0x46a
 1167 06dd D2030000 		.4byte	0x3d2
 1168 06e1 44       		.byte	0x44
 1169 06e2 14       		.uleb128 0x14
 1170 06e3 FB030000 		.4byte	.LASF92
 1171 06e7 0A       		.byte	0xa
 1172 06e8 6B04     		.2byte	0x46b
 1173 06ea 6D040000 		.4byte	0x46d
 1174 06ee 48       		.byte	0x48
 1175 06ef 14       		.uleb128 0x14
 1176 06f0 A8000000 		.4byte	.LASF93
 1177 06f4 0A       		.byte	0xa
 1178 06f5 6C04     		.2byte	0x46c
 1179 06f7 D2030000 		.4byte	0x3d2
 1180 06fb 50       		.byte	0x50
 1181 06fc 14       		.uleb128 0x14
 1182 06fd 8E030000 		.4byte	.LASF94
 1183 0701 0A       		.byte	0xa
 1184 0702 6D04     		.2byte	0x46d
 1185 0704 D2030000 		.4byte	0x3d2
 1186 0708 54       		.byte	0x54
 1187 0709 14       		.uleb128 0x14
 1188 070a 05060000 		.4byte	.LASF95
 1189 070e 0A       		.byte	0xa
 1190 070f 6E04     		.2byte	0x46e
 1191 0711 D2030000 		.4byte	0x3d2
ARM GAS  /var/folders/28/j9jfyj_n4wz3qtvnym210h2c0000gn/T//ccXbR1jW.s 			page 22


 1192 0715 58       		.byte	0x58
 1193 0716 14       		.uleb128 0x14
 1194 0717 05040000 		.4byte	.LASF96
 1195 071b 0A       		.byte	0xa
 1196 071c 6F04     		.2byte	0x46f
 1197 071e C3000000 		.4byte	0xc3
 1198 0722 5C       		.byte	0x5c
 1199 0723 14       		.uleb128 0x14
 1200 0724 90020000 		.4byte	.LASF97
 1201 0728 0A       		.byte	0xa
 1202 0729 7004     		.2byte	0x470
 1203 072b D2030000 		.4byte	0x3d2
 1204 072f 60       		.byte	0x60
 1205 0730 14       		.uleb128 0x14
 1206 0731 EB020000 		.4byte	.LASF98
 1207 0735 0A       		.byte	0xa
 1208 0736 7104     		.2byte	0x471
 1209 0738 D2030000 		.4byte	0x3d2
 1210 073c 64       		.byte	0x64
 1211 073d 14       		.uleb128 0x14
 1212 073e D7040000 		.4byte	.LASF99
 1213 0742 0A       		.byte	0xa
 1214 0743 7204     		.2byte	0x472
 1215 0745 6D040000 		.4byte	0x46d
 1216 0749 68       		.byte	0x68
 1217 074a 14       		.uleb128 0x14
 1218 074b 1C060000 		.4byte	.LASF100
 1219 074f 0A       		.byte	0xa
 1220 0750 7304     		.2byte	0x473
 1221 0752 D2030000 		.4byte	0x3d2
 1222 0756 70       		.byte	0x70
 1223 0757 0C       		.uleb128 0xc
 1224 0758 43535200 		.ascii	"CSR\000"
 1225 075c 0A       		.byte	0xa
 1226 075d 7404     		.2byte	0x474
 1227 075f D2030000 		.4byte	0x3d2
 1228 0763 74       		.byte	0x74
 1229 0764 14       		.uleb128 0x14
 1230 0765 16040000 		.4byte	.LASF101
 1231 0769 0A       		.byte	0xa
 1232 076a 7504     		.2byte	0x475
 1233 076c 6D040000 		.4byte	0x46d
 1234 0770 78       		.byte	0x78
 1235 0771 14       		.uleb128 0x14
 1236 0772 56010000 		.4byte	.LASF102
 1237 0776 0A       		.byte	0xa
 1238 0777 7604     		.2byte	0x476
 1239 0779 D2030000 		.4byte	0x3d2
 1240 077d 80       		.byte	0x80
 1241 077e 14       		.uleb128 0x14
 1242 077f 9A020000 		.4byte	.LASF103
 1243 0783 0A       		.byte	0xa
 1244 0784 7704     		.2byte	0x477
 1245 0786 D2030000 		.4byte	0x3d2
 1246 078a 84       		.byte	0x84
 1247 078b 14       		.uleb128 0x14
 1248 078c CD030000 		.4byte	.LASF104
ARM GAS  /var/folders/28/j9jfyj_n4wz3qtvnym210h2c0000gn/T//ccXbR1jW.s 			page 23


 1249 0790 0A       		.byte	0xa
 1250 0791 7804     		.2byte	0x478
 1251 0793 D2030000 		.4byte	0x3d2
 1252 0797 88       		.byte	0x88
 1253 0798 14       		.uleb128 0x14
 1254 0799 C5000000 		.4byte	.LASF105
 1255 079d 0A       		.byte	0xa
 1256 079e 7904     		.2byte	0x479
 1257 07a0 D2030000 		.4byte	0x3d2
 1258 07a4 8C       		.byte	0x8c
 1259 07a5 00       		.byte	0
 1260 07a6 15       		.uleb128 0x15
 1261 07a7 16010000 		.4byte	.LASF106
 1262 07ab 0A       		.byte	0xa
 1263 07ac 7B04     		.2byte	0x47b
 1264 07ae FD050000 		.4byte	0x5fd
 1265 07b2 08       		.uleb128 0x8
 1266 07b3 0C       		.byte	0xc
 1267 07b4 0B       		.byte	0xb
 1268 07b5 DA       		.byte	0xda
 1269 07b6 F7070000 		.4byte	0x7f7
 1270 07ba 06       		.uleb128 0x6
 1271 07bb 54000000 		.4byte	.LASF107
 1272 07bf 0B       		.byte	0xb
 1273 07c0 DB       		.byte	0xdb
 1274 07c1 F7070000 		.4byte	0x7f7
 1275 07c5 00       		.byte	0
 1276 07c6 06       		.uleb128 0x6
 1277 07c7 D8030000 		.4byte	.LASF108
 1278 07cb 0B       		.byte	0xb
 1279 07cc DC       		.byte	0xdc
 1280 07cd FD070000 		.4byte	0x7fd
 1281 07d1 04       		.byte	0x4
 1282 07d2 06       		.uleb128 0x6
 1283 07d3 76020000 		.4byte	.LASF109
 1284 07d7 0B       		.byte	0xb
 1285 07d8 DD       		.byte	0xdd
 1286 07d9 A2000000 		.4byte	0xa2
 1287 07dd 08       		.byte	0x8
 1288 07de 06       		.uleb128 0x6
 1289 07df 07020000 		.4byte	.LASF110
 1290 07e3 0B       		.byte	0xb
 1291 07e4 DF       		.byte	0xdf
 1292 07e5 A2000000 		.4byte	0xa2
 1293 07e9 09       		.byte	0x9
 1294 07ea 06       		.uleb128 0x6
 1295 07eb 26000000 		.4byte	.LASF111
 1296 07ef 0B       		.byte	0xb
 1297 07f0 E0       		.byte	0xe0
 1298 07f1 A2000000 		.4byte	0xa2
 1299 07f5 0A       		.byte	0xa
 1300 07f6 00       		.byte	0
 1301 07f7 09       		.uleb128 0x9
 1302 07f8 04       		.byte	0x4
 1303 07f9 F1050000 		.4byte	0x5f1
 1304 07fd 09       		.uleb128 0x9
 1305 07fe 04       		.byte	0x4
ARM GAS  /var/folders/28/j9jfyj_n4wz3qtvnym210h2c0000gn/T//ccXbR1jW.s 			page 24


 1306 07ff D2030000 		.4byte	0x3d2
 1307 0803 03       		.uleb128 0x3
 1308 0804 20040000 		.4byte	.LASF112
 1309 0808 0B       		.byte	0xb
 1310 0809 E1       		.byte	0xe1
 1311 080a B2070000 		.4byte	0x7b2
 1312 080e 08       		.uleb128 0x8
 1313 080f 04       		.byte	0x4
 1314 0810 0C       		.byte	0xc
 1315 0811 96       		.byte	0x96
 1316 0812 2F080000 		.4byte	0x82f
 1317 0816 07       		.uleb128 0x7
 1318 0817 73657400 		.ascii	"set\000"
 1319 081b 0C       		.byte	0xc
 1320 081c 97       		.byte	0x97
 1321 081d AD000000 		.4byte	0xad
 1322 0821 00       		.byte	0
 1323 0822 06       		.uleb128 0x6
 1324 0823 D1040000 		.4byte	.LASF113
 1325 0827 0C       		.byte	0xc
 1326 0828 98       		.byte	0x98
 1327 0829 AD000000 		.4byte	0xad
 1328 082d 02       		.byte	0x2
 1329 082e 00       		.byte	0
 1330 082f 0E       		.uleb128 0xe
 1331 0830 04       		.byte	0x4
 1332 0831 0C       		.byte	0xc
 1333 0832 94       		.byte	0x94
 1334 0833 4A080000 		.4byte	0x84a
 1335 0837 16       		.uleb128 0x16
 1336 0838 5700     		.ascii	"W\000"
 1337 083a 0C       		.byte	0xc
 1338 083b 95       		.byte	0x95
 1339 083c C3000000 		.4byte	0xc3
 1340 0840 16       		.uleb128 0x16
 1341 0841 4800     		.ascii	"H\000"
 1342 0843 0C       		.byte	0xc
 1343 0844 99       		.byte	0x99
 1344 0845 0E080000 		.4byte	0x80e
 1345 0849 00       		.byte	0
 1346 084a 08       		.uleb128 0x8
 1347 084b 28       		.byte	0x28
 1348 084c 0C       		.byte	0xc
 1349 084d 8C       		.byte	0x8c
 1350 084e CB080000 		.4byte	0x8cb
 1351 0852 06       		.uleb128 0x6
 1352 0853 64000000 		.4byte	.LASF114
 1353 0857 0C       		.byte	0xc
 1354 0858 8E       		.byte	0x8e
 1355 0859 D2030000 		.4byte	0x3d2
 1356 085d 00       		.byte	0
 1357 085e 06       		.uleb128 0x6
 1358 085f 2D000000 		.4byte	.LASF115
 1359 0863 0C       		.byte	0xc
 1360 0864 8F       		.byte	0x8f
 1361 0865 D2030000 		.4byte	0x3d2
 1362 0869 04       		.byte	0x4
ARM GAS  /var/folders/28/j9jfyj_n4wz3qtvnym210h2c0000gn/T//ccXbR1jW.s 			page 25


 1363 086a 06       		.uleb128 0x6
 1364 086b EB010000 		.4byte	.LASF116
 1365 086f 0C       		.byte	0xc
 1366 0870 90       		.byte	0x90
 1367 0871 D2030000 		.4byte	0x3d2
 1368 0875 08       		.byte	0x8
 1369 0876 06       		.uleb128 0x6
 1370 0877 81000000 		.4byte	.LASF117
 1371 087b 0C       		.byte	0xc
 1372 087c 91       		.byte	0x91
 1373 087d D2030000 		.4byte	0x3d2
 1374 0881 0C       		.byte	0xc
 1375 0882 07       		.uleb128 0x7
 1376 0883 49445200 		.ascii	"IDR\000"
 1377 0887 0C       		.byte	0xc
 1378 0888 92       		.byte	0x92
 1379 0889 D2030000 		.4byte	0x3d2
 1380 088d 10       		.byte	0x10
 1381 088e 07       		.uleb128 0x7
 1382 088f 4F445200 		.ascii	"ODR\000"
 1383 0893 0C       		.byte	0xc
 1384 0894 93       		.byte	0x93
 1385 0895 D2030000 		.4byte	0x3d2
 1386 0899 14       		.byte	0x14
 1387 089a 06       		.uleb128 0x6
 1388 089b E7000000 		.4byte	.LASF118
 1389 089f 0C       		.byte	0xc
 1390 08a0 9A       		.byte	0x9a
 1391 08a1 CB080000 		.4byte	0x8cb
 1392 08a5 18       		.byte	0x18
 1393 08a6 06       		.uleb128 0x6
 1394 08a7 71020000 		.4byte	.LASF119
 1395 08ab 0C       		.byte	0xc
 1396 08ac 9B       		.byte	0x9b
 1397 08ad D2030000 		.4byte	0x3d2
 1398 08b1 1C       		.byte	0x1c
 1399 08b2 06       		.uleb128 0x6
 1400 08b3 C8030000 		.4byte	.LASF120
 1401 08b7 0C       		.byte	0xc
 1402 08b8 9C       		.byte	0x9c
 1403 08b9 D2030000 		.4byte	0x3d2
 1404 08bd 20       		.byte	0x20
 1405 08be 06       		.uleb128 0x6
 1406 08bf C3030000 		.4byte	.LASF121
 1407 08c3 0C       		.byte	0xc
 1408 08c4 9D       		.byte	0x9d
 1409 08c5 D2030000 		.4byte	0x3d2
 1410 08c9 24       		.byte	0x24
 1411 08ca 00       		.byte	0
 1412 08cb 0D       		.uleb128 0xd
 1413 08cc 2F080000 		.4byte	0x82f
 1414 08d0 03       		.uleb128 0x3
 1415 08d1 95010000 		.4byte	.LASF122
 1416 08d5 0C       		.byte	0xc
 1417 08d6 9E       		.byte	0x9e
 1418 08d7 4A080000 		.4byte	0x84a
 1419 08db 03       		.uleb128 0x3
ARM GAS  /var/folders/28/j9jfyj_n4wz3qtvnym210h2c0000gn/T//ccXbR1jW.s 			page 26


 1420 08dc 63030000 		.4byte	.LASF123
 1421 08e0 0C       		.byte	0xc
 1422 08e1 F0       		.byte	0xf0
 1423 08e2 C3000000 		.4byte	0xc3
 1424 08e6 03       		.uleb128 0x3
 1425 08e7 A4070000 		.4byte	.LASF124
 1426 08eb 0C       		.byte	0xc
 1427 08ec F5       		.byte	0xf5
 1428 08ed C3000000 		.4byte	0xc3
 1429 08f1 03       		.uleb128 0x3
 1430 08f2 88050000 		.4byte	.LASF125
 1431 08f6 0C       		.byte	0xc
 1432 08f7 FD       		.byte	0xfd
 1433 08f8 FC080000 		.4byte	0x8fc
 1434 08fc 09       		.uleb128 0x9
 1435 08fd 04       		.byte	0x4
 1436 08fe D0080000 		.4byte	0x8d0
 1437 0902 17       		.uleb128 0x17
 1438 0903 01       		.byte	0x1
 1439 0904 0D       		.byte	0xd
 1440 0905 55       		.byte	0x55
 1441 0906 2F090000 		.4byte	0x92f
 1442 090a 18       		.uleb128 0x18
 1443 090b 90000000 		.4byte	.LASF126
 1444 090f 00       		.sleb128 0
 1445 0910 18       		.uleb128 0x18
 1446 0911 21060000 		.4byte	.LASF127
 1447 0915 01       		.sleb128 1
 1448 0916 18       		.uleb128 0x18
 1449 0917 B9020000 		.4byte	.LASF128
 1450 091b 02       		.sleb128 2
 1451 091c 18       		.uleb128 0x18
 1452 091d 28020000 		.4byte	.LASF129
 1453 0921 03       		.sleb128 3
 1454 0922 18       		.uleb128 0x18
 1455 0923 66060000 		.4byte	.LASF130
 1456 0927 04       		.sleb128 4
 1457 0928 18       		.uleb128 0x18
 1458 0929 E2050000 		.4byte	.LASF131
 1459 092d 05       		.sleb128 5
 1460 092e 00       		.byte	0
 1461 092f 03       		.uleb128 0x3
 1462 0930 1B000000 		.4byte	.LASF132
 1463 0934 0D       		.byte	0xd
 1464 0935 5C       		.byte	0x5c
 1465 0936 02090000 		.4byte	0x902
 1466 093a 15       		.uleb128 0x15
 1467 093b DF010000 		.4byte	.LASF133
 1468 093f 0E       		.byte	0xe
 1469 0940 2701     		.2byte	0x127
 1470 0942 AD000000 		.4byte	0xad
 1471 0946 15       		.uleb128 0x15
 1472 0947 74070000 		.4byte	.LASF134
 1473 094b 0E       		.byte	0xe
 1474 094c 2C01     		.2byte	0x12c
 1475 094e AD000000 		.4byte	0xad
 1476 0952 19       		.uleb128 0x19
ARM GAS  /var/folders/28/j9jfyj_n4wz3qtvnym210h2c0000gn/T//ccXbR1jW.s 			page 27


 1477 0953 01       		.byte	0x1
 1478 0954 0E       		.byte	0xe
 1479 0955 3301     		.2byte	0x133
 1480 0957 68090000 		.4byte	0x968
 1481 095b 18       		.uleb128 0x18
 1482 095c 3A010000 		.4byte	.LASF135
 1483 0960 00       		.sleb128 0
 1484 0961 18       		.uleb128 0x18
 1485 0962 17020000 		.4byte	.LASF136
 1486 0966 01       		.sleb128 1
 1487 0967 00       		.byte	0
 1488 0968 15       		.uleb128 0x15
 1489 0969 04010000 		.4byte	.LASF137
 1490 096d 0E       		.byte	0xe
 1491 096e 3601     		.2byte	0x136
 1492 0970 52090000 		.4byte	0x952
 1493 0974 15       		.uleb128 0x15
 1494 0975 5C020000 		.4byte	.LASF138
 1495 0979 0E       		.byte	0xe
 1496 097a 3B01     		.2byte	0x13b
 1497 097c 80090000 		.4byte	0x980
 1498 0980 0B       		.uleb128 0xb
 1499 0981 5C020000 		.4byte	.LASF138
 1500 0985 34       		.byte	0x34
 1501 0986 0E       		.byte	0xe
 1502 0987 9F01     		.2byte	0x19f
 1503 0989 100A0000 		.4byte	0xa10
 1504 098d 14       		.uleb128 0x14
 1505 098e 22010000 		.4byte	.LASF139
 1506 0992 0E       		.byte	0xe
 1507 0993 A301     		.2byte	0x1a3
 1508 0995 2F090000 		.4byte	0x92f
 1509 0999 00       		.byte	0
 1510 099a 14       		.uleb128 0x14
 1511 099b 21050000 		.4byte	.LASF140
 1512 099f 0E       		.byte	0xe
 1513 09a0 A701     		.2byte	0x1a7
 1514 09a2 2D0B0000 		.4byte	0xb2d
 1515 09a6 04       		.byte	0x4
 1516 09a7 14       		.uleb128 0x14
 1517 09a8 34030000 		.4byte	.LASF141
 1518 09ac 0E       		.byte	0xe
 1519 09ad AB01     		.2byte	0x1ab
 1520 09af 3D0A0000 		.4byte	0xa3d
 1521 09b3 08       		.byte	0x8
 1522 09b4 14       		.uleb128 0x14
 1523 09b5 A5020000 		.4byte	.LASF142
 1524 09b9 0E       		.byte	0xe
 1525 09ba AF01     		.2byte	0x1af
 1526 09bc 2C000000 		.4byte	0x2c
 1527 09c0 0C       		.byte	0xc
 1528 09c1 14       		.uleb128 0x14
 1529 09c2 1D030000 		.4byte	.LASF143
 1530 09c6 0E       		.byte	0xe
 1531 09c7 B301     		.2byte	0x1b3
 1532 09c9 380B0000 		.4byte	0xb38
 1533 09cd 10       		.byte	0x10
ARM GAS  /var/folders/28/j9jfyj_n4wz3qtvnym210h2c0000gn/T//ccXbR1jW.s 			page 28


 1534 09ce 14       		.uleb128 0x14
 1535 09cf 74050000 		.4byte	.LASF144
 1536 09d3 0E       		.byte	0xe
 1537 09d4 B801     		.2byte	0x1b8
 1538 09d6 27020000 		.4byte	0x227
 1539 09da 14       		.byte	0x14
 1540 09db 14       		.uleb128 0x14
 1541 09dc 3B040000 		.4byte	.LASF145
 1542 09e0 0E       		.byte	0xe
 1543 09e1 BF01     		.2byte	0x1bf
 1544 09e3 15040000 		.4byte	0x415
 1545 09e7 18       		.byte	0x18
 1546 09e8 0C       		.uleb128 0xc
 1547 09e9 61646300 		.ascii	"adc\000"
 1548 09ed 0E       		.byte	0xe
 1549 09ee CB01     		.2byte	0x1cb
 1550 09f0 430B0000 		.4byte	0xb43
 1551 09f4 28       		.byte	0x28
 1552 09f5 14       		.uleb128 0x14
 1553 09f6 0F010000 		.4byte	.LASF146
 1554 09fa 0E       		.byte	0xe
 1555 09fb CF01     		.2byte	0x1cf
 1556 09fd 490B0000 		.4byte	0xb49
 1557 0a01 2C       		.byte	0x2c
 1558 0a02 14       		.uleb128 0x14
 1559 0a03 13000000 		.4byte	.LASF147
 1560 0a07 0E       		.byte	0xe
 1561 0a08 D301     		.2byte	0x1d3
 1562 0a0a C3000000 		.4byte	0xc3
 1563 0a0e 30       		.byte	0x30
 1564 0a0f 00       		.byte	0
 1565 0a10 15       		.uleb128 0x15
 1566 0a11 87010000 		.4byte	.LASF148
 1567 0a15 0E       		.byte	0xe
 1568 0a16 4501     		.2byte	0x145
 1569 0a18 1C0A0000 		.4byte	0xa1c
 1570 0a1c 09       		.uleb128 0x9
 1571 0a1d 04       		.byte	0x4
 1572 0a1e 220A0000 		.4byte	0xa22
 1573 0a22 1A       		.uleb128 0x1a
 1574 0a23 370A0000 		.4byte	0xa37
 1575 0a27 1B       		.uleb128 0x1b
 1576 0a28 370A0000 		.4byte	0xa37
 1577 0a2c 1B       		.uleb128 0x1b
 1578 0a2d 3D0A0000 		.4byte	0xa3d
 1579 0a31 1B       		.uleb128 0x1b
 1580 0a32 2C000000 		.4byte	0x2c
 1581 0a36 00       		.byte	0
 1582 0a37 09       		.uleb128 0x9
 1583 0a38 04       		.byte	0x4
 1584 0a39 74090000 		.4byte	0x974
 1585 0a3d 09       		.uleb128 0x9
 1586 0a3e 04       		.byte	0x4
 1587 0a3f 3A090000 		.4byte	0x93a
 1588 0a43 15       		.uleb128 0x15
 1589 0a44 65010000 		.4byte	.LASF149
 1590 0a48 0E       		.byte	0xe
ARM GAS  /var/folders/28/j9jfyj_n4wz3qtvnym210h2c0000gn/T//ccXbR1jW.s 			page 29


 1591 0a49 4E01     		.2byte	0x14e
 1592 0a4b 4F0A0000 		.4byte	0xa4f
 1593 0a4f 09       		.uleb128 0x9
 1594 0a50 04       		.byte	0x4
 1595 0a51 550A0000 		.4byte	0xa55
 1596 0a55 1A       		.uleb128 0x1a
 1597 0a56 650A0000 		.4byte	0xa65
 1598 0a5a 1B       		.uleb128 0x1b
 1599 0a5b 370A0000 		.4byte	0xa37
 1600 0a5f 1B       		.uleb128 0x1b
 1601 0a60 68090000 		.4byte	0x968
 1602 0a64 00       		.byte	0
 1603 0a65 13       		.uleb128 0x13
 1604 0a66 28       		.byte	0x28
 1605 0a67 0E       		.byte	0xe
 1606 0a68 5801     		.2byte	0x158
 1607 0a6a FE0A0000 		.4byte	0xafe
 1608 0a6e 14       		.uleb128 0x14
 1609 0a6f 28010000 		.4byte	.LASF150
 1610 0a73 0E       		.byte	0xe
 1611 0a74 5C01     		.2byte	0x15c
 1612 0a76 CE000000 		.4byte	0xce
 1613 0a7a 00       		.byte	0
 1614 0a7b 14       		.uleb128 0x14
 1615 0a7c DE020000 		.4byte	.LASF151
 1616 0a80 0E       		.byte	0xe
 1617 0a81 6001     		.2byte	0x160
 1618 0a83 46090000 		.4byte	0x946
 1619 0a87 02       		.byte	0x2
 1620 0a88 14       		.uleb128 0x14
 1621 0a89 80010000 		.4byte	.LASF152
 1622 0a8d 0E       		.byte	0xe
 1623 0a8e 6401     		.2byte	0x164
 1624 0a90 100A0000 		.4byte	0xa10
 1625 0a94 04       		.byte	0x4
 1626 0a95 14       		.uleb128 0x14
 1627 0a96 83040000 		.4byte	.LASF153
 1628 0a9a 0E       		.byte	0xe
 1629 0a9b 6801     		.2byte	0x168
 1630 0a9d 430A0000 		.4byte	0xa43
 1631 0aa1 08       		.byte	0x8
 1632 0aa2 0C       		.uleb128 0xc
 1633 0aa3 63723100 		.ascii	"cr1\000"
 1634 0aa7 0E       		.byte	0xe
 1635 0aa8 6F01     		.2byte	0x16f
 1636 0aaa C3000000 		.4byte	0xc3
 1637 0aae 0C       		.byte	0xc
 1638 0aaf 0C       		.uleb128 0xc
 1639 0ab0 63723200 		.ascii	"cr2\000"
 1640 0ab4 0E       		.byte	0xe
 1641 0ab5 7601     		.2byte	0x176
 1642 0ab7 C3000000 		.4byte	0xc3
 1643 0abb 10       		.byte	0x10
 1644 0abc 14       		.uleb128 0x14
 1645 0abd 16060000 		.4byte	.LASF154
 1646 0ac1 0E       		.byte	0xe
 1647 0ac2 7C01     		.2byte	0x17c
ARM GAS  /var/folders/28/j9jfyj_n4wz3qtvnym210h2c0000gn/T//ccXbR1jW.s 			page 30


 1648 0ac4 C3000000 		.4byte	0xc3
 1649 0ac8 14       		.byte	0x14
 1650 0ac9 14       		.uleb128 0x14
 1651 0aca 16050000 		.4byte	.LASF155
 1652 0ace 0E       		.byte	0xe
 1653 0acf 8201     		.2byte	0x182
 1654 0ad1 C3000000 		.4byte	0xc3
 1655 0ad5 18       		.byte	0x18
 1656 0ad6 14       		.uleb128 0x14
 1657 0ad7 50050000 		.4byte	.LASF156
 1658 0adb 0E       		.byte	0xe
 1659 0adc 8701     		.2byte	0x187
 1660 0ade C3000000 		.4byte	0xc3
 1661 0ae2 1C       		.byte	0x1c
 1662 0ae3 14       		.uleb128 0x14
 1663 0ae4 55050000 		.4byte	.LASF157
 1664 0ae8 0E       		.byte	0xe
 1665 0ae9 8C01     		.2byte	0x18c
 1666 0aeb C3000000 		.4byte	0xc3
 1667 0aef 20       		.byte	0x20
 1668 0af0 14       		.uleb128 0x14
 1669 0af1 5A050000 		.4byte	.LASF158
 1670 0af5 0E       		.byte	0xe
 1671 0af6 9101     		.2byte	0x191
 1672 0af8 C3000000 		.4byte	0xc3
 1673 0afc 24       		.byte	0x24
 1674 0afd 00       		.byte	0
 1675 0afe 15       		.uleb128 0x15
 1676 0aff 32060000 		.4byte	.LASF159
 1677 0b03 0E       		.byte	0xe
 1678 0b04 9201     		.2byte	0x192
 1679 0b06 650A0000 		.4byte	0xa65
 1680 0b0a 13       		.uleb128 0x13
 1681 0b0b 04       		.byte	0x4
 1682 0b0c 0E       		.byte	0xe
 1683 0b0d 9801     		.2byte	0x198
 1684 0b0f 210B0000 		.4byte	0xb21
 1685 0b13 14       		.uleb128 0x14
 1686 0b14 11020000 		.4byte	.LASF160
 1687 0b18 0E       		.byte	0xe
 1688 0b19 9901     		.2byte	0x199
 1689 0b1b C3000000 		.4byte	0xc3
 1690 0b1f 00       		.byte	0
 1691 0b20 00       		.byte	0
 1692 0b21 15       		.uleb128 0x15
 1693 0b22 F0040000 		.4byte	.LASF161
 1694 0b26 0E       		.byte	0xe
 1695 0b27 9A01     		.2byte	0x19a
 1696 0b29 0A0B0000 		.4byte	0xb0a
 1697 0b2d 09       		.uleb128 0x9
 1698 0b2e 04       		.byte	0x4
 1699 0b2f 330B0000 		.4byte	0xb33
 1700 0b33 10       		.uleb128 0x10
 1701 0b34 210B0000 		.4byte	0xb21
 1702 0b38 09       		.uleb128 0x9
 1703 0b39 04       		.byte	0x4
 1704 0b3a 3E0B0000 		.4byte	0xb3e
ARM GAS  /var/folders/28/j9jfyj_n4wz3qtvnym210h2c0000gn/T//ccXbR1jW.s 			page 31


 1705 0b3e 10       		.uleb128 0x10
 1706 0b3f FE0A0000 		.4byte	0xafe
 1707 0b43 09       		.uleb128 0x9
 1708 0b44 04       		.byte	0x4
 1709 0b45 8E050000 		.4byte	0x58e
 1710 0b49 09       		.uleb128 0x9
 1711 0b4a 04       		.byte	0x4
 1712 0b4b 4F0B0000 		.4byte	0xb4f
 1713 0b4f 10       		.uleb128 0x10
 1714 0b50 03080000 		.4byte	0x803
 1715 0b54 1C       		.uleb128 0x1c
 1716 0b55 9B040000 		.4byte	.LASF162
 1717 0b59 01       		.byte	0x1
 1718 0b5a 1B       		.byte	0x1b
 1719 0b5b 00000000 		.4byte	.LFB130
 1720 0b5f 28000000 		.4byte	.LFE130-.LFB130
 1721 0b63 01       		.uleb128 0x1
 1722 0b64 9C       		.byte	0x9c
 1723 0b65 7D0B0000 		.4byte	0xb7d
 1724 0b69 1D       		.uleb128 0x1d
 1725 0b6a 20000000 		.4byte	.LVL0
 1726 0b6e 570E0000 		.4byte	0xe57
 1727 0b72 1E       		.uleb128 0x1e
 1728 0b73 01       		.uleb128 0x1
 1729 0b74 50       		.byte	0x50
 1730 0b75 05       		.uleb128 0x5
 1731 0b76 03       		.byte	0x3
 1732 0b77 00000000 		.4byte	Mutex_DMAStream_1_7
 1733 0b7b 00       		.byte	0
 1734 0b7c 00       		.byte	0
 1735 0b7d 1C       		.uleb128 0x1c
 1736 0b7e F6050000 		.4byte	.LASF163
 1737 0b82 01       		.byte	0x1
 1738 0b83 33       		.byte	0x33
 1739 0b84 30000000 		.4byte	.LFB132
 1740 0b88 B8000000 		.4byte	.LFE132-.LFB132
 1741 0b8c 01       		.uleb128 0x1
 1742 0b8d 9C       		.byte	0x9c
 1743 0b8e 760D0000 		.4byte	0xd76
 1744 0b92 1F       		.uleb128 0x1f
 1745 0b93 42000000 		.4byte	.LVL1
 1746 0b97 680E0000 		.4byte	0xe68
 1747 0b9b B00B0000 		.4byte	0xbb0
 1748 0b9f 1E       		.uleb128 0x1e
 1749 0ba0 01       		.uleb128 0x1
 1750 0ba1 52       		.byte	0x52
 1751 0ba2 01       		.uleb128 0x1
 1752 0ba3 33       		.byte	0x33
 1753 0ba4 1E       		.uleb128 0x1e
 1754 0ba5 01       		.uleb128 0x1
 1755 0ba6 51       		.byte	0x51
 1756 0ba7 01       		.uleb128 0x1
 1757 0ba8 31       		.byte	0x31
 1758 0ba9 1E       		.uleb128 0x1e
 1759 0baa 01       		.uleb128 0x1
 1760 0bab 50       		.byte	0x50
 1761 0bac 02       		.uleb128 0x2
ARM GAS  /var/folders/28/j9jfyj_n4wz3qtvnym210h2c0000gn/T//ccXbR1jW.s 			page 32


 1762 0bad 74       		.byte	0x74
 1763 0bae 00       		.sleb128 0
 1764 0baf 00       		.byte	0
 1765 0bb0 1F       		.uleb128 0x1f
 1766 0bb1 4C000000 		.4byte	.LVL2
 1767 0bb5 680E0000 		.4byte	0xe68
 1768 0bb9 CE0B0000 		.4byte	0xbce
 1769 0bbd 1E       		.uleb128 0x1e
 1770 0bbe 01       		.uleb128 0x1
 1771 0bbf 52       		.byte	0x52
 1772 0bc0 01       		.uleb128 0x1
 1773 0bc1 33       		.byte	0x33
 1774 0bc2 1E       		.uleb128 0x1e
 1775 0bc3 01       		.uleb128 0x1
 1776 0bc4 51       		.byte	0x51
 1777 0bc5 01       		.uleb128 0x1
 1778 0bc6 32       		.byte	0x32
 1779 0bc7 1E       		.uleb128 0x1e
 1780 0bc8 01       		.uleb128 0x1
 1781 0bc9 50       		.byte	0x50
 1782 0bca 02       		.uleb128 0x2
 1783 0bcb 74       		.byte	0x74
 1784 0bcc 00       		.sleb128 0
 1785 0bcd 00       		.byte	0
 1786 0bce 1F       		.uleb128 0x1f
 1787 0bcf 56000000 		.4byte	.LVL3
 1788 0bd3 680E0000 		.4byte	0xe68
 1789 0bd7 EC0B0000 		.4byte	0xbec
 1790 0bdb 1E       		.uleb128 0x1e
 1791 0bdc 01       		.uleb128 0x1
 1792 0bdd 52       		.byte	0x52
 1793 0bde 01       		.uleb128 0x1
 1794 0bdf 33       		.byte	0x33
 1795 0be0 1E       		.uleb128 0x1e
 1796 0be1 01       		.uleb128 0x1
 1797 0be2 51       		.byte	0x51
 1798 0be3 01       		.uleb128 0x1
 1799 0be4 34       		.byte	0x34
 1800 0be5 1E       		.uleb128 0x1e
 1801 0be6 01       		.uleb128 0x1
 1802 0be7 50       		.byte	0x50
 1803 0be8 02       		.uleb128 0x2
 1804 0be9 74       		.byte	0x74
 1805 0bea 00       		.sleb128 0
 1806 0beb 00       		.byte	0
 1807 0bec 1F       		.uleb128 0x1f
 1808 0bed 60000000 		.4byte	.LVL4
 1809 0bf1 680E0000 		.4byte	0xe68
 1810 0bf5 0A0C0000 		.4byte	0xc0a
 1811 0bf9 1E       		.uleb128 0x1e
 1812 0bfa 01       		.uleb128 0x1
 1813 0bfb 52       		.byte	0x52
 1814 0bfc 01       		.uleb128 0x1
 1815 0bfd 33       		.byte	0x33
 1816 0bfe 1E       		.uleb128 0x1e
 1817 0bff 01       		.uleb128 0x1
 1818 0c00 51       		.byte	0x51
ARM GAS  /var/folders/28/j9jfyj_n4wz3qtvnym210h2c0000gn/T//ccXbR1jW.s 			page 33


 1819 0c01 01       		.uleb128 0x1
 1820 0c02 38       		.byte	0x38
 1821 0c03 1E       		.uleb128 0x1e
 1822 0c04 01       		.uleb128 0x1
 1823 0c05 50       		.byte	0x50
 1824 0c06 02       		.uleb128 0x2
 1825 0c07 74       		.byte	0x74
 1826 0c08 00       		.sleb128 0
 1827 0c09 00       		.byte	0
 1828 0c0a 1F       		.uleb128 0x1f
 1829 0c0b 6A000000 		.4byte	.LVL5
 1830 0c0f 680E0000 		.4byte	0xe68
 1831 0c13 280C0000 		.4byte	0xc28
 1832 0c17 1E       		.uleb128 0x1e
 1833 0c18 01       		.uleb128 0x1
 1834 0c19 52       		.byte	0x52
 1835 0c1a 01       		.uleb128 0x1
 1836 0c1b 33       		.byte	0x33
 1837 0c1c 1E       		.uleb128 0x1e
 1838 0c1d 01       		.uleb128 0x1
 1839 0c1e 51       		.byte	0x51
 1840 0c1f 01       		.uleb128 0x1
 1841 0c20 40       		.byte	0x40
 1842 0c21 1E       		.uleb128 0x1e
 1843 0c22 01       		.uleb128 0x1
 1844 0c23 50       		.byte	0x50
 1845 0c24 02       		.uleb128 0x2
 1846 0c25 74       		.byte	0x74
 1847 0c26 00       		.sleb128 0
 1848 0c27 00       		.byte	0
 1849 0c28 1F       		.uleb128 0x1f
 1850 0c29 74000000 		.4byte	.LVL6
 1851 0c2d 680E0000 		.4byte	0xe68
 1852 0c31 470C0000 		.4byte	0xc47
 1853 0c35 1E       		.uleb128 0x1e
 1854 0c36 01       		.uleb128 0x1
 1855 0c37 52       		.byte	0x52
 1856 0c38 01       		.uleb128 0x1
 1857 0c39 33       		.byte	0x33
 1858 0c3a 1E       		.uleb128 0x1e
 1859 0c3b 01       		.uleb128 0x1
 1860 0c3c 51       		.byte	0x51
 1861 0c3d 02       		.uleb128 0x2
 1862 0c3e 08       		.byte	0x8
 1863 0c3f 20       		.byte	0x20
 1864 0c40 1E       		.uleb128 0x1e
 1865 0c41 01       		.uleb128 0x1
 1866 0c42 50       		.byte	0x50
 1867 0c43 02       		.uleb128 0x2
 1868 0c44 74       		.byte	0x74
 1869 0c45 00       		.sleb128 0
 1870 0c46 00       		.byte	0
 1871 0c47 1F       		.uleb128 0x1f
 1872 0c48 7E000000 		.4byte	.LVL7
 1873 0c4c 680E0000 		.4byte	0xe68
 1874 0c50 660C0000 		.4byte	0xc66
 1875 0c54 1E       		.uleb128 0x1e
ARM GAS  /var/folders/28/j9jfyj_n4wz3qtvnym210h2c0000gn/T//ccXbR1jW.s 			page 34


 1876 0c55 01       		.uleb128 0x1
 1877 0c56 52       		.byte	0x52
 1878 0c57 01       		.uleb128 0x1
 1879 0c58 33       		.byte	0x33
 1880 0c59 1E       		.uleb128 0x1e
 1881 0c5a 01       		.uleb128 0x1
 1882 0c5b 51       		.byte	0x51
 1883 0c5c 02       		.uleb128 0x2
 1884 0c5d 08       		.byte	0x8
 1885 0c5e 40       		.byte	0x40
 1886 0c5f 1E       		.uleb128 0x1e
 1887 0c60 01       		.uleb128 0x1
 1888 0c61 50       		.byte	0x50
 1889 0c62 02       		.uleb128 0x2
 1890 0c63 74       		.byte	0x74
 1891 0c64 00       		.sleb128 0
 1892 0c65 00       		.byte	0
 1893 0c66 1F       		.uleb128 0x1f
 1894 0c67 88000000 		.4byte	.LVL8
 1895 0c6b 680E0000 		.4byte	0xe68
 1896 0c6f 850C0000 		.4byte	0xc85
 1897 0c73 1E       		.uleb128 0x1e
 1898 0c74 01       		.uleb128 0x1
 1899 0c75 52       		.byte	0x52
 1900 0c76 01       		.uleb128 0x1
 1901 0c77 33       		.byte	0x33
 1902 0c78 1E       		.uleb128 0x1e
 1903 0c79 01       		.uleb128 0x1
 1904 0c7a 51       		.byte	0x51
 1905 0c7b 02       		.uleb128 0x2
 1906 0c7c 08       		.byte	0x8
 1907 0c7d 80       		.byte	0x80
 1908 0c7e 1E       		.uleb128 0x1e
 1909 0c7f 01       		.uleb128 0x1
 1910 0c80 50       		.byte	0x50
 1911 0c81 02       		.uleb128 0x2
 1912 0c82 74       		.byte	0x74
 1913 0c83 00       		.sleb128 0
 1914 0c84 00       		.byte	0
 1915 0c85 1F       		.uleb128 0x1f
 1916 0c86 92000000 		.4byte	.LVL9
 1917 0c8a 680E0000 		.4byte	0xe68
 1918 0c8e A30C0000 		.4byte	0xca3
 1919 0c92 1E       		.uleb128 0x1e
 1920 0c93 01       		.uleb128 0x1
 1921 0c94 52       		.byte	0x52
 1922 0c95 01       		.uleb128 0x1
 1923 0c96 33       		.byte	0x33
 1924 0c97 1E       		.uleb128 0x1e
 1925 0c98 01       		.uleb128 0x1
 1926 0c99 51       		.byte	0x51
 1927 0c9a 01       		.uleb128 0x1
 1928 0c9b 31       		.byte	0x31
 1929 0c9c 1E       		.uleb128 0x1e
 1930 0c9d 01       		.uleb128 0x1
 1931 0c9e 50       		.byte	0x50
 1932 0c9f 02       		.uleb128 0x2
ARM GAS  /var/folders/28/j9jfyj_n4wz3qtvnym210h2c0000gn/T//ccXbR1jW.s 			page 35


 1933 0ca0 76       		.byte	0x76
 1934 0ca1 00       		.sleb128 0
 1935 0ca2 00       		.byte	0
 1936 0ca3 1F       		.uleb128 0x1f
 1937 0ca4 9C000000 		.4byte	.LVL10
 1938 0ca8 680E0000 		.4byte	0xe68
 1939 0cac C10C0000 		.4byte	0xcc1
 1940 0cb0 1E       		.uleb128 0x1e
 1941 0cb1 01       		.uleb128 0x1
 1942 0cb2 52       		.byte	0x52
 1943 0cb3 01       		.uleb128 0x1
 1944 0cb4 33       		.byte	0x33
 1945 0cb5 1E       		.uleb128 0x1e
 1946 0cb6 01       		.uleb128 0x1
 1947 0cb7 51       		.byte	0x51
 1948 0cb8 01       		.uleb128 0x1
 1949 0cb9 32       		.byte	0x32
 1950 0cba 1E       		.uleb128 0x1e
 1951 0cbb 01       		.uleb128 0x1
 1952 0cbc 50       		.byte	0x50
 1953 0cbd 02       		.uleb128 0x2
 1954 0cbe 76       		.byte	0x76
 1955 0cbf 00       		.sleb128 0
 1956 0cc0 00       		.byte	0
 1957 0cc1 1F       		.uleb128 0x1f
 1958 0cc2 A6000000 		.4byte	.LVL11
 1959 0cc6 680E0000 		.4byte	0xe68
 1960 0cca DF0C0000 		.4byte	0xcdf
 1961 0cce 1E       		.uleb128 0x1e
 1962 0ccf 01       		.uleb128 0x1
 1963 0cd0 52       		.byte	0x52
 1964 0cd1 01       		.uleb128 0x1
 1965 0cd2 33       		.byte	0x33
 1966 0cd3 1E       		.uleb128 0x1e
 1967 0cd4 01       		.uleb128 0x1
 1968 0cd5 51       		.byte	0x51
 1969 0cd6 01       		.uleb128 0x1
 1970 0cd7 31       		.byte	0x31
 1971 0cd8 1E       		.uleb128 0x1e
 1972 0cd9 01       		.uleb128 0x1
 1973 0cda 50       		.byte	0x50
 1974 0cdb 02       		.uleb128 0x2
 1975 0cdc 75       		.byte	0x75
 1976 0cdd 00       		.sleb128 0
 1977 0cde 00       		.byte	0
 1978 0cdf 1F       		.uleb128 0x1f
 1979 0ce0 B0000000 		.4byte	.LVL12
 1980 0ce4 680E0000 		.4byte	0xe68
 1981 0ce8 FD0C0000 		.4byte	0xcfd
 1982 0cec 1E       		.uleb128 0x1e
 1983 0ced 01       		.uleb128 0x1
 1984 0cee 52       		.byte	0x52
 1985 0cef 01       		.uleb128 0x1
 1986 0cf0 33       		.byte	0x33
 1987 0cf1 1E       		.uleb128 0x1e
 1988 0cf2 01       		.uleb128 0x1
 1989 0cf3 51       		.byte	0x51
ARM GAS  /var/folders/28/j9jfyj_n4wz3qtvnym210h2c0000gn/T//ccXbR1jW.s 			page 36


 1990 0cf4 01       		.uleb128 0x1
 1991 0cf5 32       		.byte	0x32
 1992 0cf6 1E       		.uleb128 0x1e
 1993 0cf7 01       		.uleb128 0x1
 1994 0cf8 50       		.byte	0x50
 1995 0cf9 02       		.uleb128 0x2
 1996 0cfa 75       		.byte	0x75
 1997 0cfb 00       		.sleb128 0
 1998 0cfc 00       		.byte	0
 1999 0cfd 1F       		.uleb128 0x1f
 2000 0cfe BA000000 		.4byte	.LVL13
 2001 0d02 680E0000 		.4byte	0xe68
 2002 0d06 1B0D0000 		.4byte	0xd1b
 2003 0d0a 1E       		.uleb128 0x1e
 2004 0d0b 01       		.uleb128 0x1
 2005 0d0c 52       		.byte	0x52
 2006 0d0d 01       		.uleb128 0x1
 2007 0d0e 33       		.byte	0x33
 2008 0d0f 1E       		.uleb128 0x1e
 2009 0d10 01       		.uleb128 0x1
 2010 0d11 51       		.byte	0x51
 2011 0d12 01       		.uleb128 0x1
 2012 0d13 34       		.byte	0x34
 2013 0d14 1E       		.uleb128 0x1e
 2014 0d15 01       		.uleb128 0x1
 2015 0d16 50       		.byte	0x50
 2016 0d17 02       		.uleb128 0x2
 2017 0d18 75       		.byte	0x75
 2018 0d19 00       		.sleb128 0
 2019 0d1a 00       		.byte	0
 2020 0d1b 1F       		.uleb128 0x1f
 2021 0d1c C4000000 		.4byte	.LVL14
 2022 0d20 680E0000 		.4byte	0xe68
 2023 0d24 390D0000 		.4byte	0xd39
 2024 0d28 1E       		.uleb128 0x1e
 2025 0d29 01       		.uleb128 0x1
 2026 0d2a 52       		.byte	0x52
 2027 0d2b 01       		.uleb128 0x1
 2028 0d2c 33       		.byte	0x33
 2029 0d2d 1E       		.uleb128 0x1e
 2030 0d2e 01       		.uleb128 0x1
 2031 0d2f 51       		.byte	0x51
 2032 0d30 01       		.uleb128 0x1
 2033 0d31 38       		.byte	0x38
 2034 0d32 1E       		.uleb128 0x1e
 2035 0d33 01       		.uleb128 0x1
 2036 0d34 50       		.byte	0x50
 2037 0d35 02       		.uleb128 0x2
 2038 0d36 75       		.byte	0x75
 2039 0d37 00       		.sleb128 0
 2040 0d38 00       		.byte	0
 2041 0d39 1F       		.uleb128 0x1f
 2042 0d3a CE000000 		.4byte	.LVL15
 2043 0d3e 680E0000 		.4byte	0xe68
 2044 0d42 570D0000 		.4byte	0xd57
 2045 0d46 1E       		.uleb128 0x1e
 2046 0d47 01       		.uleb128 0x1
ARM GAS  /var/folders/28/j9jfyj_n4wz3qtvnym210h2c0000gn/T//ccXbR1jW.s 			page 37


 2047 0d48 52       		.byte	0x52
 2048 0d49 01       		.uleb128 0x1
 2049 0d4a 33       		.byte	0x33
 2050 0d4b 1E       		.uleb128 0x1e
 2051 0d4c 01       		.uleb128 0x1
 2052 0d4d 51       		.byte	0x51
 2053 0d4e 01       		.uleb128 0x1
 2054 0d4f 40       		.byte	0x40
 2055 0d50 1E       		.uleb128 0x1e
 2056 0d51 01       		.uleb128 0x1
 2057 0d52 50       		.byte	0x50
 2058 0d53 02       		.uleb128 0x2
 2059 0d54 75       		.byte	0x75
 2060 0d55 00       		.sleb128 0
 2061 0d56 00       		.byte	0
 2062 0d57 1D       		.uleb128 0x1d
 2063 0d58 DC000000 		.4byte	.LVL16
 2064 0d5c 680E0000 		.4byte	0xe68
 2065 0d60 1E       		.uleb128 0x1e
 2066 0d61 01       		.uleb128 0x1
 2067 0d62 52       		.byte	0x52
 2068 0d63 01       		.uleb128 0x1
 2069 0d64 33       		.byte	0x33
 2070 0d65 1E       		.uleb128 0x1e
 2071 0d66 01       		.uleb128 0x1
 2072 0d67 51       		.byte	0x51
 2073 0d68 02       		.uleb128 0x2
 2074 0d69 08       		.byte	0x8
 2075 0d6a 20       		.byte	0x20
 2076 0d6b 1E       		.uleb128 0x1e
 2077 0d6c 01       		.uleb128 0x1
 2078 0d6d 50       		.byte	0x50
 2079 0d6e 05       		.uleb128 0x5
 2080 0d6f 0C       		.byte	0xc
 2081 0d70 00080240 		.4byte	0x40020800
 2082 0d74 00       		.byte	0
 2083 0d75 00       		.byte	0
 2084 0d76 1C       		.uleb128 0x1c
 2085 0d77 5B000000 		.4byte	.LASF164
 2086 0d7b 01       		.byte	0x1
 2087 0d7c 2D       		.byte	0x2d
 2088 0d7d F0000000 		.4byte	.LFB131
 2089 0d81 1C000000 		.4byte	.LFE131-.LFB131
 2090 0d85 01       		.uleb128 0x1
 2091 0d86 9C       		.byte	0x9c
 2092 0d87 B10D0000 		.4byte	0xdb1
 2093 0d8b 20       		.uleb128 0x20
 2094 0d8c F6000000 		.4byte	.LVL17
 2095 0d90 7D0B0000 		.4byte	0xb7d
 2096 0d94 1F       		.uleb128 0x1f
 2097 0d95 FE000000 		.4byte	.LVL18
 2098 0d99 840E0000 		.4byte	0xe84
 2099 0d9d A70D0000 		.4byte	0xda7
 2100 0da1 1E       		.uleb128 0x1e
 2101 0da2 01       		.uleb128 0x1
 2102 0da3 51       		.byte	0x51
 2103 0da4 01       		.uleb128 0x1
ARM GAS  /var/folders/28/j9jfyj_n4wz3qtvnym210h2c0000gn/T//ccXbR1jW.s 			page 38


 2104 0da5 30       		.byte	0x30
 2105 0da6 00       		.byte	0
 2106 0da7 21       		.uleb128 0x21
 2107 0da8 06010000 		.4byte	.LVL19
 2108 0dac 9B0E0000 		.4byte	0xe9b
 2109 0db0 00       		.byte	0
 2110 0db1 1C       		.uleb128 0x1c
 2111 0db2 B9000000 		.4byte	.LASF165
 2112 0db6 01       		.byte	0x1
 2113 0db7 85       		.byte	0x85
 2114 0db8 10010000 		.4byte	.LFB133
 2115 0dbc 28000000 		.4byte	.LFE133-.LFB133
 2116 0dc0 01       		.uleb128 0x1
 2117 0dc1 9C       		.byte	0x9c
 2118 0dc2 FC0D0000 		.4byte	0xdfc
 2119 0dc6 1F       		.uleb128 0x1f
 2120 0dc7 1A010000 		.4byte	.LVL20
 2121 0dcb A30E0000 		.4byte	0xea3
 2122 0dcf DA0D0000 		.4byte	0xdda
 2123 0dd3 1E       		.uleb128 0x1e
 2124 0dd4 01       		.uleb128 0x1
 2125 0dd5 50       		.byte	0x50
 2126 0dd6 02       		.uleb128 0x2
 2127 0dd7 74       		.byte	0x74
 2128 0dd8 00       		.sleb128 0
 2129 0dd9 00       		.byte	0
 2130 0dda 1D       		.uleb128 0x1d
 2131 0ddb 2A010000 		.4byte	.LVL21
 2132 0ddf B50E0000 		.4byte	0xeb5
 2133 0de3 1E       		.uleb128 0x1e
 2134 0de4 01       		.uleb128 0x1
 2135 0de5 53       		.byte	0x53
 2136 0de6 01       		.uleb128 0x1
 2137 0de7 31       		.byte	0x31
 2138 0de8 1E       		.uleb128 0x1e
 2139 0de9 01       		.uleb128 0x1
 2140 0dea 52       		.byte	0x52
 2141 0deb 05       		.uleb128 0x5
 2142 0dec 03       		.byte	0x3
 2143 0ded 00000000 		.4byte	.LANCHOR1
 2144 0df1 1E       		.uleb128 0x1e
 2145 0df2 01       		.uleb128 0x1
 2146 0df3 51       		.byte	0x51
 2147 0df4 05       		.uleb128 0x5
 2148 0df5 03       		.byte	0x3
 2149 0df6 00000000 		.4byte	.LANCHOR0
 2150 0dfa 00       		.byte	0
 2151 0dfb 00       		.byte	0
 2152 0dfc 22       		.uleb128 0x22
 2153 0dfd 66020000 		.4byte	.LASF177
 2154 0e01 01       		.byte	0x1
 2155 0e02 6B       		.byte	0x6b
 2156 0e03 3E0B0000 		.4byte	0xb3e
 2157 0e07 05       		.uleb128 0x5
 2158 0e08 03       		.byte	0x3
 2159 0e09 00000000 		.4byte	adcgrpcfg1
 2160 0e0d 23       		.uleb128 0x23
ARM GAS  /var/folders/28/j9jfyj_n4wz3qtvnym210h2c0000gn/T//ccXbR1jW.s 			page 39


 2161 0e0e 9B000000 		.4byte	.LASF166
 2162 0e12 0F       		.byte	0xf
 2163 0e13 DF07     		.2byte	0x7df
 2164 0e15 7D040000 		.4byte	0x47d
 2165 0e19 23       		.uleb128 0x23
 2166 0e1a EA040000 		.4byte	.LASF167
 2167 0e1e 0E       		.byte	0xe
 2168 0e1f 1802     		.2byte	0x218
 2169 0e21 74090000 		.4byte	0x974
 2170 0e25 11       		.uleb128 0x11
 2171 0e26 69000000 		.4byte	0x69
 2172 0e2a 350E0000 		.4byte	0xe35
 2173 0e2e 12       		.uleb128 0x12
 2174 0e2f D7030000 		.4byte	0x3d7
 2175 0e33 0F       		.byte	0xf
 2176 0e34 00       		.byte	0
 2177 0e35 24       		.uleb128 0x24
 2178 0e36 CC050000 		.4byte	.LASF168
 2179 0e3a 01       		.byte	0x1
 2180 0e3b 64       		.byte	0x64
 2181 0e3c 250E0000 		.4byte	0xe25
 2182 0e40 05       		.uleb128 0x5
 2183 0e41 03       		.byte	0x3
 2184 0e42 00000000 		.4byte	adcvalues
 2185 0e46 24       		.uleb128 0x24
 2186 0e47 28050000 		.4byte	.LASF169
 2187 0e4b 01       		.byte	0x1
 2188 0e4c 19       		.byte	0x19
 2189 0e4d 15040000 		.4byte	0x415
 2190 0e51 05       		.uleb128 0x5
 2191 0e52 03       		.byte	0x3
 2192 0e53 00000000 		.4byte	Mutex_DMAStream_1_7
 2193 0e57 25       		.uleb128 0x25
 2194 0e58 EC050000 		.4byte	.LASF170
 2195 0e5c 09       		.byte	0x9
 2196 0e5d 38       		.byte	0x38
 2197 0e5e 680E0000 		.4byte	0xe68
 2198 0e62 1B       		.uleb128 0x1b
 2199 0e63 67040000 		.4byte	0x467
 2200 0e67 00       		.byte	0
 2201 0e68 26       		.uleb128 0x26
 2202 0e69 A3050000 		.4byte	.LASF171
 2203 0e6d 0C       		.byte	0xc
 2204 0e6e C201     		.2byte	0x1c2
 2205 0e70 840E0000 		.4byte	0xe84
 2206 0e74 1B       		.uleb128 0x1b
 2207 0e75 F1080000 		.4byte	0x8f1
 2208 0e79 1B       		.uleb128 0x1b
 2209 0e7a DB080000 		.4byte	0x8db
 2210 0e7e 1B       		.uleb128 0x1b
 2211 0e7f E6080000 		.4byte	0x8e6
 2212 0e83 00       		.byte	0
 2213 0e84 26       		.uleb128 0x26
 2214 0e85 70030000 		.4byte	.LASF172
 2215 0e89 0D       		.byte	0xd
 2216 0e8a 1E01     		.2byte	0x11e
 2217 0e8c 9B0E0000 		.4byte	0xe9b
ARM GAS  /var/folders/28/j9jfyj_n4wz3qtvnym210h2c0000gn/T//ccXbR1jW.s 			page 40


 2218 0e90 1B       		.uleb128 0x1b
 2219 0e91 370A0000 		.4byte	0xa37
 2220 0e95 1B       		.uleb128 0x1b
 2221 0e96 2D0B0000 		.4byte	0xb2d
 2222 0e9a 00       		.byte	0
 2223 0e9b 27       		.uleb128 0x27
 2224 0e9c 3E000000 		.4byte	.LASF178
 2225 0ea0 0E       		.byte	0xe
 2226 0ea1 2B02     		.2byte	0x22b
 2227 0ea3 26       		.uleb128 0x26
 2228 0ea4 92070000 		.4byte	.LASF173
 2229 0ea8 0D       		.byte	0xd
 2230 0ea9 2801     		.2byte	0x128
 2231 0eab B50E0000 		.4byte	0xeb5
 2232 0eaf 1B       		.uleb128 0x1b
 2233 0eb0 370A0000 		.4byte	0xa37
 2234 0eb4 00       		.byte	0
 2235 0eb5 28       		.uleb128 0x28
 2236 0eb6 B9050000 		.4byte	.LASF179
 2237 0eba 0D       		.byte	0xd
 2238 0ebb 2001     		.2byte	0x120
 2239 0ebd 1B       		.uleb128 0x1b
 2240 0ebe 370A0000 		.4byte	0xa37
 2241 0ec2 1B       		.uleb128 0x1b
 2242 0ec3 380B0000 		.4byte	0xb38
 2243 0ec7 1B       		.uleb128 0x1b
 2244 0ec8 3D0A0000 		.4byte	0xa3d
 2245 0ecc 1B       		.uleb128 0x1b
 2246 0ecd 2C000000 		.4byte	0x2c
 2247 0ed1 00       		.byte	0
 2248 0ed2 00       		.byte	0
 2249              		.section	.debug_abbrev,"",%progbits
 2250              	.Ldebug_abbrev0:
 2251 0000 01       		.uleb128 0x1
 2252 0001 11       		.uleb128 0x11
 2253 0002 01       		.byte	0x1
 2254 0003 25       		.uleb128 0x25
 2255 0004 0E       		.uleb128 0xe
 2256 0005 13       		.uleb128 0x13
 2257 0006 0B       		.uleb128 0xb
 2258 0007 03       		.uleb128 0x3
 2259 0008 0E       		.uleb128 0xe
 2260 0009 1B       		.uleb128 0x1b
 2261 000a 0E       		.uleb128 0xe
 2262 000b 11       		.uleb128 0x11
 2263 000c 01       		.uleb128 0x1
 2264 000d 12       		.uleb128 0x12
 2265 000e 06       		.uleb128 0x6
 2266 000f 10       		.uleb128 0x10
 2267 0010 17       		.uleb128 0x17
 2268 0011 00       		.byte	0
 2269 0012 00       		.byte	0
 2270 0013 02       		.uleb128 0x2
 2271 0014 24       		.uleb128 0x24
 2272 0015 00       		.byte	0
 2273 0016 0B       		.uleb128 0xb
 2274 0017 0B       		.uleb128 0xb
ARM GAS  /var/folders/28/j9jfyj_n4wz3qtvnym210h2c0000gn/T//ccXbR1jW.s 			page 41


 2275 0018 3E       		.uleb128 0x3e
 2276 0019 0B       		.uleb128 0xb
 2277 001a 03       		.uleb128 0x3
 2278 001b 08       		.uleb128 0x8
 2279 001c 00       		.byte	0
 2280 001d 00       		.byte	0
 2281 001e 03       		.uleb128 0x3
 2282 001f 16       		.uleb128 0x16
 2283 0020 00       		.byte	0
 2284 0021 03       		.uleb128 0x3
 2285 0022 0E       		.uleb128 0xe
 2286 0023 3A       		.uleb128 0x3a
 2287 0024 0B       		.uleb128 0xb
 2288 0025 3B       		.uleb128 0x3b
 2289 0026 0B       		.uleb128 0xb
 2290 0027 49       		.uleb128 0x49
 2291 0028 13       		.uleb128 0x13
 2292 0029 00       		.byte	0
 2293 002a 00       		.byte	0
 2294 002b 04       		.uleb128 0x4
 2295 002c 24       		.uleb128 0x24
 2296 002d 00       		.byte	0
 2297 002e 0B       		.uleb128 0xb
 2298 002f 0B       		.uleb128 0xb
 2299 0030 3E       		.uleb128 0x3e
 2300 0031 0B       		.uleb128 0xb
 2301 0032 03       		.uleb128 0x3
 2302 0033 0E       		.uleb128 0xe
 2303 0034 00       		.byte	0
 2304 0035 00       		.byte	0
 2305 0036 05       		.uleb128 0x5
 2306 0037 13       		.uleb128 0x13
 2307 0038 01       		.byte	0x1
 2308 0039 03       		.uleb128 0x3
 2309 003a 0E       		.uleb128 0xe
 2310 003b 0B       		.uleb128 0xb
 2311 003c 0B       		.uleb128 0xb
 2312 003d 3A       		.uleb128 0x3a
 2313 003e 0B       		.uleb128 0xb
 2314 003f 3B       		.uleb128 0x3b
 2315 0040 0B       		.uleb128 0xb
 2316 0041 01       		.uleb128 0x1
 2317 0042 13       		.uleb128 0x13
 2318 0043 00       		.byte	0
 2319 0044 00       		.byte	0
 2320 0045 06       		.uleb128 0x6
 2321 0046 0D       		.uleb128 0xd
 2322 0047 00       		.byte	0
 2323 0048 03       		.uleb128 0x3
 2324 0049 0E       		.uleb128 0xe
 2325 004a 3A       		.uleb128 0x3a
 2326 004b 0B       		.uleb128 0xb
 2327 004c 3B       		.uleb128 0x3b
 2328 004d 0B       		.uleb128 0xb
 2329 004e 49       		.uleb128 0x49
 2330 004f 13       		.uleb128 0x13
 2331 0050 38       		.uleb128 0x38
ARM GAS  /var/folders/28/j9jfyj_n4wz3qtvnym210h2c0000gn/T//ccXbR1jW.s 			page 42


 2332 0051 0B       		.uleb128 0xb
 2333 0052 00       		.byte	0
 2334 0053 00       		.byte	0
 2335 0054 07       		.uleb128 0x7
 2336 0055 0D       		.uleb128 0xd
 2337 0056 00       		.byte	0
 2338 0057 03       		.uleb128 0x3
 2339 0058 08       		.uleb128 0x8
 2340 0059 3A       		.uleb128 0x3a
 2341 005a 0B       		.uleb128 0xb
 2342 005b 3B       		.uleb128 0x3b
 2343 005c 0B       		.uleb128 0xb
 2344 005d 49       		.uleb128 0x49
 2345 005e 13       		.uleb128 0x13
 2346 005f 38       		.uleb128 0x38
 2347 0060 0B       		.uleb128 0xb
 2348 0061 00       		.byte	0
 2349 0062 00       		.byte	0
 2350 0063 08       		.uleb128 0x8
 2351 0064 13       		.uleb128 0x13
 2352 0065 01       		.byte	0x1
 2353 0066 0B       		.uleb128 0xb
 2354 0067 0B       		.uleb128 0xb
 2355 0068 3A       		.uleb128 0x3a
 2356 0069 0B       		.uleb128 0xb
 2357 006a 3B       		.uleb128 0x3b
 2358 006b 0B       		.uleb128 0xb
 2359 006c 01       		.uleb128 0x1
 2360 006d 13       		.uleb128 0x13
 2361 006e 00       		.byte	0
 2362 006f 00       		.byte	0
 2363 0070 09       		.uleb128 0x9
 2364 0071 0F       		.uleb128 0xf
 2365 0072 00       		.byte	0
 2366 0073 0B       		.uleb128 0xb
 2367 0074 0B       		.uleb128 0xb
 2368 0075 49       		.uleb128 0x49
 2369 0076 13       		.uleb128 0x13
 2370 0077 00       		.byte	0
 2371 0078 00       		.byte	0
 2372 0079 0A       		.uleb128 0xa
 2373 007a 0F       		.uleb128 0xf
 2374 007b 00       		.byte	0
 2375 007c 0B       		.uleb128 0xb
 2376 007d 0B       		.uleb128 0xb
 2377 007e 00       		.byte	0
 2378 007f 00       		.byte	0
 2379 0080 0B       		.uleb128 0xb
 2380 0081 13       		.uleb128 0x13
 2381 0082 01       		.byte	0x1
 2382 0083 03       		.uleb128 0x3
 2383 0084 0E       		.uleb128 0xe
 2384 0085 0B       		.uleb128 0xb
 2385 0086 0B       		.uleb128 0xb
 2386 0087 3A       		.uleb128 0x3a
 2387 0088 0B       		.uleb128 0xb
 2388 0089 3B       		.uleb128 0x3b
ARM GAS  /var/folders/28/j9jfyj_n4wz3qtvnym210h2c0000gn/T//ccXbR1jW.s 			page 43


 2389 008a 05       		.uleb128 0x5
 2390 008b 01       		.uleb128 0x1
 2391 008c 13       		.uleb128 0x13
 2392 008d 00       		.byte	0
 2393 008e 00       		.byte	0
 2394 008f 0C       		.uleb128 0xc
 2395 0090 0D       		.uleb128 0xd
 2396 0091 00       		.byte	0
 2397 0092 03       		.uleb128 0x3
 2398 0093 08       		.uleb128 0x8
 2399 0094 3A       		.uleb128 0x3a
 2400 0095 0B       		.uleb128 0xb
 2401 0096 3B       		.uleb128 0x3b
 2402 0097 05       		.uleb128 0x5
 2403 0098 49       		.uleb128 0x49
 2404 0099 13       		.uleb128 0x13
 2405 009a 38       		.uleb128 0x38
 2406 009b 0B       		.uleb128 0xb
 2407 009c 00       		.byte	0
 2408 009d 00       		.byte	0
 2409 009e 0D       		.uleb128 0xd
 2410 009f 35       		.uleb128 0x35
 2411 00a0 00       		.byte	0
 2412 00a1 49       		.uleb128 0x49
 2413 00a2 13       		.uleb128 0x13
 2414 00a3 00       		.byte	0
 2415 00a4 00       		.byte	0
 2416 00a5 0E       		.uleb128 0xe
 2417 00a6 17       		.uleb128 0x17
 2418 00a7 01       		.byte	0x1
 2419 00a8 0B       		.uleb128 0xb
 2420 00a9 0B       		.uleb128 0xb
 2421 00aa 3A       		.uleb128 0x3a
 2422 00ab 0B       		.uleb128 0xb
 2423 00ac 3B       		.uleb128 0x3b
 2424 00ad 0B       		.uleb128 0xb
 2425 00ae 01       		.uleb128 0x1
 2426 00af 13       		.uleb128 0x13
 2427 00b0 00       		.byte	0
 2428 00b1 00       		.byte	0
 2429 00b2 0F       		.uleb128 0xf
 2430 00b3 0D       		.uleb128 0xd
 2431 00b4 00       		.byte	0
 2432 00b5 03       		.uleb128 0x3
 2433 00b6 0E       		.uleb128 0xe
 2434 00b7 3A       		.uleb128 0x3a
 2435 00b8 0B       		.uleb128 0xb
 2436 00b9 3B       		.uleb128 0x3b
 2437 00ba 0B       		.uleb128 0xb
 2438 00bb 49       		.uleb128 0x49
 2439 00bc 13       		.uleb128 0x13
 2440 00bd 00       		.byte	0
 2441 00be 00       		.byte	0
 2442 00bf 10       		.uleb128 0x10
 2443 00c0 26       		.uleb128 0x26
 2444 00c1 00       		.byte	0
 2445 00c2 49       		.uleb128 0x49
ARM GAS  /var/folders/28/j9jfyj_n4wz3qtvnym210h2c0000gn/T//ccXbR1jW.s 			page 44


 2446 00c3 13       		.uleb128 0x13
 2447 00c4 00       		.byte	0
 2448 00c5 00       		.byte	0
 2449 00c6 11       		.uleb128 0x11
 2450 00c7 01       		.uleb128 0x1
 2451 00c8 01       		.byte	0x1
 2452 00c9 49       		.uleb128 0x49
 2453 00ca 13       		.uleb128 0x13
 2454 00cb 01       		.uleb128 0x1
 2455 00cc 13       		.uleb128 0x13
 2456 00cd 00       		.byte	0
 2457 00ce 00       		.byte	0
 2458 00cf 12       		.uleb128 0x12
 2459 00d0 21       		.uleb128 0x21
 2460 00d1 00       		.byte	0
 2461 00d2 49       		.uleb128 0x49
 2462 00d3 13       		.uleb128 0x13
 2463 00d4 2F       		.uleb128 0x2f
 2464 00d5 0B       		.uleb128 0xb
 2465 00d6 00       		.byte	0
 2466 00d7 00       		.byte	0
 2467 00d8 13       		.uleb128 0x13
 2468 00d9 13       		.uleb128 0x13
 2469 00da 01       		.byte	0x1
 2470 00db 0B       		.uleb128 0xb
 2471 00dc 0B       		.uleb128 0xb
 2472 00dd 3A       		.uleb128 0x3a
 2473 00de 0B       		.uleb128 0xb
 2474 00df 3B       		.uleb128 0x3b
 2475 00e0 05       		.uleb128 0x5
 2476 00e1 01       		.uleb128 0x1
 2477 00e2 13       		.uleb128 0x13
 2478 00e3 00       		.byte	0
 2479 00e4 00       		.byte	0
 2480 00e5 14       		.uleb128 0x14
 2481 00e6 0D       		.uleb128 0xd
 2482 00e7 00       		.byte	0
 2483 00e8 03       		.uleb128 0x3
 2484 00e9 0E       		.uleb128 0xe
 2485 00ea 3A       		.uleb128 0x3a
 2486 00eb 0B       		.uleb128 0xb
 2487 00ec 3B       		.uleb128 0x3b
 2488 00ed 05       		.uleb128 0x5
 2489 00ee 49       		.uleb128 0x49
 2490 00ef 13       		.uleb128 0x13
 2491 00f0 38       		.uleb128 0x38
 2492 00f1 0B       		.uleb128 0xb
 2493 00f2 00       		.byte	0
 2494 00f3 00       		.byte	0
 2495 00f4 15       		.uleb128 0x15
 2496 00f5 16       		.uleb128 0x16
 2497 00f6 00       		.byte	0
 2498 00f7 03       		.uleb128 0x3
 2499 00f8 0E       		.uleb128 0xe
 2500 00f9 3A       		.uleb128 0x3a
 2501 00fa 0B       		.uleb128 0xb
 2502 00fb 3B       		.uleb128 0x3b
ARM GAS  /var/folders/28/j9jfyj_n4wz3qtvnym210h2c0000gn/T//ccXbR1jW.s 			page 45


 2503 00fc 05       		.uleb128 0x5
 2504 00fd 49       		.uleb128 0x49
 2505 00fe 13       		.uleb128 0x13
 2506 00ff 00       		.byte	0
 2507 0100 00       		.byte	0
 2508 0101 16       		.uleb128 0x16
 2509 0102 0D       		.uleb128 0xd
 2510 0103 00       		.byte	0
 2511 0104 03       		.uleb128 0x3
 2512 0105 08       		.uleb128 0x8
 2513 0106 3A       		.uleb128 0x3a
 2514 0107 0B       		.uleb128 0xb
 2515 0108 3B       		.uleb128 0x3b
 2516 0109 0B       		.uleb128 0xb
 2517 010a 49       		.uleb128 0x49
 2518 010b 13       		.uleb128 0x13
 2519 010c 00       		.byte	0
 2520 010d 00       		.byte	0
 2521 010e 17       		.uleb128 0x17
 2522 010f 04       		.uleb128 0x4
 2523 0110 01       		.byte	0x1
 2524 0111 0B       		.uleb128 0xb
 2525 0112 0B       		.uleb128 0xb
 2526 0113 3A       		.uleb128 0x3a
 2527 0114 0B       		.uleb128 0xb
 2528 0115 3B       		.uleb128 0x3b
 2529 0116 0B       		.uleb128 0xb
 2530 0117 01       		.uleb128 0x1
 2531 0118 13       		.uleb128 0x13
 2532 0119 00       		.byte	0
 2533 011a 00       		.byte	0
 2534 011b 18       		.uleb128 0x18
 2535 011c 28       		.uleb128 0x28
 2536 011d 00       		.byte	0
 2537 011e 03       		.uleb128 0x3
 2538 011f 0E       		.uleb128 0xe
 2539 0120 1C       		.uleb128 0x1c
 2540 0121 0D       		.uleb128 0xd
 2541 0122 00       		.byte	0
 2542 0123 00       		.byte	0
 2543 0124 19       		.uleb128 0x19
 2544 0125 04       		.uleb128 0x4
 2545 0126 01       		.byte	0x1
 2546 0127 0B       		.uleb128 0xb
 2547 0128 0B       		.uleb128 0xb
 2548 0129 3A       		.uleb128 0x3a
 2549 012a 0B       		.uleb128 0xb
 2550 012b 3B       		.uleb128 0x3b
 2551 012c 05       		.uleb128 0x5
 2552 012d 01       		.uleb128 0x1
 2553 012e 13       		.uleb128 0x13
 2554 012f 00       		.byte	0
 2555 0130 00       		.byte	0
 2556 0131 1A       		.uleb128 0x1a
 2557 0132 15       		.uleb128 0x15
 2558 0133 01       		.byte	0x1
 2559 0134 27       		.uleb128 0x27
ARM GAS  /var/folders/28/j9jfyj_n4wz3qtvnym210h2c0000gn/T//ccXbR1jW.s 			page 46


 2560 0135 19       		.uleb128 0x19
 2561 0136 01       		.uleb128 0x1
 2562 0137 13       		.uleb128 0x13
 2563 0138 00       		.byte	0
 2564 0139 00       		.byte	0
 2565 013a 1B       		.uleb128 0x1b
 2566 013b 05       		.uleb128 0x5
 2567 013c 00       		.byte	0
 2568 013d 49       		.uleb128 0x49
 2569 013e 13       		.uleb128 0x13
 2570 013f 00       		.byte	0
 2571 0140 00       		.byte	0
 2572 0141 1C       		.uleb128 0x1c
 2573 0142 2E       		.uleb128 0x2e
 2574 0143 01       		.byte	0x1
 2575 0144 3F       		.uleb128 0x3f
 2576 0145 19       		.uleb128 0x19
 2577 0146 03       		.uleb128 0x3
 2578 0147 0E       		.uleb128 0xe
 2579 0148 3A       		.uleb128 0x3a
 2580 0149 0B       		.uleb128 0xb
 2581 014a 3B       		.uleb128 0x3b
 2582 014b 0B       		.uleb128 0xb
 2583 014c 27       		.uleb128 0x27
 2584 014d 19       		.uleb128 0x19
 2585 014e 11       		.uleb128 0x11
 2586 014f 01       		.uleb128 0x1
 2587 0150 12       		.uleb128 0x12
 2588 0151 06       		.uleb128 0x6
 2589 0152 40       		.uleb128 0x40
 2590 0153 18       		.uleb128 0x18
 2591 0154 9742     		.uleb128 0x2117
 2592 0156 19       		.uleb128 0x19
 2593 0157 01       		.uleb128 0x1
 2594 0158 13       		.uleb128 0x13
 2595 0159 00       		.byte	0
 2596 015a 00       		.byte	0
 2597 015b 1D       		.uleb128 0x1d
 2598 015c 898201   		.uleb128 0x4109
 2599 015f 01       		.byte	0x1
 2600 0160 11       		.uleb128 0x11
 2601 0161 01       		.uleb128 0x1
 2602 0162 9542     		.uleb128 0x2115
 2603 0164 19       		.uleb128 0x19
 2604 0165 31       		.uleb128 0x31
 2605 0166 13       		.uleb128 0x13
 2606 0167 00       		.byte	0
 2607 0168 00       		.byte	0
 2608 0169 1E       		.uleb128 0x1e
 2609 016a 8A8201   		.uleb128 0x410a
 2610 016d 00       		.byte	0
 2611 016e 02       		.uleb128 0x2
 2612 016f 18       		.uleb128 0x18
 2613 0170 9142     		.uleb128 0x2111
 2614 0172 18       		.uleb128 0x18
 2615 0173 00       		.byte	0
 2616 0174 00       		.byte	0
ARM GAS  /var/folders/28/j9jfyj_n4wz3qtvnym210h2c0000gn/T//ccXbR1jW.s 			page 47


 2617 0175 1F       		.uleb128 0x1f
 2618 0176 898201   		.uleb128 0x4109
 2619 0179 01       		.byte	0x1
 2620 017a 11       		.uleb128 0x11
 2621 017b 01       		.uleb128 0x1
 2622 017c 31       		.uleb128 0x31
 2623 017d 13       		.uleb128 0x13
 2624 017e 01       		.uleb128 0x1
 2625 017f 13       		.uleb128 0x13
 2626 0180 00       		.byte	0
 2627 0181 00       		.byte	0
 2628 0182 20       		.uleb128 0x20
 2629 0183 898201   		.uleb128 0x4109
 2630 0186 00       		.byte	0
 2631 0187 11       		.uleb128 0x11
 2632 0188 01       		.uleb128 0x1
 2633 0189 31       		.uleb128 0x31
 2634 018a 13       		.uleb128 0x13
 2635 018b 00       		.byte	0
 2636 018c 00       		.byte	0
 2637 018d 21       		.uleb128 0x21
 2638 018e 898201   		.uleb128 0x4109
 2639 0191 00       		.byte	0
 2640 0192 11       		.uleb128 0x11
 2641 0193 01       		.uleb128 0x1
 2642 0194 9542     		.uleb128 0x2115
 2643 0196 19       		.uleb128 0x19
 2644 0197 31       		.uleb128 0x31
 2645 0198 13       		.uleb128 0x13
 2646 0199 00       		.byte	0
 2647 019a 00       		.byte	0
 2648 019b 22       		.uleb128 0x22
 2649 019c 34       		.uleb128 0x34
 2650 019d 00       		.byte	0
 2651 019e 03       		.uleb128 0x3
 2652 019f 0E       		.uleb128 0xe
 2653 01a0 3A       		.uleb128 0x3a
 2654 01a1 0B       		.uleb128 0xb
 2655 01a2 3B       		.uleb128 0x3b
 2656 01a3 0B       		.uleb128 0xb
 2657 01a4 49       		.uleb128 0x49
 2658 01a5 13       		.uleb128 0x13
 2659 01a6 02       		.uleb128 0x2
 2660 01a7 18       		.uleb128 0x18
 2661 01a8 00       		.byte	0
 2662 01a9 00       		.byte	0
 2663 01aa 23       		.uleb128 0x23
 2664 01ab 34       		.uleb128 0x34
 2665 01ac 00       		.byte	0
 2666 01ad 03       		.uleb128 0x3
 2667 01ae 0E       		.uleb128 0xe
 2668 01af 3A       		.uleb128 0x3a
 2669 01b0 0B       		.uleb128 0xb
 2670 01b1 3B       		.uleb128 0x3b
 2671 01b2 05       		.uleb128 0x5
 2672 01b3 49       		.uleb128 0x49
 2673 01b4 13       		.uleb128 0x13
ARM GAS  /var/folders/28/j9jfyj_n4wz3qtvnym210h2c0000gn/T//ccXbR1jW.s 			page 48


 2674 01b5 3F       		.uleb128 0x3f
 2675 01b6 19       		.uleb128 0x19
 2676 01b7 3C       		.uleb128 0x3c
 2677 01b8 19       		.uleb128 0x19
 2678 01b9 00       		.byte	0
 2679 01ba 00       		.byte	0
 2680 01bb 24       		.uleb128 0x24
 2681 01bc 34       		.uleb128 0x34
 2682 01bd 00       		.byte	0
 2683 01be 03       		.uleb128 0x3
 2684 01bf 0E       		.uleb128 0xe
 2685 01c0 3A       		.uleb128 0x3a
 2686 01c1 0B       		.uleb128 0xb
 2687 01c2 3B       		.uleb128 0x3b
 2688 01c3 0B       		.uleb128 0xb
 2689 01c4 49       		.uleb128 0x49
 2690 01c5 13       		.uleb128 0x13
 2691 01c6 3F       		.uleb128 0x3f
 2692 01c7 19       		.uleb128 0x19
 2693 01c8 02       		.uleb128 0x2
 2694 01c9 18       		.uleb128 0x18
 2695 01ca 00       		.byte	0
 2696 01cb 00       		.byte	0
 2697 01cc 25       		.uleb128 0x25
 2698 01cd 2E       		.uleb128 0x2e
 2699 01ce 01       		.byte	0x1
 2700 01cf 3F       		.uleb128 0x3f
 2701 01d0 19       		.uleb128 0x19
 2702 01d1 03       		.uleb128 0x3
 2703 01d2 0E       		.uleb128 0xe
 2704 01d3 3A       		.uleb128 0x3a
 2705 01d4 0B       		.uleb128 0xb
 2706 01d5 3B       		.uleb128 0x3b
 2707 01d6 0B       		.uleb128 0xb
 2708 01d7 27       		.uleb128 0x27
 2709 01d8 19       		.uleb128 0x19
 2710 01d9 3C       		.uleb128 0x3c
 2711 01da 19       		.uleb128 0x19
 2712 01db 01       		.uleb128 0x1
 2713 01dc 13       		.uleb128 0x13
 2714 01dd 00       		.byte	0
 2715 01de 00       		.byte	0
 2716 01df 26       		.uleb128 0x26
 2717 01e0 2E       		.uleb128 0x2e
 2718 01e1 01       		.byte	0x1
 2719 01e2 3F       		.uleb128 0x3f
 2720 01e3 19       		.uleb128 0x19
 2721 01e4 03       		.uleb128 0x3
 2722 01e5 0E       		.uleb128 0xe
 2723 01e6 3A       		.uleb128 0x3a
 2724 01e7 0B       		.uleb128 0xb
 2725 01e8 3B       		.uleb128 0x3b
 2726 01e9 05       		.uleb128 0x5
 2727 01ea 27       		.uleb128 0x27
 2728 01eb 19       		.uleb128 0x19
 2729 01ec 3C       		.uleb128 0x3c
 2730 01ed 19       		.uleb128 0x19
ARM GAS  /var/folders/28/j9jfyj_n4wz3qtvnym210h2c0000gn/T//ccXbR1jW.s 			page 49


 2731 01ee 01       		.uleb128 0x1
 2732 01ef 13       		.uleb128 0x13
 2733 01f0 00       		.byte	0
 2734 01f1 00       		.byte	0
 2735 01f2 27       		.uleb128 0x27
 2736 01f3 2E       		.uleb128 0x2e
 2737 01f4 00       		.byte	0
 2738 01f5 3F       		.uleb128 0x3f
 2739 01f6 19       		.uleb128 0x19
 2740 01f7 03       		.uleb128 0x3
 2741 01f8 0E       		.uleb128 0xe
 2742 01f9 3A       		.uleb128 0x3a
 2743 01fa 0B       		.uleb128 0xb
 2744 01fb 3B       		.uleb128 0x3b
 2745 01fc 05       		.uleb128 0x5
 2746 01fd 27       		.uleb128 0x27
 2747 01fe 19       		.uleb128 0x19
 2748 01ff 3C       		.uleb128 0x3c
 2749 0200 19       		.uleb128 0x19
 2750 0201 00       		.byte	0
 2751 0202 00       		.byte	0
 2752 0203 28       		.uleb128 0x28
 2753 0204 2E       		.uleb128 0x2e
 2754 0205 01       		.byte	0x1
 2755 0206 3F       		.uleb128 0x3f
 2756 0207 19       		.uleb128 0x19
 2757 0208 03       		.uleb128 0x3
 2758 0209 0E       		.uleb128 0xe
 2759 020a 3A       		.uleb128 0x3a
 2760 020b 0B       		.uleb128 0xb
 2761 020c 3B       		.uleb128 0x3b
 2762 020d 05       		.uleb128 0x5
 2763 020e 27       		.uleb128 0x27
 2764 020f 19       		.uleb128 0x19
 2765 0210 3C       		.uleb128 0x3c
 2766 0211 19       		.uleb128 0x19
 2767 0212 00       		.byte	0
 2768 0213 00       		.byte	0
 2769 0214 00       		.byte	0
 2770              		.section	.debug_aranges,"",%progbits
 2771 0000 1C000000 		.4byte	0x1c
 2772 0004 0200     		.2byte	0x2
 2773 0006 00000000 		.4byte	.Ldebug_info0
 2774 000a 04       		.byte	0x4
 2775 000b 00       		.byte	0
 2776 000c 0000     		.2byte	0
 2777 000e 0000     		.2byte	0
 2778 0010 00000000 		.4byte	.Ltext0
 2779 0014 38010000 		.4byte	.Letext0-.Ltext0
 2780 0018 00000000 		.4byte	0
 2781 001c 00000000 		.4byte	0
 2782              		.section	.debug_line,"",%progbits
 2783              	.Ldebug_line0:
 2784 0000 A2030000 		.section	.debug_str,"MS",%progbits,1
 2784      02005803 
 2784      00000201 
 2784      FB0E0D00 
ARM GAS  /var/folders/28/j9jfyj_n4wz3qtvnym210h2c0000gn/T//ccXbR1jW.s 			page 50


 2784      01010101 
 2785              	.LASF74:
 2786 0000 4D304152 		.ascii	"M0AR\000"
 2786      00
 2787              	.LASF2:
 2788 0005 73697A65 		.ascii	"size_t\000"
 2788      5F7400
 2789              	.LASF53:
 2790 000c 7264796D 		.ascii	"rdymsg\000"
 2790      736700
 2791              	.LASF147:
 2792 0013 646D616D 		.ascii	"dmamode\000"
 2792      6F646500 
 2793              	.LASF132:
 2794 001b 61646373 		.ascii	"adcstate_t\000"
 2794      74617465 
 2794      5F7400
 2795              	.LASF111:
 2796 0026 76656374 		.ascii	"vector\000"
 2796      6F7200
 2797              	.LASF115:
 2798 002d 4F545950 		.ascii	"OTYPER\000"
 2798      455200
 2799              	.LASF3:
 2800 0034 5F5F7569 		.ascii	"__uint8_t\000"
 2800      6E74385F 
 2800      7400
 2801              	.LASF178:
 2802 003e 61646353 		.ascii	"adcSTM32EnableTSVREFE\000"
 2802      544D3332 
 2802      456E6162 
 2802      6C655453 
 2802      56524546 
 2803              	.LASF107:
 2804 0054 73747265 		.ascii	"stream\000"
 2804      616D00
 2805              	.LASF164:
 2806 005b 6164635F 		.ascii	"adc_init\000"
 2806      696E6974 
 2806      00
 2807              	.LASF114:
 2808 0064 4D4F4445 		.ascii	"MODER\000"
 2808      5200
 2809              	.LASF13:
 2810 006a 6C6F6E67 		.ascii	"long long unsigned int\000"
 2810      206C6F6E 
 2810      6720756E 
 2810      7369676E 
 2810      65642069 
 2811              	.LASF117:
 2812 0081 50555044 		.ascii	"PUPDR\000"
 2812      5200
 2813              	.LASF54:
 2814 0087 65786974 		.ascii	"exitcode\000"
 2814      636F6465 
 2814      00
 2815              	.LASF126:
ARM GAS  /var/folders/28/j9jfyj_n4wz3qtvnym210h2c0000gn/T//ccXbR1jW.s 			page 51


 2816 0090 4144435F 		.ascii	"ADC_UNINIT\000"
 2816      554E494E 
 2816      495400
 2817              	.LASF166:
 2818 009b 49544D5F 		.ascii	"ITM_RxBuffer\000"
 2818      52784275 
 2818      66666572 
 2818      00
 2819              	.LASF93:
 2820 00a8 41484231 		.ascii	"AHB1LPENR\000"
 2820      4C50454E 
 2820      5200
 2821              	.LASF29:
 2822 00b2 705F7072 		.ascii	"p_prio\000"
 2822      696F00
 2823              	.LASF165:
 2824 00b9 6164635F 		.ascii	"adc_convert\000"
 2824      636F6E76 
 2824      65727400 
 2825              	.LASF105:
 2826 00c5 44434B43 		.ascii	"DCKCFGR\000"
 2826      46475200 
 2827              	.LASF12:
 2828 00cd 6C6F6E67 		.ascii	"long long int\000"
 2828      206C6F6E 
 2828      6720696E 
 2828      7400
 2829              	.LASF1:
 2830 00db 7369676E 		.ascii	"signed char\000"
 2830      65642063 
 2830      68617200 
 2831              	.LASF118:
 2832 00e7 42535252 		.ascii	"BSRR\000"
 2832      00
 2833              	.LASF79:
 2834 00ec 41484231 		.ascii	"AHB1RSTR\000"
 2834      52535452 
 2834      00
 2835              	.LASF18:
 2836 00f5 626F6F6C 		.ascii	"bool_t\000"
 2836      5F7400
 2837              	.LASF50:
 2838 00fc 6D5F7175 		.ascii	"m_queue\000"
 2838      65756500 
 2839              	.LASF137:
 2840 0104 61646365 		.ascii	"adcerror_t\000"
 2840      72726F72 
 2840      5F7400
 2841              	.LASF146:
 2842 010f 646D6173 		.ascii	"dmastp\000"
 2842      747000
 2843              	.LASF106:
 2844 0116 5243435F 		.ascii	"RCC_TypeDef\000"
 2844      54797065 
 2844      44656600 
 2845              	.LASF139:
 2846 0122 73746174 		.ascii	"state\000"
ARM GAS  /var/folders/28/j9jfyj_n4wz3qtvnym210h2c0000gn/T//ccXbR1jW.s 			page 52


 2846      6500
 2847              	.LASF150:
 2848 0128 63697263 		.ascii	"circular\000"
 2848      756C6172 
 2848      00
 2849              	.LASF9:
 2850 0131 6C6F6E67 		.ascii	"long int\000"
 2850      20696E74 
 2850      00
 2851              	.LASF135:
 2852 013a 4144435F 		.ascii	"ADC_ERR_DMAFAILURE\000"
 2852      4552525F 
 2852      444D4146 
 2852      41494C55 
 2852      524500
 2853              	.LASF84:
 2854 014d 41504232 		.ascii	"APB2RSTR\000"
 2854      52535452 
 2854      00
 2855              	.LASF102:
 2856 0156 53534347 		.ascii	"SSCGR\000"
 2856      5200
 2857              	.LASF21:
 2858 015c 74737461 		.ascii	"tstate_t\000"
 2858      74655F74 
 2858      00
 2859              	.LASF149:
 2860 0165 61646365 		.ascii	"adcerrorcallback_t\000"
 2860      72726F72 
 2860      63616C6C 
 2860      6261636B 
 2860      5F7400
 2861              	.LASF31:
 2862 0178 705F6E65 		.ascii	"p_newer\000"
 2862      77657200 
 2863              	.LASF152:
 2864 0180 656E645F 		.ascii	"end_cb\000"
 2864      636200
 2865              	.LASF148:
 2866 0187 61646363 		.ascii	"adccallback_t\000"
 2866      616C6C62 
 2866      61636B5F 
 2866      7400
 2867              	.LASF122:
 2868 0195 4750494F 		.ascii	"GPIO_TypeDef\000"
 2868      5F547970 
 2868      65446566 
 2868      00
 2869              	.LASF176:
 2870 01a2 2F557365 		.ascii	"/Users/ryanmcgill/Documents/VONGON/SELECTOR/axoloti"
 2870      72732F72 
 2870      79616E6D 
 2870      6367696C 
 2870      6C2F446F 
 2871 01d5 2F666972 		.ascii	"/firmware\000"
 2871      6D776172 
 2871      6500
ARM GAS  /var/folders/28/j9jfyj_n4wz3qtvnym210h2c0000gn/T//ccXbR1jW.s 			page 53


 2872              	.LASF133:
 2873 01df 61646373 		.ascii	"adcsample_t\000"
 2873      616D706C 
 2873      655F7400 
 2874              	.LASF116:
 2875 01eb 4F535045 		.ascii	"OSPEEDR\000"
 2875      45445200 
 2876              	.LASF10:
 2877 01f3 5F5F7569 		.ascii	"__uint32_t\000"
 2877      6E743332 
 2877      5F7400
 2878              	.LASF45:
 2879 01fe 72656761 		.ascii	"regarm_t\000"
 2879      726D5F74 
 2879      00
 2880              	.LASF110:
 2881 0207 73656C66 		.ascii	"selfindex\000"
 2881      696E6465 
 2881      7800
 2882              	.LASF160:
 2883 0211 64756D6D 		.ascii	"dummy\000"
 2883      7900
 2884              	.LASF136:
 2885 0217 4144435F 		.ascii	"ADC_ERR_OVERFLOW\000"
 2885      4552525F 
 2885      4F564552 
 2885      464C4F57 
 2885      00
 2886              	.LASF129:
 2887 0228 4144435F 		.ascii	"ADC_ACTIVE\000"
 2887      41435449 
 2887      564500
 2888              	.LASF0:
 2889 0233 756E7369 		.ascii	"unsigned int\000"
 2889      676E6564 
 2889      20696E74 
 2889      00
 2890              	.LASF15:
 2891 0240 75696E74 		.ascii	"uint16_t\000"
 2891      31365F74 
 2891      00
 2892              	.LASF38:
 2893 0249 705F6D73 		.ascii	"p_msgqueue\000"
 2893      67717565 
 2893      756500
 2894              	.LASF88:
 2895 0254 41484233 		.ascii	"AHB3ENR\000"
 2895      454E5200 
 2896              	.LASF138:
 2897 025c 41444344 		.ascii	"ADCDriver\000"
 2897      72697665 
 2897      7200
 2898              	.LASF177:
 2899 0266 61646367 		.ascii	"adcgrpcfg1\000"
 2899      72706366 
 2899      673100
 2900              	.LASF119:
ARM GAS  /var/folders/28/j9jfyj_n4wz3qtvnym210h2c0000gn/T//ccXbR1jW.s 			page 54


 2901 0271 4C434B52 		.ascii	"LCKR\000"
 2901      00
 2902              	.LASF109:
 2903 0276 69736869 		.ascii	"ishift\000"
 2903      667400
 2904              	.LASF7:
 2905 027d 73686F72 		.ascii	"short unsigned int\000"
 2905      7420756E 
 2905      7369676E 
 2905      65642069 
 2905      6E7400
 2906              	.LASF97:
 2907 0290 41504231 		.ascii	"APB1LPENR\000"
 2907      4C50454E 
 2907      5200
 2908              	.LASF103:
 2909 029a 504C4C49 		.ascii	"PLLI2SCFGR\000"
 2909      32534346 
 2909      475200
 2910              	.LASF142:
 2911 02a5 64657074 		.ascii	"depth\000"
 2911      6800
 2912              	.LASF24:
 2913 02ab 6D73675F 		.ascii	"msg_t\000"
 2913      7400
 2914              	.LASF77:
 2915 02b1 504C4C43 		.ascii	"PLLCFGR\000"
 2915      46475200 
 2916              	.LASF128:
 2917 02b9 4144435F 		.ascii	"ADC_READY\000"
 2917      52454144 
 2917      5900
 2918              	.LASF76:
 2919 02c3 444D415F 		.ascii	"DMA_Stream_TypeDef\000"
 2919      53747265 
 2919      616D5F54 
 2919      79706544 
 2919      656600
 2920              	.LASF20:
 2921 02d6 746D6F64 		.ascii	"tmode_t\000"
 2921      655F7400 
 2922              	.LASF151:
 2923 02de 6E756D5F 		.ascii	"num_channels\000"
 2923      6368616E 
 2923      6E656C73 
 2923      00
 2924              	.LASF98:
 2925 02eb 41504232 		.ascii	"APB2LPENR\000"
 2925      4C50454E 
 2925      5200
 2926              	.LASF44:
 2927 02f5 54687265 		.ascii	"ThreadsList\000"
 2927      6164734C 
 2927      69737400 
 2928              	.LASF25:
 2929 0301 6576656E 		.ascii	"eventmask_t\000"
 2929      746D6173 
ARM GAS  /var/folders/28/j9jfyj_n4wz3qtvnym210h2c0000gn/T//ccXbR1jW.s 			page 55


 2929      6B5F7400 
 2930              	.LASF175:
 2931 030d 61786F6C 		.ascii	"axoloti_board.c\000"
 2931      6F74695F 
 2931      626F6172 
 2931      642E6300 
 2932              	.LASF143:
 2933 031d 67727070 		.ascii	"grpp\000"
 2933      00
 2934              	.LASF60:
 2935 0322 4A4F4652 		.ascii	"JOFR1\000"
 2935      3100
 2936              	.LASF61:
 2937 0328 4A4F4652 		.ascii	"JOFR2\000"
 2937      3200
 2938              	.LASF62:
 2939 032e 4A4F4652 		.ascii	"JOFR3\000"
 2939      3300
 2940              	.LASF141:
 2941 0334 73616D70 		.ascii	"samples\000"
 2941      6C657300 
 2942              	.LASF67:
 2943 033c 4A535152 		.ascii	"JSQR\000"
 2943      00
 2944              	.LASF48:
 2945 0341 73697A65 		.ascii	"sizetype\000"
 2945      74797065 
 2945      00
 2946              	.LASF72:
 2947 034a 4144435F 		.ascii	"ADC_TypeDef\000"
 2947      54797065 
 2947      44656600 
 2948              	.LASF49:
 2949 0356 4D757465 		.ascii	"Mutex\000"
 2949      7800
 2950              	.LASF27:
 2951 035c 705F6E65 		.ascii	"p_next\000"
 2951      787400
 2952              	.LASF123:
 2953 0363 696F706F 		.ascii	"ioportmask_t\000"
 2953      72746D61 
 2953      736B5F74 
 2953      00
 2954              	.LASF172:
 2955 0370 61646353 		.ascii	"adcStart\000"
 2955      74617274 
 2955      00
 2956              	.LASF32:
 2957 0379 705F6F6C 		.ascii	"p_older\000"
 2957      64657200 
 2958              	.LASF43:
 2959 0381 54687265 		.ascii	"ThreadsQueue\000"
 2959      61647351 
 2959      75657565 
 2959      00
 2960              	.LASF94:
 2961 038e 41484232 		.ascii	"AHB2LPENR\000"
ARM GAS  /var/folders/28/j9jfyj_n4wz3qtvnym210h2c0000gn/T//ccXbR1jW.s 			page 56


 2961      4C50454E 
 2961      5200
 2962              	.LASF58:
 2963 0398 534D5052 		.ascii	"SMPR1\000"
 2963      3100
 2964              	.LASF59:
 2965 039e 534D5052 		.ascii	"SMPR2\000"
 2965      3200
 2966              	.LASF52:
 2967 03a4 6D5F6E65 		.ascii	"m_next\000"
 2967      787400
 2968              	.LASF83:
 2969 03ab 41504231 		.ascii	"APB1RSTR\000"
 2969      52535452 
 2969      00
 2970              	.LASF64:
 2971 03b4 53515231 		.ascii	"SQR1\000"
 2971      00
 2972              	.LASF65:
 2973 03b9 53515232 		.ascii	"SQR2\000"
 2973      00
 2974              	.LASF66:
 2975 03be 53515233 		.ascii	"SQR3\000"
 2975      00
 2976              	.LASF121:
 2977 03c3 41465248 		.ascii	"AFRH\000"
 2977      00
 2978              	.LASF120:
 2979 03c8 4146524C 		.ascii	"AFRL\000"
 2979      00
 2980              	.LASF104:
 2981 03cd 504C4C53 		.ascii	"PLLSAICFGR\000"
 2981      41494346 
 2981      475200
 2982              	.LASF108:
 2983 03d8 69666372 		.ascii	"ifcr\000"
 2983      00
 2984              	.LASF82:
 2985 03dd 52455345 		.ascii	"RESERVED0\000"
 2985      52564544 
 2985      3000
 2986              	.LASF85:
 2987 03e7 52455345 		.ascii	"RESERVED1\000"
 2987      52564544 
 2987      3100
 2988              	.LASF89:
 2989 03f1 52455345 		.ascii	"RESERVED2\000"
 2989      52564544 
 2989      3200
 2990              	.LASF92:
 2991 03fb 52455345 		.ascii	"RESERVED3\000"
 2991      52564544 
 2991      3300
 2992              	.LASF96:
 2993 0405 52455345 		.ascii	"RESERVED4\000"
 2993      52564544 
 2993      3400
ARM GAS  /var/folders/28/j9jfyj_n4wz3qtvnym210h2c0000gn/T//ccXbR1jW.s 			page 57


 2994              	.LASF28:
 2995 040f 705F7072 		.ascii	"p_prev\000"
 2995      657600
 2996              	.LASF101:
 2997 0416 52455345 		.ascii	"RESERVED6\000"
 2997      52564544 
 2997      3600
 2998              	.LASF112:
 2999 0420 73746D33 		.ascii	"stm32_dma_stream_t\000"
 2999      325F646D 
 2999      615F7374 
 2999      7265616D 
 2999      5F7400
 3000              	.LASF23:
 3001 0433 74707269 		.ascii	"tprio_t\000"
 3001      6F5F7400 
 3002              	.LASF145:
 3003 043b 6D757465 		.ascii	"mutex\000"
 3003      7800
 3004              	.LASF19:
 3005 0441 5F426F6F 		.ascii	"_Bool\000"
 3005      6C00
 3006              	.LASF16:
 3007 0447 696E7433 		.ascii	"int32_t\000"
 3007      325F7400 
 3008              	.LASF4:
 3009 044f 756E7369 		.ascii	"unsigned char\000"
 3009      676E6564 
 3009      20636861 
 3009      7200
 3010              	.LASF41:
 3011 045d 705F6D74 		.ascii	"p_mtxlist\000"
 3011      786C6973 
 3011      7400
 3012              	.LASF5:
 3013 0467 73686F72 		.ascii	"short int\000"
 3013      7420696E 
 3013      7400
 3014              	.LASF34:
 3015 0471 705F7374 		.ascii	"p_state\000"
 3015      61746500 
 3016              	.LASF36:
 3017 0479 705F7072 		.ascii	"p_preempt\000"
 3017      65656D70 
 3017      7400
 3018              	.LASF153:
 3019 0483 6572726F 		.ascii	"error_cb\000"
 3019      725F6362 
 3019      00
 3020              	.LASF56:
 3021 048c 65776D61 		.ascii	"ewmask\000"
 3021      736B00
 3022              	.LASF35:
 3023 0493 705F666C 		.ascii	"p_flags\000"
 3023      61677300 
 3024              	.LASF162:
 3025 049b 61786F6C 		.ascii	"axoloti_board_init\000"
ARM GAS  /var/folders/28/j9jfyj_n4wz3qtvnym210h2c0000gn/T//ccXbR1jW.s 			page 58


 3025      6F74695F 
 3025      626F6172 
 3025      645F696E 
 3025      697400
 3026              	.LASF91:
 3027 04ae 41504232 		.ascii	"APB2ENR\000"
 3027      454E5200 
 3028              	.LASF81:
 3029 04b6 41484233 		.ascii	"AHB3RSTR\000"
 3029      52535452 
 3029      00
 3030              	.LASF26:
 3031 04bf 54687265 		.ascii	"Thread\000"
 3031      616400
 3032              	.LASF40:
 3033 04c6 705F6570 		.ascii	"p_epending\000"
 3033      656E6469 
 3033      6E6700
 3034              	.LASF113:
 3035 04d1 636C6561 		.ascii	"clear\000"
 3035      7200
 3036              	.LASF99:
 3037 04d7 52455345 		.ascii	"RESERVED5\000"
 3037      52564544 
 3037      3500
 3038              	.LASF17:
 3039 04e1 75696E74 		.ascii	"uint32_t\000"
 3039      33325F74 
 3039      00
 3040              	.LASF167:
 3041 04ea 41444344 		.ascii	"ADCD1\000"
 3041      3100
 3042              	.LASF161:
 3043 04f0 41444343 		.ascii	"ADCConfig\000"
 3043      6F6E6669 
 3043      6700
 3044              	.LASF22:
 3045 04fa 74736C69 		.ascii	"tslices_t\000"
 3045      6365735F 
 3045      7400
 3046              	.LASF11:
 3047 0504 6C6F6E67 		.ascii	"long unsigned int\000"
 3047      20756E73 
 3047      69676E65 
 3047      6420696E 
 3047      7400
 3048              	.LASF155:
 3049 0516 736D7072 		.ascii	"smpr2\000"
 3049      3200
 3050              	.LASF57:
 3051 051c 63686172 		.ascii	"char\000"
 3051      00
 3052              	.LASF140:
 3053 0521 636F6E66 		.ascii	"config\000"
 3053      696700
 3054              	.LASF169:
 3055 0528 4D757465 		.ascii	"Mutex_DMAStream_1_7\000"
ARM GAS  /var/folders/28/j9jfyj_n4wz3qtvnym210h2c0000gn/T//ccXbR1jW.s 			page 59


 3055      785F444D 
 3055      41537472 
 3055      65616D5F 
 3055      315F3700 
 3056              	.LASF6:
 3057 053c 5F5F7569 		.ascii	"__uint16_t\000"
 3057      6E743136 
 3057      5F7400
 3058              	.LASF80:
 3059 0547 41484232 		.ascii	"AHB2RSTR\000"
 3059      52535452 
 3059      00
 3060              	.LASF156:
 3061 0550 73717231 		.ascii	"sqr1\000"
 3061      00
 3062              	.LASF157:
 3063 0555 73717232 		.ascii	"sqr2\000"
 3063      00
 3064              	.LASF158:
 3065 055a 73717233 		.ascii	"sqr3\000"
 3065      00
 3066              	.LASF42:
 3067 055f 705F7265 		.ascii	"p_realprio\000"
 3067      616C7072 
 3067      696F00
 3068              	.LASF8:
 3069 056a 5F5F696E 		.ascii	"__int32_t\000"
 3069      7433325F 
 3069      7400
 3070              	.LASF144:
 3071 0574 74687265 		.ascii	"thread\000"
 3071      616400
 3072              	.LASF73:
 3073 057b 4E445452 		.ascii	"NDTR\000"
 3073      00
 3074              	.LASF90:
 3075 0580 41504231 		.ascii	"APB1ENR\000"
 3075      454E5200 
 3076              	.LASF125:
 3077 0588 696F706F 		.ascii	"ioportid_t\000"
 3077      72746964 
 3077      5F7400
 3078              	.LASF87:
 3079 0593 41484232 		.ascii	"AHB2ENR\000"
 3079      454E5200 
 3080              	.LASF47:
 3081 059b 636F6E74 		.ascii	"context\000"
 3081      65787400 
 3082              	.LASF171:
 3083 05a3 5F70616C 		.ascii	"_pal_lld_setgroupmode\000"
 3083      5F6C6C64 
 3083      5F736574 
 3083      67726F75 
 3083      706D6F64 
 3084              	.LASF179:
 3085 05b9 61646353 		.ascii	"adcStartConversion\000"
 3085      74617274 
ARM GAS  /var/folders/28/j9jfyj_n4wz3qtvnym210h2c0000gn/T//ccXbR1jW.s 			page 60


 3085      436F6E76 
 3085      65727369 
 3085      6F6E00
 3086              	.LASF168:
 3087 05cc 61646376 		.ascii	"adcvalues\000"
 3087      616C7565 
 3087      7300
 3088              	.LASF46:
 3089 05d6 696E7463 		.ascii	"intctx\000"
 3089      747800
 3090              	.LASF75:
 3091 05dd 4D314152 		.ascii	"M1AR\000"
 3091      00
 3092              	.LASF131:
 3093 05e2 4144435F 		.ascii	"ADC_ERROR\000"
 3093      4552524F 
 3093      5200
 3094              	.LASF170:
 3095 05ec 63684D74 		.ascii	"chMtxInit\000"
 3095      78496E69 
 3095      7400
 3096              	.LASF163:
 3097 05f6 6164635F 		.ascii	"adc_configpads\000"
 3097      636F6E66 
 3097      69677061 
 3097      647300
 3098              	.LASF95:
 3099 0605 41484233 		.ascii	"AHB3LPENR\000"
 3099      4C50454E 
 3099      5200
 3100              	.LASF33:
 3101 060f 705F6E61 		.ascii	"p_name\000"
 3101      6D6500
 3102              	.LASF154:
 3103 0616 736D7072 		.ascii	"smpr1\000"
 3103      3100
 3104              	.LASF100:
 3105 061c 42444352 		.ascii	"BDCR\000"
 3105      00
 3106              	.LASF127:
 3107 0621 4144435F 		.ascii	"ADC_STOP\000"
 3107      53544F50 
 3107      00
 3108              	.LASF14:
 3109 062a 75696E74 		.ascii	"uint8_t\000"
 3109      385F7400 
 3110              	.LASF159:
 3111 0632 41444343 		.ascii	"ADCConversionGroup\000"
 3111      6F6E7665 
 3111      7273696F 
 3111      6E47726F 
 3111      757000
 3112              	.LASF63:
 3113 0645 4A4F4652 		.ascii	"JOFR4\000"
 3113      3400
 3114              	.LASF68:
 3115 064b 4A445231 		.ascii	"JDR1\000"
ARM GAS  /var/folders/28/j9jfyj_n4wz3qtvnym210h2c0000gn/T//ccXbR1jW.s 			page 61


 3115      00
 3116              	.LASF69:
 3117 0650 4A445232 		.ascii	"JDR2\000"
 3117      00
 3118              	.LASF70:
 3119 0655 4A445233 		.ascii	"JDR3\000"
 3119      00
 3120              	.LASF71:
 3121 065a 4A445234 		.ascii	"JDR4\000"
 3121      00
 3122              	.LASF55:
 3123 065f 77746F62 		.ascii	"wtobjp\000"
 3123      6A7000
 3124              	.LASF130:
 3125 0666 4144435F 		.ascii	"ADC_COMPLETE\000"
 3125      434F4D50 
 3125      4C455445 
 3125      00
 3126              	.LASF174:
 3127 0673 474E5520 		.ascii	"GNU C 4.9.3 20150529 (release) [ARM/embedded-4_9-br"
 3127      4320342E 
 3127      392E3320 
 3127      32303135 
 3127      30353239 
 3128 06a6 616E6368 		.ascii	"anch revision 224288] -mcpu=cortex-m4 -mfloat-abi=h"
 3128      20726576 
 3128      6973696F 
 3128      6E203232 
 3128      34323838 
 3129 06d9 61726420 		.ascii	"ard -mfpu=fpv4-sp-d16 -mno-thumb-interwork -mthumb "
 3129      2D6D6670 
 3129      753D6670 
 3129      76342D73 
 3129      702D6431 
 3130 070c 2D676764 		.ascii	"-ggdb -O2 -fomit-frame-pointer -falign-functions=16"
 3130      62202D4F 
 3130      32202D66 
 3130      6F6D6974 
 3130      2D667261 
 3131 073f 202D666E 		.ascii	" -fno-math-errno -fsingle-precision-constant\000"
 3131      6F2D6D61 
 3131      74682D65 
 3131      72726E6F 
 3131      202D6673 
 3132              	.LASF86:
 3133 076c 41484231 		.ascii	"AHB1ENR\000"
 3133      454E5200 
 3134              	.LASF134:
 3135 0774 6164635F 		.ascii	"adc_channels_num_t\000"
 3135      6368616E 
 3135      6E656C73 
 3135      5F6E756D 
 3135      5F7400
 3136              	.LASF78:
 3137 0787 43464752 		.ascii	"CFGR\000"
 3137      00
 3138              	.LASF39:
ARM GAS  /var/folders/28/j9jfyj_n4wz3qtvnym210h2c0000gn/T//ccXbR1jW.s 			page 62


 3139 078c 705F6D73 		.ascii	"p_msg\000"
 3139      6700
 3140              	.LASF173:
 3141 0792 61646353 		.ascii	"adcStopConversion\000"
 3141      746F7043 
 3141      6F6E7665 
 3141      7273696F 
 3141      6E00
 3142              	.LASF124:
 3143 07a4 696F6D6F 		.ascii	"iomode_t\000"
 3143      64655F74 
 3143      00
 3144              	.LASF51:
 3145 07ad 6D5F6F77 		.ascii	"m_owner\000"
 3145      6E657200 
 3146              	.LASF30:
 3147 07b5 705F6374 		.ascii	"p_ctx\000"
 3147      7800
 3148              	.LASF37:
 3149 07bb 705F7761 		.ascii	"p_waiting\000"
 3149      6974696E 
 3149      6700
 3150              		.ident	"GCC: (GNU Tools for ARM Embedded Processors) 4.9.3 20150529 (release) [ARM/embedded-4_9-br
ARM GAS  /var/folders/28/j9jfyj_n4wz3qtvnym210h2c0000gn/T//ccXbR1jW.s 			page 63


DEFINED SYMBOLS
                            *ABS*:0000000000000000 axoloti_board.c
/var/folders/28/j9jfyj_n4wz3qtvnym210h2c0000gn/T//ccXbR1jW.s:20     .text:0000000000000000 $t
/var/folders/28/j9jfyj_n4wz3qtvnym210h2c0000gn/T//ccXbR1jW.s:26     .text:0000000000000000 axoloti_board_init
/var/folders/28/j9jfyj_n4wz3qtvnym210h2c0000gn/T//ccXbR1jW.s:56     .text:0000000000000020 $d
                            *COM*:0000000000000010 Mutex_DMAStream_1_7
/var/folders/28/j9jfyj_n4wz3qtvnym210h2c0000gn/T//ccXbR1jW.s:61     .text:0000000000000028 $t
/var/folders/28/j9jfyj_n4wz3qtvnym210h2c0000gn/T//ccXbR1jW.s:67     .text:0000000000000030 adc_configpads
/var/folders/28/j9jfyj_n4wz3qtvnym210h2c0000gn/T//ccXbR1jW.s:192    .text:00000000000000dc $d
/var/folders/28/j9jfyj_n4wz3qtvnym210h2c0000gn/T//ccXbR1jW.s:198    .text:00000000000000e8 $t
/var/folders/28/j9jfyj_n4wz3qtvnym210h2c0000gn/T//ccXbR1jW.s:204    .text:00000000000000f0 adc_init
/var/folders/28/j9jfyj_n4wz3qtvnym210h2c0000gn/T//ccXbR1jW.s:233    .text:0000000000000108 $d
/var/folders/28/j9jfyj_n4wz3qtvnym210h2c0000gn/T//ccXbR1jW.s:237    .text:000000000000010c $t
/var/folders/28/j9jfyj_n4wz3qtvnym210h2c0000gn/T//ccXbR1jW.s:243    .text:0000000000000110 adc_convert
/var/folders/28/j9jfyj_n4wz3qtvnym210h2c0000gn/T//ccXbR1jW.s:274    .text:000000000000012c $d
/var/folders/28/j9jfyj_n4wz3qtvnym210h2c0000gn/T//ccXbR1jW.s:305    .sram2:0000000000000000 adcvalues
/var/folders/28/j9jfyj_n4wz3qtvnym210h2c0000gn/T//ccXbR1jW.s:283    .rodata:0000000000000000 $d
/var/folders/28/j9jfyj_n4wz3qtvnym210h2c0000gn/T//ccXbR1jW.s:287    .rodata:0000000000000000 adcgrpcfg1
/var/folders/28/j9jfyj_n4wz3qtvnym210h2c0000gn/T//ccXbR1jW.s:301    .sram2:0000000000000000 $d
                     .debug_frame:0000000000000010 $d

UNDEFINED SYMBOLS
chMtxInit
_pal_lld_setgroupmode
adcStart
adcSTM32EnableTSVREFE
ADCD1
adcStopConversion
adcStartConversion
