ARM GAS  /var/folders/28/j9jfyj_n4wz3qtvnym210h2c0000gn/T//ccXbR1jW.s 			page 1


   1              		.syntax unified
   2              		.cpu cortex-m4
   3              		.eabi_attribute 27, 1
   4              		.eabi_attribute 28, 1
   5              		.fpu fpv4-sp-d16
   6              		.eabi_attribute 20, 1
   7              		.eabi_attribute 21, 1
   8              		.eabi_attribute 23, 3
   9              		.eabi_attribute 24, 1
  10              		.eabi_attribute 25, 1
  11              		.eabi_attribute 26, 1
  12              		.eabi_attribute 30, 2
  13              		.eabi_attribute 34, 1
  14              		.eabi_attribute 18, 4
  15              		.thumb
  16              		.file	"axoloti_board.c"
  17              		.text
  18              	.Ltext0:
  19              		.cfi_sections	.debug_frame
  20              		.align	2
  21              		.p2align 4,,15
  22              		.global	axoloti_board_init
  23              		.thumb
  24              		.thumb_func
  25              		.type	axoloti_board_init, %function
  26              	axoloti_board_init:
  27              	.LFB130:
  28              		.file 1 "axoloti_board.c"
  29              		.loc 1 27 0
  30              		.cfi_startproc
  31              		@ args = 0, pretend = 0, frame = 0
  32              		@ frame_needed = 0, uses_anonymous_args = 0
  33              		@ link register save eliminated.
  34              		.loc 1 31 0
  35 0000 074B     		ldr	r3, .L2
  36              		.loc 1 36 0
  37 0002 0848     		ldr	r0, .L2+4
  38              		.loc 1 31 0
  39 0004 1A6B     		ldr	r2, [r3, #48]
  40 0006 42F40002 		orr	r2, r2, #8388608
  41 000a 1A63     		str	r2, [r3, #48]
  42              		.loc 1 32 0
  43 000c 1A69     		ldr	r2, [r3, #16]
  44 000e 42F40002 		orr	r2, r2, #8388608
  45 0012 1A61     		str	r2, [r3, #16]
  46              		.loc 1 33 0
  47 0014 1A69     		ldr	r2, [r3, #16]
  48 0016 22F40002 		bic	r2, r2, #8388608
  49 001a 1A61     		str	r2, [r3, #16]
  50              		.loc 1 36 0
  51 001c FFF7FEBF 		b	chMtxInit
  52              	.LVL0:
  53              	.L3:
  54              		.align	2
  55              	.L2:
  56 0020 00380240 		.word	1073887232
  57 0024 00000000 		.word	Mutex_DMAStream_1_7
ARM GAS  /var/folders/28/j9jfyj_n4wz3qtvnym210h2c0000gn/T//ccXbR1jW.s 			page 2


  58              		.cfi_endproc
  59              	.LFE130:
  60              		.size	axoloti_board_init, .-axoloti_board_init
  61              		.align	2
  62 0028 AFF30080 		.p2align 4,,15
  62      AFF30080 
  63              		.global	adc_configpads
  64              		.thumb
  65              		.thumb_func
  66              		.type	adc_configpads, %function
  67              	adc_configpads:
  68              	.LFB132:
  69              		.loc 1 51 0
  70              		.cfi_startproc
  71              		@ args = 0, pretend = 0, frame = 0
  72              		@ frame_needed = 0, uses_anonymous_args = 0
  73 0030 70B5     		push	{r4, r5, r6, lr}
  74              		.cfi_def_cfa_offset 16
  75              		.cfi_offset 4, -16
  76              		.cfi_offset 5, -12
  77              		.cfi_offset 6, -8
  78              		.cfi_offset 14, -4
  79              		.loc 1 53 0
  80 0032 2A4C     		ldr	r4, .L6
  81              		.loc 1 64 0
  82 0034 2A4E     		ldr	r6, .L6+4
  83              		.loc 1 67 0
  84 0036 2B4D     		ldr	r5, .L6+8
  85              		.loc 1 53 0
  86 0038 2046     		mov	r0, r4
  87 003a 0121     		movs	r1, #1
  88 003c 0322     		movs	r2, #3
  89 003e FFF7FEFF 		bl	_pal_lld_setgroupmode
  90              	.LVL1:
  91              		.loc 1 54 0
  92 0042 2046     		mov	r0, r4
  93 0044 0221     		movs	r1, #2
  94 0046 0322     		movs	r2, #3
  95 0048 FFF7FEFF 		bl	_pal_lld_setgroupmode
  96              	.LVL2:
  97              		.loc 1 56 0
  98 004c 2046     		mov	r0, r4
  99 004e 0421     		movs	r1, #4
 100 0050 0322     		movs	r2, #3
 101 0052 FFF7FEFF 		bl	_pal_lld_setgroupmode
 102              	.LVL3:
 103              		.loc 1 57 0
 104 0056 2046     		mov	r0, r4
 105 0058 0821     		movs	r1, #8
 106 005a 0322     		movs	r2, #3
 107 005c FFF7FEFF 		bl	_pal_lld_setgroupmode
 108              	.LVL4:
 109              		.loc 1 59 0
 110 0060 2046     		mov	r0, r4
 111 0062 1021     		movs	r1, #16
 112 0064 0322     		movs	r2, #3
 113 0066 FFF7FEFF 		bl	_pal_lld_setgroupmode
ARM GAS  /var/folders/28/j9jfyj_n4wz3qtvnym210h2c0000gn/T//ccXbR1jW.s 			page 3


 114              	.LVL5:
 115              		.loc 1 60 0
 116 006a 2046     		mov	r0, r4
 117 006c 2021     		movs	r1, #32
 118 006e 0322     		movs	r2, #3
 119 0070 FFF7FEFF 		bl	_pal_lld_setgroupmode
 120              	.LVL6:
 121              		.loc 1 61 0
 122 0074 2046     		mov	r0, r4
 123 0076 4021     		movs	r1, #64
 124 0078 0322     		movs	r2, #3
 125 007a FFF7FEFF 		bl	_pal_lld_setgroupmode
 126              	.LVL7:
 127              		.loc 1 62 0
 128 007e 2046     		mov	r0, r4
 129 0080 8021     		movs	r1, #128
 130 0082 0322     		movs	r2, #3
 131 0084 FFF7FEFF 		bl	_pal_lld_setgroupmode
 132              	.LVL8:
 133              		.loc 1 64 0
 134 0088 3046     		mov	r0, r6
 135 008a 0121     		movs	r1, #1
 136 008c 0322     		movs	r2, #3
 137 008e FFF7FEFF 		bl	_pal_lld_setgroupmode
 138              	.LVL9:
 139              		.loc 1 65 0
 140 0092 3046     		mov	r0, r6
 141 0094 0221     		movs	r1, #2
 142 0096 0322     		movs	r2, #3
 143 0098 FFF7FEFF 		bl	_pal_lld_setgroupmode
 144              	.LVL10:
 145              		.loc 1 67 0
 146 009c 2846     		mov	r0, r5
 147 009e 0121     		movs	r1, #1
 148 00a0 0322     		movs	r2, #3
 149 00a2 FFF7FEFF 		bl	_pal_lld_setgroupmode
 150              	.LVL11:
 151              		.loc 1 68 0
 152 00a6 2846     		mov	r0, r5
 153 00a8 0221     		movs	r1, #2
 154 00aa 0322     		movs	r2, #3
 155 00ac FFF7FEFF 		bl	_pal_lld_setgroupmode
 156              	.LVL12:
 157              		.loc 1 69 0
 158 00b0 2846     		mov	r0, r5
 159 00b2 0421     		movs	r1, #4
 160 00b4 0322     		movs	r2, #3
 161 00b6 FFF7FEFF 		bl	_pal_lld_setgroupmode
 162              	.LVL13:
 163              		.loc 1 70 0
 164 00ba 2846     		mov	r0, r5
 165 00bc 0821     		movs	r1, #8
 166 00be 0322     		movs	r2, #3
 167 00c0 FFF7FEFF 		bl	_pal_lld_setgroupmode
 168              	.LVL14:
 169              		.loc 1 71 0
 170 00c4 2846     		mov	r0, r5
ARM GAS  /var/folders/28/j9jfyj_n4wz3qtvnym210h2c0000gn/T//ccXbR1jW.s 			page 4


 171 00c6 1021     		movs	r1, #16
 172 00c8 0322     		movs	r2, #3
 173 00ca FFF7FEFF 		bl	_pal_lld_setgroupmode
 174              	.LVL15:
 175              		.loc 1 72 0
 176 00ce 2846     		mov	r0, r5
 177 00d0 2021     		movs	r1, #32
 178 00d2 0322     		movs	r2, #3
 179              		.loc 1 95 0
 180 00d4 BDE87040 		pop	{r4, r5, r6, lr}
 181              		.cfi_restore 14
 182              		.cfi_restore 6
 183              		.cfi_restore 5
 184              		.cfi_restore 4
 185              		.cfi_def_cfa_offset 0
 186              		.loc 1 72 0
 187 00d8 FFF7FEBF 		b	_pal_lld_setgroupmode
 188              	.LVL16:
 189              	.L7:
 190              		.align	2
 191              	.L6:
 192 00dc 00000240 		.word	1073872896
 193 00e0 00040240 		.word	1073873920
 194 00e4 00080240 		.word	1073874944
 195              		.cfi_endproc
 196              	.LFE132:
 197              		.size	adc_configpads, .-adc_configpads
 198              		.align	2
 199 00e8 AFF30080 		.p2align 4,,15
 199      AFF30080 
 200              		.global	adc_init
 201              		.thumb
 202              		.thumb_func
 203              		.type	adc_init, %function
 204              	adc_init:
 205              	.LFB131:
 206              		.loc 1 45 0
 207              		.cfi_startproc
 208              		@ args = 0, pretend = 0, frame = 0
 209              		@ frame_needed = 0, uses_anonymous_args = 0
 210 00f0 08B5     		push	{r3, lr}
 211              		.cfi_def_cfa_offset 8
 212              		.cfi_offset 3, -8
 213              		.cfi_offset 14, -4
 214              		.loc 1 46 0
 215 00f2 FFF7FEFF 		bl	adc_configpads
 216              	.LVL17:
 217              		.loc 1 47 0
 218 00f6 0448     		ldr	r0, .L10
 219 00f8 0021     		movs	r1, #0
 220 00fa FFF7FEFF 		bl	adcStart
 221              	.LVL18:
 222              		.loc 1 49 0
 223 00fe BDE80840 		pop	{r3, lr}
 224              		.cfi_restore 14
 225              		.cfi_restore 3
 226              		.cfi_def_cfa_offset 0
ARM GAS  /var/folders/28/j9jfyj_n4wz3qtvnym210h2c0000gn/T//ccXbR1jW.s 			page 5


 227              		.loc 1 48 0
 228 0102 FFF7FEBF 		b	adcSTM32EnableTSVREFE
 229              	.LVL19:
 230              	.L11:
 231 0106 00BF     		.align	2
 232              	.L10:
 233 0108 00000000 		.word	ADCD1
 234              		.cfi_endproc
 235              	.LFE131:
 236              		.size	adc_init, .-adc_init
 237              		.align	2
 238 010c AFF30080 		.p2align 4,,15
 239              		.global	adc_convert
 240              		.thumb
 241              		.thumb_func
 242              		.type	adc_convert, %function
 243              	adc_convert:
 244              	.LFB133:
 245              		.loc 1 133 0
 246              		.cfi_startproc
 247              		@ args = 0, pretend = 0, frame = 0
 248              		@ frame_needed = 0, uses_anonymous_args = 0
 249 0110 10B5     		push	{r4, lr}
 250              		.cfi_def_cfa_offset 8
 251              		.cfi_offset 4, -8
 252              		.cfi_offset 14, -4
 253              		.loc 1 134 0
 254 0112 064C     		ldr	r4, .L14
 255 0114 2046     		mov	r0, r4
 256 0116 FFF7FEFF 		bl	adcStopConversion
 257              	.LVL20:
 258              		.loc 1 135 0
 259 011a 2046     		mov	r0, r4
 260 011c 0449     		ldr	r1, .L14+4
 261 011e 054A     		ldr	r2, .L14+8
 262 0120 0123     		movs	r3, #1
 263              		.loc 1 136 0
 264 0122 BDE81040 		pop	{r4, lr}
 265              		.cfi_restore 14
 266              		.cfi_restore 4
 267              		.cfi_def_cfa_offset 0
 268              		.loc 1 135 0
 269 0126 FFF7FEBF 		b	adcStartConversion
 270              	.LVL21:
 271              	.L15:
 272 012a 00BF     		.align	2
 273              	.L14:
 274 012c 00000000 		.word	ADCD1
 275 0130 00000000 		.word	.LANCHOR0
 276 0134 00000000 		.word	.LANCHOR1
 277              		.cfi_endproc
 278              	.LFE133:
 279              		.size	adc_convert, .-adc_convert
 280              		.global	adcvalues
 281              		.comm	Mutex_DMAStream_1_7,16,4
 282              		.section	.rodata
 283              		.align	2
ARM GAS  /var/folders/28/j9jfyj_n4wz3qtvnym210h2c0000gn/T//ccXbR1jW.s 			page 6


 284              		.set	.LANCHOR0,. + 0
 285              		.type	adcgrpcfg1, %object
 286              		.size	adcgrpcfg1, 40
 287              	adcgrpcfg1:
 288 0000 00       		.byte	0
 289 0001 00       		.space	1
 290 0002 1000     		.short	16
 291 0004 00000000 		.word	0
 292 0008 00000000 		.word	0
 293 000c 00000000 		.word	0
 294 0010 00000040 		.word	1073741824
 295 0014 2449DA00 		.word	14305572
 296 0018 24499224 		.word	613566756
 297 001c ACB9F800 		.word	16300460
 298 0020 E6A0A416 		.word	379887846
 299 0024 2088410A 		.word	172066848
 300              		.section	.sram2,"aw",%progbits
 301              		.align	2
 302              		.set	.LANCHOR1,. + 0
 303              		.type	adcvalues, %object
 304              		.size	adcvalues, 32
 305              	adcvalues:
 306 0000 00000000 		.space	32
 306      00000000 
 306      00000000 
 306      00000000 
 306      00000000 
 307              		.text
 308              	.Letext0:
 309              		.file 2 "/Applications/axoloti_runtime/platform_osx/lib/gcc/arm-none-eabi/4.9.3/include/stddef.h"
 310              		.file 3 "/Applications/axoloti_runtime/platform_osx/arm-none-eabi/include/machine/_default_types.h
 311              		.file 4 "/Applications/axoloti_runtime/platform_osx/arm-none-eabi/include/sys/_stdint.h"
 312              		.file 5 "/Applications/Axoloti.app/Contents/Java/chibios/os/ports/GCC/ARMCMx/chtypes.h"
 313              		.file 6 "/Applications/Axoloti.app/Contents/Java/chibios/os/kernel/include/chlists.h"
 314              		.file 7 "/Applications/Axoloti.app/Contents/Java/chibios/os/kernel/include/chthreads.h"
 315              		.file 8 "/Applications/Axoloti.app/Contents/Java/chibios/os/ports/GCC/ARMCMx/chcore_v7m.h"
 316              		.file 9 "/Applications/Axoloti.app/Contents/Java/chibios/os/kernel/include/chmtx.h"
 317              		.file 10 "/Applications/Axoloti.app/Contents/Java/chibios/os/hal/platforms/STM32F4xx/stm32f4xx.h"
 318              		.file 11 "/Applications/Axoloti.app/Contents/Java/chibios/os/hal/platforms/STM32F4xx/stm32_dma.h"
 319              		.file 12 "/Applications/Axoloti.app/Contents/Java/chibios/os/hal/platforms/STM32/GPIOv2/pal_lld.h"
 320              		.file 13 "/Applications/Axoloti.app/Contents/Java/chibios/os/hal/include/adc.h"
 321              		.file 14 "/Applications/Axoloti.app/Contents/Java/chibios/os/hal/platforms/STM32F4xx/adc_lld.h"
 322              		.file 15 "/Applications/Axoloti.app/Contents/Java/CMSIS//Include/core_cm4.h"