ARM GAS  /var/folders/28/j9jfyj_n4wz3qtvnym210h2c0000gn/T//cc4CtQEP.s 			page 1


   1              		.syntax unified
   2              		.cpu cortex-m4
   3              		.eabi_attribute 27, 1
   4              		.eabi_attribute 28, 1
   5              		.fpu fpv4-sp-d16
   6              		.eabi_attribute 20, 1
   7              		.eabi_attribute 21, 1
   8              		.eabi_attribute 23, 3
   9              		.eabi_attribute 24, 1
  10              		.eabi_attribute 25, 1
  11              		.eabi_attribute 26, 1
  12              		.eabi_attribute 30, 2
  13              		.eabi_attribute 34, 1
  14              		.eabi_attribute 18, 4
  15              		.thumb
  16              		.file	"codec.c"
  17              		.text
  18              	.Ltext0:
  19              		.cfi_sections	.debug_frame
  20              		.align	2
  21              		.p2align 4,,15
  22              		.thumb
  23              		.thumb_func
  24              		.type	dma_sai_a_interrupt, %function
  25              	dma_sai_a_interrupt:
  26              	.LFB142:
  27              		.file 1 "codec_ADAU1961_SAI.c"
  28              		.loc 1 376 0
  29              		.cfi_startproc
  30              		@ args = 0, pretend = 0, frame = 0
  31              		@ frame_needed = 0, uses_anonymous_args = 0
  32              	.LVL0:
  33 0000 10B5     		push	{r4, lr}
  34              		.cfi_def_cfa_offset 8
  35              		.cfi_offset 4, -8
  36              		.cfi_offset 14, -4
  37              		.loc 1 380 0
  38 0002 0B4C     		ldr	r4, .L5
  39              		.loc 1 379 0
  40 0004 0B4A     		ldr	r2, .L5+4
  41              		.loc 1 380 0
  42 0006 2368     		ldr	r3, [r4]
  43              		.loc 1 379 0
  44 0008 5168     		ldr	r1, [r2, #4]
  45              	.LVL1:
  46              		.loc 1 380 0
  47 000a 1B68     		ldr	r3, [r3]
  48              		.loc 1 379 0
  49 000c 0A4A     		ldr	r2, .L5+8
  50              		.loc 1 380 0
  51 000e 1B68     		ldr	r3, [r3]
  52              		.loc 1 379 0
  53 0010 1160     		str	r1, [r2]
  54              		.loc 1 380 0
  55 0012 1B03     		lsls	r3, r3, #12
  56              		.loc 1 381 0
  57 0014 4CBF     		ite	mi
ARM GAS  /var/folders/28/j9jfyj_n4wz3qtvnym210h2c0000gn/T//cc4CtQEP.s 			page 2


  58 0016 0948     		ldrmi	r0, .L5+12
  59              	.LVL2:
  60              		.loc 1 384 0
  61 0018 0948     		ldrpl	r0, .L5+16
  62 001a 00F18001 		add	r1, r0, #128
  63 001e FFF7FEFF 		bl	computebufI
  64              	.LVL3:
  65              		.loc 1 386 0
  66 0022 2368     		ldr	r3, [r4]
  67 0024 197A     		ldrb	r1, [r3, #8]	@ zero_extendqisi2
  68 0026 5A68     		ldr	r2, [r3, #4]
  69 0028 3D23     		movs	r3, #61
  70 002a 8B40     		lsls	r3, r3, r1
  71 002c 1360     		str	r3, [r2]
  72 002e 10BD     		pop	{r4, pc}
  73              	.L6:
  74              		.align	2
  75              	.L5:
  76 0030 00000000 		.word	sai_a_dma
  77 0034 001000E0 		.word	-536866816
  78 0038 00000000 		.word	codec_interrupt_timestamp
  79 003c 00000000 		.word	.LANCHOR0
  80 0040 00010000 		.word	.LANCHOR0+256
  81              		.cfi_endproc
  82              	.LFE142:
  83              		.size	dma_sai_a_interrupt, .-dma_sai_a_interrupt
  84              		.align	2
  85 0044 AFF30080 		.p2align 4,,15
  85      AFF30080 
  85      AFF30080 
  86              		.global	codecStop
  87              		.thumb
  88              		.thumb_func
  89              		.type	codecStop, %function
  90              	codecStop:
  91              	.LFB131:
  92              		.file 2 "codec.c"
  93              		.loc 2 54 0
  94              		.cfi_startproc
  95              		@ args = 0, pretend = 0, frame = 0
  96              		@ frame_needed = 0, uses_anonymous_args = 0
  97              		@ link register save eliminated.
  98 0050 7047     		bx	lr
  99              		.cfi_endproc
 100              	.LFE131:
 101              		.size	codecStop, .-codecStop
 102 0052 00BF     		.align	2
 103 0054 AFF30080 		.p2align 4,,15
 103      AFF30080 
 103      AFF30080 
 104              		.global	codec_clearbuffer
 105              		.thumb
 106              		.thumb_func
 107              		.type	codec_clearbuffer, %function
 108              	codec_clearbuffer:
 109              	.LFB132:
 110              		.loc 2 60 0
ARM GAS  /var/folders/28/j9jfyj_n4wz3qtvnym210h2c0000gn/T//cc4CtQEP.s 			page 3


 111              		.cfi_startproc
 112              		@ args = 0, pretend = 0, frame = 0
 113              		@ frame_needed = 0, uses_anonymous_args = 0
 114              		@ link register save eliminated.
 115              	.LVL4:
 116 0060 064B     		ldr	r3, .L12
 117              		.loc 2 63 0
 118 0062 0021     		movs	r1, #0
 119 0064 03F58072 		add	r2, r3, #256
 120 0068 03F18000 		add	r0, r3, #128
 121              	.LVL5:
 122              	.L9:
 123              		.loc 2 63 0 is_stmt 0 discriminator 3
 124 006c 43F8041F 		str	r1, [r3, #4]!
 125              		.loc 2 62 0 is_stmt 1 discriminator 3
 126 0070 8342     		cmp	r3, r0
 127              		.loc 2 64 0 discriminator 3
 128 0072 42F8041F 		str	r1, [r2, #4]!
 129              		.loc 2 62 0 discriminator 3
 130 0076 F9D1     		bne	.L9
 131              		.loc 2 66 0
 132 0078 7047     		bx	lr
 133              	.L13:
 134 007a 00BF     		.align	2
 135              	.L12:
 136 007c 7C000000 		.word	.LANCHOR0+124
 137              		.cfi_endproc
 138              	.LFE132:
 139              		.size	codec_clearbuffer, .-codec_clearbuffer
 140              		.align	2
 141              		.p2align 4,,15
 142              		.global	codec_ADAU1961_hw_reset
 143              		.thumb
 144              		.thumb_func
 145              		.type	codec_ADAU1961_hw_reset, %function
 146              	codec_ADAU1961_hw_reset:
 147              	.LFB133:
 148              		.loc 1 45 0
 149              		.cfi_startproc
 150              		@ args = 0, pretend = 0, frame = 0
 151              		@ frame_needed = 0, uses_anonymous_args = 0
 152              		@ link register save eliminated.
 153 0080 7047     		bx	lr
 154              		.cfi_endproc
 155              	.LFE133:
 156              		.size	codec_ADAU1961_hw_reset, .-codec_ADAU1961_hw_reset
 157 0082 00BF     		.align	2
 158 0084 AFF30080 		.p2align 4,,15
 158      AFF30080 
 158      AFF30080 
 159              		.global	CheckI2CErrors
 160              		.thumb
 161              		.thumb_func
 162              		.type	CheckI2CErrors, %function
 163              	CheckI2CErrors:
 164              	.LFB134:
 165              		.loc 1 71 0
ARM GAS  /var/folders/28/j9jfyj_n4wz3qtvnym210h2c0000gn/T//cc4CtQEP.s 			page 4


 166              		.cfi_startproc
 167              		@ args = 0, pretend = 0, frame = 8
 168              		@ frame_needed = 0, uses_anonymous_args = 0
 169              		.loc 1 71 0
 170 0090 00B5     		push	{lr}
 171              		.cfi_def_cfa_offset 4
 172              		.cfi_offset 14, -4
 173              		.loc 1 73 0
 174 0092 0748     		ldr	r0, .L21
 175              		.loc 1 71 0
 176 0094 83B0     		sub	sp, sp, #12
 177              		.cfi_def_cfa_offset 16
 178              		.loc 1 73 0
 179 0096 FFF7FEFF 		bl	i2cGetErrors
 180              	.LVL6:
 181 009a 0190     		str	r0, [sp, #4]
 182              		.loc 1 74 0
 183 009c 019B     		ldr	r3, [sp, #4]
 184 009e 13B1     		cbz	r3, .L16
 185              		.loc 1 75 0
 186 00a0 0720     		movs	r0, #7
 187 00a2 FFF7FEFF 		bl	setErrorFlag
 188              	.LVL7:
 189              	.L16:
 190              		.loc 1 77 0
 191 00a6 019B     		ldr	r3, [sp, #4]
 192              		.loc 1 78 0
 193 00a8 03B0     		add	sp, sp, #12
 194              		.cfi_def_cfa_offset 4
 195              		@ sp needed
 196 00aa 5DF804FB 		ldr	pc, [sp], #4
 197              	.L22:
 198 00ae 00BF     		.align	2
 199              	.L21:
 200 00b0 00000000 		.word	I2CD2
 201              		.cfi_endproc
 202              	.LFE134:
 203              		.size	CheckI2CErrors, .-CheckI2CErrors
 204              		.align	2
 205 00b4 AFF30080 		.p2align 4,,15
 205      AFF30080 
 205      AFF30080 
 206              		.global	ADAU1961_I2CStart
 207              		.thumb
 208              		.thumb_func
 209              		.type	ADAU1961_I2CStart, %function
 210              	ADAU1961_I2CStart:
 211              	.LFB135:
 212              		.loc 1 80 0
 213              		.cfi_startproc
 214              		@ args = 0, pretend = 0, frame = 0
 215              		@ frame_needed = 0, uses_anonymous_args = 0
 216 00c0 10B5     		push	{r4, lr}
 217              		.cfi_def_cfa_offset 8
 218              		.cfi_offset 4, -8
 219              		.cfi_offset 14, -4
 220              		.loc 1 82 0
ARM GAS  /var/folders/28/j9jfyj_n4wz3qtvnym210h2c0000gn/T//cc4CtQEP.s 			page 5


 221 00c2 0C4C     		ldr	r4, .L25
 222 00c4 4FF48061 		mov	r1, #1024
 223 00c8 2046     		mov	r0, r4
 224 00ca 40F22622 		movw	r2, #550
 225 00ce FFF7FEFF 		bl	_pal_lld_setgroupmode
 226              	.LVL8:
 227              		.loc 1 87 0
 228 00d2 2046     		mov	r0, r4
 229 00d4 4FF40061 		mov	r1, #2048
 230 00d8 40F22622 		movw	r2, #550
 231 00dc FFF7FEFF 		bl	_pal_lld_setgroupmode
 232              	.LVL9:
 233              		.loc 1 104 0
 234 00e0 0548     		ldr	r0, .L25+4
 235 00e2 FFF7FEFF 		bl	chMtxLock
 236              	.LVL10:
 237              		.loc 1 105 0
 238 00e6 0548     		ldr	r0, .L25+8
 239 00e8 0549     		ldr	r1, .L25+12
 240              		.loc 1 106 0
 241 00ea BDE81040 		pop	{r4, lr}
 242              		.cfi_restore 14
 243              		.cfi_restore 4
 244              		.cfi_def_cfa_offset 0
 245              		.loc 1 105 0
 246 00ee FFF7FEBF 		b	i2cStart
 247              	.LVL11:
 248              	.L26:
 249 00f2 00BF     		.align	2
 250              	.L25:
 251 00f4 00040240 		.word	1073873920
 252 00f8 00000000 		.word	Mutex_DMAStream_1_7
 253 00fc 00000000 		.word	I2CD2
 254 0100 00000000 		.word	.LANCHOR1
 255              		.cfi_endproc
 256              	.LFE135:
 257              		.size	ADAU1961_I2CStart, .-ADAU1961_I2CStart
 258              		.align	2
 259 0104 AFF30080 		.p2align 4,,15
 259      AFF30080 
 259      AFF30080 
 260              		.global	ADAU1961_I2CStop
 261              		.thumb
 262              		.thumb_func
 263              		.type	ADAU1961_I2CStop, %function
 264              	ADAU1961_I2CStop:
 265              	.LFB136:
 266              		.loc 1 108 0
 267              		.cfi_startproc
 268              		@ args = 0, pretend = 0, frame = 0
 269              		@ frame_needed = 0, uses_anonymous_args = 0
 270 0110 08B5     		push	{r3, lr}
 271              		.cfi_def_cfa_offset 8
 272              		.cfi_offset 3, -8
 273              		.cfi_offset 14, -4
 274              		.loc 1 109 0
 275 0112 0348     		ldr	r0, .L29
ARM GAS  /var/folders/28/j9jfyj_n4wz3qtvnym210h2c0000gn/T//cc4CtQEP.s 			page 6


 276 0114 FFF7FEFF 		bl	i2cStop
 277              	.LVL12:
 278              		.loc 1 111 0
 279 0118 BDE80840 		pop	{r3, lr}
 280              		.cfi_restore 14
 281              		.cfi_restore 3
 282              		.cfi_def_cfa_offset 0
 283              		.loc 1 110 0
 284 011c FFF7FEBF 		b	chMtxUnlock
 285              	.LVL13:
 286              	.L30:
 287              		.align	2
 288              	.L29:
 289 0120 00000000 		.word	I2CD2
 290              		.cfi_endproc
 291              	.LFE136:
 292              		.size	ADAU1961_I2CStop, .-ADAU1961_I2CStop
 293              		.align	2
 294 0124 AFF30080 		.p2align 4,,15
 294      AFF30080 
 294      AFF30080 
 295              		.global	ADAU1961_ReadRegister
 296              		.thumb
 297              		.thumb_func
 298              		.type	ADAU1961_ReadRegister, %function
 299              	ADAU1961_ReadRegister:
 300              	.LFB137:
 301              		.loc 1 113 0
 302              		.cfi_startproc
 303              		@ args = 0, pretend = 0, frame = 0
 304              		@ frame_needed = 0, uses_anonymous_args = 0
 305              	.LVL14:
 306 0130 10B5     		push	{r4, lr}
 307              		.cfi_def_cfa_offset 8
 308              		.cfi_offset 4, -8
 309              		.cfi_offset 14, -4
 310              		.loc 1 115 0
 311 0132 1A4C     		ldr	r4, .L42
 312              		.loc 1 113 0
 313 0134 84B0     		sub	sp, sp, #16
 314              		.cfi_def_cfa_offset 24
 315              		.loc 1 115 0
 316 0136 030A     		lsrs	r3, r0, #8
 317 0138 2370     		strb	r3, [r4]
 318              		.loc 1 116 0
 319 013a 6070     		strb	r0, [r4, #1]
 320              		.loc 1 117 0
 321 013c FFF7FEFF 		bl	ADAU1961_I2CStart
 322              	.LVL15:
 323              		.loc 1 118 0
 324 0140 1748     		ldr	r0, .L42+4
 325 0142 FFF7FEFF 		bl	i2cAcquireBus
 326              	.LVL16:
 327              		.loc 1 119 0
 328 0146 04F10803 		add	r3, r4, #8
 329 014a 2269     		ldr	r2, [r4, #16]
 330 014c 0093     		str	r3, [sp]
ARM GAS  /var/folders/28/j9jfyj_n4wz3qtvnym210h2c0000gn/T//cc4CtQEP.s 			page 7


 331 014e 0023     		movs	r3, #0
 332 0150 0292     		str	r2, [sp, #8]
 333 0152 0193     		str	r3, [sp, #4]
 334 0154 2246     		mov	r2, r4
 335 0156 1248     		ldr	r0, .L42+4
 336 0158 3821     		movs	r1, #56
 337 015a 0223     		movs	r3, #2
 338 015c FFF7FEFF 		bl	i2cMasterTransmitTimeout
 339              	.LVL17:
 340              		.loc 1 121 0
 341 0160 C0B9     		cbnz	r0, .L41
 342              	.LVL18:
 343              	.L32:
 344              		.loc 1 124 0
 345 0162 2369     		ldr	r3, [r4, #16]
 346 0164 0093     		str	r3, [sp]
 347 0166 0E48     		ldr	r0, .L42+4
 348 0168 0E4A     		ldr	r2, .L42+8
 349 016a 3821     		movs	r1, #56
 350 016c 0123     		movs	r3, #1
 351 016e FFF7FEFF 		bl	i2cMasterReceiveTimeout
 352              	.LVL19:
 353              		.loc 1 126 0
 354 0172 08B1     		cbz	r0, .L33
 355              		.loc 1 127 0
 356 0174 FFF7FEFF 		bl	CheckI2CErrors
 357              	.LVL20:
 358              	.L33:
 359              		.loc 1 129 0
 360 0178 0948     		ldr	r0, .L42+4
 361 017a FFF7FEFF 		bl	i2cReleaseBus
 362              	.LVL21:
 363              	.LBB10:
 364              	.LBB11:
 365              		.loc 1 109 0
 366 017e 0848     		ldr	r0, .L42+4
 367 0180 FFF7FEFF 		bl	i2cStop
 368              	.LVL22:
 369              		.loc 1 110 0
 370 0184 FFF7FEFF 		bl	chMtxUnlock
 371              	.LVL23:
 372              	.LBE11:
 373              	.LBE10:
 374              		.loc 1 131 0
 375 0188 0120     		movs	r0, #1
 376 018a FFF7FEFF 		bl	chThdSleep
 377              	.LVL24:
 378              		.loc 1 133 0
 379 018e 207A     		ldrb	r0, [r4, #8]	@ zero_extendqisi2
 380 0190 04B0     		add	sp, sp, #16
 381              		.cfi_remember_state
 382              		.cfi_def_cfa_offset 8
 383              		@ sp needed
 384 0192 10BD     		pop	{r4, pc}
 385              	.LVL25:
 386              	.L41:
 387              		.cfi_restore_state
ARM GAS  /var/folders/28/j9jfyj_n4wz3qtvnym210h2c0000gn/T//cc4CtQEP.s 			page 8


 388              		.loc 1 122 0
 389 0194 FFF7FEFF 		bl	CheckI2CErrors
 390              	.LVL26:
 391 0198 E3E7     		b	.L32
 392              	.L43:
 393 019a 00BF     		.align	2
 394              	.L42:
 395 019c 00000000 		.word	.LANCHOR2
 396 01a0 00000000 		.word	I2CD2
 397 01a4 08000000 		.word	.LANCHOR2+8
 398              		.cfi_endproc
 399              	.LFE137:
 400              		.size	ADAU1961_ReadRegister, .-ADAU1961_ReadRegister
 401              		.align	2
 402 01a8 AFF30080 		.p2align 4,,15
 402      AFF30080 
 403              		.global	ADAU1961_ReadRegister6
 404              		.thumb
 405              		.thumb_func
 406              		.type	ADAU1961_ReadRegister6, %function
 407              	ADAU1961_ReadRegister6:
 408              	.LFB138:
 409              		.loc 1 135 0
 410              		.cfi_startproc
 411              		@ args = 0, pretend = 0, frame = 0
 412              		@ frame_needed = 0, uses_anonymous_args = 0
 413              	.LVL27:
 414 01b0 10B5     		push	{r4, lr}
 415              		.cfi_def_cfa_offset 8
 416              		.cfi_offset 4, -8
 417              		.cfi_offset 14, -4
 418              		.loc 1 137 0
 419 01b2 1A4C     		ldr	r4, .L55
 420              		.loc 1 135 0
 421 01b4 84B0     		sub	sp, sp, #16
 422              		.cfi_def_cfa_offset 24
 423              		.loc 1 137 0
 424 01b6 030A     		lsrs	r3, r0, #8
 425 01b8 2370     		strb	r3, [r4]
 426              		.loc 1 138 0
 427 01ba 6070     		strb	r0, [r4, #1]
 428              		.loc 1 139 0
 429 01bc FFF7FEFF 		bl	ADAU1961_I2CStart
 430              	.LVL28:
 431              		.loc 1 140 0
 432 01c0 1748     		ldr	r0, .L55+4
 433 01c2 FFF7FEFF 		bl	i2cAcquireBus
 434              	.LVL29:
 435              		.loc 1 141 0
 436 01c6 04F10803 		add	r3, r4, #8
 437 01ca 2269     		ldr	r2, [r4, #16]
 438 01cc 0093     		str	r3, [sp]
 439 01ce 0023     		movs	r3, #0
 440 01d0 0292     		str	r2, [sp, #8]
 441 01d2 0193     		str	r3, [sp, #4]
 442 01d4 2246     		mov	r2, r4
 443 01d6 1248     		ldr	r0, .L55+4
ARM GAS  /var/folders/28/j9jfyj_n4wz3qtvnym210h2c0000gn/T//cc4CtQEP.s 			page 9


 444 01d8 3821     		movs	r1, #56
 445 01da 0223     		movs	r3, #2
 446 01dc FFF7FEFF 		bl	i2cMasterTransmitTimeout
 447              	.LVL30:
 448              		.loc 1 143 0
 449 01e0 C0B9     		cbnz	r0, .L54
 450              	.LVL31:
 451              	.L45:
 452              		.loc 1 146 0
 453 01e2 2369     		ldr	r3, [r4, #16]
 454 01e4 0093     		str	r3, [sp]
 455 01e6 0E48     		ldr	r0, .L55+4
 456 01e8 0E4A     		ldr	r2, .L55+8
 457 01ea 3821     		movs	r1, #56
 458 01ec 0623     		movs	r3, #6
 459 01ee FFF7FEFF 		bl	i2cMasterReceiveTimeout
 460              	.LVL32:
 461              		.loc 1 147 0
 462 01f2 08B1     		cbz	r0, .L46
 463              		.loc 1 148 0
 464 01f4 FFF7FEFF 		bl	CheckI2CErrors
 465              	.LVL33:
 466              	.L46:
 467              		.loc 1 150 0
 468 01f8 0948     		ldr	r0, .L55+4
 469 01fa FFF7FEFF 		bl	i2cReleaseBus
 470              	.LVL34:
 471              	.LBB12:
 472              	.LBB13:
 473              		.loc 1 109 0
 474 01fe 0848     		ldr	r0, .L55+4
 475 0200 FFF7FEFF 		bl	i2cStop
 476              	.LVL35:
 477              		.loc 1 110 0
 478 0204 FFF7FEFF 		bl	chMtxUnlock
 479              	.LVL36:
 480              	.LBE13:
 481              	.LBE12:
 482              		.loc 1 152 0
 483 0208 0120     		movs	r0, #1
 484              		.loc 1 153 0
 485 020a 04B0     		add	sp, sp, #16
 486              		.cfi_remember_state
 487              		.cfi_def_cfa_offset 8
 488              		@ sp needed
 489 020c BDE81040 		pop	{r4, lr}
 490              		.cfi_restore 14
 491              		.cfi_restore 4
 492              		.cfi_def_cfa_offset 0
 493              		.loc 1 152 0
 494 0210 FFF7FEBF 		b	chThdSleep
 495              	.LVL37:
 496              	.L54:
 497              		.cfi_restore_state
 498              		.loc 1 144 0
 499 0214 FFF7FEFF 		bl	CheckI2CErrors
 500              	.LVL38:
ARM GAS  /var/folders/28/j9jfyj_n4wz3qtvnym210h2c0000gn/T//cc4CtQEP.s 			page 10


 501 0218 E3E7     		b	.L45
 502              	.L56:
 503 021a 00BF     		.align	2
 504              	.L55:
 505 021c 00000000 		.word	.LANCHOR2
 506 0220 00000000 		.word	I2CD2
 507 0224 08000000 		.word	.LANCHOR2+8
 508              		.cfi_endproc
 509              	.LFE138:
 510              		.size	ADAU1961_ReadRegister6, .-ADAU1961_ReadRegister6
 511              		.align	2
 512 0228 AFF30080 		.p2align 4,,15
 512      AFF30080 
 513              		.global	ADAU1961_WriteRegister
 514              		.thumb
 515              		.thumb_func
 516              		.type	ADAU1961_WriteRegister, %function
 517              	ADAU1961_WriteRegister:
 518              	.LFB139:
 519              		.loc 1 155 0
 520              		.cfi_startproc
 521              		@ args = 0, pretend = 0, frame = 0
 522              		@ frame_needed = 0, uses_anonymous_args = 0
 523              	.LVL39:
 524 0230 2DE9F041 		push	{r4, r5, r6, r7, r8, lr}
 525              		.cfi_def_cfa_offset 24
 526              		.cfi_offset 4, -24
 527              		.cfi_offset 5, -20
 528              		.cfi_offset 6, -16
 529              		.cfi_offset 7, -12
 530              		.cfi_offset 8, -8
 531              		.cfi_offset 14, -4
 532              		.loc 1 157 0
 533 0234 234C     		ldr	r4, .L65
 534              		.loc 1 155 0
 535 0236 84B0     		sub	sp, sp, #16
 536              		.cfi_def_cfa_offset 40
 537              		.loc 1 157 0
 538 0238 030A     		lsrs	r3, r0, #8
 539              		.loc 1 155 0
 540 023a 0E46     		mov	r6, r1
 541              		.loc 1 157 0
 542 023c 2370     		strb	r3, [r4]
 543              		.loc 1 159 0
 544 023e A170     		strb	r1, [r4, #2]
 545              		.loc 1 155 0
 546 0240 0546     		mov	r5, r0
 547              		.loc 1 158 0
 548 0242 6070     		strb	r0, [r4, #1]
 549              		.loc 1 161 0
 550 0244 FFF7FEFF 		bl	ADAU1961_I2CStart
 551              	.LVL40:
 552              		.loc 1 162 0
 553 0248 1F48     		ldr	r0, .L65+4
 554 024a FFF7FEFF 		bl	i2cAcquireBus
 555              	.LVL41:
 556              		.loc 1 163 0
ARM GAS  /var/folders/28/j9jfyj_n4wz3qtvnym210h2c0000gn/T//cc4CtQEP.s 			page 11


 557 024e 04F10808 		add	r8, r4, #8
 558 0252 2369     		ldr	r3, [r4, #16]
 559 0254 0293     		str	r3, [sp, #8]
 560 0256 0027     		movs	r7, #0
 561 0258 CDF80080 		str	r8, [sp]
 562 025c 2246     		mov	r2, r4
 563 025e 0197     		str	r7, [sp, #4]
 564 0260 1948     		ldr	r0, .L65+4
 565 0262 3821     		movs	r1, #56
 566 0264 0323     		movs	r3, #3
 567 0266 FFF7FEFF 		bl	i2cMasterTransmitTimeout
 568              	.LVL42:
 569              		.loc 1 165 0
 570 026a C8B9     		cbnz	r0, .L64
 571              	.LVL43:
 572              	.L58:
 573              		.loc 1 171 0
 574 026c 1648     		ldr	r0, .L65+4
 575 026e FFF7FEFF 		bl	i2cReleaseBus
 576              	.LVL44:
 577              	.LBB14:
 578              	.LBB15:
 579              		.loc 1 109 0
 580 0272 1548     		ldr	r0, .L65+4
 581 0274 FFF7FEFF 		bl	i2cStop
 582              	.LVL45:
 583              		.loc 1 110 0
 584 0278 FFF7FEFF 		bl	chMtxUnlock
 585              	.LVL46:
 586              	.LBE15:
 587              	.LBE14:
 588              		.loc 1 173 0
 589 027c 0120     		movs	r0, #1
 590 027e FFF7FEFF 		bl	chThdSleep
 591              	.LVL47:
 592              		.loc 1 176 0
 593 0282 2846     		mov	r0, r5
 594 0284 FFF7FEFF 		bl	ADAU1961_ReadRegister
 595              	.LVL48:
 596              		.loc 1 177 0
 597 0288 8642     		cmp	r6, r0
 598              		.loc 1 176 0
 599 028a 2075     		strb	r0, [r4, #20]
 600              		.loc 1 177 0
 601 028c 02D0     		beq	.L59
 602              		.loc 1 178 0
 603 028e 0720     		movs	r0, #7
 604 0290 FFF7FEFF 		bl	setErrorFlag
 605              	.LVL49:
 606              	.L59:
 607              		.loc 1 181 0
 608 0294 0120     		movs	r0, #1
 609              		.loc 1 182 0
 610 0296 04B0     		add	sp, sp, #16
 611              		.cfi_remember_state
 612              		.cfi_def_cfa_offset 24
 613              		@ sp needed
ARM GAS  /var/folders/28/j9jfyj_n4wz3qtvnym210h2c0000gn/T//cc4CtQEP.s 			page 12


 614 0298 BDE8F041 		pop	{r4, r5, r6, r7, r8, lr}
 615              		.cfi_restore 14
 616              		.cfi_restore 8
 617              		.cfi_restore 7
 618              		.cfi_restore 6
 619              		.cfi_restore 5
 620              		.cfi_restore 4
 621              		.cfi_def_cfa_offset 0
 622              		.loc 1 181 0
 623 029c FFF7FEBF 		b	chThdSleep
 624              	.LVL50:
 625              	.L64:
 626              		.cfi_restore_state
 627              		.loc 1 166 0
 628 02a0 FFF7FEFF 		bl	CheckI2CErrors
 629              	.LVL51:
 630              		.loc 1 167 0
 631 02a4 2369     		ldr	r3, [r4, #16]
 632 02a6 0293     		str	r3, [sp, #8]
 633 02a8 CDF80080 		str	r8, [sp]
 634 02ac 0197     		str	r7, [sp, #4]
 635 02ae 3821     		movs	r1, #56
 636 02b0 2246     		mov	r2, r4
 637 02b2 0323     		movs	r3, #3
 638 02b4 0448     		ldr	r0, .L65+4
 639 02b6 FFF7FEFF 		bl	i2cMasterTransmitTimeout
 640              	.LVL52:
 641              		.loc 1 169 0
 642 02ba 0120     		movs	r0, #1
 643 02bc FFF7FEFF 		bl	chThdSleep
 644              	.LVL53:
 645 02c0 D4E7     		b	.L58
 646              	.L66:
 647 02c2 00BF     		.align	2
 648              	.L65:
 649 02c4 00000000 		.word	.LANCHOR2
 650 02c8 00000000 		.word	I2CD2
 651              		.cfi_endproc
 652              	.LFE139:
 653              		.size	ADAU1961_WriteRegister, .-ADAU1961_WriteRegister
 654              		.align	2
 655 02cc AFF30080 		.p2align 4,,15
 656              		.global	ADAU1961_WriteRegister6
 657              		.thumb
 658              		.thumb_func
 659              		.type	ADAU1961_WriteRegister6, %function
 660              	ADAU1961_WriteRegister6:
 661              	.LFB140:
 662              		.loc 1 184 0
 663              		.cfi_startproc
 664              		@ args = 0, pretend = 0, frame = 0
 665              		@ frame_needed = 0, uses_anonymous_args = 0
 666              	.LVL54:
 667 02d0 10B5     		push	{r4, lr}
 668              		.cfi_def_cfa_offset 8
 669              		.cfi_offset 4, -8
 670              		.cfi_offset 14, -4
ARM GAS  /var/folders/28/j9jfyj_n4wz3qtvnym210h2c0000gn/T//cc4CtQEP.s 			page 13


 671              		.loc 1 186 0
 672 02d2 1B4C     		ldr	r4, .L73
 673 02d4 030A     		lsrs	r3, r0, #8
 674              		.loc 1 187 0
 675 02d6 6070     		strb	r0, [r4, #1]
 676              		.loc 1 186 0
 677 02d8 2370     		strb	r3, [r4]
 678              		.loc 1 188 0
 679 02da 0B78     		ldrb	r3, [r1]	@ zero_extendqisi2
 680 02dc A370     		strb	r3, [r4, #2]
 681              		.loc 1 189 0
 682 02de 4B78     		ldrb	r3, [r1, #1]	@ zero_extendqisi2
 683 02e0 E370     		strb	r3, [r4, #3]
 684              		.loc 1 190 0
 685 02e2 8B78     		ldrb	r3, [r1, #2]	@ zero_extendqisi2
 686 02e4 2371     		strb	r3, [r4, #4]
 687              		.loc 1 191 0
 688 02e6 CB78     		ldrb	r3, [r1, #3]	@ zero_extendqisi2
 689 02e8 6371     		strb	r3, [r4, #5]
 690              		.loc 1 192 0
 691 02ea 0B79     		ldrb	r3, [r1, #4]	@ zero_extendqisi2
 692 02ec A371     		strb	r3, [r4, #6]
 693              		.loc 1 184 0
 694 02ee 84B0     		sub	sp, sp, #16
 695              		.cfi_def_cfa_offset 24
 696              		.loc 1 193 0
 697 02f0 4B79     		ldrb	r3, [r1, #5]	@ zero_extendqisi2
 698 02f2 E371     		strb	r3, [r4, #7]
 699              		.loc 1 194 0
 700 02f4 FFF7FEFF 		bl	ADAU1961_I2CStart
 701              	.LVL55:
 702              		.loc 1 195 0
 703 02f8 1248     		ldr	r0, .L73+4
 704 02fa FFF7FEFF 		bl	i2cAcquireBus
 705              	.LVL56:
 706              		.loc 1 196 0
 707 02fe 04F10802 		add	r2, r4, #8
 708 0302 0021     		movs	r1, #0
 709 0304 4FF0FF33 		mov	r3, #-1
 710 0308 0092     		str	r2, [sp]
 711 030a 0191     		str	r1, [sp, #4]
 712 030c 2246     		mov	r2, r4
 713 030e 3821     		movs	r1, #56
 714 0310 0293     		str	r3, [sp, #8]
 715 0312 0C48     		ldr	r0, .L73+4
 716 0314 0823     		movs	r3, #8
 717 0316 FFF7FEFF 		bl	i2cMasterTransmitTimeout
 718              	.LVL57:
 719 031a 0446     		mov	r4, r0
 720              	.LVL58:
 721              		.loc 1 198 0
 722 031c 0948     		ldr	r0, .L73+4
 723              	.LVL59:
 724 031e FFF7FEFF 		bl	i2cReleaseBus
 725              	.LVL60:
 726              	.LBB16:
 727              	.LBB17:
ARM GAS  /var/folders/28/j9jfyj_n4wz3qtvnym210h2c0000gn/T//cc4CtQEP.s 			page 14


 728              		.loc 1 109 0
 729 0322 0848     		ldr	r0, .L73+4
 730 0324 FFF7FEFF 		bl	i2cStop
 731              	.LVL61:
 732              		.loc 1 110 0
 733 0328 FFF7FEFF 		bl	chMtxUnlock
 734              	.LVL62:
 735              	.LBE17:
 736              	.LBE16:
 737              		.loc 1 200 0
 738 032c 0CB1     		cbz	r4, .L68
 739              		.loc 1 201 0
 740 032e FFF7FEFF 		bl	CheckI2CErrors
 741              	.LVL63:
 742              	.L68:
 743              		.loc 1 204 0
 744 0332 0120     		movs	r0, #1
 745              		.loc 1 205 0
 746 0334 04B0     		add	sp, sp, #16
 747              		.cfi_def_cfa_offset 8
 748              		@ sp needed
 749 0336 BDE81040 		pop	{r4, lr}
 750              		.cfi_restore 14
 751              		.cfi_restore 4
 752              		.cfi_def_cfa_offset 0
 753              	.LVL64:
 754              		.loc 1 204 0
 755 033a FFF7FEBF 		b	chThdSleep
 756              	.LVL65:
 757              	.L74:
 758 033e 00BF     		.align	2
 759              	.L73:
 760 0340 00000000 		.word	.LANCHOR2
 761 0344 00000000 		.word	I2CD2
 762              		.cfi_endproc
 763              	.LFE140:
 764              		.size	ADAU1961_WriteRegister6, .-ADAU1961_WriteRegister6
 765              		.align	2
 766 0348 AFF30080 		.p2align 4,,15
 766      AFF30080 
 767              		.global	codec_ADAU1961_hw_init
 768              		.thumb
 769              		.thumb_func
 770              		.type	codec_ADAU1961_hw_init, %function
 771              	codec_ADAU1961_hw_init:
 772              	.LFB141:
 773              		.loc 1 207 0
 774              		.cfi_startproc
 775              		@ args = 0, pretend = 0, frame = 8
 776              		@ frame_needed = 0, uses_anonymous_args = 0
 777              	.LVL66:
 778 0350 30B5     		push	{r4, r5, lr}
 779              		.cfi_def_cfa_offset 12
 780              		.cfi_offset 4, -12
 781              		.cfi_offset 5, -8
 782              		.cfi_offset 14, -4
 783              		.loc 1 209 0
ARM GAS  /var/folders/28/j9jfyj_n4wz3qtvnym210h2c0000gn/T//cc4CtQEP.s 			page 15


 784 0352 CE4D     		ldr	r5, .L92
 785 0354 0423     		movs	r3, #4
 786              		.loc 1 207 0
 787 0356 0446     		mov	r4, r0
 788 0358 83B0     		sub	sp, sp, #12
 789              		.cfi_def_cfa_offset 24
 790              		.loc 1 210 0
 791 035a 0520     		movs	r0, #5
 792              	.LVL67:
 793              		.loc 1 209 0
 794 035c 2B61     		str	r3, [r5, #16]
 795              		.loc 1 210 0
 796 035e FFF7FEFF 		bl	chThdSleep
 797              	.LVL68:
 798              		.loc 1 227 0
 799 0362 4BF68033 		movw	r3, #48000
 800 0366 9C42     		cmp	r4, r3
 801 0368 05D0     		beq	.L88
 802              		.loc 1 236 0
 803 036a 4AF64443 		movw	r3, #44100
 804 036e 9C42     		cmp	r4, r3
 805 0370 00F07581 		beq	.L89
 806              	.L83:
 807              		.loc 1 247 0 discriminator 1
 808 0374 FEE7     		b	.L83
 809              	.L88:
 810              		.loc 1 229 0
 811 0376 0023     		movs	r3, #0
 812              		.loc 1 230 0
 813 0378 7D24     		movs	r4, #125
 814              		.loc 1 232 0
 815 037a 1220     		movs	r0, #18
 816              		.loc 1 233 0
 817 037c 3121     		movs	r1, #49
 818              		.loc 1 234 0
 819 037e 0122     		movs	r2, #1
 820              		.loc 1 229 0
 821 0380 8DF80030 		strb	r3, [sp]
 822              		.loc 1 231 0
 823 0384 8DF80230 		strb	r3, [sp, #2]
 824              		.loc 1 230 0
 825 0388 8DF80140 		strb	r4, [sp, #1]
 826              		.loc 1 232 0
 827 038c 8DF80300 		strb	r0, [sp, #3]
 828              		.loc 1 233 0
 829 0390 8DF80410 		strb	r1, [sp, #4]
 830              		.loc 1 234 0
 831 0394 8DF80520 		strb	r2, [sp, #5]
 832              	.L77:
 833              		.loc 1 249 0
 834 0398 44F20200 		movw	r0, #16386
 835 039c 6946     		mov	r1, sp
 836 039e FFF7FEFF 		bl	ADAU1961_WriteRegister6
 837              	.LVL69:
 838 03a2 4FF47A74 		mov	r4, #1000
 839 03a6 04E0     		b	.L80
 840              	.LVL70:
ARM GAS  /var/folders/28/j9jfyj_n4wz3qtvnym210h2c0000gn/T//cc4CtQEP.s 			page 16


 841              	.L91:
 842              	.LBB20:
 843              	.LBB21:
 844              		.loc 1 257 0
 845 03a8 FFF7FEFF 		bl	chThdSleep
 846              	.LVL71:
 847              		.loc 1 252 0
 848 03ac 013C     		subs	r4, r4, #1
 849              	.LVL72:
 850 03ae 00F06881 		beq	.L90
 851              	.LVL73:
 852              	.L80:
 853              		.loc 1 254 0
 854 03b2 44F20200 		movw	r0, #16386
 855 03b6 FFF7FEFF 		bl	ADAU1961_ReadRegister6
 856              	.LVL74:
 857              		.loc 1 255 0
 858 03ba 6B7B     		ldrb	r3, [r5, #13]	@ zero_extendqisi2
 859 03bc 9B07     		lsls	r3, r3, #30
 860              		.loc 1 257 0
 861 03be 4FF00100 		mov	r0, #1
 862              		.loc 1 255 0
 863 03c2 F1D5     		bpl	.L91
 864              	.LVL75:
 865              	.L79:
 866              		.loc 1 264 0
 867 03c4 4FF48040 		mov	r0, #16384
 868 03c8 0921     		movs	r1, #9
 869 03ca FFF7FEFF 		bl	ADAU1961_WriteRegister
 870              	.LVL76:
 871              		.loc 1 269 0
 872 03ce 44F20800 		movw	r0, #16392
 873 03d2 0021     		movs	r1, #0
 874 03d4 FFF7FEFF 		bl	ADAU1961_WriteRegister
 875              	.LVL77:
 876              		.loc 1 270 0
 877 03d8 44F20900 		movw	r0, #16393
 878 03dc 0021     		movs	r1, #0
 879 03de FFF7FEFF 		bl	ADAU1961_WriteRegister
 880              	.LVL78:
 881              		.loc 1 271 0
 882 03e2 44F20A00 		movw	r0, #16394
 883 03e6 0021     		movs	r1, #0
 884 03e8 FFF7FEFF 		bl	ADAU1961_WriteRegister
 885              	.LVL79:
 886              		.loc 1 272 0
 887 03ec 44F20B00 		movw	r0, #16395
 888 03f0 0021     		movs	r1, #0
 889 03f2 FFF7FEFF 		bl	ADAU1961_WriteRegister
 890              	.LVL80:
 891              		.loc 1 273 0
 892 03f6 44F20C00 		movw	r0, #16396
 893 03fa 0021     		movs	r1, #0
 894 03fc FFF7FEFF 		bl	ADAU1961_WriteRegister
 895              	.LVL81:
 896              		.loc 1 274 0
 897 0400 44F20D00 		movw	r0, #16397
ARM GAS  /var/folders/28/j9jfyj_n4wz3qtvnym210h2c0000gn/T//cc4CtQEP.s 			page 17


 898 0404 0021     		movs	r1, #0
 899 0406 FFF7FEFF 		bl	ADAU1961_WriteRegister
 900              	.LVL82:
 901              		.loc 1 275 0
 902 040a 44F20E00 		movw	r0, #16398
 903 040e 0021     		movs	r1, #0
 904 0410 FFF7FEFF 		bl	ADAU1961_WriteRegister
 905              	.LVL83:
 906              		.loc 1 276 0
 907 0414 44F20F00 		movw	r0, #16399
 908 0418 0021     		movs	r1, #0
 909 041a FFF7FEFF 		bl	ADAU1961_WriteRegister
 910              	.LVL84:
 911              		.loc 1 277 0
 912 041e 44F21000 		movw	r0, #16400
 913 0422 0021     		movs	r1, #0
 914 0424 FFF7FEFF 		bl	ADAU1961_WriteRegister
 915              	.LVL85:
 916              		.loc 1 278 0
 917 0428 44F21100 		movw	r0, #16401
 918 042c 0021     		movs	r1, #0
 919 042e FFF7FEFF 		bl	ADAU1961_WriteRegister
 920              	.LVL86:
 921              		.loc 1 279 0
 922 0432 44F21200 		movw	r0, #16402
 923 0436 0021     		movs	r1, #0
 924 0438 FFF7FEFF 		bl	ADAU1961_WriteRegister
 925              	.LVL87:
 926              		.loc 1 280 0
 927 043c 44F21300 		movw	r0, #16403
 928 0440 0021     		movs	r1, #0
 929 0442 FFF7FEFF 		bl	ADAU1961_WriteRegister
 930              	.LVL88:
 931              		.loc 1 281 0
 932 0446 44F21400 		movw	r0, #16404
 933 044a 0021     		movs	r1, #0
 934 044c FFF7FEFF 		bl	ADAU1961_WriteRegister
 935              	.LVL89:
 936              		.loc 1 286 0
 937 0450 44F21500 		movw	r0, #16405
 938 0454 0121     		movs	r1, #1
 939 0456 FFF7FEFF 		bl	ADAU1961_WriteRegister
 940              	.LVL90:
 941              		.loc 1 287 0
 942 045a 44F21600 		movw	r0, #16406
 943 045e 0021     		movs	r1, #0
 944 0460 FFF7FEFF 		bl	ADAU1961_WriteRegister
 945              	.LVL91:
 946              		.loc 1 290 0
 947 0464 44F21700 		movw	r0, #16407
 948 0468 0021     		movs	r1, #0
 949 046a FFF7FEFF 		bl	ADAU1961_WriteRegister
 950              	.LVL92:
 951              		.loc 1 291 0
 952 046e 44F21800 		movw	r0, #16408
 953 0472 0021     		movs	r1, #0
 954 0474 FFF7FEFF 		bl	ADAU1961_WriteRegister
ARM GAS  /var/folders/28/j9jfyj_n4wz3qtvnym210h2c0000gn/T//cc4CtQEP.s 			page 18


 955              	.LVL93:
 956              		.loc 1 292 0
 957 0478 44F21900 		movw	r0, #16409
 958 047c 1021     		movs	r1, #16
 959 047e FFF7FEFF 		bl	ADAU1961_WriteRegister
 960              	.LVL94:
 961              		.loc 1 293 0
 962 0482 44F21A00 		movw	r0, #16410
 963 0486 0021     		movs	r1, #0
 964 0488 FFF7FEFF 		bl	ADAU1961_WriteRegister
 965              	.LVL95:
 966              		.loc 1 294 0
 967 048c 44F21B00 		movw	r0, #16411
 968 0490 0021     		movs	r1, #0
 969 0492 FFF7FEFF 		bl	ADAU1961_WriteRegister
 970              	.LVL96:
 971              		.loc 1 295 0
 972 0496 44F21C00 		movw	r0, #16412
 973 049a 0021     		movs	r1, #0
 974 049c FFF7FEFF 		bl	ADAU1961_WriteRegister
 975              	.LVL97:
 976              		.loc 1 296 0
 977 04a0 44F21D00 		movw	r0, #16413
 978 04a4 0021     		movs	r1, #0
 979 04a6 FFF7FEFF 		bl	ADAU1961_WriteRegister
 980              	.LVL98:
 981              		.loc 1 297 0
 982 04aa 44F21E00 		movw	r0, #16414
 983 04ae 0021     		movs	r1, #0
 984 04b0 FFF7FEFF 		bl	ADAU1961_WriteRegister
 985              	.LVL99:
 986              		.loc 1 298 0
 987 04b4 44F21F00 		movw	r0, #16415
 988 04b8 0021     		movs	r1, #0
 989 04ba FFF7FEFF 		bl	ADAU1961_WriteRegister
 990              	.LVL100:
 991              		.loc 1 299 0
 992 04be 44F22000 		movw	r0, #16416
 993 04c2 0021     		movs	r1, #0
 994 04c4 FFF7FEFF 		bl	ADAU1961_WriteRegister
 995              	.LVL101:
 996              		.loc 1 300 0
 997 04c8 44F22100 		movw	r0, #16417
 998 04cc 0021     		movs	r1, #0
 999 04ce FFF7FEFF 		bl	ADAU1961_WriteRegister
 1000              	.LVL102:
 1001              		.loc 1 301 0
 1002 04d2 44F22200 		movw	r0, #16418
 1003 04d6 0021     		movs	r1, #0
 1004 04d8 FFF7FEFF 		bl	ADAU1961_WriteRegister
 1005              	.LVL103:
 1006              		.loc 1 302 0
 1007 04dc 44F22300 		movw	r0, #16419
 1008 04e0 0221     		movs	r1, #2
 1009 04e2 FFF7FEFF 		bl	ADAU1961_WriteRegister
 1010              	.LVL104:
 1011              		.loc 1 303 0
ARM GAS  /var/folders/28/j9jfyj_n4wz3qtvnym210h2c0000gn/T//cc4CtQEP.s 			page 19


 1012 04e6 44F22400 		movw	r0, #16420
 1013 04ea 0221     		movs	r1, #2
 1014 04ec FFF7FEFF 		bl	ADAU1961_WriteRegister
 1015              	.LVL105:
 1016              		.loc 1 304 0
 1017 04f0 44F22500 		movw	r0, #16421
 1018 04f4 0221     		movs	r1, #2
 1019 04f6 FFF7FEFF 		bl	ADAU1961_WriteRegister
 1020              	.LVL106:
 1021              		.loc 1 305 0
 1022 04fa 44F22600 		movw	r0, #16422
 1023 04fe 0221     		movs	r1, #2
 1024 0500 FFF7FEFF 		bl	ADAU1961_WriteRegister
 1025              	.LVL107:
 1026              		.loc 1 306 0
 1027 0504 44F22700 		movw	r0, #16423
 1028 0508 0221     		movs	r1, #2
 1029 050a FFF7FEFF 		bl	ADAU1961_WriteRegister
 1030              	.LVL108:
 1031              		.loc 1 307 0
 1032 050e 44F22800 		movw	r0, #16424
 1033 0512 0021     		movs	r1, #0
 1034 0514 FFF7FEFF 		bl	ADAU1961_WriteRegister
 1035              	.LVL109:
 1036              		.loc 1 308 0
 1037 0518 44F22900 		movw	r0, #16425
 1038 051c 0021     		movs	r1, #0
 1039 051e FFF7FEFF 		bl	ADAU1961_WriteRegister
 1040              	.LVL110:
 1041              		.loc 1 309 0
 1042 0522 44F22A00 		movw	r0, #16426
 1043 0526 0021     		movs	r1, #0
 1044 0528 FFF7FEFF 		bl	ADAU1961_WriteRegister
 1045              	.LVL111:
 1046              		.loc 1 310 0
 1047 052c 44F22B00 		movw	r0, #16427
 1048 0530 0021     		movs	r1, #0
 1049 0532 FFF7FEFF 		bl	ADAU1961_WriteRegister
 1050              	.LVL112:
 1051              		.loc 1 311 0
 1052 0536 44F22C00 		movw	r0, #16428
 1053 053a 0021     		movs	r1, #0
 1054 053c FFF7FEFF 		bl	ADAU1961_WriteRegister
 1055              	.LVL113:
 1056              		.loc 1 312 0
 1057 0540 44F22D00 		movw	r0, #16429
 1058 0544 0021     		movs	r1, #0
 1059 0546 FFF7FEFF 		bl	ADAU1961_WriteRegister
 1060              	.LVL114:
 1061              		.loc 1 313 0
 1062 054a 44F22F00 		movw	r0, #16431
 1063 054e AA21     		movs	r1, #170
 1064 0550 FFF7FEFF 		bl	ADAU1961_WriteRegister
 1065              	.LVL115:
 1066              		.loc 1 314 0
 1067 0554 44F23000 		movw	r0, #16432
 1068 0558 AA21     		movs	r1, #170
ARM GAS  /var/folders/28/j9jfyj_n4wz3qtvnym210h2c0000gn/T//cc4CtQEP.s 			page 20


 1069 055a FFF7FEFF 		bl	ADAU1961_WriteRegister
 1070              	.LVL116:
 1071              		.loc 1 315 0
 1072 055e 44F23100 		movw	r0, #16433
 1073 0562 0021     		movs	r1, #0
 1074 0564 FFF7FEFF 		bl	ADAU1961_WriteRegister
 1075              	.LVL117:
 1076              		.loc 1 318 0
 1077 0568 44F2F900 		movw	r0, #16633
 1078 056c 7F21     		movs	r1, #127
 1079 056e FFF7FEFF 		bl	ADAU1961_WriteRegister
 1080              	.LVL118:
 1081              		.loc 1 319 0
 1082 0572 44F2FA00 		movw	r0, #16634
 1083 0576 0321     		movs	r1, #3
 1084 0578 FFF7FEFF 		bl	ADAU1961_WriteRegister
 1085              	.LVL119:
 1086              		.loc 1 320 0
 1087 057c 44F2F200 		movw	r0, #16626
 1088 0580 0121     		movs	r1, #1
 1089 0582 FFF7FEFF 		bl	ADAU1961_WriteRegister
 1090              	.LVL120:
 1091              		.loc 1 321 0
 1092 0586 0121     		movs	r1, #1
 1093 0588 44F2F300 		movw	r0, #16627
 1094 058c FFF7FEFF 		bl	ADAU1961_WriteRegister
 1095              	.LVL121:
 1096              		.loc 1 323 0
 1097 0590 0A20     		movs	r0, #10
 1098 0592 FFF7FEFF 		bl	chThdSleep
 1099              	.LVL122:
 1100              		.loc 1 343 0
 1101 0596 44F21900 		movw	r0, #16409
 1102 059a 0321     		movs	r1, #3
 1103 059c FFF7FEFF 		bl	ADAU1961_WriteRegister
 1104              	.LVL123:
 1105              		.loc 1 344 0
 1106 05a0 44F22A00 		movw	r0, #16426
 1107 05a4 0321     		movs	r1, #3
 1108 05a6 FFF7FEFF 		bl	ADAU1961_WriteRegister
 1109              	.LVL124:
 1110              		.loc 1 346 0
 1111 05aa 44F22500 		movw	r0, #16421
 1112 05ae EA21     		movs	r1, #234
 1113 05b0 FFF7FEFF 		bl	ADAU1961_WriteRegister
 1114              	.LVL125:
 1115              		.loc 1 347 0
 1116 05b4 44F22600 		movw	r0, #16422
 1117 05b8 EA21     		movs	r1, #234
 1118 05ba FFF7FEFF 		bl	ADAU1961_WriteRegister
 1119              	.LVL126:
 1120              		.loc 1 349 0
 1121 05be 44F22000 		movw	r0, #16416
 1122 05c2 0321     		movs	r1, #3
 1123 05c4 FFF7FEFF 		bl	ADAU1961_WriteRegister
 1124              	.LVL127:
 1125              		.loc 1 350 0
ARM GAS  /var/folders/28/j9jfyj_n4wz3qtvnym210h2c0000gn/T//cc4CtQEP.s 			page 21


 1126 05c8 44F22100 		movw	r0, #16417
 1127 05cc 0921     		movs	r1, #9
 1128 05ce FFF7FEFF 		bl	ADAU1961_WriteRegister
 1129              	.LVL128:
 1130              		.loc 1 353 0
 1131 05d2 44F21C00 		movw	r0, #16412
 1132 05d6 2121     		movs	r1, #33
 1133 05d8 FFF7FEFF 		bl	ADAU1961_WriteRegister
 1134              	.LVL129:
 1135              		.loc 1 354 0
 1136 05dc 44F21E00 		movw	r0, #16414
 1137 05e0 4121     		movs	r1, #65
 1138 05e2 FFF7FEFF 		bl	ADAU1961_WriteRegister
 1139              	.LVL130:
 1140              		.loc 1 356 0
 1141 05e6 44F22900 		movw	r0, #16425
 1142 05ea 0321     		movs	r1, #3
 1143 05ec FFF7FEFF 		bl	ADAU1961_WriteRegister
 1144              	.LVL131:
 1145              		.loc 1 358 0
 1146 05f0 44F20A00 		movw	r0, #16394
 1147 05f4 0121     		movs	r1, #1
 1148 05f6 FFF7FEFF 		bl	ADAU1961_WriteRegister
 1149              	.LVL132:
 1150              		.loc 1 359 0
 1151 05fa 44F20B00 		movw	r0, #16395
 1152 05fe 0821     		movs	r1, #8
 1153 0600 FFF7FEFF 		bl	ADAU1961_WriteRegister
 1154              	.LVL133:
 1155              		.loc 1 360 0
 1156 0604 44F20C00 		movw	r0, #16396
 1157 0608 0121     		movs	r1, #1
 1158 060a FFF7FEFF 		bl	ADAU1961_WriteRegister
 1159              	.LVL134:
 1160              		.loc 1 361 0
 1161 060e 44F20D00 		movw	r0, #16397
 1162 0612 0821     		movs	r1, #8
 1163 0614 FFF7FEFF 		bl	ADAU1961_WriteRegister
 1164              	.LVL135:
 1165              		.loc 1 363 0
 1166 0618 44F20E00 		movw	r0, #16398
 1167 061c 4321     		movs	r1, #67
 1168 061e FFF7FEFF 		bl	ADAU1961_WriteRegister
 1169              	.LVL136:
 1170              		.loc 1 364 0
 1171 0622 44F20F00 		movw	r0, #16399
 1172 0626 4321     		movs	r1, #67
 1173 0628 FFF7FEFF 		bl	ADAU1961_WriteRegister
 1174              	.LVL137:
 1175              		.loc 1 367 0
 1176 062c 44F22700 		movw	r0, #16423
 1177 0630 0321     		movs	r1, #3
 1178 0632 FFF7FEFF 		bl	ADAU1961_WriteRegister
 1179              	.LVL138:
 1180              		.loc 1 368 0
 1181 0636 44F22200 		movw	r0, #16418
 1182 063a 0121     		movs	r1, #1
ARM GAS  /var/folders/28/j9jfyj_n4wz3qtvnym210h2c0000gn/T//cc4CtQEP.s 			page 22


 1183 063c FFF7FEFF 		bl	ADAU1961_WriteRegister
 1184              	.LVL139:
 1185              		.loc 1 369 0
 1186 0640 44F22300 		movw	r0, #16419
 1187 0644 C321     		movs	r1, #195
 1188 0646 FFF7FEFF 		bl	ADAU1961_WriteRegister
 1189              	.LVL140:
 1190              		.loc 1 370 0
 1191 064a C321     		movs	r1, #195
 1192 064c 44F22400 		movw	r0, #16420
 1193 0650 FFF7FEFF 		bl	ADAU1961_WriteRegister
 1194              	.LVL141:
 1195              		.loc 1 373 0
 1196 0654 0A20     		movs	r0, #10
 1197 0656 FFF7FEFF 		bl	chThdSleep
 1198              	.LVL142:
 1199              	.LBE21:
 1200              	.LBE20:
 1201              		.loc 1 374 0
 1202 065a 03B0     		add	sp, sp, #12
 1203              		.cfi_remember_state
 1204              		.cfi_def_cfa_offset 12
 1205              		@ sp needed
 1206 065c 30BD     		pop	{r4, r5, pc}
 1207              	.LVL143:
 1208              	.L89:
 1209              		.cfi_restore_state
 1210              		.loc 1 240 0
 1211 065e 0123     		movs	r3, #1
 1212              		.loc 1 238 0
 1213 0660 0224     		movs	r4, #2
 1214              		.loc 1 239 0
 1215 0662 7120     		movs	r0, #113
 1216              		.loc 1 241 0
 1217 0664 9321     		movs	r1, #147
 1218              		.loc 1 242 0
 1219 0666 2922     		movs	r2, #41
 1220              		.loc 1 238 0
 1221 0668 8DF80040 		strb	r4, [sp]
 1222              		.loc 1 239 0
 1223 066c 8DF80100 		strb	r0, [sp, #1]
 1224              		.loc 1 240 0
 1225 0670 8DF80230 		strb	r3, [sp, #2]
 1226              		.loc 1 243 0
 1227 0674 8DF80530 		strb	r3, [sp, #5]
 1228              		.loc 1 241 0
 1229 0678 8DF80310 		strb	r1, [sp, #3]
 1230              		.loc 1 242 0
 1231 067c 8DF80420 		strb	r2, [sp, #4]
 1232 0680 8AE6     		b	.L77
 1233              	.LVL144:
 1234              	.L90:
 1235              	.LBB23:
 1236              	.LBB22:
 1237              		.loc 1 261 0
 1238 0682 0720     		movs	r0, #7
 1239 0684 FFF7FEFF 		bl	setErrorFlag
ARM GAS  /var/folders/28/j9jfyj_n4wz3qtvnym210h2c0000gn/T//cc4CtQEP.s 			page 23


 1240              	.LVL145:
 1241 0688 9CE6     		b	.L79
 1242              	.L93:
 1243 068a 00BF     		.align	2
 1244              	.L92:
 1245 068c 00000000 		.word	.LANCHOR2
 1246              	.LBE22:
 1247              	.LBE23:
 1248              		.cfi_endproc
 1249              	.LFE141:
 1250              		.size	codec_ADAU1961_hw_init, .-codec_ADAU1961_hw_init
 1251              		.align	2
 1252              		.p2align 4,,15
 1253              		.global	codec_ADAU1961_i2s_init
 1254              		.thumb
 1255              		.thumb_func
 1256              		.type	codec_ADAU1961_i2s_init, %function
 1257              	codec_ADAU1961_i2s_init:
 1258              	.LFB143:
 1259              		.loc 1 394 0
 1260              		.cfi_startproc
 1261              		@ args = 0, pretend = 0, frame = 0
 1262              		@ frame_needed = 0, uses_anonymous_args = 0
 1263              	.LVL146:
 1264 0690 2DE9F84F 		push	{r3, r4, r5, r6, r7, r8, r9, r10, fp, lr}
 1265              		.cfi_def_cfa_offset 40
 1266              		.cfi_offset 3, -40
 1267              		.cfi_offset 4, -36
 1268              		.cfi_offset 5, -32
 1269              		.cfi_offset 6, -28
 1270              		.cfi_offset 7, -24
 1271              		.cfi_offset 8, -20
 1272              		.cfi_offset 9, -16
 1273              		.cfi_offset 10, -12
 1274              		.cfi_offset 11, -8
 1275              		.cfi_offset 14, -4
 1276              		.loc 1 395 0
 1277 0694 DFF8E0B1 		ldr	fp, .L102+48
 1278              		.loc 1 396 0
 1279 0698 DFF8E091 		ldr	r9, .L102+52
 1280              		.loc 1 395 0
 1281 069c 6A4D     		ldr	r5, .L102
 1282              		.loc 1 396 0
 1283 069e 6B4C     		ldr	r4, .L102+4
 1284              		.loc 1 399 0
 1285 06a0 6B48     		ldr	r0, .L102+8
 1286              	.LVL147:
 1287              		.loc 1 395 0
 1288 06a2 CBF80050 		str	r5, [fp]
 1289              		.loc 1 399 0
 1290 06a6 4FF48071 		mov	r1, #256
 1291 06aa 0122     		movs	r2, #1
 1292              		.loc 1 396 0
 1293 06ac C9F80040 		str	r4, [r9]
 1294              		.loc 1 399 0
 1295 06b0 FFF7FEFF 		bl	_pal_lld_setgroupmode
 1296              	.LVL148:
ARM GAS  /var/folders/28/j9jfyj_n4wz3qtvnym210h2c0000gn/T//cc4CtQEP.s 			page 24


 1297              		.loc 1 400 0
 1298 06b4 4FF48071 		mov	r1, #256
 1299 06b8 0222     		movs	r2, #2
 1300 06ba 6548     		ldr	r0, .L102+8
 1301              		.loc 1 502 0
 1302 06bc DFF8C081 		ldr	r8, .L102+56
 1303              		.loc 1 501 0
 1304 06c0 644F     		ldr	r7, .L102+12
 1305              		.loc 1 400 0
 1306 06c2 FFF7FEFF 		bl	_pal_lld_setgroupmode
 1307              	.LVL149:
 1308              		.loc 1 401 0
 1309 06c6 0A20     		movs	r0, #10
 1310 06c8 FFF7FEFF 		bl	chThdSleep
 1311              	.LVL150:
 1312              		.loc 1 407 0
 1313 06cc 6248     		ldr	r0, .L102+16
 1314 06ce 0821     		movs	r1, #8
 1315 06d0 0022     		movs	r2, #0
 1316 06d2 FFF7FEFF 		bl	_pal_lld_setgroupmode
 1317              	.LVL151:
 1318              		.loc 1 408 0
 1319 06d6 6048     		ldr	r0, .L102+16
 1320 06d8 1021     		movs	r1, #16
 1321 06da 0022     		movs	r2, #0
 1322 06dc FFF7FEFF 		bl	_pal_lld_setgroupmode
 1323              	.LVL152:
 1324              		.loc 1 409 0
 1325 06e0 5D48     		ldr	r0, .L102+16
 1326 06e2 2021     		movs	r1, #32
 1327 06e4 0022     		movs	r2, #0
 1328 06e6 FFF7FEFF 		bl	_pal_lld_setgroupmode
 1329              	.LVL153:
 1330              		.loc 1 410 0
 1331 06ea 4021     		movs	r1, #64
 1332 06ec 5A48     		ldr	r0, .L102+16
 1333 06ee 0022     		movs	r2, #0
 1334 06f0 FFF7FEFF 		bl	_pal_lld_setgroupmode
 1335              	.LVL154:
 1336              		.loc 1 425 0
 1337 06f4 594A     		ldr	r2, .L102+20
 1338 06f6 536C     		ldr	r3, [r2, #68]
 1339 06f8 43F48003 		orr	r3, r3, #4194304
 1340 06fc 5364     		str	r3, [r2, #68]
 1341              		.loc 1 431 0
 1342 06fe 0120     		movs	r0, #1
 1343 0700 FFF7FEFF 		bl	chThdSleep
 1344              	.LVL155:
 1345              		.loc 1 432 0
 1346 0704 0226     		movs	r6, #2
 1347              		.loc 1 460 0
 1348 0706 564B     		ldr	r3, .L102+24
 1349              		.loc 1 480 0
 1350 0708 DFF878E1 		ldr	lr, .L102+60
 1351              		.loc 1 434 0
 1352 070c 554A     		ldr	r2, .L102+28
 1353              		.loc 1 487 0
ARM GAS  /var/folders/28/j9jfyj_n4wz3qtvnym210h2c0000gn/T//cc4CtQEP.s 			page 25


 1354 070e 5649     		ldr	r1, .L102+32
 1355              		.loc 1 432 0
 1356 0710 6E60     		str	r6, [r5, #4]
 1357              		.loc 1 489 0
 1358 0712 0120     		movs	r0, #1
 1359              		.loc 1 433 0
 1360 0714 6660     		str	r6, [r4, #4]
 1361              		.loc 1 434 0
 1362 0716 AA60     		str	r2, [r5, #8]
 1363              		.loc 1 447 0
 1364 0718 A260     		str	r2, [r4, #8]
 1365              		.loc 1 460 0
 1366 071a EB60     		str	r3, [r5, #12]
 1367              		.loc 1 461 0
 1368 071c E360     		str	r3, [r4, #12]
 1369              	.LVL156:
 1370              		.loc 1 480 0
 1371 071e C5F800E0 		str	lr, [r5]
 1372              	.LVL157:
 1373              		.loc 1 487 0
 1374 0722 2160     		str	r1, [r4]
 1375              		.loc 1 489 0
 1376 0724 FFF7FEFF 		bl	chThdSleep
 1377              	.LVL158:
 1378              		.loc 1 495 0
 1379 0728 4B48     		ldr	r0, .L102+16
 1380              		.loc 1 518 0
 1381 072a 504D     		ldr	r5, .L102+36
 1382              		.loc 1 495 0
 1383 072c 0821     		movs	r1, #8
 1384 072e 40F20232 		movw	r2, #770
 1385 0732 FFF7FEFF 		bl	_pal_lld_setgroupmode
 1386              	.LVL159:
 1387              		.loc 1 496 0
 1388 0736 4848     		ldr	r0, .L102+16
 1389 0738 1021     		movs	r1, #16
 1390 073a 40F20232 		movw	r2, #770
 1391 073e FFF7FEFF 		bl	_pal_lld_setgroupmode
 1392              	.LVL160:
 1393              		.loc 1 497 0
 1394 0742 4548     		ldr	r0, .L102+16
 1395 0744 2021     		movs	r1, #32
 1396 0746 40F20232 		movw	r2, #770
 1397 074a FFF7FEFF 		bl	_pal_lld_setgroupmode
 1398              	.LVL161:
 1399              		.loc 1 498 0
 1400 074e 4248     		ldr	r0, .L102+16
 1401 0750 4021     		movs	r1, #64
 1402 0752 40F20232 		movw	r2, #770
 1403 0756 FFF7FEFF 		bl	_pal_lld_setgroupmode
 1404              	.LVL162:
 1405              		.loc 1 501 0
 1406 075a 4548     		ldr	r0, .L102+40
 1407              		.loc 1 513 0
 1408 075c 454A     		ldr	r2, .L102+44
 1409              		.loc 1 501 0
 1410 075e 3860     		str	r0, [r7]
ARM GAS  /var/folders/28/j9jfyj_n4wz3qtvnym210h2c0000gn/T//cc4CtQEP.s 			page 26


 1411              		.loc 1 502 0
 1412 0760 00F12404 		add	r4, r0, #36
 1413              		.loc 1 513 0
 1414 0764 3146     		mov	r1, r6
 1415 0766 0023     		movs	r3, #0
 1416              		.loc 1 502 0
 1417 0768 C8F80040 		str	r4, [r8]
 1418              	.LVL163:
 1419              		.loc 1 513 0
 1420 076c FFF7FEFF 		bl	dmaStreamAllocate
 1421              	.LVL164:
 1422              		.loc 1 517 0
 1423 0770 3A68     		ldr	r2, [r7]
 1424 0772 DBF80030 		ldr	r3, [fp]
 1425 0776 1468     		ldr	r4, [r2]
 1426              		.loc 1 521 0
 1427 0778 DFF80CE1 		ldr	lr, .L102+64
 1428              		.loc 1 517 0
 1429 077c 1C33     		adds	r3, r3, #28
 1430              		.loc 1 519 0
 1431 077e 05F5807B 		add	fp, r5, #256
 1432              		.loc 1 520 0
 1433 0782 4FF0200C 		mov	ip, #32
 1434              		.loc 1 523 0
 1435 0786 0022     		movs	r2, #0
 1436              		.loc 1 517 0
 1437 0788 A360     		str	r3, [r4, #8]
 1438              		.loc 1 513 0
 1439 078a 8246     		mov	r10, r0
 1440              	.LVL165:
 1441              		.loc 1 518 0
 1442 078c E560     		str	r5, [r4, #12]
 1443              		.loc 1 523 0
 1444 078e D8F80000 		ldr	r0, [r8]
 1445              		.loc 1 519 0
 1446 0792 C4F810B0 		str	fp, [r4, #16]
 1447              		.loc 1 523 0
 1448 0796 3146     		mov	r1, r6
 1449              		.loc 1 520 0
 1450 0798 C4F804C0 		str	ip, [r4, #4]
 1451              		.loc 1 523 0
 1452 079c 1346     		mov	r3, r2
 1453              		.loc 1 521 0
 1454 079e C4F800E0 		str	lr, [r4]
 1455              		.loc 1 523 0
 1456 07a2 FFF7FEFF 		bl	dmaStreamAllocate
 1457              	.LVL166:
 1458              		.loc 1 527 0
 1459 07a6 0028     		cmp	r0, #0
 1460 07a8 4AD1     		bne	.L97
 1461 07aa BAF1000F 		cmp	r10, #0
 1462 07ae 47D1     		bne	.L97
 1463              	.LVL167:
 1464              	.L95:
 1465              		.loc 1 531 0
 1466 07b0 D8F80010 		ldr	r1, [r8]
 1467 07b4 D9F80050 		ldr	r5, [r9]
ARM GAS  /var/folders/28/j9jfyj_n4wz3qtvnym210h2c0000gn/T//cc4CtQEP.s 			page 27


 1468              		.loc 1 532 0
 1469 07b8 DFF8D0C0 		ldr	ip, .L102+68
 1470              		.loc 1 531 0
 1471 07bc 0B68     		ldr	r3, [r1]
 1472              		.loc 1 541 0
 1473 07be 3C68     		ldr	r4, [r7]
 1474              		.loc 1 535 0
 1475 07c0 DFF8CC90 		ldr	r9, .L102+72
 1476              		.loc 1 538 0
 1477 07c4 D1F80480 		ldr	r8, [r1, #4]
 1478              		.loc 1 544 0
 1479 07c8 1F48     		ldr	r0, .L102
 1480              		.loc 1 545 0
 1481 07ca 204E     		ldr	r6, .L102+4
 1482              		.loc 1 548 0
 1483 07cc 234A     		ldr	r2, .L102+20
 1484              		.loc 1 531 0
 1485 07ce 1C35     		adds	r5, r5, #28
 1486              		.loc 1 532 0
 1487 07d0 0CF5807B 		add	fp, ip, #256
 1488              		.loc 1 534 0
 1489 07d4 4FF0200A 		mov	r10, #32
 1490              		.loc 1 542 0
 1491 07d8 94E88040 		ldmia	r4, {r7, lr}
 1492              		.loc 1 531 0
 1493 07dc 9D60     		str	r5, [r3, #8]
 1494              		.loc 1 532 0
 1495 07de C3F80CB0 		str	fp, [r3, #12]
 1496              		.loc 1 533 0
 1497 07e2 C3F810C0 		str	ip, [r3, #16]
 1498              		.loc 1 534 0
 1499 07e6 C3F804A0 		str	r10, [r3, #4]
 1500              		.loc 1 535 0
 1501 07ea C3F80090 		str	r9, [r3]
 1502              		.loc 1 538 0
 1503 07ee 0D7A     		ldrb	r5, [r1, #8]	@ zero_extendqisi2
 1504 07f0 3D21     		movs	r1, #61
 1505 07f2 01FA05F5 		lsl	r5, r1, r5
 1506 07f6 C8F80050 		str	r5, [r8]
 1507              		.loc 1 539 0
 1508 07fa 1D68     		ldr	r5, [r3]
 1509 07fc 45F00105 		orr	r5, r5, #1
 1510 0800 1D60     		str	r5, [r3]
 1511              		.loc 1 541 0
 1512 0802 237A     		ldrb	r3, [r4, #8]	@ zero_extendqisi2
 1513 0804 9940     		lsls	r1, r1, r3
 1514 0806 CEF80010 		str	r1, [lr]
 1515              		.loc 1 542 0
 1516 080a 3B68     		ldr	r3, [r7]
 1517 080c 43F00103 		orr	r3, r3, #1
 1518 0810 3B60     		str	r3, [r7]
 1519              		.loc 1 544 0
 1520 0812 0368     		ldr	r3, [r0]
 1521 0814 43F48033 		orr	r3, r3, #65536
 1522 0818 0360     		str	r3, [r0]
 1523              		.loc 1 545 0
 1524 081a 3368     		ldr	r3, [r6]
ARM GAS  /var/folders/28/j9jfyj_n4wz3qtvnym210h2c0000gn/T//cc4CtQEP.s 			page 28


 1525 081c 43F48033 		orr	r3, r3, #65536
 1526 0820 3360     		str	r3, [r6]
 1527              		.loc 1 548 0
 1528 0822 1368     		ldr	r3, [r2]
 1529              		.loc 1 549 0
 1530 0824 5368     		ldr	r3, [r2, #4]
 1531              		.loc 1 550 0
 1532 0826 9368     		ldr	r3, [r2, #8]
 1533              		.loc 1 551 0
 1534 0828 D2F88430 		ldr	r3, [r2, #132]
 1535              		.loc 1 552 0
 1536 082c D2F88830 		ldr	r3, [r2, #136]
 1537              		.loc 1 553 0
 1538 0830 0368     		ldr	r3, [r0]
 1539              		.loc 1 554 0
 1540 0832 D2F88C30 		ldr	r3, [r2, #140]
 1541              		.loc 1 556 0
 1542 0836 0120     		movs	r0, #1
 1543              		.loc 1 558 0
 1544 0838 BDE8F84F 		pop	{r3, r4, r5, r6, r7, r8, r9, r10, fp, lr}
 1545              		.cfi_remember_state
 1546              		.cfi_restore 14
 1547              		.cfi_restore 11
 1548              		.cfi_restore 10
 1549              		.cfi_restore 9
 1550              		.cfi_restore 8
 1551              		.cfi_restore 7
 1552              		.cfi_restore 6
 1553              		.cfi_restore 5
 1554              		.cfi_restore 4
 1555              		.cfi_restore 3
 1556              		.cfi_def_cfa_offset 0
 1557              		.loc 1 556 0
 1558 083c FFF7FEBF 		b	chThdSleep
 1559              	.LVL168:
 1560              	.L97:
 1561              		.cfi_restore_state
 1562              		.loc 1 528 0
 1563 0840 0720     		movs	r0, #7
 1564              	.LVL169:
 1565 0842 FFF7FEFF 		bl	setErrorFlag
 1566              	.LVL170:
 1567 0846 B3E7     		b	.L95
 1568              	.L103:
 1569              		.align	2
 1570              	.L102:
 1571 0848 04580140 		.word	1073829892
 1572 084c 24580140 		.word	1073829924
 1573 0850 00000240 		.word	1073872896
 1574 0854 00000000 		.word	sai_a_dma
 1575 0858 00100240 		.word	1073876992
 1576 085c 00380240 		.word	1073887232
 1577 0860 00010300 		.word	196864
 1578 0864 3F1F0400 		.word	270143
 1579 0868 E3060200 		.word	132835
 1580 086c 80000000 		.word	.LANCHOR0+128
 1581 0870 6C000000 		.word	_stm32_dma_streams+108
ARM GAS  /var/folders/28/j9jfyj_n4wz3qtvnym210h2c0000gn/T//cc4CtQEP.s 			page 29


 1582 0874 00000000 		.word	dma_sai_a_interrupt
 1583 0878 00000000 		.word	sai_a
 1584 087c 00000000 		.word	sai_b
 1585 0880 00000000 		.word	sai_b_dma
 1586 0884 E2020200 		.word	131810
 1587 0888 54540500 		.word	349268
 1588 088c 00000000 		.word	.LANCHOR0
 1589 0890 14540502 		.word	33903636
 1590              		.cfi_endproc
 1591              	.LFE143:
 1592              		.size	codec_ADAU1961_i2s_init, .-codec_ADAU1961_i2s_init
 1593              		.align	2
 1594 0894 AFF30080 		.p2align 4,,15
 1594      AFF30080 
 1594      AFF30080 
 1595              		.global	codec_init
 1596              		.thumb
 1597              		.thumb_func
 1598              		.type	codec_init, %function
 1599              	codec_init:
 1600              	.LFB130:
 1601              		.loc 2 38 0
 1602              		.cfi_startproc
 1603              		@ args = 0, pretend = 0, frame = 0
 1604              		@ frame_needed = 0, uses_anonymous_args = 0
 1605 08a0 08B5     		push	{r3, lr}
 1606              		.cfi_def_cfa_offset 8
 1607              		.cfi_offset 3, -8
 1608              		.cfi_offset 14, -4
 1609              		.loc 2 47 0
 1610 08a2 4BF68030 		movw	r0, #48000
 1611 08a6 FFF7FEFF 		bl	codec_ADAU1961_i2s_init
 1612              	.LVL171:
 1613              		.loc 2 48 0
 1614 08aa 4BF68030 		movw	r0, #48000
 1615              		.loc 2 52 0
 1616 08ae BDE80840 		pop	{r3, lr}
 1617              		.cfi_restore 14
 1618              		.cfi_restore 3
 1619              		.cfi_def_cfa_offset 0
 1620              		.loc 2 48 0
 1621 08b2 FFF7FEBF 		b	codec_ADAU1961_hw_init
 1622              	.LVL172:
 1623              		.cfi_endproc
 1624              	.LFE130:
 1625              		.size	codec_init, .-codec_init
 1626 08b6 00BF     		.align	2
 1627 08b8 AFF30080 		.p2align 4,,15
 1627      AFF30080 
 1628              		.global	codec_ADAU1961_Stop
 1629              		.thumb
 1630              		.thumb_func
 1631              		.type	codec_ADAU1961_Stop, %function
 1632              	codec_ADAU1961_Stop:
 1633              	.LFB144:
 1634              		.loc 1 560 0
 1635              		.cfi_startproc
ARM GAS  /var/folders/28/j9jfyj_n4wz3qtvnym210h2c0000gn/T//cc4CtQEP.s 			page 30


 1636              		@ args = 0, pretend = 0, frame = 0
 1637              		@ frame_needed = 0, uses_anonymous_args = 0
 1638              		@ link register save eliminated.
 1639 08c0 7047     		bx	lr
 1640              		.cfi_endproc
 1641              	.LFE144:
 1642              		.size	codec_ADAU1961_Stop, .-codec_ADAU1961_Stop
 1643              		.comm	sai_b,4,4
 1644              		.comm	sai_a,4,4
 1645              		.comm	codec_interrupt_timestamp,4,4
 1646              		.comm	sai_b_dma,4,4
 1647              		.comm	sai_a_dma,4,4
 1648              		.global	rbuf2
 1649              		.global	rbuf
 1650              		.global	buf2
 1651              		.global	buf
 1652              		.section	.rodata
 1653              		.align	2
 1654              		.set	.LANCHOR1,. + 0
 1655              		.type	i2cfg2, %object
 1656              		.size	i2cfg2, 12
 1657              	i2cfg2:
 1658 0000 01       		.byte	1
 1659 0001 000000   		.space	3
 1660 0004 A0860100 		.word	100000
 1661 0008 01       		.byte	1
 1662 0009 000000   		.space	3
 1663              		.section	.sram2,"aw",%progbits
 1664              		.align	2
 1665              		.set	.LANCHOR0,. + 0
 1666              		.type	rbuf2, %object
 1667              		.size	rbuf2, 128
 1668              	rbuf2:
 1669 0000 00000000 		.space	128
 1669      00000000 
 1669      00000000 
 1669      00000000 
 1669      00000000 
 1670              		.type	buf, %object
 1671              		.size	buf, 128
 1672              	buf:
 1673 0080 00000000 		.space	128
 1673      00000000 
 1673      00000000 
 1673      00000000 
 1673      00000000 
 1674              		.type	rbuf, %object
 1675              		.size	rbuf, 128
 1676              	rbuf:
 1677 0100 00000000 		.space	128
 1677      00000000 
 1677      00000000 
 1677      00000000 
 1677      00000000 
 1678              		.type	buf2, %object
 1679              		.size	buf2, 128
 1680              	buf2:
ARM GAS  /var/folders/28/j9jfyj_n4wz3qtvnym210h2c0000gn/T//cc4CtQEP.s 			page 31


 1681 0180 00000000 		.space	128
 1681      00000000 
 1681      00000000 
 1681      00000000 
 1681      00000000 
 1682              		.bss
 1683              		.align	2
 1684              		.set	.LANCHOR2,. + 0
 1685              		.type	i2ctxbuf, %object
 1686              		.size	i2ctxbuf, 8
 1687              	i2ctxbuf:
 1688 0000 00000000 		.space	8
 1688      00000000 
 1689              		.type	i2crxbuf, %object
 1690              		.size	i2crxbuf, 8
 1691              	i2crxbuf:
 1692 0008 00000000 		.space	8
 1692      00000000 
 1693              		.type	tmo, %object
 1694              		.size	tmo, 4
 1695              	tmo:
 1696 0010 00000000 		.space	4
 1697              		.type	rd.7502, %object
 1698              		.size	rd.7502, 1
 1699              	rd.7502:
 1700 0014 00       		.space	1
 1701              		.text
 1702              	.Letext0:
 1703              		.file 3 "/Applications/axoloti_runtime/platform_osx/arm-none-eabi/include/machine/_default_types.h
 1704              		.file 4 "/Applications/axoloti_runtime/platform_osx/arm-none-eabi/include/sys/_stdint.h"
 1705              		.file 5 "/Applications/axoloti_runtime/platform_osx/lib/gcc/arm-none-eabi/4.9.3/include/stddef.h"
 1706              		.file 6 "/Applications/Axoloti.app/Contents/Java/chibios/os/ports/GCC/ARMCMx/chtypes.h"
 1707              		.file 7 "/Applications/Axoloti.app/Contents/Java/chibios/os/kernel/include/chlists.h"
 1708              		.file 8 "/Applications/Axoloti.app/Contents/Java/chibios/os/kernel/include/chthreads.h"
 1709              		.file 9 "/Applications/Axoloti.app/Contents/Java/chibios/os/ports/GCC/ARMCMx/chcore_v7m.h"
 1710              		.file 10 "/Applications/Axoloti.app/Contents/Java/chibios/os/ports/common/ARMCMx/nvic.h"
 1711              		.file 11 "/Applications/Axoloti.app/Contents/Java/chibios/os/kernel/include/chmtx.h"
 1712              		.file 12 "/Applications/Axoloti.app/Contents/Java/chibios/os/hal/platforms/STM32F4xx/stm32f4xx.h"
 1713              		.file 13 "/Applications/Axoloti.app/Contents/Java/chibios/os/hal/platforms/STM32F4xx/stm32_dma.h"
 1714              		.file 14 "/Applications/Axoloti.app/Contents/Java/chibios/os/hal/platforms/STM32/GPIOv2/pal_lld.h"
 1715              		.file 15 "/Applications/Axoloti.app/Contents/Java/chibios/os/hal/include/i2c.h"
 1716              		.file 16 "/Applications/Axoloti.app/Contents/Java/chibios/os/hal/platforms/STM32/I2Cv1/i2c_lld.h"
 1717              		.file 17 "sysmon.h"
 1718              		.file 18 "/Applications/Axoloti.app/Contents/Java/CMSIS//Include/core_cm4.h"
 1719              		.file 19 "axoloti_board.h"