ARM GAS  /var/folders/28/j9jfyj_n4wz3qtvnym210h2c0000gn/T//ccYibR7K.s 			page 1


   1              		.syntax unified
   2              		.cpu cortex-m4
   3              		.eabi_attribute 27, 1
   4              		.eabi_attribute 28, 1
   5              		.fpu fpv4-sp-d16
   6              		.eabi_attribute 20, 1
   7              		.eabi_attribute 21, 1
   8              		.eabi_attribute 23, 3
   9              		.eabi_attribute 24, 1
  10              		.eabi_attribute 25, 1
  11              		.eabi_attribute 26, 1
  12              		.eabi_attribute 30, 2
  13              		.eabi_attribute 34, 1
  14              		.eabi_attribute 18, 4
  15              		.thumb
  16              		.file	"filter_bank.cpp"
  17              		.text
  18              	.Ltext0:
  19              		.cfi_sections	.debug_frame
  20              		.align	2
  21              		.p2align 4,,15
  22              		.global	_ZN5warps10FilterBank4InitEf
  23              		.thumb
  24              		.thumb_func
  25              		.type	_ZN5warps10FilterBank4InitEf, %function
  26              	_ZN5warps10FilterBank4InitEf:
  27              		.fnstart
  28              	.LFB664:
  29              		.file 1 "./mutable_instruments/warps/dsp/filter_bank.cpp"
  30              		.loc 1 42 0
  31              		.cfi_startproc
  32              		@ args = 0, pretend = 0, frame = 72
  33              		@ frame_needed = 0, uses_anonymous_args = 0
  34              	.LVL0:
  35 0000 2DE9F04F 		push	{r4, r5, r6, r7, r8, r9, r10, fp, lr}
  36              		.save {r4, r5, r6, r7, r8, r9, r10, fp, lr}
  37              		.cfi_def_cfa_offset 36
  38              		.cfi_offset 4, -36
  39              		.cfi_offset 5, -32
  40              		.cfi_offset 6, -28
  41              		.cfi_offset 7, -24
  42              		.cfi_offset 8, -20
  43              		.cfi_offset 9, -16
  44              		.cfi_offset 10, -12
  45              		.cfi_offset 11, -8
  46              		.cfi_offset 14, -4
  47 0004 2DED028B 		fstmfdd	sp!, {d8}
  48              		.vsave {d8}
  49              		.cfi_def_cfa_offset 44
  50              		.cfi_offset 80, -44
  51              		.cfi_offset 81, -40
  52              		.pad #76
  53 0008 93B0     		sub	sp, sp, #76
  54              		.cfi_def_cfa_offset 120
  55              		.loc 1 42 0
  56 000a 0446     		mov	r4, r0
  57 000c 0F90     		str	r0, [sp, #60]
ARM GAS  /var/folders/28/j9jfyj_n4wz3qtvnym210h2c0000gn/T//ccYibR7K.s 			page 2


  58              	.LBB3264:
  59              		.loc 1 43 0
  60 000e 4FF4C040 		mov	r0, #24576
  61              	.LVL1:
  62              	.LBE3264:
  63              		.loc 1 42 0
  64 0012 B0EE408A 		fcpys	s16, s0
  65              	.LBB3367:
  66              		.loc 1 43 0
  67 0016 FFF7FEFF 		bl	sdram_malloc
  68              	.LVL2:
  69              	.LBB3265:
  70              	.LBB3266:
  71              		.file 2 "./mutable_instruments/warps/dsp/sample_rate_converter.h"
  72              		.loc 2 212 0
  73 001a 04F5DA72 		add	r2, r4, #436
  74              	.LBE3266:
  75              	.LBE3265:
  76              		.loc 1 43 0
  77 001e 0746     		mov	r7, r0
  78 0020 C4F86876 		str	r7, [r4, #1640]
  79              	.LVL3:
  80              	.LBB3274:
  81              	.LBB3273:
  82              	.LBB3267:
  83              	.LBB3268:
  84              	.LBB3269:
  85              		.file 3 "/Applications/axoloti_runtime/platform_osx/arm-none-eabi/include/c++/4.9.3/bits/stl_algob
  86              		.loc 3 704 0
  87 0024 0020     		movs	r0, #0
  88              	.LBE3269:
  89              	.LBE3268:
  90              	.LBE3267:
  91              		.loc 2 212 0
  92 0026 1346     		mov	r3, r2
  93 0028 04F54D71 		add	r1, r4, #820
  94              	.LVL4:
  95              	.L2:
  96              	.LBB3272:
  97              	.LBB3271:
  98              	.LBB3270:
  99              		.loc 3 704 0
 100 002c 43F8040B 		str	r0, [r3], #4	@ float
 101              	.LVL5:
 102              		.loc 3 703 0
 103 0030 9942     		cmp	r1, r3
 104 0032 FBD1     		bne	.L2
 105              	.LBE3270:
 106              	.LBE3271:
 107              	.LBE3272:
 108              		.loc 2 213 0
 109 0034 0F9C     		ldr	r4, [sp, #60]
 110              	.LVL6:
 111 0036 04F51C73 		add	r3, r4, #624
 112              	.LVL7:
 113 003a C4F83433 		str	r3, [r4, #820]
 114              	.LVL8:
ARM GAS  /var/folders/28/j9jfyj_n4wz3qtvnym210h2c0000gn/T//ccYibR7K.s 			page 3


 115              	.LBE3273:
 116              	.LBE3274:
 117              	.LBB3275:
 118              	.LBB3276:
 119              	.LBB3277:
 120              	.LBB3278:
 121              	.LBB3279:
 122              		.loc 3 704 0
 123 003e 0020     		movs	r0, #0
 124              	.LBE3279:
 125              	.LBE3278:
 126              	.LBE3277:
 127              		.loc 2 176 0
 128 0040 04F54E73 		add	r3, r4, #824
 129 0044 04F55A71 		add	r1, r4, #872
 130              	.LVL9:
 131              	.L3:
 132              	.LBB3282:
 133              	.LBB3281:
 134              	.LBB3280:
 135              		.loc 3 704 0
 136 0048 43F8040B 		str	r0, [r3], #4	@ float
 137              	.LVL10:
 138              		.loc 3 703 0
 139 004c 9942     		cmp	r1, r3
 140 004e FBD1     		bne	.L3
 141              	.LVL11:
 142              	.LBE3280:
 143              	.LBE3281:
 144              	.LBE3282:
 145              	.LBE3276:
 146              	.LBE3275:
 147              	.LBB3283:
 148              	.LBB3284:
 149              		.loc 2 212 0 discriminator 1
 150 0050 0F99     		ldr	r1, [sp, #60]
 151              	.LVL12:
 152              	.LBB3285:
 153              	.LBB3286:
 154              	.LBB3287:
 155              		.loc 3 704 0 discriminator 1
 156 0052 0020     		movs	r0, #0
 157              	.LBE3287:
 158              	.LBE3286:
 159              	.LBE3285:
 160              		.loc 2 212 0 discriminator 1
 161 0054 0B46     		mov	r3, r1
 162              	.LVL13:
 163 0056 01F5C071 		add	r1, r1, #384
 164              	.LVL14:
 165              	.L4:
 166              	.LBB3290:
 167              	.LBB3289:
 168              	.LBB3288:
 169              		.loc 3 704 0
 170 005a 43F8040B 		str	r0, [r3], #4	@ float
 171              	.LVL15:
ARM GAS  /var/folders/28/j9jfyj_n4wz3qtvnym210h2c0000gn/T//ccYibR7K.s 			page 4


 172              		.loc 3 703 0
 173 005e 9942     		cmp	r1, r3
 174 0060 FBD1     		bne	.L4
 175              	.LBE3288:
 176              	.LBE3289:
 177              	.LBE3290:
 178              		.loc 2 213 0
 179 0062 0F9C     		ldr	r4, [sp, #60]
 180              	.LVL16:
 181              	.LBE3284:
 182              	.LBE3283:
 183              	.LBB3293:
 184              	.LBB3294:
 185              		.loc 2 176 0
 186 0064 04F5C273 		add	r3, r4, #388
 187              	.LVL17:
 188              	.LBE3294:
 189              	.LBE3293:
 190              	.LBB3303:
 191              	.LBB3291:
 192              		.loc 2 213 0
 193 0068 04F1BC01 		add	r1, r4, #188
 194              	.LVL18:
 195              	.LBE3291:
 196              	.LBE3303:
 197              	.LBB3304:
 198              	.LBB3301:
 199              	.LBB3295:
 200              	.LBB3296:
 201              	.LBB3297:
 202              		.loc 3 703 0
 203 006c 9342     		cmp	r3, r2
 204              	.LBE3297:
 205              	.LBE3296:
 206              	.LBE3295:
 207              	.LBE3301:
 208              	.LBE3304:
 209              	.LBB3305:
 210              	.LBB3292:
 211              		.loc 2 213 0
 212 006e C4F88011 		str	r1, [r4, #384]
 213              	.LVL19:
 214              	.LBE3292:
 215              	.LBE3305:
 216              	.LBB3306:
 217              	.LBB3302:
 218              	.LBB3300:
 219              	.LBB3299:
 220              	.LBB3298:
 221              		.loc 3 704 0
 222 0072 18BF     		it	ne
 223 0074 0021     		movne	r1, #0
 224              		.loc 3 703 0
 225 0076 03D0     		beq	.L8
 226              	.LVL20:
 227              	.L7:
 228              		.loc 3 704 0
ARM GAS  /var/folders/28/j9jfyj_n4wz3qtvnym210h2c0000gn/T//ccYibR7K.s 			page 5


 229 0078 43F8041B 		str	r1, [r3], #4	@ float
 230              	.LVL21:
 231              		.loc 3 703 0
 232 007c 9A42     		cmp	r2, r3
 233 007e FBD1     		bne	.L7
 234              	.L8:
 235              	.LVL22:
 236              	.LBE3298:
 237              	.LBE3299:
 238              	.LBE3300:
 239              	.LBE3302:
 240              	.LBE3306:
 241              		.loc 1 50 0
 242 0080 0F9A     		ldr	r2, [sp, #60]
 243              	.LVL23:
 244              	.LBB3307:
 245              	.LBB3308:
 246              	.LBB3309:
 247              	.LBB3310:
 248              	.LBB3311:
 249              	.LBB3312:
 250              		.file 4 "./mutable_instruments/stmlib/dsp/filter.h"
 251              		.loc 4 661 0
 252 0082 DFED7C7A 		flds	s15, .L28
 253 0086 1097     		str	r7, [sp, #64]
 254              	.LBE3312:
 255              	.LBE3311:
 256              	.LBE3310:
 257              	.LBE3309:
 258              	.LBE3308:
 259              	.LBE3307:
 260              		.loc 1 49 0
 261 0088 0023     		movs	r3, #0
 262              	.LVL24:
 263              		.loc 1 53 0
 264 008a 4FF0FF3C 		mov	ip, #-1
 265              		.loc 1 49 0
 266 008e 0293     		str	r3, [sp, #8]
 267              	.LBB3341:
 268              		.loc 1 54 0
 269 0090 9846     		mov	r8, r3
 270              	.LBE3341:
 271              		.loc 1 50 0
 272 0092 02F57A75 		add	r5, r2, #1000
 273              	.LVL25:
 274 0096 784B     		ldr	r3, .L28+4
 275 0098 0393     		str	r3, [sp, #12]
 276 009a 1446     		mov	r4, r2
 277              	.LVL26:
 278 009c CDF804C0 		str	ip, [sp, #4]
 279 00a0 2E46     		mov	r6, r5
 280 00a2 6746     		mov	r7, ip
 281 00a4 1192     		str	r2, [sp, #68]
 282              	.LVL27:
 283              	.L6:
 284              	.LBB3342:
 285              	.LBB3338:
ARM GAS  /var/folders/28/j9jfyj_n4wz3qtvnym210h2c0000gn/T//ccYibR7K.s 			page 6


 286              		.loc 1 55 0
 287 00a6 039A     		ldr	r2, [sp, #12]
 288 00a8 04F5D163 		add	r3, r4, #1672
 289 00ac 0493     		str	r3, [sp, #16]
 290 00ae 04F5D063 		add	r3, r4, #1664
 291 00b2 0593     		str	r3, [sp, #20]
 292 00b4 52F8043F 		ldr	r3, [r2, #4]!
 293 00b8 0392     		str	r2, [sp, #12]
 294              	.LVL28:
 295 00ba 04F5CF62 		add	r2, r4, #1656
 296 00be 0692     		str	r2, [sp, #24]
 297 00c0 04F2B462 		addw	r2, r4, #1716
 298 00c4 0792     		str	r2, [sp, #28]
 299 00c6 04F2AC62 		addw	r2, r4, #1708
 300              		.loc 1 59 0
 301 00ca 93ED007A 		flds	s14, [r3]
 302 00ce 0892     		str	r2, [sp, #32]
 303 00d0 04F5D662 		add	r2, r4, #1712
 304 00d4 0992     		str	r2, [sp, #36]
 305 00d6 04F5D562 		add	r2, r4, #1704
 306 00da BDEEC77A 		ftosizs	s14, s14
 307 00de 0A92     		str	r2, [sp, #40]
 308 00e0 04F5D462 		add	r2, r4, #1696
 309 00e4 0B92     		str	r2, [sp, #44]
 310 00e6 04F2A462 		addw	r2, r4, #1700
 311 00ea 0C92     		str	r2, [sp, #48]
 312 00ec 17EE102A 		fmrs	r2, s14	@ int
 313              	.LVL29:
 314 00f0 04F5D360 		add	r0, r4, #1688
 315 00f4 0D90     		str	r0, [sp, #52]
 316              		.loc 1 61 0
 317 00f6 9742     		cmp	r7, r2
 318 00f8 04F29C60 		addw	r0, r4, #1692
 319 00fc 04F5CE6B 		add	fp, r4, #1648
 320 0100 04F2746A 		addw	r10, r4, #1652
 321 0104 04F29469 		addw	r9, r4, #1684
 322 0108 04F28C6C 		addw	ip, r4, #1676
 323 010c 04F5D26E 		add	lr, r4, #1680
 324 0110 04F28465 		addw	r5, r4, #1668
 325 0114 04F27C61 		addw	r1, r4, #1660
 326 0118 0E90     		str	r0, [sp, #56]
 327              	.LBE3338:
 328              		.loc 1 54 0
 329 011a 08F10108 		add	r8, r8, #1
 330              	.LVL30:
 331              	.LBB3339:
 332              		.loc 1 59 0
 333 011e C4F8B826 		str	r2, [r4, #1720]
 334 0122 17EE107A 		fmrs	r7, s14	@ int
 335              		.loc 1 61 0
 336 0126 02D0     		beq	.L9
 337              		.loc 1 63 0
 338 0128 019A     		ldr	r2, [sp, #4]
 339              	.LVL31:
 340 012a 0132     		adds	r2, r2, #1
 341 012c 0192     		str	r2, [sp, #4]
 342              	.LVL32:
ARM GAS  /var/folders/28/j9jfyj_n4wz3qtvnym210h2c0000gn/T//ccYibR7K.s 			page 7


 343              	.L9:
 344              		.loc 1 66 0
 345 012e 019A     		ldr	r2, [sp, #4]
 346 0130 C4F86C26 		str	r2, [r4, #1644]
 347              		.loc 1 67 0
 348 0134 D4F8B826 		ldr	r2, [r4, #1720]
 349 0138 07EE102A 		fmsr	s14, r2	@ int
 350 013c B8EEC77A 		fsitos	s14, s14
 351              		.loc 1 69 0
 352 0140 1020     		movs	r0, #16
 353              		.loc 1 67 0
 354 0142 88EE077A 		fdivs	s14, s16, s14
 355 0146 6434     		adds	r4, r4, #100
 356 0148 8BED007A 		fsts	s14, [fp]
 357              		.loc 1 68 0
 358 014c C4F85866 		str	r6, [r4, #1624]
 359              		.loc 1 71 0
 360 0150 93ED017A 		flds	s14, [r3, #4]
 361              		.loc 1 69 0
 362 0154 D4F85426 		ldr	r2, [r4, #1620]
 363 0158 90FBF2FB 		sdiv	fp, r0, r2
 364              		.loc 1 71 0
 365 015c BDEEC77A 		ftosizs	s14, s14
 366              		.loc 1 69 0
 367 0160 06EB8B06 		add	r6, r6, fp, lsl #2
 368              	.LVL33:
 369              		.loc 1 72 0
 370 0164 17EE100A 		fmrs	r0, s14	@ int
 371 0168 02FB00F2 		mul	r2, r2, r0
 372 016c C4F86826 		str	r2, [r4, #1640]
 373              		.loc 1 73 0
 374 0170 9A68     		ldr	r2, [r3, #8]	@ float
 375              	.LBB3335:
 376              	.LBB3321:
 377              	.LBB3317:
 378              	.LBB3313:
 379              		.loc 4 661 0
 380 0172 0498     		ldr	r0, [sp, #16]
 381              	.LBE3313:
 382              	.LBE3317:
 383              	.LBE3321:
 384              	.LBE3335:
 385              		.loc 1 73 0
 386 0174 CAF80020 		str	r2, [r10]	@ float
 387              	.LVL34:
 388 0178 D4F86826 		ldr	r2, [r4, #1640]
 389              	.LBB3336:
 390              	.LBB3322:
 391              	.LBB3318:
 392              	.LBB3314:
 393              		.loc 4 661 0
 394 017c C9ED007A 		fsts	s15, [r9]
 395 0180 CCED007A 		fsts	s15, [ip]
 396 0184 CEED007A 		fsts	s15, [lr]
 397 0188 C0ED007A 		fsts	s15, [r0]
 398              		.loc 4 662 0
 399 018c 0598     		ldr	r0, [sp, #20]
ARM GAS  /var/folders/28/j9jfyj_n4wz3qtvnym210h2c0000gn/T//ccYibR7K.s 			page 8


 400 018e C0ED007A 		fsts	s15, [r0]
 401              		.loc 4 663 0
 402 0192 C5ED007A 		fsts	s15, [r5]
 403              	.LBE3314:
 404              	.LBE3318:
 405              	.LBE3322:
 406              	.LBB3323:
 407              	.LBB3324:
 408              		.loc 4 667 0
 409 0196 0698     		ldr	r0, [sp, #24]
 410              	.LBE3324:
 411              	.LBE3323:
 412              		.loc 1 80 0
 413 0198 D3F80CE0 		ldr	lr, [r3, #12]	@ float
 414 019c 1D69     		ldr	r5, [r3, #16]	@ float
 415              	.LBB3329:
 416              	.LBB3325:
 417              		.loc 4 667 0
 418 019e C0F800E0 		str	lr, [r0]	@ float
 419              		.loc 4 668 0
 420 01a2 0D60     		str	r5, [r1]	@ float
 421              	.LBE3325:
 422              	.LBE3329:
 423              	.LBB3330:
 424              	.LBB3319:
 425              	.LBB3315:
 426              		.loc 4 661 0
 427 01a4 0799     		ldr	r1, [sp, #28]
 428 01a6 C1ED007A 		fsts	s15, [r1]
 429 01aa 0899     		ldr	r1, [sp, #32]
 430 01ac C1ED007A 		fsts	s15, [r1]
 431 01b0 0999     		ldr	r1, [sp, #36]
 432 01b2 C1ED007A 		fsts	s15, [r1]
 433 01b6 0A99     		ldr	r1, [sp, #40]
 434 01b8 C1ED007A 		fsts	s15, [r1]
 435              		.loc 4 662 0
 436 01bc 0B99     		ldr	r1, [sp, #44]
 437 01be C1ED007A 		fsts	s15, [r1]
 438              		.loc 4 663 0
 439 01c2 0C99     		ldr	r1, [sp, #48]
 440              	.LBE3315:
 441              	.LBE3319:
 442              	.LBE3330:
 443              	.LBB3331:
 444              	.LBB3326:
 445              		.loc 4 667 0
 446 01c4 0D98     		ldr	r0, [sp, #52]
 447              	.LBE3326:
 448              	.LBE3331:
 449              	.LBB3332:
 450              	.LBB3320:
 451              	.LBB3316:
 452              		.loc 4 663 0
 453 01c6 C1ED007A 		fsts	s15, [r1]
 454              	.LBE3316:
 455              	.LBE3320:
 456              	.LBE3332:
ARM GAS  /var/folders/28/j9jfyj_n4wz3qtvnym210h2c0000gn/T//ccYibR7K.s 			page 9


 457              		.loc 1 80 0
 458 01ca 5969     		ldr	r1, [r3, #20]	@ float
 459 01cc 9B69     		ldr	r3, [r3, #24]	@ float
 460              	.LVL35:
 461              	.LBB3333:
 462              	.LBB3327:
 463              		.loc 4 667 0
 464 01ce 0160     		str	r1, [r0]	@ float
 465 01d0 0299     		ldr	r1, [sp, #8]
 466 01d2 9142     		cmp	r1, r2
 467 01d4 B8BF     		it	lt
 468 01d6 1146     		movlt	r1, r2
 469              		.loc 4 668 0
 470 01d8 0E9A     		ldr	r2, [sp, #56]
 471 01da 0291     		str	r1, [sp, #8]
 472              	.LVL36:
 473              	.LBE3327:
 474              	.LBE3333:
 475              	.LBE3336:
 476              	.LBE3339:
 477              		.loc 1 54 0
 478 01dc B8F1140F 		cmp	r8, #20
 479              	.LBB3340:
 480              	.LBB3337:
 481              	.LBB3334:
 482              	.LBB3328:
 483              		.loc 4 668 0
 484 01e0 1360     		str	r3, [r2]	@ float
 485              	.LVL37:
 486              	.LBE3328:
 487              	.LBE3334:
 488              	.LBE3337:
 489              	.LBE3340:
 490              		.loc 1 54 0
 491 01e2 7FF460AF 		bne	.L6
 492              	.LBE3342:
 493              		.loc 1 83 0
 494 01e6 0FAA     		add	r2, sp, #60
 495              	.LVL38:
 496 01e8 92E88440 		ldmia	r2, {r2, r7, lr}
 497              	.LVL39:
 498 01ec D2F8D83D 		ldr	r3, [r2, #3544]
 499              	.LVL40:
 500 01f0 B1F5807F 		cmp	r1, #256
 501 01f4 03F10103 		add	r3, r3, #1
 502 01f8 A8BF     		it	ge
 503 01fa 4FF48071 		movge	r1, #256
 504              	.LVL41:
 505              	.LBB3343:
 506              	.LBB3344:
 507              	.LBB3345:
 508              	.LBB3346:
 509              	.LBB3347:
 510              	.LBB3348:
 511              	.LBB3349:
 512              		.loc 3 704 0
 513 01fe 0026     		movs	r6, #0
ARM GAS  /var/folders/28/j9jfyj_n4wz3qtvnym210h2c0000gn/T//ccYibR7K.s 			page 10


 514              	.LVL42:
 515 0200 0C46     		mov	r4, r1
 516              	.LBE3349:
 517              	.LBE3348:
 518              	.LBE3347:
 519              	.LBE3346:
 520              	.LBE3345:
 521              	.LBE3344:
 522              	.LBE3343:
 523              		.loc 1 83 0
 524 0202 C2F83C3E 		str	r3, [r2, #3644]
 525              	.LVL43:
 526 0206 02F5FA65 		add	r5, r2, #2000
 527              	.LBB3365:
 528              	.LBB3362:
 529              	.LBB3359:
 530              	.LBB3356:
 531              		.file 5 "./mutable_instruments/warps/dsp/filter_bank.h"
 532              		.loc 5 57 0
 533 020a 0020     		movs	r0, #0
 534              	.LVL44:
 535              	.L13:
 536              	.LBE3356:
 537              	.LBE3359:
 538              		.loc 1 88 0
 539 020c DEF8CC36 		ldr	r3, [lr, #1740]
 540              		.loc 1 89 0
 541 0210 DEF86C26 		ldr	r2, [lr, #1644]
 542              		.loc 1 88 0
 543 0214 E31A     		subs	r3, r4, r3
 544              	.LVL45:
 545              		.loc 1 89 0
 546 0216 42BB     		cbnz	r2, .L10
 547              	.LVL46:
 548              		.loc 1 93 0
 549 0218 963B     		subs	r3, r3, #150
 550              	.LVL47:
 551              	.L11:
 552              		.loc 1 98 0
 553 021a DEF8B826 		ldr	r2, [lr, #1720]
 554              	.LBB3360:
 555              	.LBB3357:
 556              		.loc 5 55 0
 557 021e CEF8C076 		str	r7, [lr, #1728]
 558              	.LBE3357:
 559              	.LBE3360:
 560              		.loc 1 98 0
 561 0222 02EBD271 		add	r1, r2, r2, lsr #31
 562 0226 A3EB6103 		sub	r3, r3, r1, asr #1
 563              	.LVL48:
 564 022a 23EAE373 		bic	r3, r3, r3, asr #31
 565              	.LVL49:
 566              		.loc 1 99 0
 567 022e 93FBF2F3 		sdiv	r3, r3, r2
 568              	.LVL50:
 569              	.LBB3361:
 570              	.LBB3358:
ARM GAS  /var/folders/28/j9jfyj_n4wz3qtvnym210h2c0000gn/T//ccYibR7K.s 			page 11


 571              		.loc 5 56 0
 572 0232 0133     		adds	r3, r3, #1
 573              	.LVL51:
 574              		.loc 5 58 0
 575 0234 07EB8302 		add	r2, r7, r3, lsl #2
 576              	.LVL52:
 577              	.LBB3354:
 578              	.LBB3352:
 579              	.LBB3350:
 580              		.loc 3 703 0
 581 0238 9742     		cmp	r7, r2
 582              	.LBE3350:
 583              	.LBE3352:
 584              	.LBE3354:
 585              		.loc 5 56 0
 586 023a CEF8C436 		str	r3, [lr, #1732]
 587              		.loc 5 57 0
 588 023e CEF8C806 		str	r0, [lr, #1736]
 589              	.LBB3355:
 590              	.LBB3353:
 591              	.LBB3351:
 592              		.loc 3 703 0
 593 0242 18BF     		it	ne
 594 0244 3B46     		movne	r3, r7
 595              	.LVL53:
 596 0246 03D0     		beq	.L16
 597              	.LVL54:
 598              	.L15:
 599              		.loc 3 704 0
 600 0248 43F8046B 		str	r6, [r3], #4	@ float
 601              	.LVL55:
 602              		.loc 3 703 0
 603 024c 9A42     		cmp	r2, r3
 604 024e FBD1     		bne	.L15
 605              	.LVL56:
 606              	.L16:
 607              	.LBE3351:
 608              	.LBE3353:
 609              	.LBE3355:
 610              	.LBE3358:
 611              	.LBE3361:
 612              		.loc 1 100 0
 613 0250 DEF8C436 		ldr	r3, [lr, #1732]
 614 0254 0EF1640E 		add	lr, lr, #100
 615              	.LVL57:
 616              	.LBE3362:
 617              		.loc 1 86 0
 618 0258 AE45     		cmp	lr, r5
 619              	.LBB3363:
 620              		.loc 1 100 0
 621 025a 07EB8307 		add	r7, r7, r3, lsl #2
 622              	.LVL58:
 623              	.LBE3363:
 624              		.loc 1 86 0
 625 025e D5D1     		bne	.L13
 626              	.LBE3365:
 627              	.LBE3367:
ARM GAS  /var/folders/28/j9jfyj_n4wz3qtvnym210h2c0000gn/T//ccYibR7K.s 			page 12


 628              		.loc 1 102 0
 629 0260 13B0     		add	sp, sp, #76
 630              		.cfi_remember_state
 631              		.cfi_def_cfa_offset 44
 632              		@ sp needed
 633 0262 BDEC028B 		fldmfdd	sp!, {d8}
 634              		.cfi_restore 80
 635              		.cfi_restore 81
 636              		.cfi_def_cfa_offset 36
 637              	.LVL59:
 638 0266 BDE8F08F 		pop	{r4, r5, r6, r7, r8, r9, r10, fp, pc}
 639              	.LVL60:
 640              	.L10:
 641              		.cfi_restore_state
 642              	.LBB3368:
 643              	.LBB3366:
 644              	.LBB3364:
 645              		.loc 1 94 0
 646 026a 012A     		cmp	r2, #1
 647              	.LVL61:
 648              		.loc 1 96 0
 649 026c 08BF     		it	eq
 650 026e 1E3B     		subeq	r3, r3, #30
 651              	.LVL62:
 652 0270 D3E7     		b	.L11
 653              	.L29:
 654 0272 00BF     		.align	2
 655              	.L28:
 656 0274 00000000 		.word	0
 657 0278 FCFFFFFF 		.word	_ZN5warps17filter_bank_tableE-4
 658              	.LBE3364:
 659              	.LBE3366:
 660              	.LBE3368:
 661              		.cfi_endproc
 662              	.LFE664:
 663              		.fnend
 664              		.size	_ZN5warps10FilterBank4InitEf, .-_ZN5warps10FilterBank4InitEf
 665              		.align	2
 666 027c AFF30080 		.p2align 4,,15
 667              		.global	_ZN5warps10FilterBank10SynthesizeEPfj
 668              		.thumb
 669              		.thumb_func
 670              		.type	_ZN5warps10FilterBank10SynthesizeEPfj, %function
 671              	_ZN5warps10FilterBank10SynthesizeEPfj:
 672              		.fnstart
 673              	.LFB666:
 674              		.loc 1 137 0
 675              		.cfi_startproc
 676              		@ args = 0, pretend = 0, frame = 32
 677              		@ frame_needed = 0, uses_anonymous_args = 0
 678              	.LVL63:
 679 0280 2DE9F04F 		push	{r4, r5, r6, r7, r8, r9, r10, fp, lr}
 680              		.cfi_def_cfa_offset 36
 681              		.cfi_offset 4, -36
 682              		.cfi_offset 5, -32
 683              		.cfi_offset 6, -28
 684              		.cfi_offset 7, -24
ARM GAS  /var/folders/28/j9jfyj_n4wz3qtvnym210h2c0000gn/T//ccYibR7K.s 			page 13


 685              		.cfi_offset 8, -20
 686              		.cfi_offset 9, -16
 687              		.cfi_offset 10, -12
 688              		.cfi_offset 11, -8
 689              		.cfi_offset 14, -4
 690 0284 2DED108B 		fstmfdd	sp!, {d8, d9, d10, d11, d12, d13, d14, d15}
 691              		.cfi_def_cfa_offset 100
 692              		.cfi_offset 80, -100
 693              		.cfi_offset 81, -96
 694              		.cfi_offset 82, -92
 695              		.cfi_offset 83, -88
 696              		.cfi_offset 84, -84
 697              		.cfi_offset 85, -80
 698              		.cfi_offset 86, -76
 699              		.cfi_offset 87, -72
 700              		.cfi_offset 88, -68
 701              		.cfi_offset 89, -64
 702              		.cfi_offset 90, -60
 703              		.cfi_offset 91, -56
 704              		.cfi_offset 92, -52
 705              		.cfi_offset 93, -48
 706              		.cfi_offset 94, -44
 707              		.cfi_offset 95, -40
 708 0288 8046     		mov	r8, r0
 709 028a 89B0     		sub	sp, sp, #36
 710              		.cfi_def_cfa_offset 136
 711              	.LBB3872:
 712              		.loc 1 138 0
 713 028c 00F56A73 		add	r3, r0, #936
 714 0290 1846     		mov	r0, r3
 715              	.LVL64:
 716 0292 0193     		str	r3, [sp, #4]
 717              		.loc 1 140 0
 718 0294 D8F8B836 		ldr	r3, [r8, #1720]
 719 0298 B2FBF3F9 		udiv	r9, r2, r3
 720              		.loc 1 138 0
 721 029c 08F55A73 		add	r3, r8, #872
 722              	.LBE3872:
 723              		.loc 1 137 0
 724 02a0 0C46     		mov	r4, r1
 725 02a2 9246     		mov	r10, r2
 726 02a4 0391     		str	r1, [sp, #12]
 727              	.LBB6339:
 728              		.loc 1 138 0
 729 02a6 0293     		str	r3, [sp, #8]
 730 02a8 1946     		mov	r1, r3
 731              	.LVL65:
 732              		.loc 1 140 0
 733 02aa 00EB8902 		add	r2, r0, r9, lsl #2
 734              	.LVL66:
 735 02ae 0346     		mov	r3, r0
 736              	.LVL67:
 737              	.LBB3873:
 738              	.LBB3874:
 739              	.LBB3875:
 740              		.loc 3 703 0
 741 02b0 9342     		cmp	r3, r2
ARM GAS  /var/folders/28/j9jfyj_n4wz3qtvnym210h2c0000gn/T//ccYibR7K.s 			page 14


 742              	.LBE3875:
 743              	.LBE3874:
 744              	.LBE3873:
 745              		.loc 1 138 0
 746 02b2 0794     		str	r4, [sp, #28]
 747 02b4 0593     		str	r3, [sp, #20]
 748 02b6 0691     		str	r1, [sp, #24]
 749              	.LBB3878:
 750              	.LBB3877:
 751              	.LBB3876:
 752              		.loc 3 703 0
 753 02b8 08D0     		beq	.L31
 754              		.loc 3 704 0
 755 02ba 0021     		movs	r1, #0
 756              	.LVL68:
 757              	.L32:
 758 02bc 43F8041B 		str	r1, [r3], #4	@ float
 759              	.LVL69:
 760              		.loc 3 703 0
 761 02c0 9A42     		cmp	r2, r3
 762 02c2 FBD1     		bne	.L32
 763 02c4 D8F8B836 		ldr	r3, [r8, #1720]
 764              	.LVL70:
 765 02c8 BAFBF3F9 		udiv	r9, r10, r3
 766              	.L31:
 767              	.LVL71:
 768              	.LBE3876:
 769              	.LBE3877:
 770              	.LBE3878:
 771              	.LBB3879:
 772              	.LBB3880:
 773              	.LBB3881:
 774              	.LBB3882:
 775              	.LBB3883:
 776              	.LBB3884:
 777              	.LBB3885:
 778              	.LBB3886:
 779              	.LBB3887:
 780              	.LBB3888:
 781              	.LBB3889:
 782              	.LBB3890:
 783              	.LBB3891:
 784              	.LBB3892:
 785              	.LBB3893:
 786              	.LBB3894:
 787              	.LBB3895:
 788              	.LBB3896:
 789              	.LBB3897:
 790              	.LBB3898:
 791              	.LBB3899:
 792              	.LBB3900:
 793              	.LBB3901:
 794              	.LBB3902:
 795              	.LBB3903:
 796              	.LBB3904:
 797              	.LBB3905:
 798              	.LBB3906:
ARM GAS  /var/folders/28/j9jfyj_n4wz3qtvnym210h2c0000gn/T//ccYibR7K.s 			page 15


 799              	.LBB3907:
 800              	.LBB3908:
 801              	.LBB3909:
 802              		.loc 2 123 0
 803 02cc DFEDBFCA 		flds	s25, .L58
 804 02d0 C646     		mov	lr, r8
 805 02d2 08F5FA6B 		add	fp, r8, #2000
 806              	.LVL72:
 807              	.L42:
 808              	.LBE3909:
 809              	.LBE3908:
 810              	.LBE3907:
 811              	.LBE3906:
 812              	.LBE3905:
 813              	.LBE3904:
 814              	.LBE3903:
 815              	.LBE3902:
 816              	.LBE3901:
 817              	.LBE3900:
 818              	.LBE3899:
 819              	.LBE3898:
 820              	.LBE3897:
 821              	.LBE3896:
 822              	.LBE3895:
 823              	.LBE3894:
 824              	.LBE3893:
 825              	.LBE3892:
 826              	.LBE3891:
 827              	.LBE3890:
 828              	.LBE3889:
 829              	.LBE3888:
 830              	.LBE3887:
 831              	.LBE3886:
 832              	.LBE3885:
 833              	.LBE3884:
 834              	.LBE3883:
 835              	.LBE3882:
 836              	.LBE3881:
 837              		.loc 1 145 0
 838 02d6 DEF86C26 		ldr	r2, [lr, #1644]
 839 02da 08AB     		add	r3, sp, #32
 840 02dc 03EB8203 		add	r3, r3, r2, lsl #2
 841 02e0 53F80C7C 		ldr	r7, [r3, #-12]
 842              	.LVL73:
 843              	.LBB5114:
 844              		.loc 1 146 0
 845 02e4 B9F1000F 		cmp	r9, #0
 846 02e8 25D0     		beq	.L33
 847 02ea DEF8C836 		ldr	r3, [lr, #1736]
 848              	.LBB5115:
 849              	.LBB5116:
 850              		.loc 5 64 0
 851 02ee DEF8C066 		ldr	r6, [lr, #1728]
 852              		.loc 5 65 0
 853 02f2 DEF8C456 		ldr	r5, [lr, #1732]
 854 02f6 9C00     		lsls	r4, r3, #2
 855 02f8 07EB890C 		add	ip, r7, r9, lsl #2
ARM GAS  /var/folders/28/j9jfyj_n4wz3qtvnym210h2c0000gn/T//ccYibR7K.s 			page 16


 856 02fc 3846     		mov	r0, r7
 857              	.LVL74:
 858              	.L34:
 859              	.LBE5116:
 860              	.LBE5115:
 861              		.loc 1 147 0 discriminator 3
 862 02fe DEF8BC16 		ldr	r1, [lr, #1724]
 863 0302 C21B     		subs	r2, r0, r7
 864 0304 0A44     		add	r2, r2, r1
 865              	.LBB5119:
 866              	.LBB5117:
 867              		.loc 5 65 0 discriminator 3
 868 0306 0133     		adds	r3, r3, #1
 869              	.LBE5117:
 870              	.LBE5119:
 871              		.loc 1 147 0 discriminator 3
 872 0308 1168     		ldr	r1, [r2]	@ float
 873              	.LVL75:
 874              	.LBB5120:
 875              	.LBB5118:
 876              		.loc 5 65 0 discriminator 3
 877 030a 93FBF5F2 		sdiv	r2, r3, r5
 878 030e 05FB1233 		mls	r3, r5, r2, r3
 879              		.loc 5 64 0 discriminator 3
 880 0312 3219     		adds	r2, r6, r4
 881              		.loc 5 66 0 discriminator 3
 882 0314 9C00     		lsls	r4, r3, #2
 883              		.loc 5 64 0 discriminator 3
 884 0316 1160     		str	r1, [r2]	@ float
 885              		.loc 5 66 0 discriminator 3
 886 0318 3219     		adds	r2, r6, r4
 887              	.LBE5118:
 888              	.LBE5120:
 889              		.loc 1 147 0 discriminator 3
 890 031a 92ED007A 		flds	s14, [r2]
 891 031e D0ED007A 		flds	s15, [r0]
 892 0322 77EE877A 		fadds	s15, s15, s14
 893 0326 E0EC017A 		fstmias	r0!, {s15}
 894              		.loc 1 146 0 discriminator 3
 895 032a 6045     		cmp	r0, ip
 896 032c E7D1     		bne	.L34
 897 032e DEF86C26 		ldr	r2, [lr, #1644]
 898 0332 CEF8C836 		str	r3, [lr, #1736]
 899              	.LVL76:
 900              	.L33:
 901              	.LBE5114:
 902              		.loc 1 150 0
 903 0336 DEF8D036 		ldr	r3, [lr, #1744]
 904 033a 9342     		cmp	r3, r2
 905 033c 03D0     		beq	.L35
 906              		.loc 1 151 0
 907 033e 62B1     		cbz	r2, .L55
 908              		.loc 1 153 0
 909 0340 012A     		cmp	r2, #1
 910 0342 00F02081 		beq	.L56
 911              	.L35:
 912 0346 0EF1640E 		add	lr, lr, #100
ARM GAS  /var/folders/28/j9jfyj_n4wz3qtvnym210h2c0000gn/T//ccYibR7K.s 			page 17


 913              	.LBE3880:
 914              		.loc 1 141 0 discriminator 1
 915 034a DE45     		cmp	lr, fp
 916 034c 00F01681 		beq	.L57
 917              	.L41:
 918 0350 DEF8B836 		ldr	r3, [lr, #1720]
 919 0354 BAFBF3F9 		udiv	r9, r10, r3
 920              	.LVL77:
 921 0358 BDE7     		b	.L42
 922              	.LVL78:
 923              	.L55:
 924              	.LBB6333:
 925              	.LBB5121:
 926              	.LBB5122:
 927              	.LBB5123:
 928              	.LBB5124:
 929              		.loc 2 68 0
 930 035a 98EDCE1A 		flds	s2, [r8, #824]
 931              	.LVL79:
 932              	.LBB5125:
 933              	.LBB5126:
 934 035e D8EDCF1A 		flds	s3, [r8, #828]
 935              	.LVL80:
 936              	.LBB5127:
 937              	.LBB5128:
 938 0362 98EDD02A 		flds	s4, [r8, #832]
 939              	.LVL81:
 940              	.LBB5129:
 941              	.LBB5130:
 942 0366 D8EDD12A 		flds	s5, [r8, #836]
 943              	.LVL82:
 944              	.LBB5131:
 945              	.LBB5132:
 946 036a 98EDD23A 		flds	s6, [r8, #840]
 947              	.LVL83:
 948              	.LBB5133:
 949              	.LBB5134:
 950 036e D8EDD33A 		flds	s7, [r8, #844]
 951              	.LVL84:
 952              	.LBB5135:
 953              	.LBB5136:
 954 0372 98EDD44A 		flds	s8, [r8, #848]
 955              	.LVL85:
 956              	.LBB5137:
 957              	.LBB5138:
 958 0376 D8EDD54A 		flds	s9, [r8, #852]
 959              	.LVL86:
 960              	.LBB5139:
 961              	.LBB5140:
 962 037a 98EDD65A 		flds	s10, [r8, #856]
 963              	.LVL87:
 964              	.LBB5141:
 965              	.LBB5142:
 966 037e D8EDD75A 		flds	s11, [r8, #860]
 967              	.LVL88:
 968              	.LBB5143:
 969              	.LBB5144:
ARM GAS  /var/folders/28/j9jfyj_n4wz3qtvnym210h2c0000gn/T//ccYibR7K.s 			page 18


 970 0382 D8EDD80A 		flds	s1, [r8, #864]
 971 0386 D8EDD97A 		flds	s15, [r8, #868]
 972              	.LVL89:
 973              	.LBE5144:
 974              	.LBE5143:
 975              	.LBE5142:
 976              	.LBE5141:
 977              	.LBE5140:
 978              	.LBE5139:
 979              	.LBE5138:
 980              	.LBE5137:
 981              	.LBE5136:
 982              	.LBE5135:
 983              	.LBE5134:
 984              	.LBE5133:
 985              	.LBE5132:
 986              	.LBE5131:
 987              	.LBE5130:
 988              	.LBE5129:
 989              	.LBE5128:
 990              	.LBE5127:
 991              	.LBE5126:
 992              	.LBE5125:
 993              	.LBE5124:
 994              	.LBE5123:
 995              		.loc 2 185 0
 996 038a 09F1FF32 		add	r2, r9, #-1
 997              	.LVL90:
 998 038e B9F1000F 		cmp	r9, #0
 999 0392 00F03882 		beq	.L43
 1000 0396 08F55E73 		add	r3, r8, #888
 1001              	.LBE5122:
 1002              	.LBE5121:
 1003              	.LBE6333:
 1004              	.LBE3879:
 1005              		.loc 1 138 0
 1006 039a 0199     		ldr	r1, [sp, #4]
 1007 039c 15E0     		b	.L38
 1008              	.LVL91:
 1009              	.L44:
 1010              	.LBB6337:
 1011              	.LBB6334:
 1012              	.LBB6328:
 1013              	.LBB6325:
 1014              		.loc 2 185 0
 1015 039e F0EE650A 		fcpys	s1, s11
 1016              	.LVL92:
 1017 03a2 F0EE455A 		fcpys	s11, s10
 1018              	.LVL93:
 1019 03a6 B0EE645A 		fcpys	s10, s9
 1020              	.LVL94:
 1021 03aa F0EE444A 		fcpys	s9, s8
 1022              	.LVL95:
 1023 03ae B0EE634A 		fcpys	s8, s7
 1024              	.LVL96:
 1025 03b2 F0EE433A 		fcpys	s7, s6
 1026              	.LVL97:
ARM GAS  /var/folders/28/j9jfyj_n4wz3qtvnym210h2c0000gn/T//ccYibR7K.s 			page 19


 1027 03b6 B0EE623A 		fcpys	s6, s5
 1028              	.LVL98:
 1029 03ba F0EE422A 		fcpys	s5, s4
 1030              	.LVL99:
 1031 03be B0EE612A 		fcpys	s4, s3
 1032              	.LVL100:
 1033 03c2 F0EE411A 		fcpys	s3, s2
 1034              	.LVL101:
 1035              	.LBB5168:
 1036              		.loc 2 186 0
 1037 03c6 B0EE491A 		fcpys	s2, s18
 1038              	.LVL102:
 1039              	.L38:
 1040              	.LBB5169:
 1041              	.LBB5170:
 1042              	.LBB5171:
 1043              	.LBB5172:
 1044              	.LBB5173:
 1045              	.LBB5174:
 1046              	.LBB5175:
 1047              	.LBB5176:
 1048              	.LBB5177:
 1049              	.LBB5178:
 1050              	.LBB5179:
 1051              	.LBB5180:
 1052              	.LBB5181:
 1053              	.LBB5182:
 1054              	.LBB5183:
 1055              	.LBB5184:
 1056              	.LBB5185:
 1057              	.LBB5186:
 1058              	.LBB5187:
 1059              	.LBB5188:
 1060              	.LBB5189:
 1061              	.LBB5190:
 1062              	.LBB5191:
 1063              	.LBB5192:
 1064              	.LBB5193:
 1065              	.LBB5194:
 1066              		.loc 2 123 0
 1067 03ca DFED987A 		flds	s15, .L58+96
 1068              	.LBE5194:
 1069              	.LBE5193:
 1070              	.LBE5192:
 1071              	.LBE5191:
 1072              	.LBE5190:
 1073              	.LBE5189:
 1074              	.LBE5188:
 1075              	.LBE5187:
 1076              	.LBE5186:
 1077              	.LBE5185:
 1078              	.LBE5184:
 1079              	.LBE5183:
 1080              	.LBE5182:
 1081              	.LBE5181:
 1082              	.LBE5180:
 1083              	.LBE5179:
ARM GAS  /var/folders/28/j9jfyj_n4wz3qtvnym210h2c0000gn/T//ccYibR7K.s 			page 20


 1084              	.LBE5178:
 1085              	.LBE5177:
 1086              	.LBE5176:
 1087              	.LBE5175:
 1088              	.LBE5174:
 1089              	.LBE5173:
 1090              	.LBE5172:
 1091              	.LBE5171:
 1092              	.LBB5448:
 1093              	.LBB5449:
 1094              	.LBB5450:
 1095              	.LBB5451:
 1096              	.LBB5452:
 1097              	.LBB5453:
 1098              	.LBB5454:
 1099              	.LBB5455:
 1100              	.LBB5456:
 1101              	.LBB5457:
 1102              	.LBB5458:
 1103              	.LBB5459:
 1104              	.LBB5460:
 1105              	.LBB5461:
 1106              	.LBB5462:
 1107              	.LBB5463:
 1108              	.LBB5464:
 1109              	.LBB5465:
 1110              	.LBB5466:
 1111              	.LBB5467:
 1112              	.LBB5468:
 1113              	.LBB5469:
 1114              	.LBB5470:
 1115              	.LBB5471:
 1116              	.LBB5472:
 1117              	.LBB5473:
 1118 03ce 9FED808A 		flds	s16, .L58+4
 1119              	.LBE5473:
 1120              	.LBE5472:
 1121              	.LBE5471:
 1122              	.LBE5470:
 1123              	.LBE5469:
 1124              	.LBE5468:
 1125              	.LBE5467:
 1126              	.LBE5466:
 1127              	.LBE5465:
 1128              	.LBE5464:
 1129              	.LBE5463:
 1130              	.LBE5462:
 1131              	.LBE5461:
 1132              	.LBE5460:
 1133              	.LBE5459:
 1134              	.LBE5458:
 1135              	.LBE5457:
 1136              	.LBE5456:
 1137              	.LBE5455:
 1138              	.LBE5454:
 1139              	.LBE5453:
 1140              	.LBE5452:
ARM GAS  /var/folders/28/j9jfyj_n4wz3qtvnym210h2c0000gn/T//ccYibR7K.s 			page 21


 1141              	.LBE5451:
 1142              	.LBE5450:
 1143              	.LBE5449:
 1144              	.LBE5448:
 1145              	.LBB6251:
 1146              	.LBB5427:
 1147 03d2 DFED8D8A 		flds	s17, .L58+60
 1148              	.LBE5427:
 1149              	.LBE6251:
 1150              	.LBB6252:
 1151              	.LBB6228:
 1152              	.LBB5731:
 1153              	.LBB5712:
 1154              	.LBB5694:
 1155              	.LBB5676:
 1156              	.LBB5659:
 1157              	.LBB5642:
 1158              	.LBB5626:
 1159              	.LBB5610:
 1160              	.LBB5594:
 1161              	.LBB5578:
 1162              	.LBB5563:
 1163              	.LBB5548:
 1164              	.LBB5536:
 1165              	.LBB5524:
 1166              	.LBB5515:
 1167              	.LBB5506:
 1168              	.LBB5499:
 1169              	.LBB5492:
 1170              	.LBB5487:
 1171              	.LBB5482:
 1172              	.LBB5479:
 1173              	.LBB5476:
 1174 03d6 DFED8B9A 		flds	s19, .L58+56
 1175              	.LBE5476:
 1176              	.LBE5479:
 1177              	.LBE5482:
 1178              	.LBE5487:
 1179              	.LBE5492:
 1180              	.LBE5499:
 1181              	.LBE5506:
 1182              	.LBE5515:
 1183              	.LBE5524:
 1184              	.LBE5536:
 1185              	.LBE5548:
 1186              	.LBE5563:
 1187              	.LBE5578:
 1188              	.LBE5594:
 1189              	.LBE5610:
 1190              	.LBE5626:
 1191              	.LBE5642:
 1192              	.LBE5659:
 1193              	.LBE5676:
 1194              	.LBE5694:
 1195 03da 9FED890A 		flds	s0, .L58+52
 1196              	.LBE5712:
 1197              	.LBE5731:
ARM GAS  /var/folders/28/j9jfyj_n4wz3qtvnym210h2c0000gn/T//ccYibR7K.s 			page 22


 1198              	.LBE6228:
 1199              	.LBE6252:
 1200              	.LBB6253:
 1201              	.LBB5428:
 1202              	.LBB5408:
 1203              	.LBB5389:
 1204              	.LBB5371:
 1205              	.LBB5353:
 1206              	.LBB5337:
 1207              	.LBB5321:
 1208              	.LBB5307:
 1209              	.LBB5293:
 1210              	.LBB5280:
 1211              	.LBB5267:
 1212              	.LBB5256:
 1213              	.LBB5245:
 1214              	.LBB5236:
 1215              	.LBB5227:
 1216              	.LBB5220:
 1217              	.LBB5213:
 1218              	.LBB5208:
 1219              	.LBB5203:
 1220              	.LBB5200:
 1221              	.LBB5197:
 1222 03de 9FED92FA 		flds	s30, .L58+92
 1223              	.LBE5197:
 1224              	.LBE5200:
 1225              	.LBE5203:
 1226              	.LBE5208:
 1227              	.LBE5213:
 1228              	.LBE5220:
 1229              	.LBE5227:
 1230              	.LBE5236:
 1231              	.LBE5245:
 1232              	.LBE5256:
 1233              	.LBE5267:
 1234              	.LBE5280:
 1235              	.LBE5293:
 1236              	.LBE5307:
 1237              	.LBE5321:
 1238              	.LBE5337:
 1239              	.LBE5353:
 1240              	.LBE5371:
 1241 03e2 9FED86AA 		flds	s20, .L58+48
 1242              	.LBE5389:
 1243              	.LBE5408:
 1244              	.LBE5428:
 1245              	.LBE6253:
 1246              	.LBB6254:
 1247              	.LBB6229:
 1248              	.LBB5732:
 1249              	.LBB5713:
 1250              	.LBB5695:
 1251              	.LBB5677:
 1252              	.LBB5660:
 1253              	.LBB5643:
 1254              	.LBB5627:
ARM GAS  /var/folders/28/j9jfyj_n4wz3qtvnym210h2c0000gn/T//ccYibR7K.s 			page 23


 1255              	.LBB5611:
 1256              	.LBB5595:
 1257              	.LBB5579:
 1258              	.LBB5564:
 1259              	.LBB5549:
 1260              	.LBB5537:
 1261              	.LBB5525:
 1262              	.LBB5516:
 1263              	.LBB5507:
 1264              	.LBB5500:
 1265              	.LBB5493:
 1266              	.LBB5488:
 1267              	.LBB5483:
 1268 03e6 9FED84BA 		flds	s22, .L58+44
 1269              	.LBE5483:
 1270              	.LBE5488:
 1271              	.LBE5493:
 1272              	.LBE5500:
 1273              	.LBE5507:
 1274              	.LBE5516:
 1275              	.LBE5525:
 1276              	.LBE5537:
 1277              	.LBE5549:
 1278              	.LBE5564:
 1279              	.LBE5579:
 1280              	.LBE5595:
 1281              	.LBE5611:
 1282              	.LBE5627:
 1283              	.LBE5643:
 1284              	.LBE5660:
 1285 03ea 9FED829A 		flds	s18, .L58+40
 1286              	.LBE5677:
 1287              	.LBE5695:
 1288              	.LBE5713:
 1289              	.LBE5732:
 1290              	.LBE6229:
 1291              	.LBE6254:
 1292              	.LBB6255:
 1293              	.LBB5429:
 1294              	.LBB5409:
 1295              	.LBB5390:
 1296              	.LBB5372:
 1297              	.LBB5354:
 1298 03ee DFED80BA 		flds	s23, .L58+36
 1299              	.LBE5354:
 1300              	.LBE5372:
 1301              	.LBE5390:
 1302              	.LBE5409:
 1303              	.LBE5429:
 1304              	.LBE6255:
 1305              	.LBB6256:
 1306              	.LBB6230:
 1307              	.LBB5733:
 1308              	.LBB5714:
 1309              	.LBB5696:
 1310              	.LBB5678:
 1311              	.LBB5661:
ARM GAS  /var/folders/28/j9jfyj_n4wz3qtvnym210h2c0000gn/T//ccYibR7K.s 			page 24


 1312              	.LBB5644:
 1313              	.LBB5628:
 1314              	.LBB5612:
 1315              	.LBB5596:
 1316              	.LBB5580:
 1317              	.LBB5565:
 1318              	.LBB5550:
 1319              	.LBB5538:
 1320              	.LBB5526:
 1321              	.LBB5517:
 1322              	.LBB5508:
 1323              	.LBB5501:
 1324              	.LBB5494:
 1325 03f2 9FED7EDA 		flds	s26, .L58+32
 1326              	.LBE5494:
 1327              	.LBE5501:
 1328              	.LBE5508:
 1329              	.LBE5517:
 1330              	.LBE5526:
 1331              	.LBE5538:
 1332              	.LBE5550:
 1333              	.LBE5565:
 1334              	.LBE5580:
 1335              	.LBE5596:
 1336              	.LBE5612:
 1337              	.LBE5628:
 1338 03f6 DFED7CAA 		flds	s21, .L58+28
 1339              	.LBE5644:
 1340              	.LBE5661:
 1341              	.LBE5678:
 1342              	.LBE5696:
 1343              	.LBE5714:
 1344              	.LBE5733:
 1345              	.LBE6230:
 1346              	.LBE6256:
 1347              	.LBB6257:
 1348              	.LBB5430:
 1349              	.LBB5410:
 1350              	.LBB5391:
 1351              	.LBB5373:
 1352              	.LBB5355:
 1353              	.LBB5338:
 1354              	.LBB5322:
 1355 03fa DFED7ADA 		flds	s27, .L58+24
 1356              	.LBE5322:
 1357              	.LBE5338:
 1358              	.LBE5355:
 1359              	.LBE5373:
 1360              	.LBE5391:
 1361              	.LBE5410:
 1362              	.LBE5430:
 1363              	.LBE6257:
 1364              	.LBB6258:
 1365              	.LBB6231:
 1366              	.LBB5734:
 1367              	.LBB5715:
 1368              	.LBB5697:
ARM GAS  /var/folders/28/j9jfyj_n4wz3qtvnym210h2c0000gn/T//ccYibR7K.s 			page 25


 1369              	.LBB5679:
 1370              	.LBB5662:
 1371              	.LBB5645:
 1372              	.LBB5629:
 1373              	.LBB5613:
 1374              	.LBB5597:
 1375              	.LBB5581:
 1376              	.LBB5566:
 1377              	.LBB5551:
 1378              	.LBB5539:
 1379              	.LBB5527:
 1380              	.LBB5518:
 1381              	.LBB5509:
 1382 03fe DFED78EA 		flds	s29, .L58+20
 1383              	.LBE5509:
 1384              	.LBE5518:
 1385              	.LBE5527:
 1386              	.LBE5539:
 1387              	.LBE5551:
 1388              	.LBE5566:
 1389              	.LBE5581:
 1390              	.LBE5597:
 1391 0402 9FED76CA 		flds	s24, .L58+16
 1392              	.LBB5598:
 1393              	.LBB5582:
 1394              	.LBB5567:
 1395              	.LBB5552:
 1396              	.LBB5540:
 1397              	.LBB5528:
 1398 0406 DFED74FA 		flds	s31, .L58+12
 1399              	.LBE5528:
 1400              	.LBE5540:
 1401              	.LBE5552:
 1402              	.LBE5567:
 1403 040a 9FED72EA 		flds	s28, .L58+8
 1404              	.LBE5582:
 1405              	.LBE5598:
 1406              	.LBE5613:
 1407              	.LBE5629:
 1408              	.LBE5645:
 1409              	.LBE5662:
 1410              	.LBE5679:
 1411              	.LBE5697:
 1412              	.LBE5715:
 1413              	.LBE5734:
 1414              	.LBE6231:
 1415              	.LBE6258:
 1416              	.LBB6259:
 1417              	.LBB5431:
 1418              	.LBB5411:
 1419              	.LBB5392:
 1420              	.LBB5374:
 1421              	.LBB5356:
 1422              	.LBB5339:
 1423              	.LBB5323:
 1424              	.LBB5308:
 1425              	.LBB5294:
ARM GAS  /var/folders/28/j9jfyj_n4wz3qtvnym210h2c0000gn/T//ccYibR7K.s 			page 26


 1426              	.LBB5281:
 1427              	.LBB5268:
 1428              	.LBB5257:
 1429              	.LBB5246:
 1430              	.LBB5237:
 1431              	.LBB5228:
 1432              	.LBB5221:
 1433              	.LBB5214:
 1434              	.LBB5209:
 1435              	.LBB5204:
 1436              	.LBB5201:
 1437              	.LBB5198:
 1438              	.LBB5196:
 1439              	.LBB5195:
 1440 040e F0EE6C6A 		fcpys	s13, s25
 1441 0412 E0EEA76A 		vfma.f32	s13, s1, s15
 1442              	.LBE5195:
 1443              	.LBE5196:
 1444              	.LBE5198:
 1445              	.LBE5201:
 1446              	.LBE5204:
 1447              	.LBE5209:
 1448              	.LBE5214:
 1449              	.LBE5221:
 1450              	.LBE5228:
 1451              	.LBE5237:
 1452              	.LBE5246:
 1453              	.LBE5257:
 1454              	.LBE5268:
 1455              	.LBE5281:
 1456              	.LBE5294:
 1457              	.LBE5308:
 1458              	.LBE5323:
 1459              	.LBE5339:
 1460              	.LBE5356:
 1461              	.LBE5374:
 1462              	.LBE5392:
 1463              	.LBE5411:
 1464              	.LBE5431:
 1465              	.LBE6259:
 1466              	.LBE5170:
 1467              	.LBE5169:
 1468              	.LBE5168:
 1469              		.loc 2 185 0
 1470 0416 013A     		subs	r2, r2, #1
 1471              	.LVL103:
 1472 0418 541C     		adds	r4, r2, #1
 1473              	.LBB6299:
 1474              	.LBB6297:
 1475              	.LBB6295:
 1476              	.LBB6260:
 1477              	.LBB6232:
 1478              	.LBB5735:
 1479              	.LBB5716:
 1480              	.LBB5698:
 1481              	.LBB5680:
 1482              	.LBB5663:
ARM GAS  /var/folders/28/j9jfyj_n4wz3qtvnym210h2c0000gn/T//ccYibR7K.s 			page 27


 1483              	.LBB5646:
 1484              	.LBB5630:
 1485              	.LBB5614:
 1486              	.LBB5599:
 1487              	.LBB5583:
 1488              	.LBB5568:
 1489              	.LBB5553:
 1490              	.LBB5541:
 1491              	.LBB5529:
 1492              	.LBB5519:
 1493              	.LBB5510:
 1494              	.LBB5502:
 1495              	.LBB5495:
 1496              	.LBB5489:
 1497              	.LBB5484:
 1498              	.LBB5480:
 1499              	.LBB5477:
 1500              	.LBB5475:
 1501              	.LBB5474:
 1502              		.loc 2 123 0
 1503 041a F0EE6C7A 		fcpys	s15, s25
 1504 041e E0EE887A 		vfma.f32	s15, s1, s16
 1505 0422 03F11003 		add	r3, r3, #16
 1506              	.LVL104:
 1507              	.LBE5474:
 1508              	.LBE5475:
 1509              	.LBE5477:
 1510              	.LBE5480:
 1511              	.LBE5484:
 1512              	.LBE5489:
 1513              	.LBE5495:
 1514              	.LBE5502:
 1515              	.LBE5510:
 1516              	.LBE5519:
 1517              	.LBE5529:
 1518              	.LBE5541:
 1519              	.LBE5553:
 1520              	.LBE5568:
 1521              	.LBE5583:
 1522              	.LBE5599:
 1523              	.LBE5614:
 1524              	.LBE5630:
 1525              	.LBE5646:
 1526              	.LBE5663:
 1527              	.LBE5680:
 1528              	.LBE5698:
 1529              	.LBE5716:
 1530              	.LBE5735:
 1531              	.LBB5736:
 1532              	.LBB5737:
 1533              	.LBB5738:
 1534              	.LBB5739:
 1535              	.LBB5740:
 1536              	.LBB5741:
 1537              	.LBB5742:
 1538              	.LBB5743:
 1539              	.LBB5744:
ARM GAS  /var/folders/28/j9jfyj_n4wz3qtvnym210h2c0000gn/T//ccYibR7K.s 			page 28


 1540              	.LBB5745:
 1541              	.LBB5746:
 1542              	.LBB5747:
 1543              	.LBB5748:
 1544              	.LBB5749:
 1545              	.LBB5750:
 1546              	.LBB5751:
 1547              	.LBB5752:
 1548              	.LBB5753:
 1549              	.LBB5754:
 1550              	.LBB5755:
 1551              	.LBB5756:
 1552              	.LBB5757:
 1553              	.LBB5758:
 1554              	.LBB5759:
 1555              	.LBB5760:
 1556              	.LBB5761:
 1557              	.LBB5762:
 1558              	.LBB5763:
 1559 0426 B0EE6C6A 		fcpys	s12, s25
 1560 042a A0EEA86A 		vfma.f32	s12, s1, s17
 1561              	.LBE5763:
 1562              	.LBE5762:
 1563              	.LBE5761:
 1564              	.LBE5760:
 1565              	.LBE5759:
 1566              	.LBE5758:
 1567              	.LBE5757:
 1568              	.LBE5756:
 1569              	.LBE5755:
 1570              	.LBE5754:
 1571              	.LBE5753:
 1572              	.LBE5752:
 1573              	.LBE5751:
 1574              	.LBE5750:
 1575              	.LBE5749:
 1576              	.LBE5748:
 1577              	.LBE5747:
 1578              	.LBE5746:
 1579              	.LBE5745:
 1580              	.LBE5744:
 1581              	.LBE5743:
 1582              	.LBE5742:
 1583              	.LBE5741:
 1584              	.LBE5740:
 1585              	.LBE5739:
 1586              	.LBE5738:
 1587              	.LBE5737:
 1588              	.LBE5736:
 1589              	.LBB6194:
 1590              	.LBB5717:
 1591              	.LBB5699:
 1592              	.LBB5681:
 1593              	.LBB5664:
 1594              	.LBB5647:
 1595              	.LBB5631:
 1596              	.LBB5615:
ARM GAS  /var/folders/28/j9jfyj_n4wz3qtvnym210h2c0000gn/T//ccYibR7K.s 			page 29


 1597              	.LBB5600:
 1598              	.LBB5584:
 1599              	.LBB5569:
 1600              	.LBB5554:
 1601              	.LBB5542:
 1602              	.LBB5530:
 1603              	.LBB5520:
 1604              	.LBB5511:
 1605              	.LBB5503:
 1606              	.LBB5496:
 1607              	.LBB5490:
 1608              	.LBB5485:
 1609              	.LBB5481:
 1610              	.LBB5478:
 1611 042e E5EEA97A 		vfma.f32	s15, s11, s19
 1612              	.LBE5478:
 1613              	.LBE5481:
 1614              	.LBE5485:
 1615              	.LBE5490:
 1616              	.LBE5496:
 1617              	.LBE5503:
 1618              	.LBE5511:
 1619              	.LBE5520:
 1620              	.LBE5530:
 1621              	.LBE5542:
 1622              	.LBE5554:
 1623              	.LBE5569:
 1624              	.LBE5584:
 1625              	.LBE5600:
 1626              	.LBE5615:
 1627              	.LBE5631:
 1628              	.LBE5647:
 1629              	.LBE5664:
 1630              	.LBE5681:
 1631              	.LBE5699:
 1632              	.LBE5717:
 1633              	.LBE6194:
 1634              	.LBB6195:
 1635              	.LBB6174:
 1636              	.LBB5975:
 1637              	.LBB5976:
 1638              	.LBB5977:
 1639              	.LBB5978:
 1640              	.LBB5979:
 1641              	.LBB5980:
 1642              	.LBB5981:
 1643              	.LBB5982:
 1644              	.LBB5983:
 1645              	.LBB5984:
 1646              	.LBB5985:
 1647              	.LBB5986:
 1648              	.LBB5987:
 1649              	.LBB5988:
 1650              	.LBB5989:
 1651              	.LBB5990:
 1652              	.LBB5991:
 1653              	.LBB5992:
ARM GAS  /var/folders/28/j9jfyj_n4wz3qtvnym210h2c0000gn/T//ccYibR7K.s 			page 30


 1654              	.LBB5993:
 1655              	.LBB5994:
 1656              	.LBB5995:
 1657              	.LBB5996:
 1658              	.LBB5997:
 1659              	.LBB5998:
 1660 0432 B0EE6C7A 		fcpys	s14, s25
 1661              	.LBE5998:
 1662              	.LBE5997:
 1663              	.LBE5996:
 1664              	.LBE5995:
 1665              	.LBE5994:
 1666              	.LBE5993:
 1667              	.LBE5992:
 1668              	.LBE5991:
 1669              	.LBE5990:
 1670              	.LBE5989:
 1671              	.LBE5988:
 1672              	.LBE5987:
 1673              	.LBE5986:
 1674              	.LBE5985:
 1675              	.LBE5984:
 1676              	.LBE5983:
 1677              	.LBE5982:
 1678              	.LBE5981:
 1679              	.LBE5980:
 1680              	.LBE5979:
 1681              	.LBE5978:
 1682              	.LBE5977:
 1683              	.LBE5976:
 1684              	.LBE5975:
 1685              	.LBE6174:
 1686              	.LBE6195:
 1687              	.LBE6232:
 1688              	.LBE6260:
 1689              	.LBB6261:
 1690              	.LBB5432:
 1691              	.LBB5412:
 1692              	.LBB5393:
 1693              	.LBB5375:
 1694              	.LBB5357:
 1695              	.LBB5340:
 1696              	.LBB5324:
 1697              	.LBB5309:
 1698              	.LBB5295:
 1699              	.LBB5282:
 1700              	.LBB5269:
 1701              	.LBB5258:
 1702              	.LBB5247:
 1703              	.LBB5238:
 1704              	.LBB5229:
 1705              	.LBB5222:
 1706              	.LBB5215:
 1707              	.LBB5210:
 1708              	.LBB5205:
 1709              	.LBB5202:
 1710              	.LBB5199:
ARM GAS  /var/folders/28/j9jfyj_n4wz3qtvnym210h2c0000gn/T//ccYibR7K.s 			page 31


 1711 0436 E5EE8F6A 		vfma.f32	s13, s11, s30
 1712              	.LBE5199:
 1713              	.LBE5202:
 1714              	.LBE5205:
 1715              	.LBE5210:
 1716              	.LBE5215:
 1717              	.LBE5222:
 1718              	.LBE5229:
 1719              	.LBE5238:
 1720              	.LBE5247:
 1721              	.LBE5258:
 1722              	.LBE5269:
 1723              	.LBE5282:
 1724              	.LBE5295:
 1725              	.LBE5309:
 1726              	.LBE5324:
 1727              	.LBE5340:
 1728              	.LBE5357:
 1729              	.LBE5375:
 1730              	.LBE5393:
 1731              	.LBE5412:
 1732              	.LBE5432:
 1733              	.LBE6261:
 1734              	.LBB6262:
 1735              	.LBB6233:
 1736              	.LBB6196:
 1737              	.LBB6175:
 1738              	.LBB6143:
 1739              	.LBB6131:
 1740              	.LBB6120:
 1741              	.LBB6109:
 1742              	.LBB6099:
 1743              	.LBB6089:
 1744              	.LBB6080:
 1745              	.LBB6071:
 1746              	.LBB6063:
 1747              	.LBB6055:
 1748              	.LBB6048:
 1749              	.LBB6041:
 1750              	.LBB6035:
 1751              	.LBB6029:
 1752              	.LBB6024:
 1753              	.LBB6019:
 1754              	.LBB6015:
 1755              	.LBB6011:
 1756              	.LBB6008:
 1757              	.LBB6005:
 1758              	.LBB6003:
 1759              	.LBB6001:
 1760              	.LBB6000:
 1761              	.LBB5999:
 1762 043a A0EE807A 		vfma.f32	s14, s1, s0
 1763              	.LBE5999:
 1764              	.LBE6000:
 1765              	.LBE6001:
 1766              	.LBE6003:
 1767              	.LBE6005:
ARM GAS  /var/folders/28/j9jfyj_n4wz3qtvnym210h2c0000gn/T//ccYibR7K.s 			page 32


 1768              	.LBE6008:
 1769              	.LBE6011:
 1770              	.LBE6015:
 1771              	.LBE6019:
 1772              	.LBE6024:
 1773              	.LBE6029:
 1774              	.LBE6035:
 1775              	.LBE6041:
 1776              	.LBE6048:
 1777              	.LBE6055:
 1778              	.LBE6063:
 1779              	.LBE6071:
 1780              	.LBE6080:
 1781              	.LBE6089:
 1782              	.LBE6099:
 1783              	.LBE6109:
 1784              	.LBE6120:
 1785              	.LBE6131:
 1786              	.LBE6143:
 1787              	.LBB6144:
 1788              	.LBB5956:
 1789              	.LBB5938:
 1790              	.LBB5920:
 1791              	.LBB5904:
 1792              	.LBB5888:
 1793              	.LBB5874:
 1794              	.LBB5860:
 1795              	.LBB5848:
 1796              	.LBB5836:
 1797              	.LBB5826:
 1798              	.LBB5816:
 1799              	.LBB5808:
 1800              	.LBB5800:
 1801              	.LBB5793:
 1802              	.LBB5786:
 1803              	.LBB5781:
 1804              	.LBB5776:
 1805              	.LBB5773:
 1806              	.LBB5770:
 1807              	.LBB5768:
 1808              	.LBB5766:
 1809              	.LBB5765:
 1810              	.LBB5764:
 1811 043e A5EE8A6A 		vfma.f32	s12, s11, s20
 1812              	.LBE5764:
 1813              	.LBE5765:
 1814              	.LBE5766:
 1815              	.LBE5768:
 1816              	.LBE5770:
 1817              	.LBE5773:
 1818              	.LBE5776:
 1819              	.LBE5781:
 1820              	.LBE5786:
 1821              	.LBE5793:
 1822              	.LBE5800:
 1823              	.LBE5808:
 1824              	.LBE5816:
ARM GAS  /var/folders/28/j9jfyj_n4wz3qtvnym210h2c0000gn/T//ccYibR7K.s 			page 33


 1825              	.LBE5826:
 1826              	.LBE5836:
 1827              	.LBE5848:
 1828              	.LBE5860:
 1829              	.LBE5874:
 1830              	.LBE5888:
 1831              	.LBE5904:
 1832              	.LBE5920:
 1833              	.LBE5938:
 1834              	.LBE5956:
 1835              	.LBE6144:
 1836              	.LBE6175:
 1837              	.LBE6196:
 1838              	.LBE6233:
 1839              	.LBE6262:
 1840              	.LBB6263:
 1841              	.LBB5433:
 1842              	.LBB5413:
 1843              	.LBB5394:
 1844              	.LBB5376:
 1845              	.LBB5358:
 1846              	.LBB5341:
 1847              	.LBB5325:
 1848              	.LBB5310:
 1849              	.LBB5296:
 1850              	.LBB5283:
 1851              	.LBB5270:
 1852              	.LBB5259:
 1853              	.LBB5248:
 1854              	.LBB5239:
 1855              	.LBB5230:
 1856              	.LBB5223:
 1857              	.LBB5216:
 1858              	.LBB5211:
 1859              	.LBB5206:
 1860 0442 9FED78FA 		flds	s30, .L58+88
 1861              	.LBE5206:
 1862              	.LBE5211:
 1863              	.LBE5216:
 1864              	.LBE5223:
 1865              	.LBE5230:
 1866              	.LBE5239:
 1867              	.LBE5248:
 1868              	.LBE5259:
 1869              	.LBE5270:
 1870              	.LBE5283:
 1871              	.LBE5296:
 1872              	.LBE5310:
 1873              	.LBE5325:
 1874              	.LBE5341:
 1875              	.LBE5358:
 1876              	.LBE5376:
 1877              	.LBE5394:
 1878              	.LBE5413:
 1879              	.LBE5433:
 1880              	.LBE6263:
 1881              	.LBB6264:
ARM GAS  /var/folders/28/j9jfyj_n4wz3qtvnym210h2c0000gn/T//ccYibR7K.s 			page 34


 1882              	.LBB6234:
 1883              	.LBB6197:
 1884              	.LBB5718:
 1885              	.LBB5700:
 1886              	.LBB5682:
 1887              	.LBB5665:
 1888              	.LBB5648:
 1889              	.LBB5632:
 1890              	.LBB5616:
 1891              	.LBB5601:
 1892              	.LBB5585:
 1893              	.LBB5570:
 1894              	.LBB5555:
 1895              	.LBB5543:
 1896              	.LBB5531:
 1897              	.LBB5521:
 1898              	.LBB5512:
 1899              	.LBB5504:
 1900              	.LBB5497:
 1901              	.LBB5491:
 1902              	.LBB5486:
 1903 0446 E5EE0B7A 		vfma.f32	s15, s10, s22
 1904              	.LBE5486:
 1905              	.LBE5491:
 1906              	.LBE5497:
 1907              	.LBE5504:
 1908              	.LBE5512:
 1909              	.LBE5521:
 1910              	.LBE5531:
 1911              	.LBE5543:
 1912              	.LBE5555:
 1913              	.LBE5570:
 1914              	.LBE5585:
 1915              	.LBE5601:
 1916              	.LBE5616:
 1917              	.LBE5632:
 1918              	.LBE5648:
 1919              	.LBE5665:
 1920              	.LBE5682:
 1921              	.LBE5700:
 1922              	.LBE5718:
 1923              	.LBE6197:
 1924              	.LBB6198:
 1925              	.LBB6176:
 1926              	.LBB6145:
 1927              	.LBB6132:
 1928              	.LBB6121:
 1929              	.LBB6110:
 1930              	.LBB6100:
 1931              	.LBB6090:
 1932              	.LBB6081:
 1933              	.LBB6072:
 1934              	.LBB6064:
 1935              	.LBB6056:
 1936              	.LBB6049:
 1937              	.LBB6042:
 1938              	.LBB6036:
ARM GAS  /var/folders/28/j9jfyj_n4wz3qtvnym210h2c0000gn/T//ccYibR7K.s 			page 35


 1939              	.LBB6030:
 1940              	.LBB6025:
 1941              	.LBB6020:
 1942              	.LBB6016:
 1943              	.LBB6012:
 1944              	.LBB6009:
 1945              	.LBB6006:
 1946              	.LBB6004:
 1947              	.LBB6002:
 1948 044a A5EE897A 		vfma.f32	s14, s11, s18
 1949              	.LBE6002:
 1950              	.LBE6004:
 1951              	.LBE6006:
 1952              	.LBE6009:
 1953              	.LBE6012:
 1954              	.LBE6016:
 1955              	.LBE6020:
 1956              	.LBE6025:
 1957              	.LBE6030:
 1958              	.LBE6036:
 1959              	.LBE6042:
 1960              	.LBE6049:
 1961              	.LBE6056:
 1962              	.LBE6064:
 1963              	.LBE6072:
 1964              	.LBE6081:
 1965              	.LBE6090:
 1966              	.LBE6100:
 1967              	.LBE6110:
 1968              	.LBE6121:
 1969              	.LBE6132:
 1970              	.LBE6145:
 1971              	.LBE6176:
 1972              	.LBE6198:
 1973              	.LBE6234:
 1974              	.LBE6264:
 1975              	.LBB6265:
 1976              	.LBB5434:
 1977              	.LBB5414:
 1978              	.LBB5395:
 1979              	.LBB5377:
 1980              	.LBB5359:
 1981              	.LBB5342:
 1982              	.LBB5326:
 1983              	.LBB5311:
 1984              	.LBB5297:
 1985              	.LBB5284:
 1986              	.LBB5271:
 1987              	.LBB5260:
 1988              	.LBB5249:
 1989              	.LBB5240:
 1990              	.LBB5231:
 1991              	.LBB5224:
 1992              	.LBB5217:
 1993              	.LBB5212:
 1994              	.LBB5207:
 1995 044e E5EE0F6A 		vfma.f32	s13, s10, s30
ARM GAS  /var/folders/28/j9jfyj_n4wz3qtvnym210h2c0000gn/T//ccYibR7K.s 			page 36


 1996              	.LBE5207:
 1997              	.LBE5212:
 1998              	.LBE5217:
 1999              	.LBE5224:
 2000              	.LBE5231:
 2001              	.LBE5240:
 2002              	.LBE5249:
 2003              	.LBE5260:
 2004              	.LBE5271:
 2005              	.LBE5284:
 2006              	.LBE5297:
 2007              	.LBE5311:
 2008              	.LBE5326:
 2009              	.LBE5342:
 2010              	.LBE5359:
 2011              	.LBE5377:
 2012              	.LBE5395:
 2013              	.LBE5414:
 2014              	.LBE5434:
 2015              	.LBE6265:
 2016              	.LBB6266:
 2017              	.LBB6235:
 2018              	.LBB6199:
 2019              	.LBB6177:
 2020              	.LBB6146:
 2021              	.LBB5957:
 2022              	.LBB5939:
 2023              	.LBB5921:
 2024              	.LBB5905:
 2025              	.LBB5889:
 2026              	.LBB5875:
 2027              	.LBB5861:
 2028              	.LBB5849:
 2029              	.LBB5837:
 2030              	.LBB5827:
 2031              	.LBB5817:
 2032              	.LBB5809:
 2033              	.LBB5801:
 2034              	.LBB5794:
 2035              	.LBB5787:
 2036              	.LBB5782:
 2037              	.LBB5777:
 2038              	.LBB5774:
 2039              	.LBB5771:
 2040              	.LBB5769:
 2041              	.LBB5767:
 2042 0452 A5EE2B6A 		vfma.f32	s12, s10, s23
 2043              	.LBE5767:
 2044              	.LBE5769:
 2045              	.LBE5771:
 2046              	.LBE5774:
 2047              	.LBE5777:
 2048              	.LBE5782:
 2049              	.LBE5787:
 2050              	.LBE5794:
 2051              	.LBE5801:
 2052              	.LBE5809:
ARM GAS  /var/folders/28/j9jfyj_n4wz3qtvnym210h2c0000gn/T//ccYibR7K.s 			page 37


 2053              	.LBE5817:
 2054              	.LBE5827:
 2055              	.LBE5837:
 2056              	.LBE5849:
 2057              	.LBE5861:
 2058              	.LBE5875:
 2059              	.LBE5889:
 2060              	.LBE5905:
 2061              	.LBE5921:
 2062              	.LBE5939:
 2063              	.LBE5957:
 2064              	.LBE6146:
 2065              	.LBE6177:
 2066              	.LBE6199:
 2067              	.LBE6235:
 2068              	.LBE6266:
 2069              	.LBB6267:
 2070              	.LBB5435:
 2071              	.LBB5415:
 2072              	.LBB5396:
 2073              	.LBB5378:
 2074              	.LBB5360:
 2075              	.LBB5343:
 2076              	.LBB5327:
 2077              	.LBB5312:
 2078              	.LBB5298:
 2079              	.LBB5285:
 2080              	.LBB5272:
 2081              	.LBB5261:
 2082              	.LBB5250:
 2083              	.LBB5241:
 2084              	.LBB5232:
 2085              	.LBB5225:
 2086              	.LBB5218:
 2087 0456 9FED72FA 		flds	s30, .L58+84
 2088              	.LBE5218:
 2089              	.LBE5225:
 2090              	.LBE5232:
 2091              	.LBE5241:
 2092              	.LBE5250:
 2093              	.LBE5261:
 2094              	.LBE5272:
 2095              	.LBE5285:
 2096              	.LBE5298:
 2097              	.LBE5312:
 2098              	.LBE5327:
 2099              	.LBE5343:
 2100              	.LBE5360:
 2101              	.LBE5378:
 2102              	.LBE5396:
 2103              	.LBE5415:
 2104              	.LBE5435:
 2105              	.LBE6267:
 2106              	.LBB6268:
 2107              	.LBB6236:
 2108              	.LBB6200:
 2109              	.LBB5719:
ARM GAS  /var/folders/28/j9jfyj_n4wz3qtvnym210h2c0000gn/T//ccYibR7K.s 			page 38


 2110              	.LBB5701:
 2111              	.LBB5683:
 2112              	.LBB5666:
 2113              	.LBB5649:
 2114              	.LBB5633:
 2115              	.LBB5617:
 2116              	.LBB5602:
 2117              	.LBB5586:
 2118              	.LBB5571:
 2119              	.LBB5556:
 2120              	.LBB5544:
 2121              	.LBB5532:
 2122              	.LBB5522:
 2123              	.LBB5513:
 2124              	.LBB5505:
 2125              	.LBB5498:
 2126 045a E4EE8D7A 		vfma.f32	s15, s9, s26
 2127              	.LBE5498:
 2128              	.LBE5505:
 2129              	.LBE5513:
 2130              	.LBE5522:
 2131              	.LBE5532:
 2132              	.LBE5544:
 2133              	.LBE5556:
 2134              	.LBE5571:
 2135              	.LBE5586:
 2136              	.LBE5602:
 2137              	.LBE5617:
 2138              	.LBE5633:
 2139              	.LBE5649:
 2140              	.LBE5666:
 2141              	.LBE5683:
 2142              	.LBE5701:
 2143              	.LBE5719:
 2144              	.LBE6200:
 2145              	.LBE6236:
 2146              	.LBE6268:
 2147              	.LBB6269:
 2148              	.LBB5436:
 2149              	.LBB5416:
 2150              	.LBB5397:
 2151              	.LBB5379:
 2152              	.LBB5361:
 2153              	.LBB5344:
 2154              	.LBB5328:
 2155              	.LBB5313:
 2156              	.LBB5299:
 2157              	.LBB5286:
 2158              	.LBB5273:
 2159              	.LBB5262:
 2160              	.LBB5251:
 2161              	.LBB5242:
 2162              	.LBB5233:
 2163              	.LBB5226:
 2164              	.LBB5219:
 2165 045e E4EE8F6A 		vfma.f32	s13, s9, s30
 2166              	.LBE5219:
ARM GAS  /var/folders/28/j9jfyj_n4wz3qtvnym210h2c0000gn/T//ccYibR7K.s 			page 39


 2167              	.LBE5226:
 2168              	.LBE5233:
 2169              	.LBE5242:
 2170              	.LBE5251:
 2171              	.LBE5262:
 2172              	.LBE5273:
 2173              	.LBE5286:
 2174              	.LBE5299:
 2175              	.LBE5313:
 2176              	.LBE5328:
 2177              	.LBE5344:
 2178              	.LBE5361:
 2179              	.LBE5379:
 2180              	.LBE5397:
 2181              	.LBE5416:
 2182              	.LBE5436:
 2183              	.LBE6269:
 2184              	.LBB6270:
 2185              	.LBB6237:
 2186              	.LBB6201:
 2187              	.LBB6178:
 2188              	.LBB6147:
 2189              	.LBB6133:
 2190              	.LBB6122:
 2191              	.LBB6111:
 2192              	.LBB6101:
 2193              	.LBB6091:
 2194              	.LBB6082:
 2195              	.LBB6073:
 2196              	.LBB6065:
 2197              	.LBB6057:
 2198              	.LBB6050:
 2199              	.LBB6043:
 2200              	.LBB6037:
 2201              	.LBB6031:
 2202              	.LBB6026:
 2203              	.LBB6021:
 2204              	.LBB6017:
 2205              	.LBB6013:
 2206              	.LBB6010:
 2207              	.LBB6007:
 2208 0462 A5EE2A7A 		vfma.f32	s14, s10, s21
 2209              	.LBE6007:
 2210              	.LBE6010:
 2211              	.LBE6013:
 2212              	.LBE6017:
 2213              	.LBE6021:
 2214              	.LBE6026:
 2215              	.LBE6031:
 2216              	.LBE6037:
 2217              	.LBE6043:
 2218              	.LBE6050:
 2219              	.LBE6057:
 2220              	.LBE6065:
 2221              	.LBE6073:
 2222              	.LBE6082:
 2223              	.LBE6091:
ARM GAS  /var/folders/28/j9jfyj_n4wz3qtvnym210h2c0000gn/T//ccYibR7K.s 			page 40


 2224              	.LBE6101:
 2225              	.LBE6111:
 2226              	.LBE6122:
 2227              	.LBE6133:
 2228              	.LBE6147:
 2229              	.LBB6148:
 2230              	.LBB5958:
 2231              	.LBB5940:
 2232              	.LBB5922:
 2233              	.LBB5906:
 2234              	.LBB5890:
 2235              	.LBB5876:
 2236              	.LBB5862:
 2237              	.LBB5850:
 2238              	.LBB5838:
 2239              	.LBB5828:
 2240              	.LBB5818:
 2241              	.LBB5810:
 2242              	.LBB5802:
 2243              	.LBB5795:
 2244              	.LBB5788:
 2245              	.LBB5783:
 2246              	.LBB5778:
 2247              	.LBB5775:
 2248              	.LBB5772:
 2249 0466 A4EEAD6A 		vfma.f32	s12, s9, s27
 2250              	.LBE5772:
 2251              	.LBE5775:
 2252              	.LBE5778:
 2253              	.LBE5783:
 2254              	.LBE5788:
 2255              	.LBE5795:
 2256              	.LBE5802:
 2257              	.LBE5810:
 2258              	.LBE5818:
 2259              	.LBE5828:
 2260              	.LBE5838:
 2261              	.LBE5850:
 2262              	.LBE5862:
 2263              	.LBE5876:
 2264              	.LBE5890:
 2265              	.LBE5906:
 2266              	.LBE5922:
 2267              	.LBE5940:
 2268              	.LBE5958:
 2269              	.LBE6148:
 2270              	.LBE6178:
 2271              	.LBE6201:
 2272              	.LBE6237:
 2273              	.LBE6270:
 2274              	.LBB6271:
 2275              	.LBB5437:
 2276              	.LBB5417:
 2277              	.LBB5398:
 2278              	.LBB5380:
 2279              	.LBB5362:
 2280              	.LBB5345:
ARM GAS  /var/folders/28/j9jfyj_n4wz3qtvnym210h2c0000gn/T//ccYibR7K.s 			page 41


 2281              	.LBB5329:
 2282              	.LBB5314:
 2283              	.LBB5300:
 2284              	.LBB5287:
 2285              	.LBB5274:
 2286              	.LBB5263:
 2287              	.LBB5252:
 2288              	.LBB5243:
 2289              	.LBB5234:
 2290 046a 9FED6CFA 		flds	s30, .L58+80
 2291              	.LBE5234:
 2292              	.LBE5243:
 2293              	.LBE5252:
 2294              	.LBE5263:
 2295              	.LBE5274:
 2296              	.LBE5287:
 2297              	.LBE5300:
 2298              	.LBE5314:
 2299              	.LBE5329:
 2300              	.LBE5345:
 2301              	.LBE5362:
 2302              	.LBE5380:
 2303              	.LBE5398:
 2304              	.LBE5417:
 2305              	.LBE5437:
 2306              	.LBE6271:
 2307              	.LBB6272:
 2308              	.LBB6238:
 2309              	.LBB6202:
 2310              	.LBB5720:
 2311              	.LBB5702:
 2312              	.LBB5684:
 2313              	.LBB5667:
 2314              	.LBB5650:
 2315              	.LBB5634:
 2316              	.LBB5618:
 2317              	.LBB5603:
 2318              	.LBB5587:
 2319              	.LBB5572:
 2320              	.LBB5557:
 2321              	.LBB5545:
 2322              	.LBB5533:
 2323              	.LBB5523:
 2324              	.LBB5514:
 2325 046e E4EE2E7A 		vfma.f32	s15, s8, s29
 2326              	.LBE5514:
 2327              	.LBE5523:
 2328              	.LBE5533:
 2329              	.LBE5545:
 2330              	.LBE5557:
 2331              	.LBE5572:
 2332              	.LBE5587:
 2333              	.LBE5603:
 2334              	.LBE5618:
 2335              	.LBE5634:
 2336              	.LBE5650:
 2337              	.LBE5667:
ARM GAS  /var/folders/28/j9jfyj_n4wz3qtvnym210h2c0000gn/T//ccYibR7K.s 			page 42


 2338              	.LBE5684:
 2339              	.LBE5702:
 2340              	.LBE5720:
 2341              	.LBE6202:
 2342              	.LBE6238:
 2343              	.LBE6272:
 2344              	.LBB6273:
 2345              	.LBB5438:
 2346              	.LBB5418:
 2347              	.LBB5399:
 2348              	.LBB5381:
 2349              	.LBB5363:
 2350              	.LBB5346:
 2351              	.LBB5330:
 2352              	.LBB5315:
 2353              	.LBB5301:
 2354              	.LBB5288:
 2355              	.LBB5275:
 2356              	.LBB5264:
 2357              	.LBB5253:
 2358              	.LBB5244:
 2359              	.LBB5235:
 2360 0472 E4EE0F6A 		vfma.f32	s13, s8, s30
 2361              	.LBE5235:
 2362              	.LBE5244:
 2363              	.LBE5253:
 2364              	.LBE5264:
 2365              	.LBE5275:
 2366              	.LBE5288:
 2367              	.LBE5301:
 2368              	.LBE5315:
 2369              	.LBE5330:
 2370              	.LBE5346:
 2371              	.LBE5363:
 2372              	.LBE5381:
 2373              	.LBE5399:
 2374              	.LBE5418:
 2375              	.LBE5438:
 2376              	.LBE6273:
 2377              	.LBB6274:
 2378              	.LBB6239:
 2379              	.LBB6203:
 2380              	.LBB6179:
 2381              	.LBB6149:
 2382              	.LBB6134:
 2383              	.LBB6123:
 2384              	.LBB6112:
 2385              	.LBB6102:
 2386              	.LBB6092:
 2387              	.LBB6083:
 2388              	.LBB6074:
 2389              	.LBB6066:
 2390              	.LBB6058:
 2391              	.LBB6051:
 2392              	.LBB6044:
 2393              	.LBB6038:
 2394              	.LBB6032:
ARM GAS  /var/folders/28/j9jfyj_n4wz3qtvnym210h2c0000gn/T//ccYibR7K.s 			page 43


 2395              	.LBB6027:
 2396              	.LBB6022:
 2397              	.LBB6018:
 2398              	.LBB6014:
 2399 0476 A4EE8C7A 		vfma.f32	s14, s9, s24
 2400              	.LBE6014:
 2401              	.LBE6018:
 2402              	.LBE6022:
 2403              	.LBE6027:
 2404              	.LBE6032:
 2405              	.LBE6038:
 2406              	.LBE6044:
 2407              	.LBE6051:
 2408              	.LBE6058:
 2409              	.LBE6066:
 2410              	.LBE6074:
 2411              	.LBE6083:
 2412              	.LBE6092:
 2413              	.LBE6102:
 2414              	.LBE6112:
 2415              	.LBE6123:
 2416              	.LBE6134:
 2417              	.LBE6149:
 2418              	.LBB6150:
 2419              	.LBB5959:
 2420              	.LBB5941:
 2421              	.LBB5923:
 2422              	.LBB5907:
 2423              	.LBB5891:
 2424              	.LBB5877:
 2425              	.LBB5863:
 2426              	.LBB5851:
 2427              	.LBB5839:
 2428              	.LBB5829:
 2429              	.LBB5819:
 2430              	.LBB5811:
 2431              	.LBB5803:
 2432              	.LBB5796:
 2433              	.LBB5789:
 2434              	.LBB5784:
 2435              	.LBB5779:
 2436 047a 9FED67FA 		flds	s30, .L58+76
 2437              	.LBE5779:
 2438              	.LBE5784:
 2439              	.LBE5789:
 2440              	.LBE5796:
 2441              	.LBE5803:
 2442              	.LBE5811:
 2443              	.LBE5819:
 2444              	.LBE5829:
 2445              	.LBE5839:
 2446              	.LBE5851:
 2447              	.LBE5863:
 2448              	.LBE5877:
 2449              	.LBE5891:
 2450              	.LBE5907:
 2451              	.LBE5923:
ARM GAS  /var/folders/28/j9jfyj_n4wz3qtvnym210h2c0000gn/T//ccYibR7K.s 			page 44


 2452              	.LBE5941:
 2453              	.LBE5959:
 2454              	.LBE6150:
 2455              	.LBE6179:
 2456              	.LBE6203:
 2457              	.LBB6204:
 2458              	.LBB5721:
 2459              	.LBB5703:
 2460              	.LBB5685:
 2461              	.LBB5668:
 2462              	.LBB5651:
 2463              	.LBB5635:
 2464              	.LBB5619:
 2465              	.LBB5604:
 2466              	.LBB5588:
 2467              	.LBB5573:
 2468              	.LBB5558:
 2469              	.LBB5546:
 2470              	.LBB5534:
 2471 047e E3EEAF7A 		vfma.f32	s15, s7, s31
 2472              	.LBE5534:
 2473              	.LBE5546:
 2474              	.LBE5558:
 2475              	.LBE5573:
 2476              	.LBE5588:
 2477              	.LBE5604:
 2478              	.LBE5619:
 2479              	.LBE5635:
 2480              	.LBE5651:
 2481              	.LBE5668:
 2482              	.LBE5685:
 2483              	.LBE5703:
 2484              	.LBE5721:
 2485              	.LBE6204:
 2486              	.LBB6205:
 2487              	.LBB6180:
 2488              	.LBB6151:
 2489              	.LBB5960:
 2490              	.LBB5942:
 2491              	.LBB5924:
 2492              	.LBB5908:
 2493              	.LBB5892:
 2494              	.LBB5878:
 2495              	.LBB5864:
 2496              	.LBB5852:
 2497              	.LBB5840:
 2498              	.LBB5830:
 2499              	.LBB5820:
 2500              	.LBB5812:
 2501              	.LBB5804:
 2502              	.LBB5797:
 2503              	.LBB5790:
 2504              	.LBB5785:
 2505              	.LBB5780:
 2506 0482 A4EE0F6A 		vfma.f32	s12, s8, s30
 2507              	.LBE5780:
 2508              	.LBE5785:
ARM GAS  /var/folders/28/j9jfyj_n4wz3qtvnym210h2c0000gn/T//ccYibR7K.s 			page 45


 2509              	.LBE5790:
 2510              	.LBE5797:
 2511              	.LBE5804:
 2512              	.LBE5812:
 2513              	.LBE5820:
 2514              	.LBE5830:
 2515              	.LBE5840:
 2516              	.LBE5852:
 2517              	.LBE5864:
 2518              	.LBE5878:
 2519              	.LBE5892:
 2520              	.LBE5908:
 2521              	.LBE5924:
 2522              	.LBE5942:
 2523              	.LBE5960:
 2524              	.LBE6151:
 2525              	.LBE6180:
 2526              	.LBE6205:
 2527              	.LBE6239:
 2528              	.LBE6274:
 2529              	.LBB6275:
 2530              	.LBB5439:
 2531              	.LBB5419:
 2532              	.LBB5400:
 2533              	.LBB5382:
 2534              	.LBB5364:
 2535              	.LBB5347:
 2536              	.LBB5331:
 2537              	.LBB5316:
 2538              	.LBB5302:
 2539              	.LBB5289:
 2540              	.LBB5276:
 2541              	.LBB5265:
 2542              	.LBB5254:
 2543 0486 9FED63FA 		flds	s30, .L58+72
 2544              	.LBE5254:
 2545              	.LBE5265:
 2546              	.LBE5276:
 2547              	.LBE5289:
 2548              	.LBE5302:
 2549              	.LBE5316:
 2550              	.LBE5331:
 2551              	.LBE5347:
 2552              	.LBE5364:
 2553              	.LBE5382:
 2554              	.LBE5400:
 2555              	.LBE5419:
 2556              	.LBE5439:
 2557              	.LBE6275:
 2558              	.LBB6276:
 2559              	.LBB6240:
 2560              	.LBB6206:
 2561              	.LBB5722:
 2562              	.LBB5704:
 2563              	.LBB5686:
 2564              	.LBB5669:
 2565              	.LBB5652:
ARM GAS  /var/folders/28/j9jfyj_n4wz3qtvnym210h2c0000gn/T//ccYibR7K.s 			page 46


 2566              	.LBB5636:
 2567              	.LBB5620:
 2568              	.LBB5605:
 2569              	.LBB5589:
 2570              	.LBB5574:
 2571              	.LBB5559:
 2572              	.LBB5547:
 2573              	.LBB5535:
 2574 048a CDED007A 		fsts	s15, [sp]
 2575              	.LBE5535:
 2576              	.LBE5547:
 2577              	.LBE5559:
 2578              	.LBE5574:
 2579              	.LBE5589:
 2580              	.LBE5605:
 2581              	.LBE5620:
 2582              	.LBE5636:
 2583              	.LBE5652:
 2584              	.LBE5669:
 2585              	.LBE5686:
 2586              	.LBE5704:
 2587              	.LBE5722:
 2588              	.LBE6206:
 2589              	.LBE6240:
 2590              	.LBE6276:
 2591              	.LBB6277:
 2592              	.LBB5440:
 2593              	.LBB5420:
 2594              	.LBB5401:
 2595              	.LBB5383:
 2596              	.LBB5365:
 2597              	.LBB5348:
 2598              	.LBB5332:
 2599              	.LBB5317:
 2600              	.LBB5303:
 2601              	.LBB5290:
 2602              	.LBB5277:
 2603              	.LBB5266:
 2604              	.LBB5255:
 2605 048e E3EE8F6A 		vfma.f32	s13, s7, s30
 2606              	.LBE5255:
 2607              	.LBE5266:
 2608              	.LBE5277:
 2609              	.LBE5290:
 2610              	.LBE5303:
 2611              	.LBE5317:
 2612              	.LBE5332:
 2613              	.LBE5348:
 2614              	.LBE5365:
 2615              	.LBE5383:
 2616              	.LBE5401:
 2617              	.LBE5420:
 2618              	.LBE5440:
 2619              	.LBE6277:
 2620              	.LBB6278:
 2621              	.LBB6241:
 2622              	.LBB6207:
ARM GAS  /var/folders/28/j9jfyj_n4wz3qtvnym210h2c0000gn/T//ccYibR7K.s 			page 47


 2623              	.LBB6181:
 2624              	.LBB6152:
 2625              	.LBB6135:
 2626              	.LBB6124:
 2627              	.LBB6113:
 2628              	.LBB6103:
 2629              	.LBB6093:
 2630              	.LBB6084:
 2631              	.LBB6075:
 2632              	.LBB6067:
 2633              	.LBB6059:
 2634              	.LBB6052:
 2635              	.LBB6045:
 2636              	.LBB6039:
 2637              	.LBB6033:
 2638              	.LBB6028:
 2639              	.LBB6023:
 2640 0492 A4EE0E7A 		vfma.f32	s14, s8, s28
 2641              	.LBE6023:
 2642              	.LBE6028:
 2643              	.LBE6033:
 2644              	.LBE6039:
 2645              	.LBE6045:
 2646              	.LBE6052:
 2647              	.LBE6059:
 2648              	.LBE6067:
 2649              	.LBE6075:
 2650              	.LBE6084:
 2651              	.LBE6093:
 2652              	.LBE6103:
 2653              	.LBE6113:
 2654              	.LBE6124:
 2655              	.LBE6135:
 2656              	.LBE6152:
 2657              	.LBB6153:
 2658              	.LBB5961:
 2659              	.LBB5943:
 2660              	.LBB5925:
 2661              	.LBB5909:
 2662              	.LBB5893:
 2663              	.LBB5879:
 2664              	.LBB5865:
 2665              	.LBB5853:
 2666              	.LBB5841:
 2667              	.LBB5831:
 2668              	.LBB5821:
 2669              	.LBB5813:
 2670              	.LBB5805:
 2671              	.LBB5798:
 2672              	.LBB5791:
 2673 0496 9FED5DFA 		flds	s30, .L58+64
 2674              	.LBE5791:
 2675              	.LBE5798:
 2676              	.LBE5805:
 2677              	.LBE5813:
 2678              	.LBE5821:
 2679              	.LBE5831:
ARM GAS  /var/folders/28/j9jfyj_n4wz3qtvnym210h2c0000gn/T//ccYibR7K.s 			page 48


 2680              	.LBE5841:
 2681              	.LBE5853:
 2682              	.LBE5865:
 2683              	.LBE5879:
 2684              	.LBE5893:
 2685              	.LBE5909:
 2686              	.LBE5925:
 2687              	.LBE5943:
 2688              	.LBE5961:
 2689              	.LBE6153:
 2690              	.LBE6181:
 2691              	.LBE6207:
 2692              	.LBE6241:
 2693              	.LBE6278:
 2694              	.LBB6279:
 2695              	.LBB5441:
 2696              	.LBB5421:
 2697              	.LBB5402:
 2698              	.LBB5384:
 2699              	.LBB5366:
 2700              	.LBB5349:
 2701              	.LBB5333:
 2702              	.LBB5318:
 2703              	.LBB5304:
 2704              	.LBB5291:
 2705              	.LBB5278:
 2706 049a DFED5C7A 		flds	s15, .L58+64
 2707              	.LBE5278:
 2708              	.LBE5291:
 2709              	.LBE5304:
 2710              	.LBE5318:
 2711              	.LBE5333:
 2712              	.LBE5349:
 2713              	.LBE5366:
 2714              	.LBE5384:
 2715              	.LBE5402:
 2716              	.LBE5421:
 2717              	.LBE5441:
 2718              	.LBE6279:
 2719              	.LBB6280:
 2720              	.LBB6242:
 2721              	.LBB6208:
 2722              	.LBB6182:
 2723              	.LBB6154:
 2724              	.LBB5962:
 2725              	.LBB5944:
 2726              	.LBB5926:
 2727              	.LBB5910:
 2728              	.LBB5894:
 2729              	.LBB5880:
 2730              	.LBB5866:
 2731              	.LBB5854:
 2732              	.LBB5842:
 2733              	.LBB5832:
 2734              	.LBB5822:
 2735              	.LBB5814:
 2736              	.LBB5806:
ARM GAS  /var/folders/28/j9jfyj_n4wz3qtvnym210h2c0000gn/T//ccYibR7K.s 			page 49


 2737              	.LBB5799:
 2738              	.LBB5792:
 2739 049e A3EE8F6A 		vfma.f32	s12, s7, s30
 2740              	.LBE5792:
 2741              	.LBE5799:
 2742              	.LBE5806:
 2743              	.LBE5814:
 2744              	.LBE5822:
 2745              	.LBE5832:
 2746              	.LBE5842:
 2747              	.LBE5854:
 2748              	.LBE5866:
 2749              	.LBE5880:
 2750              	.LBE5894:
 2751              	.LBE5910:
 2752              	.LBE5926:
 2753              	.LBE5944:
 2754              	.LBE5962:
 2755              	.LBE6154:
 2756              	.LBE6182:
 2757              	.LBE6208:
 2758              	.LBB6209:
 2759              	.LBB5723:
 2760              	.LBB5705:
 2761              	.LBB5687:
 2762              	.LBB5670:
 2763              	.LBB5653:
 2764              	.LBB5637:
 2765              	.LBB5621:
 2766              	.LBB5606:
 2767              	.LBB5590:
 2768              	.LBB5575:
 2769              	.LBB5560:
 2770 04a2 9FED5BFA 		flds	s30, .L58+68
 2771              	.LBE5560:
 2772              	.LBE5575:
 2773              	.LBE5590:
 2774              	.LBE5606:
 2775              	.LBE5621:
 2776              	.LBE5637:
 2777              	.LBE5653:
 2778              	.LBE5670:
 2779              	.LBE5687:
 2780              	.LBE5705:
 2781              	.LBE5723:
 2782              	.LBE6209:
 2783              	.LBE6242:
 2784              	.LBE6280:
 2785              	.LBB6281:
 2786              	.LBB5442:
 2787              	.LBB5422:
 2788              	.LBB5403:
 2789              	.LBB5385:
 2790              	.LBB5367:
 2791              	.LBB5350:
 2792              	.LBB5334:
 2793              	.LBB5319:
ARM GAS  /var/folders/28/j9jfyj_n4wz3qtvnym210h2c0000gn/T//ccYibR7K.s 			page 50


 2794              	.LBB5305:
 2795              	.LBB5292:
 2796              	.LBB5279:
 2797 04a6 E3EE276A 		vfma.f32	s13, s6, s15
 2798              	.LBE5279:
 2799              	.LBE5292:
 2800              	.LBE5305:
 2801              	.LBE5319:
 2802              	.LBE5334:
 2803              	.LBE5350:
 2804              	.LBE5367:
 2805              	.LBE5385:
 2806              	.LBE5403:
 2807              	.LBE5422:
 2808              	.LBE5442:
 2809              	.LBE6281:
 2810              	.LBB6282:
 2811              	.LBB6243:
 2812              	.LBB6210:
 2813              	.LBB6183:
 2814              	.LBB6155:
 2815              	.LBB6136:
 2816              	.LBB6125:
 2817              	.LBB6114:
 2818              	.LBB6104:
 2819              	.LBB6094:
 2820              	.LBB6085:
 2821              	.LBB6076:
 2822              	.LBB6068:
 2823              	.LBB6060:
 2824              	.LBB6053:
 2825              	.LBB6046:
 2826              	.LBB6040:
 2827              	.LBB6034:
 2828 04aa A3EE8F7A 		vfma.f32	s14, s7, s30
 2829              	.LBE6034:
 2830              	.LBE6040:
 2831              	.LBE6046:
 2832              	.LBE6053:
 2833              	.LBE6060:
 2834              	.LBE6068:
 2835              	.LBE6076:
 2836              	.LBE6085:
 2837              	.LBE6094:
 2838              	.LBE6104:
 2839              	.LBE6114:
 2840              	.LBE6125:
 2841              	.LBE6136:
 2842              	.LBE6155:
 2843              	.LBB6156:
 2844              	.LBB5963:
 2845              	.LBB5945:
 2846              	.LBB5927:
 2847              	.LBB5911:
 2848              	.LBB5895:
 2849              	.LBB5881:
 2850              	.LBB5867:
ARM GAS  /var/folders/28/j9jfyj_n4wz3qtvnym210h2c0000gn/T//ccYibR7K.s 			page 51


 2851              	.LBB5855:
 2852              	.LBB5843:
 2853              	.LBB5833:
 2854              	.LBB5823:
 2855              	.LBB5815:
 2856              	.LBB5807:
 2857 04ae DFED597A 		flds	s15, .L58+72
 2858 04b2 A3EE276A 		vfma.f32	s12, s6, s15
 2859              	.LBE5807:
 2860              	.LBE5815:
 2861              	.LBE5823:
 2862              	.LBE5833:
 2863              	.LBE5843:
 2864              	.LBE5855:
 2865              	.LBE5867:
 2866              	.LBE5881:
 2867              	.LBE5895:
 2868              	.LBE5911:
 2869              	.LBE5927:
 2870              	.LBE5945:
 2871              	.LBE5963:
 2872              	.LBE6156:
 2873              	.LBE6183:
 2874              	.LBE6210:
 2875              	.LBB6211:
 2876              	.LBB5724:
 2877              	.LBB5706:
 2878              	.LBB5688:
 2879              	.LBB5671:
 2880              	.LBB5654:
 2881              	.LBB5638:
 2882              	.LBB5622:
 2883              	.LBB5607:
 2884              	.LBB5591:
 2885              	.LBB5576:
 2886              	.LBB5561:
 2887 04b6 DDED007A 		flds	s15, [sp]
 2888              	.LBE5561:
 2889              	.LBE5576:
 2890              	.LBE5591:
 2891              	.LBE5607:
 2892              	.LBE5622:
 2893              	.LBE5638:
 2894              	.LBE5654:
 2895              	.LBE5671:
 2896              	.LBE5688:
 2897              	.LBE5706:
 2898              	.LBE5724:
 2899              	.LBE6211:
 2900              	.LBB6212:
 2901              	.LBB6184:
 2902              	.LBB6157:
 2903              	.LBB6137:
 2904              	.LBB6126:
 2905              	.LBB6115:
 2906              	.LBB6105:
 2907              	.LBB6095:
ARM GAS  /var/folders/28/j9jfyj_n4wz3qtvnym210h2c0000gn/T//ccYibR7K.s 			page 52


 2908              	.LBB6086:
 2909              	.LBB6077:
 2910              	.LBB6069:
 2911              	.LBB6061:
 2912              	.LBB6054:
 2913              	.LBB6047:
 2914 04ba A3EE2F7A 		vfma.f32	s14, s6, s31
 2915              	.LBE6047:
 2916              	.LBE6054:
 2917              	.LBE6061:
 2918              	.LBE6069:
 2919              	.LBE6077:
 2920              	.LBE6086:
 2921              	.LBE6095:
 2922              	.LBE6105:
 2923              	.LBE6115:
 2924              	.LBE6126:
 2925              	.LBE6137:
 2926              	.LBE6157:
 2927              	.LBE6184:
 2928              	.LBE6212:
 2929              	.LBB6213:
 2930              	.LBB5725:
 2931              	.LBB5707:
 2932              	.LBB5689:
 2933              	.LBB5672:
 2934              	.LBB5655:
 2935              	.LBB5639:
 2936              	.LBB5623:
 2937              	.LBB5608:
 2938              	.LBB5592:
 2939              	.LBB5577:
 2940              	.LBB5562:
 2941 04be E3EE0F7A 		vfma.f32	s15, s6, s30
 2942              	.LBE5562:
 2943              	.LBE5577:
 2944              	.LBE5592:
 2945              	.LBE5608:
 2946              	.LBE5623:
 2947              	.LBE5639:
 2948              	.LBE5655:
 2949              	.LBE5672:
 2950              	.LBE5689:
 2951              	.LBE5707:
 2952              	.LBE5725:
 2953              	.LBE6213:
 2954              	.LBE6243:
 2955              	.LBE6282:
 2956              	.LBB6283:
 2957              	.LBB5443:
 2958              	.LBB5423:
 2959              	.LBB5404:
 2960              	.LBB5386:
 2961              	.LBB5368:
 2962              	.LBB5351:
 2963              	.LBB5335:
 2964              	.LBB5320:
ARM GAS  /var/folders/28/j9jfyj_n4wz3qtvnym210h2c0000gn/T//ccYibR7K.s 			page 53


 2965              	.LBB5306:
 2966 04c2 9FED55FA 		flds	s30, .L58+76
 2967 04c6 E2EE8F6A 		vfma.f32	s13, s5, s30
 2968              	.LBE5306:
 2969              	.LBE5320:
 2970              	.LBE5335:
 2971              	.LBE5351:
 2972              	.LBE5368:
 2973              	.LBE5386:
 2974              	.LBE5404:
 2975              	.LBE5423:
 2976              	.LBE5443:
 2977              	.LBE6283:
 2978              	.LBB6284:
 2979              	.LBB6244:
 2980              	.LBB6214:
 2981              	.LBB6185:
 2982              	.LBB6158:
 2983              	.LBB5964:
 2984              	.LBB5946:
 2985              	.LBB5928:
 2986              	.LBB5912:
 2987              	.LBB5896:
 2988              	.LBB5882:
 2989              	.LBB5868:
 2990              	.LBB5856:
 2991              	.LBB5844:
 2992              	.LBB5834:
 2993              	.LBB5824:
 2994 04ca 9FED54FA 		flds	s30, .L58+80
 2995              	.LBE5824:
 2996              	.LBE5834:
 2997              	.LBE5844:
 2998              	.LBE5856:
 2999              	.LBE5868:
 3000              	.LBE5882:
 3001              	.LBE5896:
 3002              	.LBE5912:
 3003              	.LBE5928:
 3004              	.LBE5946:
 3005              	.LBE5964:
 3006              	.LBE6158:
 3007              	.LBB6159:
 3008              	.LBB6138:
 3009              	.LBB6127:
 3010              	.LBB6116:
 3011              	.LBB6106:
 3012              	.LBB6096:
 3013              	.LBB6087:
 3014              	.LBB6078:
 3015              	.LBB6070:
 3016              	.LBB6062:
 3017 04ce A2EEAE7A 		vfma.f32	s14, s5, s29
 3018              	.LBE6062:
 3019              	.LBE6070:
 3020              	.LBE6078:
 3021              	.LBE6087:
ARM GAS  /var/folders/28/j9jfyj_n4wz3qtvnym210h2c0000gn/T//ccYibR7K.s 			page 54


 3022              	.LBE6096:
 3023              	.LBE6106:
 3024              	.LBE6116:
 3025              	.LBE6127:
 3026              	.LBE6138:
 3027              	.LBE6159:
 3028              	.LBB6160:
 3029              	.LBB5965:
 3030              	.LBB5947:
 3031              	.LBB5929:
 3032              	.LBB5913:
 3033              	.LBB5897:
 3034              	.LBB5883:
 3035              	.LBB5869:
 3036              	.LBB5857:
 3037              	.LBB5845:
 3038              	.LBB5835:
 3039              	.LBB5825:
 3040 04d2 A2EE8F6A 		vfma.f32	s12, s5, s30
 3041              	.LBE5825:
 3042              	.LBE5835:
 3043              	.LBE5845:
 3044              	.LBE5857:
 3045              	.LBE5869:
 3046              	.LBE5883:
 3047              	.LBE5897:
 3048              	.LBE5913:
 3049              	.LBE5929:
 3050              	.LBE5947:
 3051              	.LBE5965:
 3052              	.LBE6160:
 3053              	.LBE6185:
 3054              	.LBE6214:
 3055              	.LBB6215:
 3056              	.LBB5726:
 3057              	.LBB5708:
 3058              	.LBB5690:
 3059              	.LBB5673:
 3060              	.LBB5656:
 3061              	.LBB5640:
 3062              	.LBB5624:
 3063              	.LBB5609:
 3064              	.LBB5593:
 3065 04d6 E2EE8E7A 		vfma.f32	s15, s5, s28
 3066              	.LBE5593:
 3067              	.LBE5609:
 3068              	.LBE5624:
 3069              	.LBE5640:
 3070              	.LBE5656:
 3071              	.LBE5673:
 3072              	.LBE5690:
 3073              	.LBE5708:
 3074              	.LBE5726:
 3075              	.LBE6215:
 3076              	.LBE6244:
 3077              	.LBE6284:
 3078              	.LBB6285:
ARM GAS  /var/folders/28/j9jfyj_n4wz3qtvnym210h2c0000gn/T//ccYibR7K.s 			page 55


 3079              	.LBB5444:
 3080              	.LBB5424:
 3081              	.LBB5405:
 3082              	.LBB5387:
 3083              	.LBB5369:
 3084              	.LBB5352:
 3085              	.LBB5336:
 3086 04da E2EE2D6A 		vfma.f32	s13, s4, s27
 3087              	.LBE5336:
 3088              	.LBE5352:
 3089              	.LBE5369:
 3090              	.LBE5387:
 3091              	.LBE5405:
 3092              	.LBE5424:
 3093              	.LBE5444:
 3094              	.LBE6285:
 3095              	.LBB6286:
 3096              	.LBB6245:
 3097              	.LBB6216:
 3098              	.LBB6186:
 3099              	.LBB6161:
 3100              	.LBB5966:
 3101              	.LBB5948:
 3102              	.LBB5930:
 3103              	.LBB5914:
 3104              	.LBB5898:
 3105              	.LBB5884:
 3106              	.LBB5870:
 3107              	.LBB5858:
 3108              	.LBB5846:
 3109 04de DFED50DA 		flds	s27, .L58+84
 3110              	.LBE5846:
 3111              	.LBE5858:
 3112              	.LBE5870:
 3113              	.LBE5884:
 3114              	.LBE5898:
 3115              	.LBE5914:
 3116              	.LBE5930:
 3117              	.LBE5948:
 3118              	.LBE5966:
 3119              	.LBE6161:
 3120              	.LBB6162:
 3121              	.LBB6139:
 3122              	.LBB6128:
 3123              	.LBB6117:
 3124              	.LBB6107:
 3125              	.LBB6097:
 3126              	.LBB6088:
 3127              	.LBB6079:
 3128 04e2 A2EE0D7A 		vfma.f32	s14, s4, s26
 3129              	.LBE6079:
 3130              	.LBE6088:
 3131              	.LBE6097:
 3132              	.LBE6107:
 3133              	.LBE6117:
 3134              	.LBE6128:
 3135              	.LBE6139:
ARM GAS  /var/folders/28/j9jfyj_n4wz3qtvnym210h2c0000gn/T//ccYibR7K.s 			page 56


 3136              	.LBE6162:
 3137              	.LBB6163:
 3138              	.LBB5967:
 3139              	.LBB5949:
 3140              	.LBB5931:
 3141              	.LBB5915:
 3142              	.LBB5899:
 3143              	.LBB5885:
 3144              	.LBB5871:
 3145              	.LBB5859:
 3146              	.LBB5847:
 3147 04e6 A2EE2D6A 		vfma.f32	s12, s4, s27
 3148              	.LBE5847:
 3149              	.LBE5859:
 3150              	.LBE5871:
 3151              	.LBE5885:
 3152              	.LBE5899:
 3153              	.LBE5915:
 3154              	.LBE5931:
 3155              	.LBE5949:
 3156              	.LBE5967:
 3157              	.LBE6163:
 3158              	.LBE6186:
 3159              	.LBE6216:
 3160              	.LBB6217:
 3161              	.LBB5727:
 3162              	.LBB5709:
 3163              	.LBB5691:
 3164              	.LBB5674:
 3165              	.LBB5657:
 3166              	.LBB5641:
 3167              	.LBB5625:
 3168 04ea E2EE0C7A 		vfma.f32	s15, s4, s24
 3169              	.LBE5625:
 3170              	.LBE5641:
 3171              	.LBE5657:
 3172              	.LBE5674:
 3173              	.LBE5691:
 3174              	.LBE5709:
 3175              	.LBE5727:
 3176              	.LBE6217:
 3177              	.LBE6245:
 3178              	.LBE6286:
 3179              	.LBB6287:
 3180              	.LBB5445:
 3181              	.LBB5425:
 3182              	.LBB5406:
 3183              	.LBB5388:
 3184              	.LBB5370:
 3185 04ee E1EEAB6A 		vfma.f32	s13, s3, s23
 3186              	.LBE5370:
 3187              	.LBE5388:
 3188              	.LBE5406:
 3189              	.LBE5425:
 3190              	.LBE5445:
 3191              	.LBE6287:
 3192              	.LBB6288:
ARM GAS  /var/folders/28/j9jfyj_n4wz3qtvnym210h2c0000gn/T//ccYibR7K.s 			page 57


 3193              	.LBB6246:
 3194              	.LBB6218:
 3195              	.LBB6187:
 3196              	.LBB6164:
 3197              	.LBB5968:
 3198              	.LBB5950:
 3199              	.LBB5932:
 3200              	.LBB5916:
 3201              	.LBB5900:
 3202              	.LBB5886:
 3203              	.LBB5872:
 3204 04f2 DFED4CBA 		flds	s23, .L58+88
 3205              	.LBE5872:
 3206              	.LBE5886:
 3207              	.LBE5900:
 3208              	.LBE5916:
 3209              	.LBE5932:
 3210              	.LBE5950:
 3211              	.LBE5968:
 3212              	.LBE6164:
 3213              	.LBB6165:
 3214              	.LBB6140:
 3215              	.LBB6129:
 3216              	.LBB6118:
 3217              	.LBB6108:
 3218              	.LBB6098:
 3219 04f6 A1EE8B7A 		vfma.f32	s14, s3, s22
 3220              	.LBE6098:
 3221              	.LBE6108:
 3222              	.LBE6118:
 3223              	.LBE6129:
 3224              	.LBE6140:
 3225              	.LBE6165:
 3226              	.LBB6166:
 3227              	.LBB5969:
 3228              	.LBB5951:
 3229              	.LBB5933:
 3230              	.LBB5917:
 3231              	.LBB5901:
 3232              	.LBB5887:
 3233              	.LBB5873:
 3234 04fa A1EEAB6A 		vfma.f32	s12, s3, s23
 3235              	.LBE5873:
 3236              	.LBE5887:
 3237              	.LBE5901:
 3238              	.LBE5917:
 3239              	.LBE5933:
 3240              	.LBE5951:
 3241              	.LBE5969:
 3242              	.LBE6166:
 3243              	.LBE6187:
 3244              	.LBE6218:
 3245              	.LBB6219:
 3246              	.LBB5728:
 3247              	.LBB5710:
 3248              	.LBB5692:
 3249              	.LBB5675:
ARM GAS  /var/folders/28/j9jfyj_n4wz3qtvnym210h2c0000gn/T//ccYibR7K.s 			page 58


 3250              	.LBB5658:
 3251 04fe E1EEAA7A 		vfma.f32	s15, s3, s21
 3252              	.LBE5658:
 3253              	.LBE5675:
 3254              	.LBE5692:
 3255              	.LBE5710:
 3256              	.LBE5728:
 3257              	.LBE6219:
 3258              	.LBE6246:
 3259              	.LBE6288:
 3260              	.LBB6289:
 3261              	.LBB5446:
 3262              	.LBB5426:
 3263              	.LBB5407:
 3264 0502 E1EE0A6A 		vfma.f32	s13, s2, s20
 3265              	.LBE5407:
 3266              	.LBE5426:
 3267              	.LBE5446:
 3268              	.LBE6289:
 3269              	.LBB6290:
 3270              	.LBB6247:
 3271              	.LBB6220:
 3272              	.LBB6188:
 3273              	.LBB6167:
 3274              	.LBB5970:
 3275              	.LBB5952:
 3276              	.LBB5934:
 3277              	.LBB5918:
 3278              	.LBB5902:
 3279 0506 9FED48AA 		flds	s20, .L58+92
 3280              	.LBE5902:
 3281              	.LBE5918:
 3282              	.LBE5934:
 3283              	.LBE5952:
 3284              	.LBE5970:
 3285              	.LBE6167:
 3286              	.LBE6188:
 3287              	.LBE6220:
 3288              	.LBB6221:
 3289              	.LBB5729:
 3290              	.LBB5711:
 3291              	.LBB5693:
 3292 050a E1EE097A 		vfma.f32	s15, s2, s18
 3293              	.LBE5693:
 3294              	.LBE5711:
 3295              	.LBE5729:
 3296              	.LBE6221:
 3297              	.LBB6222:
 3298              	.LBB6189:
 3299              	.LBB6168:
 3300              	.LBB5971:
 3301              	.LBB5953:
 3302              	.LBB5935:
 3303              	.LBB5919:
 3304              	.LBB5903:
 3305 050e A1EE0A6A 		vfma.f32	s12, s2, s20
 3306              	.LBE5903:
ARM GAS  /var/folders/28/j9jfyj_n4wz3qtvnym210h2c0000gn/T//ccYibR7K.s 			page 59


 3307              	.LBE5919:
 3308              	.LBE5935:
 3309              	.LBE5953:
 3310              	.LBE5971:
 3311              	.LBE6168:
 3312              	.LBE6189:
 3313              	.LBE6222:
 3314              	.LBE6247:
 3315              	.LBE6290:
 3316              	.LBE6295:
 3317              	.LBE6297:
 3318              		.loc 2 186 0
 3319 0512 B1EC019A 		fldmias	r1!, {s18}
 3320              	.LVL105:
 3321              	.LBB6298:
 3322              	.LBB6296:
 3323              	.LBB6291:
 3324              	.LBB6248:
 3325              	.LBB6223:
 3326              	.LBB6190:
 3327              	.LBB6169:
 3328              	.LBB6141:
 3329              	.LBB6130:
 3330              	.LBB6119:
 3331              		.loc 2 123 0
 3332 0516 A1EE297A 		vfma.f32	s14, s2, s19
 3333              	.LBE6119:
 3334              	.LBE6130:
 3335              	.LBE6141:
 3336              	.LBE6169:
 3337              	.LBE6190:
 3338              	.LBE6223:
 3339              	.LBE6248:
 3340              	.LBE6291:
 3341              	.LBB6292:
 3342              	.LBB5447:
 3343 051a E9EE286A 		vfma.f32	s13, s18, s17
 3344              	.LBE5447:
 3345              	.LBE6292:
 3346              	.LBB6293:
 3347              	.LBB6249:
 3348              	.LBB6224:
 3349              	.LBB6191:
 3350              	.LBB6170:
 3351              	.LBB5972:
 3352              	.LBB5954:
 3353              	.LBB5936:
 3354 051e DFED438A 		flds	s17, .L58+96
 3355              	.LBE5936:
 3356              	.LBE5954:
 3357              	.LBE5972:
 3358              	.LBE6170:
 3359              	.LBE6191:
 3360              	.LBE6224:
 3361              	.LBE6249:
 3362              	.LBE6293:
 3363              		.loc 2 145 0
ARM GAS  /var/folders/28/j9jfyj_n4wz3qtvnym210h2c0000gn/T//ccYibR7K.s 			page 60


 3364 0522 43ED086A 		fsts	s13, [r3, #-32]
 3365              	.LVL106:
 3366              	.LBB6294:
 3367              	.LBB6250:
 3368              	.LBB6225:
 3369              	.LBB6192:
 3370              	.LBB6171:
 3371              	.LBB5973:
 3372              	.LBB5955:
 3373              	.LBB5937:
 3374              		.loc 2 123 0
 3375 0526 A9EE286A 		vfma.f32	s12, s18, s17
 3376              	.LBE5937:
 3377              	.LBE5955:
 3378              	.LBE5973:
 3379              	.LBE6171:
 3380              	.LBB6172:
 3381              	.LBB6142:
 3382 052a A9EE087A 		vfma.f32	s14, s18, s16
 3383              	.LBE6142:
 3384              	.LBE6172:
 3385              	.LBE6192:
 3386              	.LBE6225:
 3387              	.LBB6226:
 3388              	.LBB5730:
 3389 052e E9EE007A 		vfma.f32	s15, s18, s0
 3390              	.LBE5730:
 3391              	.LBE6226:
 3392              	.LBB6227:
 3393              	.LBB6193:
 3394              	.LBB6173:
 3395              	.LBB5974:
 3396              		.loc 2 145 0
 3397 0532 03ED056A 		fsts	s12, [r3, #-20]
 3398              	.LBE5974:
 3399              	.LBE6173:
 3400 0536 03ED067A 		fsts	s14, [r3, #-24]
 3401              	.LBE6193:
 3402              	.LBE6227:
 3403 053a 43ED077A 		fsts	s15, [r3, #-28]
 3404              	.LVL107:
 3405              	.LBE6250:
 3406              	.LBE6294:
 3407              	.LBE6296:
 3408              	.LBE6298:
 3409              	.LBE6299:
 3410              		.loc 2 185 0
 3411 053e 7FF42EAF 		bne	.L44
 3412              	.LVL108:
 3413              	.L37:
 3414 0542 0EF1640E 		add	lr, lr, #100
 3415              	.LBE6325:
 3416              	.LBE6328:
 3417              	.LBE6334:
 3418              		.loc 1 141 0
 3419 0546 DE45     		cmp	lr, fp
 3420              	.LBB6335:
ARM GAS  /var/folders/28/j9jfyj_n4wz3qtvnym210h2c0000gn/T//ccYibR7K.s 			page 61


 3421              	.LBB6329:
 3422              	.LBB6326:
 3423              	.LBB6300:
 3424              	.LBB6301:
 3425              		.loc 2 73 0
 3426 0548 88EDCE9A 		fsts	s18, [r8, #824]
 3427              	.LVL109:
 3428              	.LBB6302:
 3429              	.LBB6303:
 3430 054c 88EDCF1A 		fsts	s2, [r8, #828]
 3431              	.LVL110:
 3432              	.LBB6304:
 3433              	.LBB6305:
 3434 0550 C8EDD01A 		fsts	s3, [r8, #832]
 3435              	.LVL111:
 3436              	.LBB6306:
 3437              	.LBB6307:
 3438 0554 88EDD12A 		fsts	s4, [r8, #836]
 3439              	.LVL112:
 3440              	.LBB6308:
 3441              	.LBB6309:
 3442 0558 C8EDD22A 		fsts	s5, [r8, #840]
 3443              	.LVL113:
 3444              	.LBB6310:
 3445              	.LBB6311:
 3446 055c 88EDD33A 		fsts	s6, [r8, #844]
 3447              	.LVL114:
 3448              	.LBB6312:
 3449              	.LBB6313:
 3450 0560 C8EDD43A 		fsts	s7, [r8, #848]
 3451              	.LVL115:
 3452              	.LBB6314:
 3453              	.LBB6315:
 3454 0564 88EDD54A 		fsts	s8, [r8, #852]
 3455              	.LVL116:
 3456              	.LBB6316:
 3457              	.LBB6317:
 3458 0568 C8EDD64A 		fsts	s9, [r8, #856]
 3459              	.LVL117:
 3460              	.LBB6318:
 3461              	.LBB6319:
 3462 056c 88EDD75A 		fsts	s10, [r8, #860]
 3463              	.LVL118:
 3464              	.LBB6320:
 3465              	.LBB6321:
 3466 0570 C8EDD85A 		fsts	s11, [r8, #864]
 3467              	.LVL119:
 3468              	.LBB6322:
 3469              	.LBB6323:
 3470              		.loc 2 101 0
 3471 0574 C8EDD90A 		fsts	s1, [r8, #868]
 3472              	.LBE6323:
 3473              	.LBE6322:
 3474              	.LBE6321:
 3475              	.LBE6320:
 3476              	.LBE6319:
 3477              	.LBE6318:
ARM GAS  /var/folders/28/j9jfyj_n4wz3qtvnym210h2c0000gn/T//ccYibR7K.s 			page 62


 3478              	.LBE6317:
 3479              	.LBE6316:
 3480              	.LBE6315:
 3481              	.LBE6314:
 3482              	.LBE6313:
 3483              	.LBE6312:
 3484              	.LBE6311:
 3485              	.LBE6310:
 3486              	.LBE6309:
 3487              	.LBE6308:
 3488              	.LBE6307:
 3489              	.LBE6306:
 3490              	.LBE6305:
 3491              	.LBE6304:
 3492              	.LBE6303:
 3493              	.LBE6302:
 3494              	.LBE6301:
 3495              	.LBE6300:
 3496              	.LBE6326:
 3497              	.LBE6329:
 3498              	.LBE6335:
 3499              		.loc 1 141 0
 3500 0578 7FF4EAAE 		bne	.L41
 3501              	.LVL120:
 3502              	.L57:
 3503              	.LBE6337:
 3504              	.LBE6339:
 3505              		.loc 1 158 0
 3506 057c 09B0     		add	sp, sp, #36
 3507              		.cfi_remember_state
 3508              		.cfi_def_cfa_offset 100
 3509              		@ sp needed
 3510 057e BDEC108B 		fldmfdd	sp!, {d8-d15}
 3511              		.cfi_restore 94
 3512              		.cfi_restore 95
 3513              		.cfi_restore 92
 3514              		.cfi_restore 93
 3515              		.cfi_restore 90
 3516              		.cfi_restore 91
 3517              		.cfi_restore 88
 3518              		.cfi_restore 89
 3519              		.cfi_restore 86
 3520              		.cfi_restore 87
 3521              		.cfi_restore 84
 3522              		.cfi_restore 85
 3523              		.cfi_restore 82
 3524              		.cfi_restore 83
 3525              		.cfi_restore 80
 3526              		.cfi_restore 81
 3527              		.cfi_def_cfa_offset 36
 3528 0582 BDE8F08F 		pop	{r4, r5, r6, r7, r8, r9, r10, fp, pc}
 3529              	.LVL121:
 3530              	.L56:
 3531              		.cfi_restore_state
 3532              	.LBB6340:
 3533              	.LBB6338:
 3534              	.LBB6336:
ARM GAS  /var/folders/28/j9jfyj_n4wz3qtvnym210h2c0000gn/T//ccYibR7K.s 			page 63


 3535              	.LBB6330:
 3536              	.LBB5112:
 3537              	.LBB5040:
 3538              	.LBB5041:
 3539              		.loc 2 68 0
 3540 0586 98ED611A 		flds	s2, [r8, #388]
 3541              	.LVL122:
 3542              	.LBB5042:
 3543              	.LBB5043:
 3544 058a D8ED621A 		flds	s3, [r8, #392]
 3545              	.LVL123:
 3546              	.LBB5044:
 3547              	.LBB5045:
 3548 058e 98ED632A 		flds	s4, [r8, #396]
 3549              	.LVL124:
 3550              	.LBB5046:
 3551              	.LBB5047:
 3552 0592 D8ED642A 		flds	s5, [r8, #400]
 3553              	.LVL125:
 3554              	.LBB5048:
 3555              	.LBB5049:
 3556 0596 98ED653A 		flds	s6, [r8, #404]
 3557              	.LVL126:
 3558              	.LBB5050:
 3559              	.LBB5051:
 3560 059a D8ED663A 		flds	s7, [r8, #408]
 3561              	.LVL127:
 3562              	.LBB5052:
 3563              	.LBB5053:
 3564 059e 98ED674A 		flds	s8, [r8, #412]
 3565              	.LVL128:
 3566              	.LBB5054:
 3567              	.LBB5055:
 3568 05a2 D8ED684A 		flds	s9, [r8, #416]
 3569              	.LVL129:
 3570              	.LBB5056:
 3571              	.LBB5057:
 3572 05a6 98ED695A 		flds	s10, [r8, #420]
 3573              	.LVL130:
 3574              	.LBB5058:
 3575              	.LBB5059:
 3576 05aa D8ED6A5A 		flds	s11, [r8, #424]
 3577              	.LVL131:
 3578              	.LBB5060:
 3579              	.LBB5061:
 3580 05ae D8ED6B0A 		flds	s1, [r8, #428]
 3581 05b2 D8ED6C7A 		flds	s15, [r8, #432]
 3582              	.LVL132:
 3583              	.LBE5061:
 3584              	.LBE5060:
 3585              	.LBE5059:
 3586              	.LBE5058:
 3587              	.LBE5057:
 3588              	.LBE5056:
 3589              	.LBE5055:
 3590              	.LBE5054:
 3591              	.LBE5053:
ARM GAS  /var/folders/28/j9jfyj_n4wz3qtvnym210h2c0000gn/T//ccYibR7K.s 			page 64


 3592              	.LBE5052:
 3593              	.LBE5051:
 3594              	.LBE5050:
 3595              	.LBE5049:
 3596              	.LBE5048:
 3597              	.LBE5047:
 3598              	.LBE5046:
 3599              	.LBE5045:
 3600              	.LBE5044:
 3601              	.LBE5043:
 3602              	.LBE5042:
 3603              	.LBE5041:
 3604              	.LBE5040:
 3605              		.loc 2 185 0
 3606 05b6 09F1FF32 		add	r2, r9, #-1
 3607              	.LVL133:
 3608 05ba B9F1000F 		cmp	r9, #0
 3609 05be 00F03B81 		beq	.L45
 3610 05c2 039B     		ldr	r3, [sp, #12]
 3611 05c4 0299     		ldr	r1, [sp, #8]
 3612 05c6 1033     		adds	r3, r3, #16
 3613 05c8 48E0     		b	.L40
 3614              	.L59:
 3615 05ca 00BF     		.align	2
 3616              	.L58:
 3617 05cc 00000000 		.word	0
 3618 05d0 D4D7CABA 		.word	3133855700
 3619 05d4 3FE6BA3B 		.word	1002104383
 3620 05d8 60CD0C3F 		.word	1057803616
 3621 05dc 60D873BD 		.word	3178485856
 3622 05e0 D4C7C33D 		.word	1036240852
 3623 05e4 D2A20FBD 		.word	3171918546
 3624 05e8 4E80683C 		.word	1013481550
 3625 05ec D4B19DBD 		.word	3181228500
 3626 05f0 A016833C 		.word	1015223968
 3627 05f4 8C4C673B 		.word	996625548
 3628 05f8 2269AB3B 		.word	1001089314
 3629 05fc F41C9239 		.word	965876980
 3630 0600 AB4792BA 		.word	3130148779
 3631 0604 8866063C 		.word	1007052424
 3632 0608 C4A91DBA 		.word	3122506180
 3633 060c 719CAC3E 		.word	1051499633
 3634 0610 63CFE93E 		.word	1055510371
 3635 0614 99E8193F 		.word	1058662553
 3636 0618 31EE54BD 		.word	3176459825
 3637 061c D8B8573E 		.word	1045936344
 3638 0620 C0E19EBD 		.word	3181306304
 3639 0624 5DFD40BC 		.word	3158375773
 3640 0628 3576563C 		.word	1012299317
 3641 062c 83E6A8BA 		.word	3131631235
 3642              	.LVL134:
 3643              	.L46:
 3644 0630 F0EE650A 		fcpys	s1, s11
 3645              	.LVL135:
 3646 0634 F0EE455A 		fcpys	s11, s10
 3647              	.LVL136:
 3648 0638 B0EE645A 		fcpys	s10, s9
ARM GAS  /var/folders/28/j9jfyj_n4wz3qtvnym210h2c0000gn/T//ccYibR7K.s 			page 65


 3649              	.LVL137:
 3650 063c F0EE444A 		fcpys	s9, s8
 3651              	.LVL138:
 3652 0640 B0EE634A 		fcpys	s8, s7
 3653              	.LVL139:
 3654 0644 F0EE433A 		fcpys	s7, s6
 3655              	.LVL140:
 3656 0648 B0EE623A 		fcpys	s6, s5
 3657              	.LVL141:
 3658 064c F0EE422A 		fcpys	s5, s4
 3659              	.LVL142:
 3660 0650 B0EE612A 		fcpys	s4, s3
 3661              	.LVL143:
 3662 0654 F0EE411A 		fcpys	s3, s2
 3663              	.LVL144:
 3664              	.LBB5085:
 3665              		.loc 2 186 0
 3666 0658 B0EE491A 		fcpys	s2, s18
 3667              	.LVL145:
 3668              	.L40:
 3669              	.LBB5037:
 3670              	.LBB5034:
 3671              	.LBB4186:
 3672              	.LBB4164:
 3673              	.LBB4144:
 3674              	.LBB4124:
 3675              	.LBB4105:
 3676              	.LBB4086:
 3677              	.LBB4069:
 3678              	.LBB4052:
 3679              	.LBB4037:
 3680              	.LBB4022:
 3681              	.LBB4008:
 3682              	.LBB3994:
 3683              	.LBB3982:
 3684              	.LBB3970:
 3685              	.LBB3960:
 3686              	.LBB3950:
 3687              	.LBB3942:
 3688              	.LBB3934:
 3689              	.LBB3928:
 3690              	.LBB3922:
 3691              	.LBB3918:
 3692              	.LBB3914:
 3693              	.LBB3912:
 3694              	.LBB3910:
 3695              		.loc 2 123 0
 3696 065c 5FED0D7A 		flds	s15, .L58+96
 3697              	.LBE3910:
 3698              	.LBE3912:
 3699              	.LBE3914:
 3700              	.LBE3918:
 3701              	.LBE3922:
 3702              	.LBE3928:
 3703              	.LBE3934:
 3704              	.LBE3942:
 3705              	.LBE3950:
ARM GAS  /var/folders/28/j9jfyj_n4wz3qtvnym210h2c0000gn/T//ccYibR7K.s 			page 66


 3706              	.LBE3960:
 3707              	.LBE3970:
 3708              	.LBE3982:
 3709              	.LBE3994:
 3710              	.LBE4008:
 3711              	.LBE4022:
 3712              	.LBE4037:
 3713              	.LBE4052:
 3714              	.LBE4069:
 3715              	.LBE4086:
 3716              	.LBE4105:
 3717              	.LBE4124:
 3718              	.LBE4144:
 3719              	.LBE4164:
 3720              	.LBE4186:
 3721              	.LBB4187:
 3722              	.LBB4188:
 3723              	.LBB4189:
 3724              	.LBB4190:
 3725              	.LBB4191:
 3726              	.LBB4192:
 3727              	.LBB4193:
 3728              	.LBB4194:
 3729              	.LBB4195:
 3730              	.LBB4196:
 3731              	.LBB4197:
 3732              	.LBB4198:
 3733              	.LBB4199:
 3734              	.LBB4200:
 3735              	.LBB4201:
 3736              	.LBB4202:
 3737              	.LBB4203:
 3738              	.LBB4204:
 3739              	.LBB4205:
 3740              	.LBB4206:
 3741              	.LBB4207:
 3742              	.LBB4208:
 3743              	.LBB4209:
 3744              	.LBB4210:
 3745              	.LBB4211:
 3746              	.LBB4212:
 3747 0660 1FED258A 		flds	s16, .L58+4
 3748              	.LBE4212:
 3749              	.LBE4211:
 3750              	.LBE4210:
 3751              	.LBE4209:
 3752              	.LBE4208:
 3753              	.LBE4207:
 3754              	.LBE4206:
 3755              	.LBE4205:
 3756              	.LBE4204:
 3757              	.LBE4203:
 3758              	.LBE4202:
 3759              	.LBE4201:
 3760              	.LBE4200:
 3761              	.LBE4199:
 3762              	.LBE4198:
ARM GAS  /var/folders/28/j9jfyj_n4wz3qtvnym210h2c0000gn/T//ccYibR7K.s 			page 67


 3763              	.LBE4197:
 3764              	.LBE4196:
 3765              	.LBE4195:
 3766              	.LBE4194:
 3767              	.LBE4193:
 3768              	.LBE4192:
 3769              	.LBE4191:
 3770              	.LBE4190:
 3771              	.LBE4189:
 3772              	.LBE4188:
 3773              	.LBE4187:
 3774              	.LBB4990:
 3775              	.LBB4165:
 3776 0664 5FED188A 		flds	s17, .L58+60
 3777              	.LBE4165:
 3778              	.LBE4990:
 3779              	.LBB4991:
 3780              	.LBB4967:
 3781              	.LBB4470:
 3782              	.LBB4451:
 3783              	.LBB4433:
 3784              	.LBB4415:
 3785              	.LBB4398:
 3786              	.LBB4381:
 3787              	.LBB4365:
 3788              	.LBB4349:
 3789              	.LBB4333:
 3790              	.LBB4317:
 3791              	.LBB4302:
 3792              	.LBB4287:
 3793              	.LBB4275:
 3794              	.LBB4263:
 3795              	.LBB4254:
 3796              	.LBB4245:
 3797              	.LBB4238:
 3798              	.LBB4231:
 3799              	.LBB4226:
 3800              	.LBB4221:
 3801              	.LBB4218:
 3802              	.LBB4215:
 3803 0668 5FED1A9A 		flds	s19, .L58+56
 3804              	.LBE4215:
 3805              	.LBE4218:
 3806              	.LBE4221:
 3807              	.LBE4226:
 3808              	.LBE4231:
 3809              	.LBE4238:
 3810              	.LBE4245:
 3811              	.LBE4254:
 3812              	.LBE4263:
 3813              	.LBE4275:
 3814              	.LBE4287:
 3815              	.LBE4302:
 3816              	.LBE4317:
 3817              	.LBE4333:
 3818              	.LBE4349:
 3819              	.LBE4365:
ARM GAS  /var/folders/28/j9jfyj_n4wz3qtvnym210h2c0000gn/T//ccYibR7K.s 			page 68


 3820              	.LBE4381:
 3821              	.LBE4398:
 3822              	.LBE4415:
 3823              	.LBE4433:
 3824 066c 1FED1C0A 		flds	s0, .L58+52
 3825              	.LBE4451:
 3826              	.LBE4470:
 3827              	.LBE4967:
 3828              	.LBE4991:
 3829              	.LBB4992:
 3830              	.LBB4166:
 3831              	.LBB4145:
 3832              	.LBB4125:
 3833              	.LBB4106:
 3834              	.LBB4087:
 3835              	.LBB4070:
 3836              	.LBB4053:
 3837              	.LBB4038:
 3838              	.LBB4023:
 3839              	.LBB4009:
 3840              	.LBB3995:
 3841              	.LBB3983:
 3842              	.LBB3971:
 3843              	.LBB3961:
 3844              	.LBB3951:
 3845              	.LBB3943:
 3846              	.LBB3935:
 3847              	.LBB3929:
 3848              	.LBB3923:
 3849              	.LBB3919:
 3850              	.LBB3915:
 3851 0670 1FED13FA 		flds	s30, .L58+92
 3852              	.LBE3915:
 3853              	.LBE3919:
 3854              	.LBE3923:
 3855              	.LBE3929:
 3856              	.LBE3935:
 3857              	.LBE3943:
 3858              	.LBE3951:
 3859              	.LBE3961:
 3860              	.LBE3971:
 3861              	.LBE3983:
 3862              	.LBE3995:
 3863              	.LBE4009:
 3864              	.LBE4023:
 3865              	.LBE4038:
 3866              	.LBE4053:
 3867              	.LBE4070:
 3868              	.LBE4087:
 3869              	.LBE4106:
 3870 0674 1FED1FAA 		flds	s20, .L58+48
 3871              	.LBE4125:
 3872              	.LBE4145:
 3873              	.LBE4166:
 3874              	.LBE4992:
 3875              	.LBB4993:
 3876              	.LBB4968:
ARM GAS  /var/folders/28/j9jfyj_n4wz3qtvnym210h2c0000gn/T//ccYibR7K.s 			page 69


 3877              	.LBB4471:
 3878              	.LBB4452:
 3879              	.LBB4434:
 3880              	.LBB4416:
 3881              	.LBB4399:
 3882              	.LBB4382:
 3883              	.LBB4366:
 3884              	.LBB4350:
 3885              	.LBB4334:
 3886              	.LBB4318:
 3887              	.LBB4303:
 3888              	.LBB4288:
 3889              	.LBB4276:
 3890              	.LBB4264:
 3891              	.LBB4255:
 3892              	.LBB4246:
 3893              	.LBB4239:
 3894              	.LBB4232:
 3895              	.LBB4227:
 3896              	.LBB4222:
 3897 0678 1FED21BA 		flds	s22, .L58+44
 3898              	.LBE4222:
 3899              	.LBE4227:
 3900              	.LBE4232:
 3901              	.LBE4239:
 3902              	.LBE4246:
 3903              	.LBE4255:
 3904              	.LBE4264:
 3905              	.LBE4276:
 3906              	.LBE4288:
 3907              	.LBE4303:
 3908              	.LBE4318:
 3909              	.LBE4334:
 3910              	.LBE4350:
 3911              	.LBE4366:
 3912              	.LBE4382:
 3913              	.LBE4399:
 3914 067c 1FED239A 		flds	s18, .L58+40
 3915              	.LBE4416:
 3916              	.LBE4434:
 3917              	.LBE4452:
 3918              	.LBE4471:
 3919              	.LBE4968:
 3920              	.LBE4993:
 3921              	.LBB4994:
 3922              	.LBB4167:
 3923              	.LBB4146:
 3924              	.LBB4126:
 3925              	.LBB4107:
 3926              	.LBB4088:
 3927 0680 5FED25BA 		flds	s23, .L58+36
 3928              	.LBE4088:
 3929              	.LBE4107:
 3930              	.LBE4126:
 3931              	.LBE4146:
 3932              	.LBE4167:
 3933              	.LBE4994:
ARM GAS  /var/folders/28/j9jfyj_n4wz3qtvnym210h2c0000gn/T//ccYibR7K.s 			page 70


 3934              	.LBB4995:
 3935              	.LBB4969:
 3936              	.LBB4472:
 3937              	.LBB4453:
 3938              	.LBB4435:
 3939              	.LBB4417:
 3940              	.LBB4400:
 3941              	.LBB4383:
 3942              	.LBB4367:
 3943              	.LBB4351:
 3944              	.LBB4335:
 3945              	.LBB4319:
 3946              	.LBB4304:
 3947              	.LBB4289:
 3948              	.LBB4277:
 3949              	.LBB4265:
 3950              	.LBB4256:
 3951              	.LBB4247:
 3952              	.LBB4240:
 3953              	.LBB4233:
 3954 0684 1FED27DA 		flds	s26, .L58+32
 3955              	.LBE4233:
 3956              	.LBE4240:
 3957              	.LBE4247:
 3958              	.LBE4256:
 3959              	.LBE4265:
 3960              	.LBE4277:
 3961              	.LBE4289:
 3962              	.LBE4304:
 3963              	.LBE4319:
 3964              	.LBE4335:
 3965              	.LBE4351:
 3966              	.LBE4367:
 3967 0688 5FED29AA 		flds	s21, .L58+28
 3968              	.LBE4383:
 3969              	.LBE4400:
 3970              	.LBE4417:
 3971              	.LBE4435:
 3972              	.LBE4453:
 3973              	.LBE4472:
 3974              	.LBE4969:
 3975              	.LBE4995:
 3976              	.LBB4996:
 3977              	.LBB4168:
 3978              	.LBB4147:
 3979              	.LBB4127:
 3980              	.LBB4108:
 3981              	.LBB4089:
 3982              	.LBB4071:
 3983              	.LBB4054:
 3984 068c 5FED2BDA 		flds	s27, .L58+24
 3985              	.LBE4054:
 3986              	.LBE4071:
 3987              	.LBE4089:
 3988              	.LBE4108:
 3989              	.LBE4127:
 3990              	.LBE4147:
ARM GAS  /var/folders/28/j9jfyj_n4wz3qtvnym210h2c0000gn/T//ccYibR7K.s 			page 71


 3991              	.LBE4168:
 3992              	.LBE4996:
 3993              	.LBB4997:
 3994              	.LBB4970:
 3995              	.LBB4473:
 3996              	.LBB4454:
 3997              	.LBB4436:
 3998              	.LBB4418:
 3999              	.LBB4401:
 4000              	.LBB4384:
 4001              	.LBB4368:
 4002              	.LBB4352:
 4003              	.LBB4336:
 4004              	.LBB4320:
 4005              	.LBB4305:
 4006              	.LBB4290:
 4007              	.LBB4278:
 4008              	.LBB4266:
 4009              	.LBB4257:
 4010              	.LBB4248:
 4011 0690 5FED2DEA 		flds	s29, .L58+20
 4012              	.LBE4248:
 4013              	.LBE4257:
 4014              	.LBE4266:
 4015              	.LBE4278:
 4016              	.LBE4290:
 4017              	.LBE4305:
 4018              	.LBE4320:
 4019              	.LBE4336:
 4020 0694 1FED2FCA 		flds	s24, .L58+16
 4021              	.LBB4337:
 4022              	.LBB4321:
 4023              	.LBB4306:
 4024              	.LBB4291:
 4025              	.LBB4279:
 4026              	.LBB4267:
 4027 0698 5FED31FA 		flds	s31, .L58+12
 4028              	.LBE4267:
 4029              	.LBE4279:
 4030              	.LBE4291:
 4031              	.LBE4306:
 4032 069c 1FED33EA 		flds	s28, .L58+8
 4033              	.LBE4321:
 4034              	.LBE4337:
 4035              	.LBE4352:
 4036              	.LBE4368:
 4037              	.LBE4384:
 4038              	.LBE4401:
 4039              	.LBE4418:
 4040              	.LBE4436:
 4041              	.LBE4454:
 4042              	.LBE4473:
 4043              	.LBE4970:
 4044              	.LBE4997:
 4045              	.LBB4998:
 4046              	.LBB4169:
 4047              	.LBB4148:
ARM GAS  /var/folders/28/j9jfyj_n4wz3qtvnym210h2c0000gn/T//ccYibR7K.s 			page 72


 4048              	.LBB4128:
 4049              	.LBB4109:
 4050              	.LBB4090:
 4051              	.LBB4072:
 4052              	.LBB4055:
 4053              	.LBB4039:
 4054              	.LBB4024:
 4055              	.LBB4010:
 4056              	.LBB3996:
 4057              	.LBB3984:
 4058              	.LBB3972:
 4059              	.LBB3962:
 4060              	.LBB3952:
 4061              	.LBB3944:
 4062              	.LBB3936:
 4063              	.LBB3930:
 4064              	.LBB3924:
 4065              	.LBB3920:
 4066              	.LBB3916:
 4067              	.LBB3913:
 4068              	.LBB3911:
 4069 06a0 F0EE6C6A 		fcpys	s13, s25
 4070 06a4 E0EEA76A 		vfma.f32	s13, s1, s15
 4071              	.LBE3911:
 4072              	.LBE3913:
 4073              	.LBE3916:
 4074              	.LBE3920:
 4075              	.LBE3924:
 4076              	.LBE3930:
 4077              	.LBE3936:
 4078              	.LBE3944:
 4079              	.LBE3952:
 4080              	.LBE3962:
 4081              	.LBE3972:
 4082              	.LBE3984:
 4083              	.LBE3996:
 4084              	.LBE4010:
 4085              	.LBE4024:
 4086              	.LBE4039:
 4087              	.LBE4055:
 4088              	.LBE4072:
 4089              	.LBE4090:
 4090              	.LBE4109:
 4091              	.LBE4128:
 4092              	.LBE4148:
 4093              	.LBE4169:
 4094              	.LBE4998:
 4095              	.LBE5034:
 4096              	.LBE5037:
 4097              	.LBE5085:
 4098              		.loc 2 185 0
 4099 06a8 013A     		subs	r2, r2, #1
 4100              	.LVL146:
 4101 06aa 501C     		adds	r0, r2, #1
 4102              	.LBB5086:
 4103              	.LBB5038:
 4104              	.LBB5035:
ARM GAS  /var/folders/28/j9jfyj_n4wz3qtvnym210h2c0000gn/T//ccYibR7K.s 			page 73


 4105              	.LBB4999:
 4106              	.LBB4971:
 4107              	.LBB4474:
 4108              	.LBB4455:
 4109              	.LBB4437:
 4110              	.LBB4419:
 4111              	.LBB4402:
 4112              	.LBB4385:
 4113              	.LBB4369:
 4114              	.LBB4353:
 4115              	.LBB4338:
 4116              	.LBB4322:
 4117              	.LBB4307:
 4118              	.LBB4292:
 4119              	.LBB4280:
 4120              	.LBB4268:
 4121              	.LBB4258:
 4122              	.LBB4249:
 4123              	.LBB4241:
 4124              	.LBB4234:
 4125              	.LBB4228:
 4126              	.LBB4223:
 4127              	.LBB4219:
 4128              	.LBB4216:
 4129              	.LBB4214:
 4130              	.LBB4213:
 4131              		.loc 2 123 0
 4132 06ac F0EE6C7A 		fcpys	s15, s25
 4133 06b0 E0EE887A 		vfma.f32	s15, s1, s16
 4134 06b4 03F11003 		add	r3, r3, #16
 4135              	.LVL147:
 4136              	.LBE4213:
 4137              	.LBE4214:
 4138              	.LBE4216:
 4139              	.LBE4219:
 4140              	.LBE4223:
 4141              	.LBE4228:
 4142              	.LBE4234:
 4143              	.LBE4241:
 4144              	.LBE4249:
 4145              	.LBE4258:
 4146              	.LBE4268:
 4147              	.LBE4280:
 4148              	.LBE4292:
 4149              	.LBE4307:
 4150              	.LBE4322:
 4151              	.LBE4338:
 4152              	.LBE4353:
 4153              	.LBE4369:
 4154              	.LBE4385:
 4155              	.LBE4402:
 4156              	.LBE4419:
 4157              	.LBE4437:
 4158              	.LBE4455:
 4159              	.LBE4474:
 4160              	.LBB4475:
 4161              	.LBB4476:
ARM GAS  /var/folders/28/j9jfyj_n4wz3qtvnym210h2c0000gn/T//ccYibR7K.s 			page 74


 4162              	.LBB4477:
 4163              	.LBB4478:
 4164              	.LBB4479:
 4165              	.LBB4480:
 4166              	.LBB4481:
 4167              	.LBB4482:
 4168              	.LBB4483:
 4169              	.LBB4484:
 4170              	.LBB4485:
 4171              	.LBB4486:
 4172              	.LBB4487:
 4173              	.LBB4488:
 4174              	.LBB4489:
 4175              	.LBB4490:
 4176              	.LBB4491:
 4177              	.LBB4492:
 4178              	.LBB4493:
 4179              	.LBB4494:
 4180              	.LBB4495:
 4181              	.LBB4496:
 4182              	.LBB4497:
 4183              	.LBB4498:
 4184              	.LBB4499:
 4185              	.LBB4500:
 4186              	.LBB4501:
 4187              	.LBB4502:
 4188 06b8 B0EE6C6A 		fcpys	s12, s25
 4189 06bc A0EEA86A 		vfma.f32	s12, s1, s17
 4190              	.LBE4502:
 4191              	.LBE4501:
 4192              	.LBE4500:
 4193              	.LBE4499:
 4194              	.LBE4498:
 4195              	.LBE4497:
 4196              	.LBE4496:
 4197              	.LBE4495:
 4198              	.LBE4494:
 4199              	.LBE4493:
 4200              	.LBE4492:
 4201              	.LBE4491:
 4202              	.LBE4490:
 4203              	.LBE4489:
 4204              	.LBE4488:
 4205              	.LBE4487:
 4206              	.LBE4486:
 4207              	.LBE4485:
 4208              	.LBE4484:
 4209              	.LBE4483:
 4210              	.LBE4482:
 4211              	.LBE4481:
 4212              	.LBE4480:
 4213              	.LBE4479:
 4214              	.LBE4478:
 4215              	.LBE4477:
 4216              	.LBE4476:
 4217              	.LBE4475:
 4218              	.LBB4933:
ARM GAS  /var/folders/28/j9jfyj_n4wz3qtvnym210h2c0000gn/T//ccYibR7K.s 			page 75


 4219              	.LBB4456:
 4220              	.LBB4438:
 4221              	.LBB4420:
 4222              	.LBB4403:
 4223              	.LBB4386:
 4224              	.LBB4370:
 4225              	.LBB4354:
 4226              	.LBB4339:
 4227              	.LBB4323:
 4228              	.LBB4308:
 4229              	.LBB4293:
 4230              	.LBB4281:
 4231              	.LBB4269:
 4232              	.LBB4259:
 4233              	.LBB4250:
 4234              	.LBB4242:
 4235              	.LBB4235:
 4236              	.LBB4229:
 4237              	.LBB4224:
 4238              	.LBB4220:
 4239              	.LBB4217:
 4240 06c0 E5EEA97A 		vfma.f32	s15, s11, s19
 4241              	.LBE4217:
 4242              	.LBE4220:
 4243              	.LBE4224:
 4244              	.LBE4229:
 4245              	.LBE4235:
 4246              	.LBE4242:
 4247              	.LBE4250:
 4248              	.LBE4259:
 4249              	.LBE4269:
 4250              	.LBE4281:
 4251              	.LBE4293:
 4252              	.LBE4308:
 4253              	.LBE4323:
 4254              	.LBE4339:
 4255              	.LBE4354:
 4256              	.LBE4370:
 4257              	.LBE4386:
 4258              	.LBE4403:
 4259              	.LBE4420:
 4260              	.LBE4438:
 4261              	.LBE4456:
 4262              	.LBE4933:
 4263              	.LBB4934:
 4264              	.LBB4913:
 4265              	.LBB4714:
 4266              	.LBB4715:
 4267              	.LBB4716:
 4268              	.LBB4717:
 4269              	.LBB4718:
 4270              	.LBB4719:
 4271              	.LBB4720:
 4272              	.LBB4721:
 4273              	.LBB4722:
 4274              	.LBB4723:
 4275              	.LBB4724:
ARM GAS  /var/folders/28/j9jfyj_n4wz3qtvnym210h2c0000gn/T//ccYibR7K.s 			page 76


 4276              	.LBB4725:
 4277              	.LBB4726:
 4278              	.LBB4727:
 4279              	.LBB4728:
 4280              	.LBB4729:
 4281              	.LBB4730:
 4282              	.LBB4731:
 4283              	.LBB4732:
 4284              	.LBB4733:
 4285              	.LBB4734:
 4286              	.LBB4735:
 4287              	.LBB4736:
 4288              	.LBB4737:
 4289 06c4 B0EE6C7A 		fcpys	s14, s25
 4290              	.LBE4737:
 4291              	.LBE4736:
 4292              	.LBE4735:
 4293              	.LBE4734:
 4294              	.LBE4733:
 4295              	.LBE4732:
 4296              	.LBE4731:
 4297              	.LBE4730:
 4298              	.LBE4729:
 4299              	.LBE4728:
 4300              	.LBE4727:
 4301              	.LBE4726:
 4302              	.LBE4725:
 4303              	.LBE4724:
 4304              	.LBE4723:
 4305              	.LBE4722:
 4306              	.LBE4721:
 4307              	.LBE4720:
 4308              	.LBE4719:
 4309              	.LBE4718:
 4310              	.LBE4717:
 4311              	.LBE4716:
 4312              	.LBE4715:
 4313              	.LBE4714:
 4314              	.LBE4913:
 4315              	.LBE4934:
 4316              	.LBE4971:
 4317              	.LBE4999:
 4318              	.LBB5000:
 4319              	.LBB4170:
 4320              	.LBB4149:
 4321              	.LBB4129:
 4322              	.LBB4110:
 4323              	.LBB4091:
 4324              	.LBB4073:
 4325              	.LBB4056:
 4326              	.LBB4040:
 4327              	.LBB4025:
 4328              	.LBB4011:
 4329              	.LBB3997:
 4330              	.LBB3985:
 4331              	.LBB3973:
 4332              	.LBB3963:
ARM GAS  /var/folders/28/j9jfyj_n4wz3qtvnym210h2c0000gn/T//ccYibR7K.s 			page 77


 4333              	.LBB3953:
 4334              	.LBB3945:
 4335              	.LBB3937:
 4336              	.LBB3931:
 4337              	.LBB3925:
 4338              	.LBB3921:
 4339              	.LBB3917:
 4340 06c8 E5EE8F6A 		vfma.f32	s13, s11, s30
 4341              	.LBE3917:
 4342              	.LBE3921:
 4343              	.LBE3925:
 4344              	.LBE3931:
 4345              	.LBE3937:
 4346              	.LBE3945:
 4347              	.LBE3953:
 4348              	.LBE3963:
 4349              	.LBE3973:
 4350              	.LBE3985:
 4351              	.LBE3997:
 4352              	.LBE4011:
 4353              	.LBE4025:
 4354              	.LBE4040:
 4355              	.LBE4056:
 4356              	.LBE4073:
 4357              	.LBE4091:
 4358              	.LBE4110:
 4359              	.LBE4129:
 4360              	.LBE4149:
 4361              	.LBE4170:
 4362              	.LBE5000:
 4363              	.LBB5001:
 4364              	.LBB4972:
 4365              	.LBB4935:
 4366              	.LBB4914:
 4367              	.LBB4882:
 4368              	.LBB4870:
 4369              	.LBB4859:
 4370              	.LBB4848:
 4371              	.LBB4838:
 4372              	.LBB4828:
 4373              	.LBB4819:
 4374              	.LBB4810:
 4375              	.LBB4802:
 4376              	.LBB4794:
 4377              	.LBB4787:
 4378              	.LBB4780:
 4379              	.LBB4774:
 4380              	.LBB4768:
 4381              	.LBB4763:
 4382              	.LBB4758:
 4383              	.LBB4754:
 4384              	.LBB4750:
 4385              	.LBB4747:
 4386              	.LBB4744:
 4387              	.LBB4742:
 4388              	.LBB4740:
 4389              	.LBB4739:
ARM GAS  /var/folders/28/j9jfyj_n4wz3qtvnym210h2c0000gn/T//ccYibR7K.s 			page 78


 4390              	.LBB4738:
 4391 06cc A0EE807A 		vfma.f32	s14, s1, s0
 4392              	.LBE4738:
 4393              	.LBE4739:
 4394              	.LBE4740:
 4395              	.LBE4742:
 4396              	.LBE4744:
 4397              	.LBE4747:
 4398              	.LBE4750:
 4399              	.LBE4754:
 4400              	.LBE4758:
 4401              	.LBE4763:
 4402              	.LBE4768:
 4403              	.LBE4774:
 4404              	.LBE4780:
 4405              	.LBE4787:
 4406              	.LBE4794:
 4407              	.LBE4802:
 4408              	.LBE4810:
 4409              	.LBE4819:
 4410              	.LBE4828:
 4411              	.LBE4838:
 4412              	.LBE4848:
 4413              	.LBE4859:
 4414              	.LBE4870:
 4415              	.LBE4882:
 4416              	.LBB4883:
 4417              	.LBB4695:
 4418              	.LBB4677:
 4419              	.LBB4659:
 4420              	.LBB4643:
 4421              	.LBB4627:
 4422              	.LBB4613:
 4423              	.LBB4599:
 4424              	.LBB4587:
 4425              	.LBB4575:
 4426              	.LBB4565:
 4427              	.LBB4555:
 4428              	.LBB4547:
 4429              	.LBB4539:
 4430              	.LBB4532:
 4431              	.LBB4525:
 4432              	.LBB4520:
 4433              	.LBB4515:
 4434              	.LBB4512:
 4435              	.LBB4509:
 4436              	.LBB4507:
 4437              	.LBB4505:
 4438              	.LBB4504:
 4439              	.LBB4503:
 4440 06d0 A5EE8A6A 		vfma.f32	s12, s11, s20
 4441              	.LBE4503:
 4442              	.LBE4504:
 4443              	.LBE4505:
 4444              	.LBE4507:
 4445              	.LBE4509:
 4446              	.LBE4512:
ARM GAS  /var/folders/28/j9jfyj_n4wz3qtvnym210h2c0000gn/T//ccYibR7K.s 			page 79


 4447              	.LBE4515:
 4448              	.LBE4520:
 4449              	.LBE4525:
 4450              	.LBE4532:
 4451              	.LBE4539:
 4452              	.LBE4547:
 4453              	.LBE4555:
 4454              	.LBE4565:
 4455              	.LBE4575:
 4456              	.LBE4587:
 4457              	.LBE4599:
 4458              	.LBE4613:
 4459              	.LBE4627:
 4460              	.LBE4643:
 4461              	.LBE4659:
 4462              	.LBE4677:
 4463              	.LBE4695:
 4464              	.LBE4883:
 4465              	.LBE4914:
 4466              	.LBE4935:
 4467              	.LBE4972:
 4468              	.LBE5001:
 4469              	.LBB5002:
 4470              	.LBB4171:
 4471              	.LBB4150:
 4472              	.LBB4130:
 4473              	.LBB4111:
 4474              	.LBB4092:
 4475              	.LBB4074:
 4476              	.LBB4057:
 4477              	.LBB4041:
 4478              	.LBB4026:
 4479              	.LBB4012:
 4480              	.LBB3998:
 4481              	.LBB3986:
 4482              	.LBB3974:
 4483              	.LBB3964:
 4484              	.LBB3954:
 4485              	.LBB3946:
 4486              	.LBB3938:
 4487              	.LBB3932:
 4488              	.LBB3926:
 4489 06d4 1FED2DFA 		flds	s30, .L58+88
 4490              	.LBE3926:
 4491              	.LBE3932:
 4492              	.LBE3938:
 4493              	.LBE3946:
 4494              	.LBE3954:
 4495              	.LBE3964:
 4496              	.LBE3974:
 4497              	.LBE3986:
 4498              	.LBE3998:
 4499              	.LBE4012:
 4500              	.LBE4026:
 4501              	.LBE4041:
 4502              	.LBE4057:
 4503              	.LBE4074:
ARM GAS  /var/folders/28/j9jfyj_n4wz3qtvnym210h2c0000gn/T//ccYibR7K.s 			page 80


 4504              	.LBE4092:
 4505              	.LBE4111:
 4506              	.LBE4130:
 4507              	.LBE4150:
 4508              	.LBE4171:
 4509              	.LBE5002:
 4510              	.LBB5003:
 4511              	.LBB4973:
 4512              	.LBB4936:
 4513              	.LBB4457:
 4514              	.LBB4439:
 4515              	.LBB4421:
 4516              	.LBB4404:
 4517              	.LBB4387:
 4518              	.LBB4371:
 4519              	.LBB4355:
 4520              	.LBB4340:
 4521              	.LBB4324:
 4522              	.LBB4309:
 4523              	.LBB4294:
 4524              	.LBB4282:
 4525              	.LBB4270:
 4526              	.LBB4260:
 4527              	.LBB4251:
 4528              	.LBB4243:
 4529              	.LBB4236:
 4530              	.LBB4230:
 4531              	.LBB4225:
 4532 06d8 E5EE0B7A 		vfma.f32	s15, s10, s22
 4533              	.LBE4225:
 4534              	.LBE4230:
 4535              	.LBE4236:
 4536              	.LBE4243:
 4537              	.LBE4251:
 4538              	.LBE4260:
 4539              	.LBE4270:
 4540              	.LBE4282:
 4541              	.LBE4294:
 4542              	.LBE4309:
 4543              	.LBE4324:
 4544              	.LBE4340:
 4545              	.LBE4355:
 4546              	.LBE4371:
 4547              	.LBE4387:
 4548              	.LBE4404:
 4549              	.LBE4421:
 4550              	.LBE4439:
 4551              	.LBE4457:
 4552              	.LBE4936:
 4553              	.LBB4937:
 4554              	.LBB4915:
 4555              	.LBB4884:
 4556              	.LBB4871:
 4557              	.LBB4860:
 4558              	.LBB4849:
 4559              	.LBB4839:
 4560              	.LBB4829:
ARM GAS  /var/folders/28/j9jfyj_n4wz3qtvnym210h2c0000gn/T//ccYibR7K.s 			page 81


 4561              	.LBB4820:
 4562              	.LBB4811:
 4563              	.LBB4803:
 4564              	.LBB4795:
 4565              	.LBB4788:
 4566              	.LBB4781:
 4567              	.LBB4775:
 4568              	.LBB4769:
 4569              	.LBB4764:
 4570              	.LBB4759:
 4571              	.LBB4755:
 4572              	.LBB4751:
 4573              	.LBB4748:
 4574              	.LBB4745:
 4575              	.LBB4743:
 4576              	.LBB4741:
 4577 06dc A5EE897A 		vfma.f32	s14, s11, s18
 4578              	.LBE4741:
 4579              	.LBE4743:
 4580              	.LBE4745:
 4581              	.LBE4748:
 4582              	.LBE4751:
 4583              	.LBE4755:
 4584              	.LBE4759:
 4585              	.LBE4764:
 4586              	.LBE4769:
 4587              	.LBE4775:
 4588              	.LBE4781:
 4589              	.LBE4788:
 4590              	.LBE4795:
 4591              	.LBE4803:
 4592              	.LBE4811:
 4593              	.LBE4820:
 4594              	.LBE4829:
 4595              	.LBE4839:
 4596              	.LBE4849:
 4597              	.LBE4860:
 4598              	.LBE4871:
 4599              	.LBE4884:
 4600              	.LBE4915:
 4601              	.LBE4937:
 4602              	.LBE4973:
 4603              	.LBE5003:
 4604              	.LBB5004:
 4605              	.LBB4172:
 4606              	.LBB4151:
 4607              	.LBB4131:
 4608              	.LBB4112:
 4609              	.LBB4093:
 4610              	.LBB4075:
 4611              	.LBB4058:
 4612              	.LBB4042:
 4613              	.LBB4027:
 4614              	.LBB4013:
 4615              	.LBB3999:
 4616              	.LBB3987:
 4617              	.LBB3975:
ARM GAS  /var/folders/28/j9jfyj_n4wz3qtvnym210h2c0000gn/T//ccYibR7K.s 			page 82


 4618              	.LBB3965:
 4619              	.LBB3955:
 4620              	.LBB3947:
 4621              	.LBB3939:
 4622              	.LBB3933:
 4623              	.LBB3927:
 4624 06e0 E5EE0F6A 		vfma.f32	s13, s10, s30
 4625              	.LBE3927:
 4626              	.LBE3933:
 4627              	.LBE3939:
 4628              	.LBE3947:
 4629              	.LBE3955:
 4630              	.LBE3965:
 4631              	.LBE3975:
 4632              	.LBE3987:
 4633              	.LBE3999:
 4634              	.LBE4013:
 4635              	.LBE4027:
 4636              	.LBE4042:
 4637              	.LBE4058:
 4638              	.LBE4075:
 4639              	.LBE4093:
 4640              	.LBE4112:
 4641              	.LBE4131:
 4642              	.LBE4151:
 4643              	.LBE4172:
 4644              	.LBE5004:
 4645              	.LBB5005:
 4646              	.LBB4974:
 4647              	.LBB4938:
 4648              	.LBB4916:
 4649              	.LBB4885:
 4650              	.LBB4696:
 4651              	.LBB4678:
 4652              	.LBB4660:
 4653              	.LBB4644:
 4654              	.LBB4628:
 4655              	.LBB4614:
 4656              	.LBB4600:
 4657              	.LBB4588:
 4658              	.LBB4576:
 4659              	.LBB4566:
 4660              	.LBB4556:
 4661              	.LBB4548:
 4662              	.LBB4540:
 4663              	.LBB4533:
 4664              	.LBB4526:
 4665              	.LBB4521:
 4666              	.LBB4516:
 4667              	.LBB4513:
 4668              	.LBB4510:
 4669              	.LBB4508:
 4670              	.LBB4506:
 4671 06e4 A5EE2B6A 		vfma.f32	s12, s10, s23
 4672              	.LBE4506:
 4673              	.LBE4508:
 4674              	.LBE4510:
ARM GAS  /var/folders/28/j9jfyj_n4wz3qtvnym210h2c0000gn/T//ccYibR7K.s 			page 83


 4675              	.LBE4513:
 4676              	.LBE4516:
 4677              	.LBE4521:
 4678              	.LBE4526:
 4679              	.LBE4533:
 4680              	.LBE4540:
 4681              	.LBE4548:
 4682              	.LBE4556:
 4683              	.LBE4566:
 4684              	.LBE4576:
 4685              	.LBE4588:
 4686              	.LBE4600:
 4687              	.LBE4614:
 4688              	.LBE4628:
 4689              	.LBE4644:
 4690              	.LBE4660:
 4691              	.LBE4678:
 4692              	.LBE4696:
 4693              	.LBE4885:
 4694              	.LBE4916:
 4695              	.LBE4938:
 4696              	.LBE4974:
 4697              	.LBE5005:
 4698              	.LBB5006:
 4699              	.LBB4173:
 4700              	.LBB4152:
 4701              	.LBB4132:
 4702              	.LBB4113:
 4703              	.LBB4094:
 4704              	.LBB4076:
 4705              	.LBB4059:
 4706              	.LBB4043:
 4707              	.LBB4028:
 4708              	.LBB4014:
 4709              	.LBB4000:
 4710              	.LBB3988:
 4711              	.LBB3976:
 4712              	.LBB3966:
 4713              	.LBB3956:
 4714              	.LBB3948:
 4715              	.LBB3940:
 4716 06e8 1FED33FA 		flds	s30, .L58+84
 4717              	.LBE3940:
 4718              	.LBE3948:
 4719              	.LBE3956:
 4720              	.LBE3966:
 4721              	.LBE3976:
 4722              	.LBE3988:
 4723              	.LBE4000:
 4724              	.LBE4014:
 4725              	.LBE4028:
 4726              	.LBE4043:
 4727              	.LBE4059:
 4728              	.LBE4076:
 4729              	.LBE4094:
 4730              	.LBE4113:
 4731              	.LBE4132:
ARM GAS  /var/folders/28/j9jfyj_n4wz3qtvnym210h2c0000gn/T//ccYibR7K.s 			page 84


 4732              	.LBE4152:
 4733              	.LBE4173:
 4734              	.LBE5006:
 4735              	.LBB5007:
 4736              	.LBB4975:
 4737              	.LBB4939:
 4738              	.LBB4458:
 4739              	.LBB4440:
 4740              	.LBB4422:
 4741              	.LBB4405:
 4742              	.LBB4388:
 4743              	.LBB4372:
 4744              	.LBB4356:
 4745              	.LBB4341:
 4746              	.LBB4325:
 4747              	.LBB4310:
 4748              	.LBB4295:
 4749              	.LBB4283:
 4750              	.LBB4271:
 4751              	.LBB4261:
 4752              	.LBB4252:
 4753              	.LBB4244:
 4754              	.LBB4237:
 4755 06ec E4EE8D7A 		vfma.f32	s15, s9, s26
 4756              	.LBE4237:
 4757              	.LBE4244:
 4758              	.LBE4252:
 4759              	.LBE4261:
 4760              	.LBE4271:
 4761              	.LBE4283:
 4762              	.LBE4295:
 4763              	.LBE4310:
 4764              	.LBE4325:
 4765              	.LBE4341:
 4766              	.LBE4356:
 4767              	.LBE4372:
 4768              	.LBE4388:
 4769              	.LBE4405:
 4770              	.LBE4422:
 4771              	.LBE4440:
 4772              	.LBE4458:
 4773              	.LBE4939:
 4774              	.LBE4975:
 4775              	.LBE5007:
 4776              	.LBB5008:
 4777              	.LBB4174:
 4778              	.LBB4153:
 4779              	.LBB4133:
 4780              	.LBB4114:
 4781              	.LBB4095:
 4782              	.LBB4077:
 4783              	.LBB4060:
 4784              	.LBB4044:
 4785              	.LBB4029:
 4786              	.LBB4015:
 4787              	.LBB4001:
 4788              	.LBB3989:
ARM GAS  /var/folders/28/j9jfyj_n4wz3qtvnym210h2c0000gn/T//ccYibR7K.s 			page 85


 4789              	.LBB3977:
 4790              	.LBB3967:
 4791              	.LBB3957:
 4792              	.LBB3949:
 4793              	.LBB3941:
 4794 06f0 E4EE8F6A 		vfma.f32	s13, s9, s30
 4795              	.LBE3941:
 4796              	.LBE3949:
 4797              	.LBE3957:
 4798              	.LBE3967:
 4799              	.LBE3977:
 4800              	.LBE3989:
 4801              	.LBE4001:
 4802              	.LBE4015:
 4803              	.LBE4029:
 4804              	.LBE4044:
 4805              	.LBE4060:
 4806              	.LBE4077:
 4807              	.LBE4095:
 4808              	.LBE4114:
 4809              	.LBE4133:
 4810              	.LBE4153:
 4811              	.LBE4174:
 4812              	.LBE5008:
 4813              	.LBB5009:
 4814              	.LBB4976:
 4815              	.LBB4940:
 4816              	.LBB4917:
 4817              	.LBB4886:
 4818              	.LBB4872:
 4819              	.LBB4861:
 4820              	.LBB4850:
 4821              	.LBB4840:
 4822              	.LBB4830:
 4823              	.LBB4821:
 4824              	.LBB4812:
 4825              	.LBB4804:
 4826              	.LBB4796:
 4827              	.LBB4789:
 4828              	.LBB4782:
 4829              	.LBB4776:
 4830              	.LBB4770:
 4831              	.LBB4765:
 4832              	.LBB4760:
 4833              	.LBB4756:
 4834              	.LBB4752:
 4835              	.LBB4749:
 4836              	.LBB4746:
 4837 06f4 A5EE2A7A 		vfma.f32	s14, s10, s21
 4838              	.LBE4746:
 4839              	.LBE4749:
 4840              	.LBE4752:
 4841              	.LBE4756:
 4842              	.LBE4760:
 4843              	.LBE4765:
 4844              	.LBE4770:
 4845              	.LBE4776:
ARM GAS  /var/folders/28/j9jfyj_n4wz3qtvnym210h2c0000gn/T//ccYibR7K.s 			page 86


 4846              	.LBE4782:
 4847              	.LBE4789:
 4848              	.LBE4796:
 4849              	.LBE4804:
 4850              	.LBE4812:
 4851              	.LBE4821:
 4852              	.LBE4830:
 4853              	.LBE4840:
 4854              	.LBE4850:
 4855              	.LBE4861:
 4856              	.LBE4872:
 4857              	.LBE4886:
 4858              	.LBB4887:
 4859              	.LBB4697:
 4860              	.LBB4679:
 4861              	.LBB4661:
 4862              	.LBB4645:
 4863              	.LBB4629:
 4864              	.LBB4615:
 4865              	.LBB4601:
 4866              	.LBB4589:
 4867              	.LBB4577:
 4868              	.LBB4567:
 4869              	.LBB4557:
 4870              	.LBB4549:
 4871              	.LBB4541:
 4872              	.LBB4534:
 4873              	.LBB4527:
 4874              	.LBB4522:
 4875              	.LBB4517:
 4876              	.LBB4514:
 4877              	.LBB4511:
 4878 06f8 A4EEAD6A 		vfma.f32	s12, s9, s27
 4879              	.LBE4511:
 4880              	.LBE4514:
 4881              	.LBE4517:
 4882              	.LBE4522:
 4883              	.LBE4527:
 4884              	.LBE4534:
 4885              	.LBE4541:
 4886              	.LBE4549:
 4887              	.LBE4557:
 4888              	.LBE4567:
 4889              	.LBE4577:
 4890              	.LBE4589:
 4891              	.LBE4601:
 4892              	.LBE4615:
 4893              	.LBE4629:
 4894              	.LBE4645:
 4895              	.LBE4661:
 4896              	.LBE4679:
 4897              	.LBE4697:
 4898              	.LBE4887:
 4899              	.LBE4917:
 4900              	.LBE4940:
 4901              	.LBE4976:
 4902              	.LBE5009:
ARM GAS  /var/folders/28/j9jfyj_n4wz3qtvnym210h2c0000gn/T//ccYibR7K.s 			page 87


 4903              	.LBB5010:
 4904              	.LBB4175:
 4905              	.LBB4154:
 4906              	.LBB4134:
 4907              	.LBB4115:
 4908              	.LBB4096:
 4909              	.LBB4078:
 4910              	.LBB4061:
 4911              	.LBB4045:
 4912              	.LBB4030:
 4913              	.LBB4016:
 4914              	.LBB4002:
 4915              	.LBB3990:
 4916              	.LBB3978:
 4917              	.LBB3968:
 4918              	.LBB3958:
 4919 06fc 1FED39FA 		flds	s30, .L58+80
 4920              	.LBE3958:
 4921              	.LBE3968:
 4922              	.LBE3978:
 4923              	.LBE3990:
 4924              	.LBE4002:
 4925              	.LBE4016:
 4926              	.LBE4030:
 4927              	.LBE4045:
 4928              	.LBE4061:
 4929              	.LBE4078:
 4930              	.LBE4096:
 4931              	.LBE4115:
 4932              	.LBE4134:
 4933              	.LBE4154:
 4934              	.LBE4175:
 4935              	.LBE5010:
 4936              	.LBB5011:
 4937              	.LBB4977:
 4938              	.LBB4941:
 4939              	.LBB4459:
 4940              	.LBB4441:
 4941              	.LBB4423:
 4942              	.LBB4406:
 4943              	.LBB4389:
 4944              	.LBB4373:
 4945              	.LBB4357:
 4946              	.LBB4342:
 4947              	.LBB4326:
 4948              	.LBB4311:
 4949              	.LBB4296:
 4950              	.LBB4284:
 4951              	.LBB4272:
 4952              	.LBB4262:
 4953              	.LBB4253:
 4954 0700 E4EE2E7A 		vfma.f32	s15, s8, s29
 4955              	.LBE4253:
 4956              	.LBE4262:
 4957              	.LBE4272:
 4958              	.LBE4284:
 4959              	.LBE4296:
ARM GAS  /var/folders/28/j9jfyj_n4wz3qtvnym210h2c0000gn/T//ccYibR7K.s 			page 88


 4960              	.LBE4311:
 4961              	.LBE4326:
 4962              	.LBE4342:
 4963              	.LBE4357:
 4964              	.LBE4373:
 4965              	.LBE4389:
 4966              	.LBE4406:
 4967              	.LBE4423:
 4968              	.LBE4441:
 4969              	.LBE4459:
 4970              	.LBE4941:
 4971              	.LBE4977:
 4972              	.LBE5011:
 4973              	.LBB5012:
 4974              	.LBB4176:
 4975              	.LBB4155:
 4976              	.LBB4135:
 4977              	.LBB4116:
 4978              	.LBB4097:
 4979              	.LBB4079:
 4980              	.LBB4062:
 4981              	.LBB4046:
 4982              	.LBB4031:
 4983              	.LBB4017:
 4984              	.LBB4003:
 4985              	.LBB3991:
 4986              	.LBB3979:
 4987              	.LBB3969:
 4988              	.LBB3959:
 4989 0704 E4EE0F6A 		vfma.f32	s13, s8, s30
 4990              	.LBE3959:
 4991              	.LBE3969:
 4992              	.LBE3979:
 4993              	.LBE3991:
 4994              	.LBE4003:
 4995              	.LBE4017:
 4996              	.LBE4031:
 4997              	.LBE4046:
 4998              	.LBE4062:
 4999              	.LBE4079:
 5000              	.LBE4097:
 5001              	.LBE4116:
 5002              	.LBE4135:
 5003              	.LBE4155:
 5004              	.LBE4176:
 5005              	.LBE5012:
 5006              	.LBB5013:
 5007              	.LBB4978:
 5008              	.LBB4942:
 5009              	.LBB4918:
 5010              	.LBB4888:
 5011              	.LBB4873:
 5012              	.LBB4862:
 5013              	.LBB4851:
 5014              	.LBB4841:
 5015              	.LBB4831:
 5016              	.LBB4822:
ARM GAS  /var/folders/28/j9jfyj_n4wz3qtvnym210h2c0000gn/T//ccYibR7K.s 			page 89


 5017              	.LBB4813:
 5018              	.LBB4805:
 5019              	.LBB4797:
 5020              	.LBB4790:
 5021              	.LBB4783:
 5022              	.LBB4777:
 5023              	.LBB4771:
 5024              	.LBB4766:
 5025              	.LBB4761:
 5026              	.LBB4757:
 5027              	.LBB4753:
 5028 0708 A4EE8C7A 		vfma.f32	s14, s9, s24
 5029              	.LBE4753:
 5030              	.LBE4757:
 5031              	.LBE4761:
 5032              	.LBE4766:
 5033              	.LBE4771:
 5034              	.LBE4777:
 5035              	.LBE4783:
 5036              	.LBE4790:
 5037              	.LBE4797:
 5038              	.LBE4805:
 5039              	.LBE4813:
 5040              	.LBE4822:
 5041              	.LBE4831:
 5042              	.LBE4841:
 5043              	.LBE4851:
 5044              	.LBE4862:
 5045              	.LBE4873:
 5046              	.LBE4888:
 5047              	.LBB4889:
 5048              	.LBB4698:
 5049              	.LBB4680:
 5050              	.LBB4662:
 5051              	.LBB4646:
 5052              	.LBB4630:
 5053              	.LBB4616:
 5054              	.LBB4602:
 5055              	.LBB4590:
 5056              	.LBB4578:
 5057              	.LBB4568:
 5058              	.LBB4558:
 5059              	.LBB4550:
 5060              	.LBB4542:
 5061              	.LBB4535:
 5062              	.LBB4528:
 5063              	.LBB4523:
 5064              	.LBB4518:
 5065 070c 1FED3EFA 		flds	s30, .L58+76
 5066              	.LBE4518:
 5067              	.LBE4523:
 5068              	.LBE4528:
 5069              	.LBE4535:
 5070              	.LBE4542:
 5071              	.LBE4550:
 5072              	.LBE4558:
 5073              	.LBE4568:
ARM GAS  /var/folders/28/j9jfyj_n4wz3qtvnym210h2c0000gn/T//ccYibR7K.s 			page 90


 5074              	.LBE4578:
 5075              	.LBE4590:
 5076              	.LBE4602:
 5077              	.LBE4616:
 5078              	.LBE4630:
 5079              	.LBE4646:
 5080              	.LBE4662:
 5081              	.LBE4680:
 5082              	.LBE4698:
 5083              	.LBE4889:
 5084              	.LBE4918:
 5085              	.LBE4942:
 5086              	.LBB4943:
 5087              	.LBB4460:
 5088              	.LBB4442:
 5089              	.LBB4424:
 5090              	.LBB4407:
 5091              	.LBB4390:
 5092              	.LBB4374:
 5093              	.LBB4358:
 5094              	.LBB4343:
 5095              	.LBB4327:
 5096              	.LBB4312:
 5097              	.LBB4297:
 5098              	.LBB4285:
 5099              	.LBB4273:
 5100 0710 E3EEAF7A 		vfma.f32	s15, s7, s31
 5101              	.LBE4273:
 5102              	.LBE4285:
 5103              	.LBE4297:
 5104              	.LBE4312:
 5105              	.LBE4327:
 5106              	.LBE4343:
 5107              	.LBE4358:
 5108              	.LBE4374:
 5109              	.LBE4390:
 5110              	.LBE4407:
 5111              	.LBE4424:
 5112              	.LBE4442:
 5113              	.LBE4460:
 5114              	.LBE4943:
 5115              	.LBB4944:
 5116              	.LBB4919:
 5117              	.LBB4890:
 5118              	.LBB4699:
 5119              	.LBB4681:
 5120              	.LBB4663:
 5121              	.LBB4647:
 5122              	.LBB4631:
 5123              	.LBB4617:
 5124              	.LBB4603:
 5125              	.LBB4591:
 5126              	.LBB4579:
 5127              	.LBB4569:
 5128              	.LBB4559:
 5129              	.LBB4551:
 5130              	.LBB4543:
ARM GAS  /var/folders/28/j9jfyj_n4wz3qtvnym210h2c0000gn/T//ccYibR7K.s 			page 91


 5131              	.LBB4536:
 5132              	.LBB4529:
 5133              	.LBB4524:
 5134              	.LBB4519:
 5135 0714 A4EE0F6A 		vfma.f32	s12, s8, s30
 5136              	.LBE4519:
 5137              	.LBE4524:
 5138              	.LBE4529:
 5139              	.LBE4536:
 5140              	.LBE4543:
 5141              	.LBE4551:
 5142              	.LBE4559:
 5143              	.LBE4569:
 5144              	.LBE4579:
 5145              	.LBE4591:
 5146              	.LBE4603:
 5147              	.LBE4617:
 5148              	.LBE4631:
 5149              	.LBE4647:
 5150              	.LBE4663:
 5151              	.LBE4681:
 5152              	.LBE4699:
 5153              	.LBE4890:
 5154              	.LBE4919:
 5155              	.LBE4944:
 5156              	.LBE4978:
 5157              	.LBE5013:
 5158              	.LBB5014:
 5159              	.LBB4177:
 5160              	.LBB4156:
 5161              	.LBB4136:
 5162              	.LBB4117:
 5163              	.LBB4098:
 5164              	.LBB4080:
 5165              	.LBB4063:
 5166              	.LBB4047:
 5167              	.LBB4032:
 5168              	.LBB4018:
 5169              	.LBB4004:
 5170              	.LBB3992:
 5171              	.LBB3980:
 5172 0718 1FED42FA 		flds	s30, .L58+72
 5173              	.LBE3980:
 5174              	.LBE3992:
 5175              	.LBE4004:
 5176              	.LBE4018:
 5177              	.LBE4032:
 5178              	.LBE4047:
 5179              	.LBE4063:
 5180              	.LBE4080:
 5181              	.LBE4098:
 5182              	.LBE4117:
 5183              	.LBE4136:
 5184              	.LBE4156:
 5185              	.LBE4177:
 5186              	.LBE5014:
 5187              	.LBB5015:
ARM GAS  /var/folders/28/j9jfyj_n4wz3qtvnym210h2c0000gn/T//ccYibR7K.s 			page 92


 5188              	.LBB4979:
 5189              	.LBB4945:
 5190              	.LBB4461:
 5191              	.LBB4443:
 5192              	.LBB4425:
 5193              	.LBB4408:
 5194              	.LBB4391:
 5195              	.LBB4375:
 5196              	.LBB4359:
 5197              	.LBB4344:
 5198              	.LBB4328:
 5199              	.LBB4313:
 5200              	.LBB4298:
 5201              	.LBB4286:
 5202              	.LBB4274:
 5203 071c CDED007A 		fsts	s15, [sp]
 5204              	.LBE4274:
 5205              	.LBE4286:
 5206              	.LBE4298:
 5207              	.LBE4313:
 5208              	.LBE4328:
 5209              	.LBE4344:
 5210              	.LBE4359:
 5211              	.LBE4375:
 5212              	.LBE4391:
 5213              	.LBE4408:
 5214              	.LBE4425:
 5215              	.LBE4443:
 5216              	.LBE4461:
 5217              	.LBE4945:
 5218              	.LBE4979:
 5219              	.LBE5015:
 5220              	.LBB5016:
 5221              	.LBB4178:
 5222              	.LBB4157:
 5223              	.LBB4137:
 5224              	.LBB4118:
 5225              	.LBB4099:
 5226              	.LBB4081:
 5227              	.LBB4064:
 5228              	.LBB4048:
 5229              	.LBB4033:
 5230              	.LBB4019:
 5231              	.LBB4005:
 5232              	.LBB3993:
 5233              	.LBB3981:
 5234 0720 E3EE8F6A 		vfma.f32	s13, s7, s30
 5235              	.LBE3981:
 5236              	.LBE3993:
 5237              	.LBE4005:
 5238              	.LBE4019:
 5239              	.LBE4033:
 5240              	.LBE4048:
 5241              	.LBE4064:
 5242              	.LBE4081:
 5243              	.LBE4099:
 5244              	.LBE4118:
ARM GAS  /var/folders/28/j9jfyj_n4wz3qtvnym210h2c0000gn/T//ccYibR7K.s 			page 93


 5245              	.LBE4137:
 5246              	.LBE4157:
 5247              	.LBE4178:
 5248              	.LBE5016:
 5249              	.LBB5017:
 5250              	.LBB4980:
 5251              	.LBB4946:
 5252              	.LBB4920:
 5253              	.LBB4891:
 5254              	.LBB4874:
 5255              	.LBB4863:
 5256              	.LBB4852:
 5257              	.LBB4842:
 5258              	.LBB4832:
 5259              	.LBB4823:
 5260              	.LBB4814:
 5261              	.LBB4806:
 5262              	.LBB4798:
 5263              	.LBB4791:
 5264              	.LBB4784:
 5265              	.LBB4778:
 5266              	.LBB4772:
 5267              	.LBB4767:
 5268              	.LBB4762:
 5269 0724 A4EE0E7A 		vfma.f32	s14, s8, s28
 5270              	.LBE4762:
 5271              	.LBE4767:
 5272              	.LBE4772:
 5273              	.LBE4778:
 5274              	.LBE4784:
 5275              	.LBE4791:
 5276              	.LBE4798:
 5277              	.LBE4806:
 5278              	.LBE4814:
 5279              	.LBE4823:
 5280              	.LBE4832:
 5281              	.LBE4842:
 5282              	.LBE4852:
 5283              	.LBE4863:
 5284              	.LBE4874:
 5285              	.LBE4891:
 5286              	.LBB4892:
 5287              	.LBB4700:
 5288              	.LBB4682:
 5289              	.LBB4664:
 5290              	.LBB4648:
 5291              	.LBB4632:
 5292              	.LBB4618:
 5293              	.LBB4604:
 5294              	.LBB4592:
 5295              	.LBB4580:
 5296              	.LBB4570:
 5297              	.LBB4560:
 5298              	.LBB4552:
 5299              	.LBB4544:
 5300              	.LBB4537:
 5301              	.LBB4530:
ARM GAS  /var/folders/28/j9jfyj_n4wz3qtvnym210h2c0000gn/T//ccYibR7K.s 			page 94


 5302 0728 1FED48FA 		flds	s30, .L58+64
 5303              	.LBE4530:
 5304              	.LBE4537:
 5305              	.LBE4544:
 5306              	.LBE4552:
 5307              	.LBE4560:
 5308              	.LBE4570:
 5309              	.LBE4580:
 5310              	.LBE4592:
 5311              	.LBE4604:
 5312              	.LBE4618:
 5313              	.LBE4632:
 5314              	.LBE4648:
 5315              	.LBE4664:
 5316              	.LBE4682:
 5317              	.LBE4700:
 5318              	.LBE4892:
 5319              	.LBE4920:
 5320              	.LBE4946:
 5321              	.LBE4980:
 5322              	.LBE5017:
 5323              	.LBB5018:
 5324              	.LBB4179:
 5325              	.LBB4158:
 5326              	.LBB4138:
 5327              	.LBB4119:
 5328              	.LBB4100:
 5329              	.LBB4082:
 5330              	.LBB4065:
 5331              	.LBB4049:
 5332              	.LBB4034:
 5333              	.LBB4020:
 5334              	.LBB4006:
 5335 072c 5FED497A 		flds	s15, .L58+64
 5336              	.LBE4006:
 5337              	.LBE4020:
 5338              	.LBE4034:
 5339              	.LBE4049:
 5340              	.LBE4065:
 5341              	.LBE4082:
 5342              	.LBE4100:
 5343              	.LBE4119:
 5344              	.LBE4138:
 5345              	.LBE4158:
 5346              	.LBE4179:
 5347              	.LBE5018:
 5348              	.LBB5019:
 5349              	.LBB4981:
 5350              	.LBB4947:
 5351              	.LBB4921:
 5352              	.LBB4893:
 5353              	.LBB4701:
 5354              	.LBB4683:
 5355              	.LBB4665:
 5356              	.LBB4649:
 5357              	.LBB4633:
 5358              	.LBB4619:
ARM GAS  /var/folders/28/j9jfyj_n4wz3qtvnym210h2c0000gn/T//ccYibR7K.s 			page 95


 5359              	.LBB4605:
 5360              	.LBB4593:
 5361              	.LBB4581:
 5362              	.LBB4571:
 5363              	.LBB4561:
 5364              	.LBB4553:
 5365              	.LBB4545:
 5366              	.LBB4538:
 5367              	.LBB4531:
 5368 0730 A3EE8F6A 		vfma.f32	s12, s7, s30
 5369              	.LBE4531:
 5370              	.LBE4538:
 5371              	.LBE4545:
 5372              	.LBE4553:
 5373              	.LBE4561:
 5374              	.LBE4571:
 5375              	.LBE4581:
 5376              	.LBE4593:
 5377              	.LBE4605:
 5378              	.LBE4619:
 5379              	.LBE4633:
 5380              	.LBE4649:
 5381              	.LBE4665:
 5382              	.LBE4683:
 5383              	.LBE4701:
 5384              	.LBE4893:
 5385              	.LBE4921:
 5386              	.LBE4947:
 5387              	.LBB4948:
 5388              	.LBB4462:
 5389              	.LBB4444:
 5390              	.LBB4426:
 5391              	.LBB4409:
 5392              	.LBB4392:
 5393              	.LBB4376:
 5394              	.LBB4360:
 5395              	.LBB4345:
 5396              	.LBB4329:
 5397              	.LBB4314:
 5398              	.LBB4299:
 5399 0734 1FED4AFA 		flds	s30, .L58+68
 5400              	.LBE4299:
 5401              	.LBE4314:
 5402              	.LBE4329:
 5403              	.LBE4345:
 5404              	.LBE4360:
 5405              	.LBE4376:
 5406              	.LBE4392:
 5407              	.LBE4409:
 5408              	.LBE4426:
 5409              	.LBE4444:
 5410              	.LBE4462:
 5411              	.LBE4948:
 5412              	.LBE4981:
 5413              	.LBE5019:
 5414              	.LBB5020:
 5415              	.LBB4180:
ARM GAS  /var/folders/28/j9jfyj_n4wz3qtvnym210h2c0000gn/T//ccYibR7K.s 			page 96


 5416              	.LBB4159:
 5417              	.LBB4139:
 5418              	.LBB4120:
 5419              	.LBB4101:
 5420              	.LBB4083:
 5421              	.LBB4066:
 5422              	.LBB4050:
 5423              	.LBB4035:
 5424              	.LBB4021:
 5425              	.LBB4007:
 5426 0738 E3EE276A 		vfma.f32	s13, s6, s15
 5427              	.LBE4007:
 5428              	.LBE4021:
 5429              	.LBE4035:
 5430              	.LBE4050:
 5431              	.LBE4066:
 5432              	.LBE4083:
 5433              	.LBE4101:
 5434              	.LBE4120:
 5435              	.LBE4139:
 5436              	.LBE4159:
 5437              	.LBE4180:
 5438              	.LBE5020:
 5439              	.LBB5021:
 5440              	.LBB4982:
 5441              	.LBB4949:
 5442              	.LBB4922:
 5443              	.LBB4894:
 5444              	.LBB4875:
 5445              	.LBB4864:
 5446              	.LBB4853:
 5447              	.LBB4843:
 5448              	.LBB4833:
 5449              	.LBB4824:
 5450              	.LBB4815:
 5451              	.LBB4807:
 5452              	.LBB4799:
 5453              	.LBB4792:
 5454              	.LBB4785:
 5455              	.LBB4779:
 5456              	.LBB4773:
 5457 073c A3EE8F7A 		vfma.f32	s14, s7, s30
 5458              	.LBE4773:
 5459              	.LBE4779:
 5460              	.LBE4785:
 5461              	.LBE4792:
 5462              	.LBE4799:
 5463              	.LBE4807:
 5464              	.LBE4815:
 5465              	.LBE4824:
 5466              	.LBE4833:
 5467              	.LBE4843:
 5468              	.LBE4853:
 5469              	.LBE4864:
 5470              	.LBE4875:
 5471              	.LBE4894:
 5472              	.LBB4895:
ARM GAS  /var/folders/28/j9jfyj_n4wz3qtvnym210h2c0000gn/T//ccYibR7K.s 			page 97


 5473              	.LBB4702:
 5474              	.LBB4684:
 5475              	.LBB4666:
 5476              	.LBB4650:
 5477              	.LBB4634:
 5478              	.LBB4620:
 5479              	.LBB4606:
 5480              	.LBB4594:
 5481              	.LBB4582:
 5482              	.LBB4572:
 5483              	.LBB4562:
 5484              	.LBB4554:
 5485              	.LBB4546:
 5486 0740 5FED4C7A 		flds	s15, .L58+72
 5487 0744 A3EE276A 		vfma.f32	s12, s6, s15
 5488              	.LBE4546:
 5489              	.LBE4554:
 5490              	.LBE4562:
 5491              	.LBE4572:
 5492              	.LBE4582:
 5493              	.LBE4594:
 5494              	.LBE4606:
 5495              	.LBE4620:
 5496              	.LBE4634:
 5497              	.LBE4650:
 5498              	.LBE4666:
 5499              	.LBE4684:
 5500              	.LBE4702:
 5501              	.LBE4895:
 5502              	.LBE4922:
 5503              	.LBE4949:
 5504              	.LBB4950:
 5505              	.LBB4463:
 5506              	.LBB4445:
 5507              	.LBB4427:
 5508              	.LBB4410:
 5509              	.LBB4393:
 5510              	.LBB4377:
 5511              	.LBB4361:
 5512              	.LBB4346:
 5513              	.LBB4330:
 5514              	.LBB4315:
 5515              	.LBB4300:
 5516 0748 DDED007A 		flds	s15, [sp]
 5517              	.LBE4300:
 5518              	.LBE4315:
 5519              	.LBE4330:
 5520              	.LBE4346:
 5521              	.LBE4361:
 5522              	.LBE4377:
 5523              	.LBE4393:
 5524              	.LBE4410:
 5525              	.LBE4427:
 5526              	.LBE4445:
 5527              	.LBE4463:
 5528              	.LBE4950:
 5529              	.LBB4951:
ARM GAS  /var/folders/28/j9jfyj_n4wz3qtvnym210h2c0000gn/T//ccYibR7K.s 			page 98


 5530              	.LBB4923:
 5531              	.LBB4896:
 5532              	.LBB4876:
 5533              	.LBB4865:
 5534              	.LBB4854:
 5535              	.LBB4844:
 5536              	.LBB4834:
 5537              	.LBB4825:
 5538              	.LBB4816:
 5539              	.LBB4808:
 5540              	.LBB4800:
 5541              	.LBB4793:
 5542              	.LBB4786:
 5543 074c A3EE2F7A 		vfma.f32	s14, s6, s31
 5544              	.LBE4786:
 5545              	.LBE4793:
 5546              	.LBE4800:
 5547              	.LBE4808:
 5548              	.LBE4816:
 5549              	.LBE4825:
 5550              	.LBE4834:
 5551              	.LBE4844:
 5552              	.LBE4854:
 5553              	.LBE4865:
 5554              	.LBE4876:
 5555              	.LBE4896:
 5556              	.LBE4923:
 5557              	.LBE4951:
 5558              	.LBB4952:
 5559              	.LBB4464:
 5560              	.LBB4446:
 5561              	.LBB4428:
 5562              	.LBB4411:
 5563              	.LBB4394:
 5564              	.LBB4378:
 5565              	.LBB4362:
 5566              	.LBB4347:
 5567              	.LBB4331:
 5568              	.LBB4316:
 5569              	.LBB4301:
 5570 0750 E3EE0F7A 		vfma.f32	s15, s6, s30
 5571              	.LBE4301:
 5572              	.LBE4316:
 5573              	.LBE4331:
 5574              	.LBE4347:
 5575              	.LBE4362:
 5576              	.LBE4378:
 5577              	.LBE4394:
 5578              	.LBE4411:
 5579              	.LBE4428:
 5580              	.LBE4446:
 5581              	.LBE4464:
 5582              	.LBE4952:
 5583              	.LBE4982:
 5584              	.LBE5021:
 5585              	.LBB5022:
 5586              	.LBB4181:
ARM GAS  /var/folders/28/j9jfyj_n4wz3qtvnym210h2c0000gn/T//ccYibR7K.s 			page 99


 5587              	.LBB4160:
 5588              	.LBB4140:
 5589              	.LBB4121:
 5590              	.LBB4102:
 5591              	.LBB4084:
 5592              	.LBB4067:
 5593              	.LBB4051:
 5594              	.LBB4036:
 5595 0754 1FED50FA 		flds	s30, .L58+76
 5596 0758 E2EE8F6A 		vfma.f32	s13, s5, s30
 5597              	.LBE4036:
 5598              	.LBE4051:
 5599              	.LBE4067:
 5600              	.LBE4084:
 5601              	.LBE4102:
 5602              	.LBE4121:
 5603              	.LBE4140:
 5604              	.LBE4160:
 5605              	.LBE4181:
 5606              	.LBE5022:
 5607              	.LBB5023:
 5608              	.LBB4983:
 5609              	.LBB4953:
 5610              	.LBB4924:
 5611              	.LBB4897:
 5612              	.LBB4703:
 5613              	.LBB4685:
 5614              	.LBB4667:
 5615              	.LBB4651:
 5616              	.LBB4635:
 5617              	.LBB4621:
 5618              	.LBB4607:
 5619              	.LBB4595:
 5620              	.LBB4583:
 5621              	.LBB4573:
 5622              	.LBB4563:
 5623 075c 1FED51FA 		flds	s30, .L58+80
 5624              	.LBE4563:
 5625              	.LBE4573:
 5626              	.LBE4583:
 5627              	.LBE4595:
 5628              	.LBE4607:
 5629              	.LBE4621:
 5630              	.LBE4635:
 5631              	.LBE4651:
 5632              	.LBE4667:
 5633              	.LBE4685:
 5634              	.LBE4703:
 5635              	.LBE4897:
 5636              	.LBB4898:
 5637              	.LBB4877:
 5638              	.LBB4866:
 5639              	.LBB4855:
 5640              	.LBB4845:
 5641              	.LBB4835:
 5642              	.LBB4826:
 5643              	.LBB4817:
ARM GAS  /var/folders/28/j9jfyj_n4wz3qtvnym210h2c0000gn/T//ccYibR7K.s 			page 100


 5644              	.LBB4809:
 5645              	.LBB4801:
 5646 0760 A2EEAE7A 		vfma.f32	s14, s5, s29
 5647              	.LBE4801:
 5648              	.LBE4809:
 5649              	.LBE4817:
 5650              	.LBE4826:
 5651              	.LBE4835:
 5652              	.LBE4845:
 5653              	.LBE4855:
 5654              	.LBE4866:
 5655              	.LBE4877:
 5656              	.LBE4898:
 5657              	.LBB4899:
 5658              	.LBB4704:
 5659              	.LBB4686:
 5660              	.LBB4668:
 5661              	.LBB4652:
 5662              	.LBB4636:
 5663              	.LBB4622:
 5664              	.LBB4608:
 5665              	.LBB4596:
 5666              	.LBB4584:
 5667              	.LBB4574:
 5668              	.LBB4564:
 5669 0764 A2EE8F6A 		vfma.f32	s12, s5, s30
 5670              	.LBE4564:
 5671              	.LBE4574:
 5672              	.LBE4584:
 5673              	.LBE4596:
 5674              	.LBE4608:
 5675              	.LBE4622:
 5676              	.LBE4636:
 5677              	.LBE4652:
 5678              	.LBE4668:
 5679              	.LBE4686:
 5680              	.LBE4704:
 5681              	.LBE4899:
 5682              	.LBE4924:
 5683              	.LBE4953:
 5684              	.LBB4954:
 5685              	.LBB4465:
 5686              	.LBB4447:
 5687              	.LBB4429:
 5688              	.LBB4412:
 5689              	.LBB4395:
 5690              	.LBB4379:
 5691              	.LBB4363:
 5692              	.LBB4348:
 5693              	.LBB4332:
 5694 0768 E2EE8E7A 		vfma.f32	s15, s5, s28
 5695              	.LBE4332:
 5696              	.LBE4348:
 5697              	.LBE4363:
 5698              	.LBE4379:
 5699              	.LBE4395:
 5700              	.LBE4412:
ARM GAS  /var/folders/28/j9jfyj_n4wz3qtvnym210h2c0000gn/T//ccYibR7K.s 			page 101


 5701              	.LBE4429:
 5702              	.LBE4447:
 5703              	.LBE4465:
 5704              	.LBE4954:
 5705              	.LBE4983:
 5706              	.LBE5023:
 5707              	.LBB5024:
 5708              	.LBB4182:
 5709              	.LBB4161:
 5710              	.LBB4141:
 5711              	.LBB4122:
 5712              	.LBB4103:
 5713              	.LBB4085:
 5714              	.LBB4068:
 5715 076c E2EE2D6A 		vfma.f32	s13, s4, s27
 5716              	.LBE4068:
 5717              	.LBE4085:
 5718              	.LBE4103:
 5719              	.LBE4122:
 5720              	.LBE4141:
 5721              	.LBE4161:
 5722              	.LBE4182:
 5723              	.LBE5024:
 5724              	.LBB5025:
 5725              	.LBB4984:
 5726              	.LBB4955:
 5727              	.LBB4925:
 5728              	.LBB4900:
 5729              	.LBB4705:
 5730              	.LBB4687:
 5731              	.LBB4669:
 5732              	.LBB4653:
 5733              	.LBB4637:
 5734              	.LBB4623:
 5735              	.LBB4609:
 5736              	.LBB4597:
 5737              	.LBB4585:
 5738 0770 5FED55DA 		flds	s27, .L58+84
 5739              	.LBE4585:
 5740              	.LBE4597:
 5741              	.LBE4609:
 5742              	.LBE4623:
 5743              	.LBE4637:
 5744              	.LBE4653:
 5745              	.LBE4669:
 5746              	.LBE4687:
 5747              	.LBE4705:
 5748              	.LBE4900:
 5749              	.LBB4901:
 5750              	.LBB4878:
 5751              	.LBB4867:
 5752              	.LBB4856:
 5753              	.LBB4846:
 5754              	.LBB4836:
 5755              	.LBB4827:
 5756              	.LBB4818:
 5757 0774 A2EE0D7A 		vfma.f32	s14, s4, s26
ARM GAS  /var/folders/28/j9jfyj_n4wz3qtvnym210h2c0000gn/T//ccYibR7K.s 			page 102


 5758              	.LBE4818:
 5759              	.LBE4827:
 5760              	.LBE4836:
 5761              	.LBE4846:
 5762              	.LBE4856:
 5763              	.LBE4867:
 5764              	.LBE4878:
 5765              	.LBE4901:
 5766              	.LBB4902:
 5767              	.LBB4706:
 5768              	.LBB4688:
 5769              	.LBB4670:
 5770              	.LBB4654:
 5771              	.LBB4638:
 5772              	.LBB4624:
 5773              	.LBB4610:
 5774              	.LBB4598:
 5775              	.LBB4586:
 5776 0778 A2EE2D6A 		vfma.f32	s12, s4, s27
 5777              	.LBE4586:
 5778              	.LBE4598:
 5779              	.LBE4610:
 5780              	.LBE4624:
 5781              	.LBE4638:
 5782              	.LBE4654:
 5783              	.LBE4670:
 5784              	.LBE4688:
 5785              	.LBE4706:
 5786              	.LBE4902:
 5787              	.LBE4925:
 5788              	.LBE4955:
 5789              	.LBB4956:
 5790              	.LBB4466:
 5791              	.LBB4448:
 5792              	.LBB4430:
 5793              	.LBB4413:
 5794              	.LBB4396:
 5795              	.LBB4380:
 5796              	.LBB4364:
 5797 077c E2EE0C7A 		vfma.f32	s15, s4, s24
 5798              	.LBE4364:
 5799              	.LBE4380:
 5800              	.LBE4396:
 5801              	.LBE4413:
 5802              	.LBE4430:
 5803              	.LBE4448:
 5804              	.LBE4466:
 5805              	.LBE4956:
 5806              	.LBE4984:
 5807              	.LBE5025:
 5808              	.LBB5026:
 5809              	.LBB4183:
 5810              	.LBB4162:
 5811              	.LBB4142:
 5812              	.LBB4123:
 5813              	.LBB4104:
 5814 0780 E1EEAB6A 		vfma.f32	s13, s3, s23
ARM GAS  /var/folders/28/j9jfyj_n4wz3qtvnym210h2c0000gn/T//ccYibR7K.s 			page 103


 5815              	.LBE4104:
 5816              	.LBE4123:
 5817              	.LBE4142:
 5818              	.LBE4162:
 5819              	.LBE4183:
 5820              	.LBE5026:
 5821              	.LBB5027:
 5822              	.LBB4985:
 5823              	.LBB4957:
 5824              	.LBB4926:
 5825              	.LBB4903:
 5826              	.LBB4707:
 5827              	.LBB4689:
 5828              	.LBB4671:
 5829              	.LBB4655:
 5830              	.LBB4639:
 5831              	.LBB4625:
 5832              	.LBB4611:
 5833 0784 5FED59BA 		flds	s23, .L58+88
 5834              	.LBE4611:
 5835              	.LBE4625:
 5836              	.LBE4639:
 5837              	.LBE4655:
 5838              	.LBE4671:
 5839              	.LBE4689:
 5840              	.LBE4707:
 5841              	.LBE4903:
 5842              	.LBB4904:
 5843              	.LBB4879:
 5844              	.LBB4868:
 5845              	.LBB4857:
 5846              	.LBB4847:
 5847              	.LBB4837:
 5848 0788 A1EE8B7A 		vfma.f32	s14, s3, s22
 5849              	.LBE4837:
 5850              	.LBE4847:
 5851              	.LBE4857:
 5852              	.LBE4868:
 5853              	.LBE4879:
 5854              	.LBE4904:
 5855              	.LBB4905:
 5856              	.LBB4708:
 5857              	.LBB4690:
 5858              	.LBB4672:
 5859              	.LBB4656:
 5860              	.LBB4640:
 5861              	.LBB4626:
 5862              	.LBB4612:
 5863 078c A1EEAB6A 		vfma.f32	s12, s3, s23
 5864              	.LBE4612:
 5865              	.LBE4626:
 5866              	.LBE4640:
 5867              	.LBE4656:
 5868              	.LBE4672:
 5869              	.LBE4690:
 5870              	.LBE4708:
 5871              	.LBE4905:
ARM GAS  /var/folders/28/j9jfyj_n4wz3qtvnym210h2c0000gn/T//ccYibR7K.s 			page 104


 5872              	.LBE4926:
 5873              	.LBE4957:
 5874              	.LBB4958:
 5875              	.LBB4467:
 5876              	.LBB4449:
 5877              	.LBB4431:
 5878              	.LBB4414:
 5879              	.LBB4397:
 5880 0790 E1EEAA7A 		vfma.f32	s15, s3, s21
 5881              	.LBE4397:
 5882              	.LBE4414:
 5883              	.LBE4431:
 5884              	.LBE4449:
 5885              	.LBE4467:
 5886              	.LBE4958:
 5887              	.LBE4985:
 5888              	.LBE5027:
 5889              	.LBB5028:
 5890              	.LBB4184:
 5891              	.LBB4163:
 5892              	.LBB4143:
 5893 0794 E1EE0A6A 		vfma.f32	s13, s2, s20
 5894              	.LBE4143:
 5895              	.LBE4163:
 5896              	.LBE4184:
 5897              	.LBE5028:
 5898              	.LBB5029:
 5899              	.LBB4986:
 5900              	.LBB4959:
 5901              	.LBB4927:
 5902              	.LBB4906:
 5903              	.LBB4709:
 5904              	.LBB4691:
 5905              	.LBB4673:
 5906              	.LBB4657:
 5907              	.LBB4641:
 5908 0798 1FED5DAA 		flds	s20, .L58+92
 5909              	.LBE4641:
 5910              	.LBE4657:
 5911              	.LBE4673:
 5912              	.LBE4691:
 5913              	.LBE4709:
 5914              	.LBE4906:
 5915              	.LBE4927:
 5916              	.LBE4959:
 5917              	.LBB4960:
 5918              	.LBB4468:
 5919              	.LBB4450:
 5920              	.LBB4432:
 5921 079c E1EE097A 		vfma.f32	s15, s2, s18
 5922              	.LBE4432:
 5923              	.LBE4450:
 5924              	.LBE4468:
 5925              	.LBE4960:
 5926              	.LBB4961:
 5927              	.LBB4928:
 5928              	.LBB4907:
ARM GAS  /var/folders/28/j9jfyj_n4wz3qtvnym210h2c0000gn/T//ccYibR7K.s 			page 105


 5929              	.LBB4710:
 5930              	.LBB4692:
 5931              	.LBB4674:
 5932              	.LBB4658:
 5933              	.LBB4642:
 5934 07a0 A1EE0A6A 		vfma.f32	s12, s2, s20
 5935              	.LBE4642:
 5936              	.LBE4658:
 5937              	.LBE4674:
 5938              	.LBE4692:
 5939              	.LBE4710:
 5940              	.LBE4907:
 5941              	.LBE4928:
 5942              	.LBE4961:
 5943              	.LBE4986:
 5944              	.LBE5029:
 5945              	.LBE5035:
 5946              	.LBE5038:
 5947              		.loc 2 186 0
 5948 07a4 B1EC019A 		fldmias	r1!, {s18}
 5949              	.LVL148:
 5950              	.LBB5039:
 5951              	.LBB5036:
 5952              	.LBB5030:
 5953              	.LBB4987:
 5954              	.LBB4962:
 5955              	.LBB4929:
 5956              	.LBB4908:
 5957              	.LBB4880:
 5958              	.LBB4869:
 5959              	.LBB4858:
 5960              		.loc 2 123 0
 5961 07a8 A1EE297A 		vfma.f32	s14, s2, s19
 5962              	.LBE4858:
 5963              	.LBE4869:
 5964              	.LBE4880:
 5965              	.LBE4908:
 5966              	.LBE4929:
 5967              	.LBE4962:
 5968              	.LBE4987:
 5969              	.LBE5030:
 5970              	.LBB5031:
 5971              	.LBB4185:
 5972 07ac E9EE286A 		vfma.f32	s13, s18, s17
 5973              	.LBE4185:
 5974              	.LBE5031:
 5975              	.LBB5032:
 5976              	.LBB4988:
 5977              	.LBB4963:
 5978              	.LBB4930:
 5979              	.LBB4909:
 5980              	.LBB4711:
 5981              	.LBB4693:
 5982              	.LBB4675:
 5983 07b0 5FED628A 		flds	s17, .L58+96
 5984              	.LBE4675:
 5985              	.LBE4693:
ARM GAS  /var/folders/28/j9jfyj_n4wz3qtvnym210h2c0000gn/T//ccYibR7K.s 			page 106


 5986              	.LBE4711:
 5987              	.LBE4909:
 5988              	.LBE4930:
 5989              	.LBE4963:
 5990              	.LBE4988:
 5991              	.LBE5032:
 5992              		.loc 2 145 0
 5993 07b4 43ED086A 		fsts	s13, [r3, #-32]
 5994              	.LVL149:
 5995              	.LBB5033:
 5996              	.LBB4989:
 5997              	.LBB4964:
 5998              	.LBB4931:
 5999              	.LBB4910:
 6000              	.LBB4712:
 6001              	.LBB4694:
 6002              	.LBB4676:
 6003              		.loc 2 123 0
 6004 07b8 A9EE286A 		vfma.f32	s12, s18, s17
 6005              	.LBE4676:
 6006              	.LBE4694:
 6007              	.LBE4712:
 6008              	.LBE4910:
 6009              	.LBB4911:
 6010              	.LBB4881:
 6011 07bc A9EE087A 		vfma.f32	s14, s18, s16
 6012              	.LBE4881:
 6013              	.LBE4911:
 6014              	.LBE4931:
 6015              	.LBE4964:
 6016              	.LBB4965:
 6017              	.LBB4469:
 6018 07c0 E9EE007A 		vfma.f32	s15, s18, s0
 6019              	.LBE4469:
 6020              	.LBE4965:
 6021              	.LBB4966:
 6022              	.LBB4932:
 6023              	.LBB4912:
 6024              	.LBB4713:
 6025              		.loc 2 145 0
 6026 07c4 03ED056A 		fsts	s12, [r3, #-20]
 6027              	.LBE4713:
 6028              	.LBE4912:
 6029 07c8 03ED067A 		fsts	s14, [r3, #-24]
 6030              	.LBE4932:
 6031              	.LBE4966:
 6032 07cc 43ED077A 		fsts	s15, [r3, #-28]
 6033              	.LVL150:
 6034              	.LBE4989:
 6035              	.LBE5033:
 6036              	.LBE5036:
 6037              	.LBE5039:
 6038              	.LBE5086:
 6039              		.loc 2 185 0
 6040 07d0 7FF42EAF 		bne	.L46
 6041              	.LVL151:
 6042              	.L39:
ARM GAS  /var/folders/28/j9jfyj_n4wz3qtvnym210h2c0000gn/T//ccYibR7K.s 			page 107


 6043              	.LBB5087:
 6044              	.LBB5088:
 6045              		.loc 2 73 0
 6046 07d4 88ED619A 		fsts	s18, [r8, #388]
 6047              	.LVL152:
 6048              	.LBB5089:
 6049              	.LBB5090:
 6050 07d8 88ED621A 		fsts	s2, [r8, #392]
 6051              	.LVL153:
 6052              	.LBB5091:
 6053              	.LBB5092:
 6054 07dc C8ED631A 		fsts	s3, [r8, #396]
 6055              	.LVL154:
 6056              	.LBB5093:
 6057              	.LBB5094:
 6058 07e0 88ED642A 		fsts	s4, [r8, #400]
 6059              	.LVL155:
 6060              	.LBB5095:
 6061              	.LBB5096:
 6062 07e4 C8ED652A 		fsts	s5, [r8, #404]
 6063              	.LVL156:
 6064              	.LBB5097:
 6065              	.LBB5098:
 6066 07e8 88ED663A 		fsts	s6, [r8, #408]
 6067              	.LVL157:
 6068              	.LBB5099:
 6069              	.LBB5100:
 6070 07ec C8ED673A 		fsts	s7, [r8, #412]
 6071              	.LVL158:
 6072              	.LBB5101:
 6073              	.LBB5102:
 6074 07f0 88ED684A 		fsts	s8, [r8, #416]
 6075              	.LVL159:
 6076              	.LBB5103:
 6077              	.LBB5104:
 6078 07f4 C8ED694A 		fsts	s9, [r8, #420]
 6079              	.LVL160:
 6080              	.LBB5105:
 6081              	.LBB5106:
 6082 07f8 88ED6A5A 		fsts	s10, [r8, #424]
 6083              	.LVL161:
 6084              	.LBB5107:
 6085              	.LBB5108:
 6086 07fc C8ED6B5A 		fsts	s11, [r8, #428]
 6087              	.LVL162:
 6088              	.LBB5109:
 6089              	.LBB5110:
 6090              		.loc 2 101 0
 6091 0800 C8ED6C0A 		fsts	s1, [r8, #432]
 6092 0804 9FE5     		b	.L35
 6093              	.LVL163:
 6094              	.L43:
 6095              	.LBE5110:
 6096              	.LBE5109:
 6097              	.LBE5108:
 6098              	.LBE5107:
 6099              	.LBE5106:
ARM GAS  /var/folders/28/j9jfyj_n4wz3qtvnym210h2c0000gn/T//ccYibR7K.s 			page 108


 6100              	.LBE5105:
 6101              	.LBE5104:
 6102              	.LBE5103:
 6103              	.LBE5102:
 6104              	.LBE5101:
 6105              	.LBE5100:
 6106              	.LBE5099:
 6107              	.LBE5098:
 6108              	.LBE5097:
 6109              	.LBE5096:
 6110              	.LBE5095:
 6111              	.LBE5094:
 6112              	.LBE5093:
 6113              	.LBE5092:
 6114              	.LBE5091:
 6115              	.LBE5090:
 6116              	.LBE5089:
 6117              	.LBE5088:
 6118              	.LBE5087:
 6119              	.LBE5112:
 6120              	.LBE6330:
 6121              	.LBB6331:
 6122              	.LBB6327:
 6123              	.LBB6324:
 6124              	.LBB5167:
 6125              		.loc 2 68 0
 6126 0806 B0EE419A 		fcpys	s18, s2
 6127              	.LBB5166:
 6128              	.LBB5165:
 6129 080a B0EE611A 		fcpys	s2, s3
 6130              	.LVL164:
 6131              	.LBB5164:
 6132              	.LBB5163:
 6133 080e F0EE421A 		fcpys	s3, s4
 6134              	.LVL165:
 6135              	.LBB5162:
 6136              	.LBB5161:
 6137 0812 B0EE622A 		fcpys	s4, s5
 6138              	.LVL166:
 6139              	.LBB5160:
 6140              	.LBB5159:
 6141 0816 F0EE432A 		fcpys	s5, s6
 6142              	.LVL167:
 6143              	.LBB5158:
 6144              	.LBB5157:
 6145 081a B0EE633A 		fcpys	s6, s7
 6146              	.LVL168:
 6147              	.LBB5156:
 6148              	.LBB5155:
 6149 081e F0EE443A 		fcpys	s7, s8
 6150              	.LVL169:
 6151              	.LBB5154:
 6152              	.LBB5153:
 6153 0822 B0EE644A 		fcpys	s8, s9
 6154              	.LVL170:
 6155              	.LBB5152:
 6156              	.LBB5151:
ARM GAS  /var/folders/28/j9jfyj_n4wz3qtvnym210h2c0000gn/T//ccYibR7K.s 			page 109


 6157 0826 F0EE454A 		fcpys	s9, s10
 6158              	.LVL171:
 6159              	.LBB5150:
 6160              	.LBB5149:
 6161 082a B0EE655A 		fcpys	s10, s11
 6162              	.LBB5148:
 6163              	.LBB5147:
 6164 082e F0EE605A 		fcpys	s11, s1
 6165              	.LBB5145:
 6166              	.LBB5146:
 6167              		.loc 2 97 0
 6168 0832 F0EE670A 		fcpys	s1, s15
 6169 0836 84E6     		b	.L37
 6170              	.LVL172:
 6171              	.L45:
 6172              	.LBE5146:
 6173              	.LBE5145:
 6174              	.LBE5147:
 6175              	.LBE5148:
 6176              	.LBE5149:
 6177              	.LBE5150:
 6178              	.LBE5151:
 6179              	.LBE5152:
 6180              	.LBE5153:
 6181              	.LBE5154:
 6182              	.LBE5155:
 6183              	.LBE5156:
 6184              	.LBE5157:
 6185              	.LBE5158:
 6186              	.LBE5159:
 6187              	.LBE5160:
 6188              	.LBE5161:
 6189              	.LBE5162:
 6190              	.LBE5163:
 6191              	.LBE5164:
 6192              	.LBE5165:
 6193              	.LBE5166:
 6194              	.LBE5167:
 6195              	.LBE6324:
 6196              	.LBE6327:
 6197              	.LBE6331:
 6198              	.LBB6332:
 6199              	.LBB5113:
 6200              	.LBB5111:
 6201              	.LBB5084:
 6202              		.loc 2 68 0
 6203 0838 B0EE419A 		fcpys	s18, s2
 6204              	.LBB5083:
 6205              	.LBB5082:
 6206 083c B0EE611A 		fcpys	s2, s3
 6207              	.LVL173:
 6208              	.LBB5081:
 6209              	.LBB5080:
 6210 0840 F0EE421A 		fcpys	s3, s4
 6211              	.LVL174:
 6212              	.LBB5079:
 6213              	.LBB5078:
ARM GAS  /var/folders/28/j9jfyj_n4wz3qtvnym210h2c0000gn/T//ccYibR7K.s 			page 110


 6214 0844 B0EE622A 		fcpys	s4, s5
 6215              	.LVL175:
 6216              	.LBB5077:
 6217              	.LBB5076:
 6218 0848 F0EE432A 		fcpys	s5, s6
 6219              	.LVL176:
 6220              	.LBB5075:
 6221              	.LBB5074:
 6222 084c B0EE633A 		fcpys	s6, s7
 6223              	.LVL177:
 6224              	.LBB5073:
 6225              	.LBB5072:
 6226 0850 F0EE443A 		fcpys	s7, s8
 6227              	.LVL178:
 6228              	.LBB5071:
 6229              	.LBB5070:
 6230 0854 B0EE644A 		fcpys	s8, s9
 6231              	.LVL179:
 6232              	.LBB5069:
 6233              	.LBB5068:
 6234 0858 F0EE454A 		fcpys	s9, s10
 6235              	.LVL180:
 6236              	.LBB5067:
 6237              	.LBB5066:
 6238 085c B0EE655A 		fcpys	s10, s11
 6239              	.LBB5065:
 6240              	.LBB5064:
 6241 0860 F0EE605A 		fcpys	s11, s1
 6242              	.LBB5062:
 6243              	.LBB5063:
 6244              		.loc 2 97 0
 6245 0864 F0EE670A 		fcpys	s1, s15
 6246 0868 B4E7     		b	.L39
 6247              	.LBE5063:
 6248              	.LBE5062:
 6249              	.LBE5064:
 6250              	.LBE5065:
 6251              	.LBE5066:
 6252              	.LBE5067:
 6253              	.LBE5068:
 6254              	.LBE5069:
 6255              	.LBE5070:
 6256              	.LBE5071:
 6257              	.LBE5072:
 6258              	.LBE5073:
 6259              	.LBE5074:
 6260              	.LBE5075:
 6261              	.LBE5076:
 6262              	.LBE5077:
 6263              	.LBE5078:
 6264              	.LBE5079:
 6265              	.LBE5080:
 6266              	.LBE5081:
 6267              	.LBE5082:
 6268              	.LBE5083:
 6269              	.LBE5084:
 6270              	.LBE5111:
ARM GAS  /var/folders/28/j9jfyj_n4wz3qtvnym210h2c0000gn/T//ccYibR7K.s 			page 111


 6271              	.LBE5113:
 6272              	.LBE6332:
 6273              	.LBE6336:
 6274              	.LBE6338:
 6275              	.LBE6340:
 6276              		.cfi_endproc
 6277              	.LFE666:
 6278              		.cantunwind
 6279              		.fnend
 6280              		.size	_ZN5warps10FilterBank10SynthesizeEPfj, .-_ZN5warps10FilterBank10SynthesizeEPfj
 6281              		.section	.text._ZN5warps19SampleRateConverterILNS_29SampleRateConversionDirectionE1ELl4ELl48EE7Pro
 6282              		.align	2
 6283              		.p2align 4,,15
 6284              		.weak	_ZN5warps19SampleRateConverterILNS_29SampleRateConversionDirectionE1ELl4ELl48EE7ProcessEPKfP
 6285              		.thumb
 6286              		.thumb_func
 6287              		.type	_ZN5warps19SampleRateConverterILNS_29SampleRateConversionDirectionE1ELl4ELl48EE7ProcessEPKfP
 6288              	_ZN5warps19SampleRateConverterILNS_29SampleRateConversionDirectionE1ELl4ELl48EE7ProcessEPKfPfj:
 6289              		.fnstart
 6290              	.LFB689:
 6291              		.loc 2 218 0
 6292              		.cfi_startproc
 6293              		@ args = 0, pretend = 0, frame = 8
 6294              		@ frame_needed = 0, uses_anonymous_args = 0
 6295              	.LVL181:
 6296              	.LBB6928:
 6297              		.loc 2 221 0
 6298 0000 13F0030F 		tst	r3, #3
 6299 0004 40F02081 		bne	.L83
 6300              	.LBE6928:
 6301              		.loc 2 218 0
 6302 0008 F0B5     		push	{r4, r5, r6, r7, lr}
 6303              		.cfi_def_cfa_offset 20
 6304              		.cfi_offset 4, -20
 6305              		.cfi_offset 5, -16
 6306              		.cfi_offset 6, -12
 6307              		.cfi_offset 7, -8
 6308              		.cfi_offset 14, -4
 6309 000a 2DED108B 		fstmfdd	sp!, {d8, d9, d10, d11, d12, d13, d14, d15}
 6310              		.cfi_def_cfa_offset 84
 6311              		.cfi_offset 80, -84
 6312              		.cfi_offset 81, -80
 6313              		.cfi_offset 82, -76
 6314              		.cfi_offset 83, -72
 6315              		.cfi_offset 84, -68
 6316              		.cfi_offset 85, -64
 6317              		.cfi_offset 86, -60
 6318              		.cfi_offset 87, -56
 6319              		.cfi_offset 88, -52
 6320              		.cfi_offset 89, -48
 6321              		.cfi_offset 90, -44
 6322              		.cfi_offset 91, -40
 6323              		.cfi_offset 92, -36
 6324              		.cfi_offset 93, -32
 6325              		.cfi_offset 94, -28
 6326              		.cfi_offset 95, -24
 6327              	.LBB7853:
ARM GAS  /var/folders/28/j9jfyj_n4wz3qtvnym210h2c0000gn/T//ccYibR7K.s 			page 112


 6328              	.LBB6929:
 6329              		.loc 2 226 0
 6330 000e B3F5C07F 		cmp	r3, #384
 6331              	.LBE6929:
 6332              	.LBE7853:
 6333              		.loc 2 218 0
 6334 0012 83B0     		sub	sp, sp, #12
 6335              		.cfi_def_cfa_offset 96
 6336 0014 0646     		mov	r6, r0
 6337 0016 1746     		mov	r7, r2
 6338 0018 0C46     		mov	r4, r1
 6339              	.LBB7854:
 6340              	.LBB7852:
 6341              		.loc 2 226 0
 6342 001a 80F04981 		bcs	.L62
 6343              	.LBB6930:
 6344              		.loc 2 261 0
 6345 001e 002B     		cmp	r3, #0
 6346 0020 00F00E81 		beq	.L60
 6347 0024 D0F88021 		ldr	r2, [r0, #384]
 6348              	.LVL182:
 6349              	.LBB6931:
 6350              	.LBB6932:
 6351              	.LBB6933:
 6352              	.LBB6934:
 6353              	.LBB6935:
 6354              	.LBB6936:
 6355              	.LBB6937:
 6356              	.LBB6938:
 6357              	.LBB6939:
 6358              	.LBB6940:
 6359              	.LBB6941:
 6360              	.LBB6942:
 6361              	.LBB6943:
 6362              	.LBB6944:
 6363              	.LBB6945:
 6364              	.LBB6946:
 6365              	.LBB6947:
 6366              	.LBB6948:
 6367              	.LBB6949:
 6368              	.LBB6950:
 6369              	.LBB6951:
 6370              	.LBB6952:
 6371              	.LBB6953:
 6372              	.LBB6954:
 6373              	.LBB6955:
 6374              	.LBB6956:
 6375              	.LBB6957:
 6376              	.LBB6958:
 6377              	.LBB6959:
 6378              	.LBB6960:
 6379              	.LBB6961:
 6380              	.LBB6962:
 6381              	.LBB6963:
 6382              	.LBB6964:
 6383              	.LBB6965:
 6384              	.LBB6966:
ARM GAS  /var/folders/28/j9jfyj_n4wz3qtvnym210h2c0000gn/T//ccYibR7K.s 			page 113


 6385              	.LBB6967:
 6386              	.LBB6968:
 6387              	.LBB6969:
 6388              	.LBB6970:
 6389              	.LBB6971:
 6390              	.LBB6972:
 6391              	.LBB6973:
 6392              	.LBB6974:
 6393              	.LBB6975:
 6394              	.LBB6976:
 6395              	.LBB6977:
 6396              	.LBB6978:
 6397              	.LBB6979:
 6398              	.LBB6980:
 6399              	.LBB6981:
 6400              	.LBB6982:
 6401              	.LBB6983:
 6402              	.LBB6984:
 6403              	.LBB6985:
 6404              	.LBB6986:
 6405              	.LBB6987:
 6406              	.LBB6988:
 6407              	.LBB6989:
 6408              	.LBB6990:
 6409              	.LBB6991:
 6410              	.LBB6992:
 6411              	.LBB6993:
 6412              	.LBB6994:
 6413              	.LBB6995:
 6414              	.LBB6996:
 6415              	.LBB6997:
 6416              	.LBB6998:
 6417              	.LBB6999:
 6418              	.LBB7000:
 6419              	.LBB7001:
 6420              	.LBB7002:
 6421              	.LBB7003:
 6422              	.LBB7004:
 6423              	.LBB7005:
 6424              	.LBB7006:
 6425              	.LBB7007:
 6426              	.LBB7008:
 6427              	.LBB7009:
 6428              	.LBB7010:
 6429              	.LBB7011:
 6430              	.LBB7012:
 6431              	.LBB7013:
 6432              	.LBB7014:
 6433              	.LBB7015:
 6434              	.LBB7016:
 6435              	.LBB7017:
 6436              	.LBB7018:
 6437              	.LBB7019:
 6438              	.LBB7020:
 6439              	.LBB7021:
 6440              	.LBB7022:
 6441              	.LBB7023:
ARM GAS  /var/folders/28/j9jfyj_n4wz3qtvnym210h2c0000gn/T//ccYibR7K.s 			page 114


 6442              	.LBB7024:
 6443              	.LBB7025:
 6444              	.LBB7026:
 6445              	.LBB7027:
 6446              		.loc 2 117 0
 6447 0028 9FED888A 		flds	s16, .L84
 6448              	.LBE7027:
 6449              	.LBE7026:
 6450 002c 9FED890A 		flds	s0, .L84+8
 6451              	.LBE7025:
 6452              	.LBE7024:
 6453 0030 DFED8E0A 		flds	s1, .L84+32
 6454              	.LBE7023:
 6455              	.LBE7022:
 6456 0034 9FED8C1A 		flds	s2, .L84+28
 6457              	.LBE7021:
 6458              	.LBE7020:
 6459 0038 DFED8A1A 		flds	s3, .L84+24
 6460              	.LBE7019:
 6461              	.LBE7018:
 6462 003c 9FED882A 		flds	s4, .L84+20
 6463              	.LBE7017:
 6464              	.LBE7016:
 6465 0040 DFED862A 		flds	s5, .L84+16
 6466              	.LBE7015:
 6467              	.LBE7014:
 6468 0044 9FED843A 		flds	s6, .L84+12
 6469              	.LVL183:
 6470              	.L63:
 6471 0048 04F11005 		add	r5, r4, #16
 6472              	.LVL184:
 6473              	.L71:
 6474              	.LBE7013:
 6475              	.LBE7012:
 6476              	.LBE7011:
 6477              	.LBE7010:
 6478              	.LBE7009:
 6479              	.LBE7008:
 6480              	.LBE7007:
 6481              	.LBE7006:
 6482              	.LBE7005:
 6483              	.LBE7004:
 6484              	.LBE7003:
 6485              	.LBE7002:
 6486              	.LBE7001:
 6487              	.LBE7000:
 6488              	.LBE6999:
 6489              	.LBE6998:
 6490              	.LBE6997:
 6491              	.LBE6996:
 6492              	.LBE6995:
 6493              	.LBE6994:
 6494              	.LBE6993:
 6495              	.LBE6992:
 6496              	.LBE6991:
 6497              	.LBE6990:
 6498              	.LBE6989:
ARM GAS  /var/folders/28/j9jfyj_n4wz3qtvnym210h2c0000gn/T//ccYibR7K.s 			page 115


 6499              	.LBE6988:
 6500              	.LBE6987:
 6501              	.LBE6986:
 6502              	.LBE6985:
 6503              	.LBE6984:
 6504              	.LBE6983:
 6505              	.LBE6982:
 6506              	.LBE6981:
 6507              	.LBE6980:
 6508              	.LBE6979:
 6509              	.LBE6978:
 6510              	.LBE6977:
 6511              	.LBE6976:
 6512              	.LBE6975:
 6513              	.LBE6974:
 6514              	.LBE6973:
 6515              	.LBE6972:
 6516              	.LBE6971:
 6517              	.LBE6970:
 6518              	.LBE6969:
 6519              	.LBE6968:
 6520              	.LBE6967:
 6521              	.LBE6966:
 6522              	.LBE6965:
 6523              	.LBE6964:
 6524              	.LBE6963:
 6525              	.LBE6962:
 6526              	.LBE6961:
 6527              	.LBE6960:
 6528              	.LBE6959:
 6529              	.LBE6958:
 6530              	.LBE6957:
 6531              	.LBE6956:
 6532              	.LBE6955:
 6533              	.LBE6954:
 6534              	.LBE6953:
 6535              	.LBE6952:
 6536              	.LBE6951:
 6537              	.LBE6950:
 6538              	.LBE6949:
 6539              	.LBE6948:
 6540              	.LBE6947:
 6541              	.LBE6946:
 6542              	.LBE6945:
 6543              	.LBE6944:
 6544              	.LBE6943:
 6545              	.LBE6942:
 6546              	.LBE6941:
 6547              	.LBE6940:
 6548              	.LBE6939:
 6549              	.LBE6938:
 6550              	.LBE6937:
 6551              	.LBE6936:
 6552              	.LBE6935:
 6553              	.LBE6934:
 6554              	.LBE6933:
 6555              	.LBE6932:
ARM GAS  /var/folders/28/j9jfyj_n4wz3qtvnym210h2c0000gn/T//ccYibR7K.s 			page 116


 6556              	.LBB7848:
 6557              		.loc 2 263 0
 6558 004c 1146     		mov	r1, r2
 6559 004e 54F8040B 		ldr	r0, [r4], #4	@ float
 6560              	.LVL185:
 6561 0052 C2F8C000 		str	r0, [r2, #192]	@ float
 6562 0056 41F80409 		str	r0, [r1], #-4	@ float
 6563              		.loc 2 265 0
 6564 005a B142     		cmp	r1, r6
 6565              		.loc 2 266 0
 6566 005c 33BF     		iteet	cc
 6567 005e BC32     		addcc	r2, r2, #188
 6568              		.loc 2 264 0
 6569 0060 C6F88011 		strcs	r1, [r6, #384]
 6570 0064 0A46     		movcs	r2, r1
 6571              		.loc 2 266 0
 6572 0066 C6F88021 		strcc	r2, [r6, #384]
 6573              	.LVL186:
 6574              		.loc 2 262 0
 6575 006a AC42     		cmp	r4, r5
 6576 006c EED1     		bne	.L71
 6577              	.LVL187:
 6578              	.LBE7848:
 6579              	.LBB7849:
 6580              	.LBB7846:
 6581              	.LBB7843:
 6582              	.LBB7840:
 6583              	.LBB7836:
 6584              	.LBB7832:
 6585              	.LBB7828:
 6586              	.LBB7824:
 6587              	.LBB7819:
 6588              	.LBB7814:
 6589              	.LBB7809:
 6590              	.LBB7804:
 6591              	.LBB7798:
 6592              	.LBB7792:
 6593              	.LBB7786:
 6594              	.LBB7780:
 6595              	.LBB7773:
 6596              	.LBB7766:
 6597              	.LBB7759:
 6598              	.LBB7752:
 6599              	.LBB7744:
 6600              	.LBB7736:
 6601              	.LBB7728:
 6602              	.LBB7720:
 6603              	.LBB7711:
 6604              	.LBB7702:
 6605              	.LBB7693:
 6606              	.LBB7684:
 6607              	.LBB7674:
 6608              	.LBB7664:
 6609              	.LBB7655:
 6610              	.LBB7646:
 6611              	.LBB7637:
 6612              	.LBB7628:
ARM GAS  /var/folders/28/j9jfyj_n4wz3qtvnym210h2c0000gn/T//ccYibR7K.s 			page 117


 6613              	.LBB7620:
 6614              	.LBB7612:
 6615              	.LBB7604:
 6616              	.LBB7596:
 6617              	.LBB7588:
 6618              	.LBB7580:
 6619              	.LBB7572:
 6620              	.LBB7564:
 6621              	.LBB7556:
 6622              	.LBB7548:
 6623              	.LBB7540:
 6624              	.LBB7532:
 6625              	.LBB7524:
 6626              	.LBB7516:
 6627              	.LBB7508:
 6628              	.LBB7500:
 6629              	.LBB7491:
 6630              	.LBB7482:
 6631              	.LBB7472:
 6632              	.LBB7462:
 6633              	.LBB7451:
 6634              	.LBB7440:
 6635              	.LBB7428:
 6636              	.LBB7416:
 6637              	.LBB7403:
 6638              	.LBB7390:
 6639              	.LBB7376:
 6640              	.LBB7362:
 6641              	.LBB7347:
 6642              	.LBB7332:
 6643              	.LBB7316:
 6644              	.LBB7300:
 6645              	.LBB7284:
 6646              	.LBB7268:
 6647              	.LBB7253:
 6648              	.LBB7238:
 6649              	.LBB7224:
 6650              	.LBB7210:
 6651              	.LBB7197:
 6652              	.LBB7184:
 6653              	.LBB7172:
 6654              	.LBB7160:
 6655              	.LBB7149:
 6656              	.LBB7138:
 6657              	.LBB7128:
 6658              	.LBB7118:
 6659              	.LBB7109:
 6660              	.LBB7100:
 6661              	.LBB7092:
 6662              	.LBB7084:
 6663              	.LBB7077:
 6664              	.LBB7070:
 6665              	.LBB7064:
 6666              	.LBB7058:
 6667              	.LBB7053:
 6668              	.LBB7048:
 6669              	.LBB7044:
ARM GAS  /var/folders/28/j9jfyj_n4wz3qtvnym210h2c0000gn/T//ccYibR7K.s 			page 118


 6670              	.LBB7040:
 6671              	.LBB7037:
 6672              	.LBB7034:
 6673              	.LBB7031:
 6674              	.LBB7028:
 6675              		.loc 2 117 0
 6676 006e D2ED307A 		flds	s15, [r2, #192]
 6677 0072 9FED777A 		flds	s14, .L84+4
 6678              	.LBE7028:
 6679              	.LBE7031:
 6680 0076 92ED2F9A 		flds	s18, [r2, #188]
 6681              	.LBE7034:
 6682              	.LBE7037:
 6683 007a D2ED2E8A 		flds	s17, [r2, #184]
 6684              	.LBE7040:
 6685              	.LBE7044:
 6686 007e D2ED2DFA 		flds	s31, [r2, #180]
 6687              	.LBE7048:
 6688              	.LBE7053:
 6689 0082 D2ED2C9A 		flds	s19, [r2, #176]
 6690              	.LBE7058:
 6691              	.LBE7064:
 6692 0086 92ED2BFA 		flds	s30, [r2, #172]
 6693              	.LBE7070:
 6694              	.LBE7077:
 6695 008a D2ED2AAA 		flds	s21, [r2, #168]
 6696              	.LBE7084:
 6697              	.LBE7092:
 6698 008e 92ED29EA 		flds	s28, [r2, #164]
 6699              	.LBE7100:
 6700              	.LBE7109:
 6701 0092 D2ED28BA 		flds	s23, [r2, #160]
 6702              	.LBE7118:
 6703              	.LBE7128:
 6704 0096 92ED27DA 		flds	s26, [r2, #156]
 6705 009a DFED756A 		flds	s13, .L84+36
 6706              	.LBE7138:
 6707              	.LBE7149:
 6708 009e D2ED26CA 		flds	s25, [r2, #152]
 6709 00a2 9FED746A 		flds	s12, .L84+40
 6710              	.LBE7160:
 6711              	.LBE7172:
 6712 00a6 92ED25CA 		flds	s24, [r2, #148]
 6713 00aa DFED735A 		flds	s11, .L84+44
 6714              	.LBE7184:
 6715              	.LBE7197:
 6716 00ae D2ED24DA 		flds	s27, [r2, #144]
 6717 00b2 9FED725A 		flds	s10, .L84+48
 6718              	.LBE7210:
 6719              	.LBE7224:
 6720 00b6 92ED23BA 		flds	s22, [r2, #140]
 6721 00ba DFED714A 		flds	s9, .L84+52
 6722              	.LBE7238:
 6723              	.LBE7253:
 6724 00be D2ED22EA 		flds	s29, [r2, #136]
 6725 00c2 9FED704A 		flds	s8, .L84+56
 6726              	.LBE7268:
ARM GAS  /var/folders/28/j9jfyj_n4wz3qtvnym210h2c0000gn/T//ccYibR7K.s 			page 119


 6727              	.LBE7284:
 6728 00c6 92ED21AA 		flds	s20, [r2, #132]
 6729 00ca DFED6F3A 		flds	s7, .L84+60
 6730              	.LBB7285:
 6731              	.LBB7269:
 6732              	.LBB7254:
 6733              	.LBB7239:
 6734              	.LBB7225:
 6735              	.LBB7211:
 6736              	.LBB7198:
 6737              	.LBB7185:
 6738              	.LBB7173:
 6739              	.LBB7161:
 6740              	.LBB7150:
 6741              	.LBB7139:
 6742              	.LBB7129:
 6743              	.LBB7119:
 6744              	.LBB7110:
 6745              	.LBB7101:
 6746              	.LBB7093:
 6747              	.LBB7085:
 6748              	.LBB7078:
 6749              	.LBB7071:
 6750              	.LBB7065:
 6751              	.LBB7059:
 6752              	.LBB7054:
 6753              	.LBB7049:
 6754              	.LBB7045:
 6755              	.LBB7041:
 6756              	.LBB7038:
 6757              	.LBB7035:
 6758              	.LBB7032:
 6759              	.LBB7029:
 6760 00ce A7EE887A 		vfma.f32	s14, s15, s16
 6761              	.LBE7029:
 6762              	.LBE7032:
 6763              	.LBE7035:
 6764              	.LBE7038:
 6765              	.LBE7041:
 6766              	.LBE7045:
 6767              	.LBE7049:
 6768              	.LBE7054:
 6769              	.LBE7059:
 6770              	.LBE7065:
 6771              	.LBE7071:
 6772              	.LBE7078:
 6773              	.LBE7085:
 6774              	.LBE7093:
 6775              	.LBE7101:
 6776              	.LBE7110:
 6777              	.LBE7119:
 6778              	.LBE7129:
 6779              	.LBE7139:
 6780              	.LBE7150:
 6781              	.LBE7161:
 6782              	.LBE7173:
 6783              	.LBE7185:
ARM GAS  /var/folders/28/j9jfyj_n4wz3qtvnym210h2c0000gn/T//ccYibR7K.s 			page 120


 6784              	.LBE7198:
 6785              	.LBE7211:
 6786              	.LBE7225:
 6787              	.LBE7239:
 6788              	.LBE7254:
 6789              	.LBE7269:
 6790              	.LBE7285:
 6791              	.LBE7300:
 6792              	.LBE7316:
 6793              	.LBE7332:
 6794              	.LBE7347:
 6795              	.LBE7362:
 6796              	.LBE7376:
 6797              	.LBE7390:
 6798              	.LBE7403:
 6799              	.LBE7416:
 6800              	.LBE7428:
 6801              	.LBE7440:
 6802              	.LBE7451:
 6803              	.LBE7462:
 6804              	.LBE7472:
 6805              	.LBE7482:
 6806              	.LBE7491:
 6807              	.LBE7500:
 6808              	.LBE7508:
 6809              	.LBE7516:
 6810              	.LBE7524:
 6811              	.LBE7532:
 6812              	.LBE7540:
 6813              	.LBE7548:
 6814              	.LBE7556:
 6815              	.LBE7564:
 6816              	.LBE7572:
 6817              	.LBE7580:
 6818              	.LBE7588:
 6819              	.LBE7596:
 6820              	.LBE7604:
 6821              	.LBE7612:
 6822              	.LBE7620:
 6823              	.LBE7628:
 6824              	.LBE7637:
 6825              	.LBE7646:
 6826              	.LBE7655:
 6827              	.LBE7664:
 6828              	.LBE7674:
 6829              	.LBE7684:
 6830              	.LBE7693:
 6831              	.LBE7702:
 6832              	.LBE7711:
 6833              	.LBE7720:
 6834              	.LBE7728:
 6835              	.LBE7736:
 6836              	.LBE7744:
 6837              	.LBE7752:
 6838              	.LBE7759:
 6839              	.LBE7766:
 6840              	.LBE7773:
ARM GAS  /var/folders/28/j9jfyj_n4wz3qtvnym210h2c0000gn/T//ccYibR7K.s 			page 121


 6841              	.LBE7780:
 6842              	.LBE7786:
 6843              	.LBE7792:
 6844              	.LBE7798:
 6845              	.LBE7804:
 6846              	.LBE7809:
 6847              	.LBE7814:
 6848              	.LBE7819:
 6849              	.LBE7824:
 6850              	.LBE7828:
 6851              	.LBE7832:
 6852              	.LBE7836:
 6853              	.LBE7840:
 6854              	.LBE7843:
 6855              	.LBE7846:
 6856              	.LBE7849:
 6857              	.LBE6931:
 6858              		.loc 2 261 0
 6859 00d2 043B     		subs	r3, r3, #4
 6860              	.LVL188:
 6861              	.LBB7851:
 6862              	.LBB7850:
 6863              	.LBB7847:
 6864              	.LBB7844:
 6865              	.LBB7841:
 6866              	.LBB7837:
 6867              	.LBB7833:
 6868              	.LBB7829:
 6869              	.LBB7825:
 6870              	.LBB7820:
 6871              	.LBB7815:
 6872              	.LBB7810:
 6873              	.LBB7805:
 6874              	.LBB7799:
 6875              	.LBB7793:
 6876              	.LBB7787:
 6877              	.LBB7781:
 6878              	.LBB7774:
 6879              	.LBB7767:
 6880              	.LBB7760:
 6881              	.LBB7753:
 6882              	.LBB7745:
 6883              	.LBB7737:
 6884              	.LBB7729:
 6885              	.LBB7721:
 6886              	.LBB7712:
 6887              	.LBB7703:
 6888              	.LBB7694:
 6889              	.LBB7685:
 6890              	.LBB7675:
 6891              	.LBB7665:
 6892              	.LBB7656:
 6893              	.LBB7647:
 6894              	.LBB7638:
 6895              	.LBB7629:
 6896              	.LBB7621:
 6897              	.LBB7613:
ARM GAS  /var/folders/28/j9jfyj_n4wz3qtvnym210h2c0000gn/T//ccYibR7K.s 			page 122


 6898              	.LBB7605:
 6899              	.LBB7597:
 6900              	.LBB7589:
 6901              	.LBB7581:
 6902              	.LBB7573:
 6903              	.LBB7565:
 6904              	.LBB7557:
 6905              	.LBB7549:
 6906              	.LBB7541:
 6907              	.LBB7533:
 6908              	.LBB7525:
 6909              	.LBB7517:
 6910              	.LBB7509:
 6911              	.LBB7501:
 6912              	.LBB7492:
 6913              	.LBB7483:
 6914              	.LBB7473:
 6915              	.LBB7463:
 6916              	.LBB7452:
 6917              	.LBB7441:
 6918              	.LBB7429:
 6919              	.LBB7417:
 6920              	.LBB7404:
 6921              	.LBB7391:
 6922              	.LBB7377:
 6923              	.LBB7363:
 6924              	.LBB7348:
 6925              	.LBB7333:
 6926              	.LBB7317:
 6927              	.LBB7301:
 6928              	.LBB7286:
 6929              	.LBB7270:
 6930              	.LBB7255:
 6931              	.LBB7240:
 6932              	.LBB7226:
 6933              	.LBB7212:
 6934              	.LBB7199:
 6935              	.LBB7186:
 6936              	.LBB7174:
 6937              	.LBB7162:
 6938              	.LBB7151:
 6939              	.LBB7140:
 6940              	.LBB7130:
 6941              	.LBB7120:
 6942              	.LBB7111:
 6943              	.LBB7102:
 6944              	.LBB7094:
 6945              	.LBB7086:
 6946              	.LBB7079:
 6947              	.LBB7072:
 6948              	.LBB7066:
 6949              	.LBB7060:
 6950              	.LBB7055:
 6951              	.LBB7050:
 6952              	.LBB7046:
 6953              	.LBB7042:
 6954              	.LBB7039:
ARM GAS  /var/folders/28/j9jfyj_n4wz3qtvnym210h2c0000gn/T//ccYibR7K.s 			page 123


 6955              	.LBB7036:
 6956              	.LBB7033:
 6957              	.LBB7030:
 6958              		.loc 2 117 0
 6959 00d4 F0EE477A 		fcpys	s15, s14
 6960              	.LBE7030:
 6961              	.LBE7033:
 6962 00d8 E9EE007A 		vfma.f32	s15, s18, s0
 6963              	.LBE7036:
 6964              	.LBE7039:
 6965              	.LBE7042:
 6966              	.LBE7046:
 6967              	.LBE7050:
 6968              	.LBE7055:
 6969              	.LBE7060:
 6970              	.LBE7066:
 6971              	.LBE7072:
 6972              	.LBE7079:
 6973              	.LBE7086:
 6974              	.LBE7094:
 6975              	.LBE7102:
 6976              	.LBE7111:
 6977 00dc 9FED737A 		flds	s14, .L84+96
 6978              	.LBE7120:
 6979              	.LBE7130:
 6980              	.LBE7140:
 6981              	.LBE7151:
 6982              	.LBE7162:
 6983              	.LBE7174:
 6984              	.LBE7186:
 6985              	.LBE7199:
 6986              	.LBE7212:
 6987              	.LBE7226:
 6988              	.LBE7240:
 6989              	.LBE7255:
 6990              	.LBE7270:
 6991              	.LBE7286:
 6992              	.LBE7301:
 6993              	.LBE7317:
 6994 00e0 92ED209A 		flds	s18, [r2, #128]
 6995              	.LBB7318:
 6996              	.LBB7302:
 6997              	.LBB7287:
 6998              	.LBB7271:
 6999              	.LBB7256:
 7000              	.LBB7241:
 7001              	.LBB7227:
 7002              	.LBB7213:
 7003              	.LBB7200:
 7004              	.LBB7187:
 7005              	.LBB7175:
 7006              	.LBB7163:
 7007              	.LBB7152:
 7008              	.LBB7141:
 7009              	.LBB7131:
 7010              	.LBB7121:
 7011              	.LBB7112:
ARM GAS  /var/folders/28/j9jfyj_n4wz3qtvnym210h2c0000gn/T//ccYibR7K.s 			page 124


 7012              	.LBB7103:
 7013              	.LBB7095:
 7014              	.LBB7087:
 7015              	.LBB7080:
 7016              	.LBB7073:
 7017              	.LBB7067:
 7018              	.LBB7061:
 7019              	.LBB7056:
 7020              	.LBB7051:
 7021              	.LBB7047:
 7022              	.LBB7043:
 7023 00e4 E8EEA07A 		vfma.f32	s15, s17, s1
 7024              	.LBE7043:
 7025              	.LBE7047:
 7026              	.LBE7051:
 7027              	.LBE7056:
 7028              	.LBE7061:
 7029              	.LBE7067:
 7030              	.LBE7073:
 7031              	.LBE7080:
 7032              	.LBE7087:
 7033              	.LBE7095:
 7034              	.LBE7103:
 7035              	.LBE7112:
 7036              	.LBE7121:
 7037              	.LBE7131:
 7038              	.LBE7141:
 7039              	.LBE7152:
 7040              	.LBE7163:
 7041              	.LBE7175:
 7042              	.LBE7187:
 7043              	.LBE7200:
 7044              	.LBE7213:
 7045              	.LBE7227:
 7046              	.LBE7241:
 7047              	.LBE7256:
 7048              	.LBE7271:
 7049              	.LBE7287:
 7050              	.LBE7302:
 7051              	.LBE7318:
 7052 00e8 DFED688A 		flds	s17, .L84+64
 7053              	.LBB7319:
 7054              	.LBB7303:
 7055              	.LBB7288:
 7056              	.LBB7272:
 7057              	.LBB7257:
 7058              	.LBB7242:
 7059              	.LBB7228:
 7060              	.LBB7214:
 7061              	.LBB7201:
 7062              	.LBB7188:
 7063              	.LBB7176:
 7064              	.LBB7164:
 7065              	.LBB7153:
 7066              	.LBB7142:
 7067              	.LBB7132:
 7068              	.LBB7122:
ARM GAS  /var/folders/28/j9jfyj_n4wz3qtvnym210h2c0000gn/T//ccYibR7K.s 			page 125


 7069              	.LBB7113:
 7070              	.LBB7104:
 7071              	.LBB7096:
 7072              	.LBB7088:
 7073              	.LBB7081:
 7074              	.LBB7074:
 7075              	.LBB7068:
 7076              	.LBB7062:
 7077              	.LBB7057:
 7078              	.LBB7052:
 7079 00ec EFEE817A 		vfma.f32	s15, s31, s2
 7080              	.LBE7052:
 7081              	.LBE7057:
 7082              	.LBE7062:
 7083              	.LBE7068:
 7084              	.LBE7074:
 7085              	.LBE7081:
 7086              	.LBE7088:
 7087              	.LBE7096:
 7088              	.LBE7104:
 7089              	.LBE7113:
 7090              	.LBE7122:
 7091              	.LBE7132:
 7092              	.LBE7142:
 7093              	.LBE7153:
 7094              	.LBE7164:
 7095              	.LBE7176:
 7096              	.LBE7188:
 7097              	.LBE7201:
 7098              	.LBE7214:
 7099              	.LBE7228:
 7100              	.LBE7242:
 7101              	.LBE7257:
 7102              	.LBE7272:
 7103              	.LBE7288:
 7104              	.LBE7303:
 7105              	.LBE7319:
 7106              	.LBE7333:
 7107              	.LBE7348:
 7108 00f0 D2ED1FFA 		flds	s31, [r2, #124]
 7109              	.LBB7349:
 7110              	.LBB7334:
 7111              	.LBB7320:
 7112              	.LBB7304:
 7113              	.LBB7289:
 7114              	.LBB7273:
 7115              	.LBB7258:
 7116              	.LBB7243:
 7117              	.LBB7229:
 7118              	.LBB7215:
 7119              	.LBB7202:
 7120              	.LBB7189:
 7121              	.LBB7177:
 7122              	.LBB7165:
 7123              	.LBB7154:
 7124              	.LBB7143:
 7125              	.LBB7133:
ARM GAS  /var/folders/28/j9jfyj_n4wz3qtvnym210h2c0000gn/T//ccYibR7K.s 			page 126


 7126              	.LBB7123:
 7127              	.LBB7114:
 7128              	.LBB7105:
 7129              	.LBB7097:
 7130              	.LBB7089:
 7131              	.LBB7082:
 7132              	.LBB7075:
 7133              	.LBB7069:
 7134              	.LBB7063:
 7135 00f4 E9EEA17A 		vfma.f32	s15, s19, s3
 7136              	.LBE7063:
 7137              	.LBE7069:
 7138              	.LBE7075:
 7139              	.LBE7082:
 7140              	.LBE7089:
 7141              	.LBE7097:
 7142              	.LBE7105:
 7143              	.LBE7114:
 7144              	.LBE7123:
 7145              	.LBE7133:
 7146              	.LBE7143:
 7147              	.LBE7154:
 7148              	.LBE7165:
 7149              	.LBE7177:
 7150              	.LBE7189:
 7151              	.LBE7202:
 7152              	.LBE7215:
 7153              	.LBE7229:
 7154              	.LBE7243:
 7155              	.LBE7258:
 7156              	.LBE7273:
 7157              	.LBE7289:
 7158              	.LBE7304:
 7159              	.LBE7320:
 7160              	.LBE7334:
 7161              	.LBE7349:
 7162 00f8 DFED659A 		flds	s19, .L84+68
 7163              	.LBB7350:
 7164              	.LBB7335:
 7165              	.LBB7321:
 7166              	.LBB7305:
 7167              	.LBB7290:
 7168              	.LBB7274:
 7169              	.LBB7259:
 7170              	.LBB7244:
 7171              	.LBB7230:
 7172              	.LBB7216:
 7173              	.LBB7203:
 7174              	.LBB7190:
 7175              	.LBB7178:
 7176              	.LBB7166:
 7177              	.LBB7155:
 7178              	.LBB7144:
 7179              	.LBB7134:
 7180              	.LBB7124:
 7181              	.LBB7115:
 7182              	.LBB7106:
ARM GAS  /var/folders/28/j9jfyj_n4wz3qtvnym210h2c0000gn/T//ccYibR7K.s 			page 127


 7183              	.LBB7098:
 7184              	.LBB7090:
 7185              	.LBB7083:
 7186              	.LBB7076:
 7187 00fc EFEE027A 		vfma.f32	s15, s30, s4
 7188              	.LBE7076:
 7189              	.LBE7083:
 7190              	.LBE7090:
 7191              	.LBE7098:
 7192              	.LBE7106:
 7193              	.LBE7115:
 7194              	.LBE7124:
 7195              	.LBE7134:
 7196              	.LBE7144:
 7197              	.LBE7155:
 7198              	.LBE7166:
 7199              	.LBE7178:
 7200              	.LBE7190:
 7201              	.LBE7203:
 7202              	.LBE7216:
 7203              	.LBE7230:
 7204              	.LBE7244:
 7205              	.LBE7259:
 7206              	.LBE7274:
 7207              	.LBE7290:
 7208              	.LBE7305:
 7209              	.LBE7321:
 7210              	.LBE7335:
 7211              	.LBE7350:
 7212              	.LBE7363:
 7213              	.LBE7377:
 7214 0100 92ED1EFA 		flds	s30, [r2, #120]
 7215              	.LBB7378:
 7216              	.LBB7364:
 7217              	.LBB7351:
 7218              	.LBB7336:
 7219              	.LBB7322:
 7220              	.LBB7306:
 7221              	.LBB7291:
 7222              	.LBB7275:
 7223              	.LBB7260:
 7224              	.LBB7245:
 7225              	.LBB7231:
 7226              	.LBB7217:
 7227              	.LBB7204:
 7228              	.LBB7191:
 7229              	.LBB7179:
 7230              	.LBB7167:
 7231              	.LBB7156:
 7232              	.LBB7145:
 7233              	.LBB7135:
 7234              	.LBB7125:
 7235              	.LBB7116:
 7236              	.LBB7107:
 7237              	.LBB7099:
 7238              	.LBB7091:
 7239 0104 EAEEA27A 		vfma.f32	s15, s21, s5
ARM GAS  /var/folders/28/j9jfyj_n4wz3qtvnym210h2c0000gn/T//ccYibR7K.s 			page 128


 7240              	.LBE7091:
 7241              	.LBE7099:
 7242              	.LBE7107:
 7243              	.LBE7116:
 7244              	.LBE7125:
 7245              	.LBE7135:
 7246              	.LBE7145:
 7247              	.LBE7156:
 7248              	.LBE7167:
 7249              	.LBE7179:
 7250              	.LBE7191:
 7251              	.LBE7204:
 7252              	.LBE7217:
 7253              	.LBE7231:
 7254              	.LBE7245:
 7255              	.LBE7260:
 7256              	.LBE7275:
 7257              	.LBE7291:
 7258              	.LBE7306:
 7259              	.LBE7322:
 7260              	.LBE7336:
 7261              	.LBE7351:
 7262              	.LBE7364:
 7263              	.LBE7378:
 7264 0108 DFED62AA 		flds	s21, .L84+72
 7265              	.LBB7379:
 7266              	.LBB7365:
 7267              	.LBB7352:
 7268              	.LBB7337:
 7269              	.LBB7323:
 7270              	.LBB7307:
 7271              	.LBB7292:
 7272              	.LBB7276:
 7273              	.LBB7261:
 7274              	.LBB7246:
 7275              	.LBB7232:
 7276              	.LBB7218:
 7277              	.LBB7205:
 7278              	.LBB7192:
 7279              	.LBB7180:
 7280              	.LBB7168:
 7281              	.LBB7157:
 7282              	.LBB7146:
 7283              	.LBB7136:
 7284              	.LBB7126:
 7285              	.LBB7117:
 7286              	.LBB7108:
 7287 010c EEEE037A 		vfma.f32	s15, s28, s6
 7288              	.LBE7108:
 7289              	.LBE7117:
 7290              	.LBE7126:
 7291              	.LBE7136:
 7292              	.LBE7146:
 7293              	.LBE7157:
 7294              	.LBE7168:
 7295              	.LBE7180:
 7296              	.LBE7192:
ARM GAS  /var/folders/28/j9jfyj_n4wz3qtvnym210h2c0000gn/T//ccYibR7K.s 			page 129


 7297              	.LBE7205:
 7298              	.LBE7218:
 7299              	.LBE7232:
 7300              	.LBE7246:
 7301              	.LBE7261:
 7302              	.LBE7276:
 7303              	.LBE7292:
 7304              	.LBE7307:
 7305              	.LBE7323:
 7306              	.LBE7337:
 7307              	.LBE7352:
 7308              	.LBE7365:
 7309              	.LBE7379:
 7310              	.LBE7391:
 7311              	.LBE7404:
 7312 0110 92ED1DEA 		flds	s28, [r2, #116]
 7313              	.LBB7405:
 7314              	.LBB7392:
 7315              	.LBB7380:
 7316              	.LBB7366:
 7317              	.LBB7353:
 7318              	.LBB7338:
 7319              	.LBB7324:
 7320              	.LBB7308:
 7321              	.LBB7293:
 7322              	.LBB7277:
 7323              	.LBB7262:
 7324              	.LBB7247:
 7325              	.LBB7233:
 7326              	.LBB7219:
 7327              	.LBB7206:
 7328              	.LBB7193:
 7329              	.LBB7181:
 7330              	.LBB7169:
 7331              	.LBB7158:
 7332              	.LBB7147:
 7333              	.LBB7137:
 7334              	.LBB7127:
 7335 0114 EBEE877A 		vfma.f32	s15, s23, s14
 7336              	.LBE7127:
 7337              	.LBE7137:
 7338              	.LBE7147:
 7339              	.LBE7158:
 7340              	.LBE7169:
 7341              	.LBE7181:
 7342              	.LBE7193:
 7343              	.LBE7206:
 7344              	.LBE7219:
 7345              	.LBE7233:
 7346              	.LBE7247:
 7347              	.LBE7262:
 7348              	.LBE7277:
 7349              	.LBE7293:
 7350              	.LBE7308:
 7351              	.LBE7324:
 7352              	.LBE7338:
 7353              	.LBE7353:
ARM GAS  /var/folders/28/j9jfyj_n4wz3qtvnym210h2c0000gn/T//ccYibR7K.s 			page 130


 7354              	.LBE7366:
 7355              	.LBE7380:
 7356              	.LBE7392:
 7357              	.LBE7405:
 7358 0118 DFED5FBA 		flds	s23, .L84+76
 7359              	.LBB7406:
 7360              	.LBB7393:
 7361              	.LBB7381:
 7362              	.LBB7367:
 7363              	.LBB7354:
 7364              	.LBB7339:
 7365              	.LBB7325:
 7366              	.LBB7309:
 7367              	.LBB7294:
 7368              	.LBB7278:
 7369              	.LBB7263:
 7370              	.LBB7248:
 7371              	.LBB7234:
 7372              	.LBB7220:
 7373              	.LBB7207:
 7374              	.LBB7194:
 7375              	.LBB7182:
 7376              	.LBB7170:
 7377              	.LBB7159:
 7378              	.LBB7148:
 7379 011c EDEE267A 		vfma.f32	s15, s26, s13
 7380              	.LBE7148:
 7381              	.LBE7159:
 7382              	.LBE7170:
 7383              	.LBE7182:
 7384              	.LBE7194:
 7385              	.LBE7207:
 7386              	.LBE7220:
 7387              	.LBE7234:
 7388              	.LBE7248:
 7389              	.LBE7263:
 7390              	.LBE7278:
 7391              	.LBE7294:
 7392              	.LBE7309:
 7393              	.LBE7325:
 7394              	.LBE7339:
 7395              	.LBE7354:
 7396              	.LBE7367:
 7397              	.LBE7381:
 7398              	.LBE7393:
 7399              	.LBE7406:
 7400              	.LBE7417:
 7401              	.LBE7429:
 7402 0120 92ED1CDA 		flds	s26, [r2, #112]
 7403              	.LBB7430:
 7404              	.LBB7418:
 7405              	.LBB7407:
 7406              	.LBB7394:
 7407              	.LBB7382:
 7408              	.LBB7368:
 7409              	.LBB7355:
 7410              	.LBB7340:
ARM GAS  /var/folders/28/j9jfyj_n4wz3qtvnym210h2c0000gn/T//ccYibR7K.s 			page 131


 7411              	.LBB7326:
 7412              	.LBB7310:
 7413              	.LBB7295:
 7414              	.LBB7279:
 7415              	.LBB7264:
 7416              	.LBB7249:
 7417              	.LBB7235:
 7418              	.LBB7221:
 7419              	.LBB7208:
 7420              	.LBB7195:
 7421              	.LBB7183:
 7422              	.LBB7171:
 7423 0124 ECEE867A 		vfma.f32	s15, s25, s12
 7424              	.LBE7171:
 7425              	.LBE7183:
 7426              	.LBE7195:
 7427              	.LBE7208:
 7428              	.LBE7221:
 7429              	.LBE7235:
 7430              	.LBE7249:
 7431              	.LBE7264:
 7432              	.LBE7279:
 7433              	.LBE7295:
 7434              	.LBE7310:
 7435              	.LBE7326:
 7436              	.LBE7340:
 7437              	.LBE7355:
 7438              	.LBE7368:
 7439              	.LBE7382:
 7440              	.LBE7394:
 7441              	.LBE7407:
 7442              	.LBE7418:
 7443              	.LBE7430:
 7444 0128 DFED5CCA 		flds	s25, .L84+80
 7445              	.LBB7431:
 7446              	.LBB7419:
 7447              	.LBB7408:
 7448              	.LBB7395:
 7449              	.LBB7383:
 7450              	.LBB7369:
 7451              	.LBB7356:
 7452              	.LBB7341:
 7453              	.LBB7327:
 7454              	.LBB7311:
 7455              	.LBB7296:
 7456              	.LBB7280:
 7457              	.LBB7265:
 7458              	.LBB7250:
 7459              	.LBB7236:
 7460              	.LBB7222:
 7461              	.LBB7209:
 7462              	.LBB7196:
 7463 012c ECEE257A 		vfma.f32	s15, s24, s11
 7464              	.LBE7196:
 7465              	.LBE7209:
 7466              	.LBE7222:
 7467              	.LBE7236:
ARM GAS  /var/folders/28/j9jfyj_n4wz3qtvnym210h2c0000gn/T//ccYibR7K.s 			page 132


 7468              	.LBE7250:
 7469              	.LBE7265:
 7470              	.LBE7280:
 7471              	.LBE7296:
 7472              	.LBE7311:
 7473              	.LBE7327:
 7474              	.LBE7341:
 7475              	.LBE7356:
 7476              	.LBE7369:
 7477              	.LBE7383:
 7478              	.LBE7395:
 7479              	.LBE7408:
 7480              	.LBE7419:
 7481              	.LBE7431:
 7482              	.LBE7441:
 7483              	.LBE7452:
 7484 0130 92ED1BCA 		flds	s24, [r2, #108]
 7485              	.LBB7453:
 7486              	.LBB7442:
 7487              	.LBB7432:
 7488              	.LBB7420:
 7489              	.LBB7409:
 7490              	.LBB7396:
 7491              	.LBB7384:
 7492              	.LBB7370:
 7493              	.LBB7357:
 7494              	.LBB7342:
 7495              	.LBB7328:
 7496              	.LBB7312:
 7497              	.LBB7297:
 7498              	.LBB7281:
 7499              	.LBB7266:
 7500              	.LBB7251:
 7501              	.LBB7237:
 7502              	.LBB7223:
 7503 0134 EDEE857A 		vfma.f32	s15, s27, s10
 7504              	.LBE7223:
 7505              	.LBE7237:
 7506              	.LBE7251:
 7507              	.LBE7266:
 7508              	.LBE7281:
 7509              	.LBE7297:
 7510              	.LBE7312:
 7511              	.LBE7328:
 7512              	.LBE7342:
 7513              	.LBE7357:
 7514              	.LBE7370:
 7515              	.LBE7384:
 7516              	.LBE7396:
 7517              	.LBE7409:
 7518              	.LBE7420:
 7519              	.LBE7432:
 7520              	.LBE7442:
 7521              	.LBE7453:
 7522 0138 DFED59DA 		flds	s27, .L84+84
 7523              	.LBB7454:
 7524              	.LBB7443:
ARM GAS  /var/folders/28/j9jfyj_n4wz3qtvnym210h2c0000gn/T//ccYibR7K.s 			page 133


 7525              	.LBB7433:
 7526              	.LBB7421:
 7527              	.LBB7410:
 7528              	.LBB7397:
 7529              	.LBB7385:
 7530              	.LBB7371:
 7531              	.LBB7358:
 7532              	.LBB7343:
 7533              	.LBB7329:
 7534              	.LBB7313:
 7535              	.LBB7298:
 7536              	.LBB7282:
 7537              	.LBB7267:
 7538              	.LBB7252:
 7539 013c EBEE247A 		vfma.f32	s15, s22, s9
 7540              	.LBE7252:
 7541              	.LBE7267:
 7542              	.LBE7282:
 7543              	.LBE7298:
 7544              	.LBE7313:
 7545              	.LBE7329:
 7546              	.LBE7343:
 7547              	.LBE7358:
 7548              	.LBE7371:
 7549              	.LBE7385:
 7550              	.LBE7397:
 7551              	.LBE7410:
 7552              	.LBE7421:
 7553              	.LBE7433:
 7554              	.LBE7443:
 7555              	.LBE7454:
 7556              	.LBE7463:
 7557              	.LBE7473:
 7558 0140 92ED1ABA 		flds	s22, [r2, #104]
 7559              	.LBB7474:
 7560              	.LBB7464:
 7561              	.LBB7455:
 7562              	.LBB7444:
 7563              	.LBB7434:
 7564              	.LBB7422:
 7565              	.LBB7411:
 7566              	.LBB7398:
 7567              	.LBB7386:
 7568              	.LBB7372:
 7569              	.LBB7359:
 7570              	.LBB7344:
 7571              	.LBB7330:
 7572              	.LBB7314:
 7573              	.LBB7299:
 7574              	.LBB7283:
 7575 0144 EEEE847A 		vfma.f32	s15, s29, s8
 7576              	.LBE7283:
 7577              	.LBE7299:
 7578              	.LBE7314:
 7579              	.LBE7330:
 7580              	.LBE7344:
 7581              	.LBE7359:
ARM GAS  /var/folders/28/j9jfyj_n4wz3qtvnym210h2c0000gn/T//ccYibR7K.s 			page 134


 7582              	.LBE7372:
 7583              	.LBE7386:
 7584              	.LBE7398:
 7585              	.LBE7411:
 7586              	.LBE7422:
 7587              	.LBE7434:
 7588              	.LBE7444:
 7589              	.LBE7455:
 7590              	.LBE7464:
 7591              	.LBE7474:
 7592 0148 DFED56EA 		flds	s29, .L84+88
 7593              	.LBB7475:
 7594              	.LBB7465:
 7595              	.LBB7456:
 7596              	.LBB7445:
 7597              	.LBB7435:
 7598              	.LBB7423:
 7599              	.LBB7412:
 7600              	.LBB7399:
 7601              	.LBB7387:
 7602              	.LBB7373:
 7603              	.LBB7360:
 7604              	.LBB7345:
 7605              	.LBB7331:
 7606              	.LBB7315:
 7607 014c EAEE237A 		vfma.f32	s15, s20, s7
 7608              	.LBE7315:
 7609              	.LBE7331:
 7610              	.LBE7345:
 7611              	.LBE7360:
 7612              	.LBE7373:
 7613              	.LBE7387:
 7614              	.LBE7399:
 7615              	.LBE7412:
 7616              	.LBE7423:
 7617              	.LBE7435:
 7618              	.LBE7445:
 7619              	.LBE7456:
 7620              	.LBE7465:
 7621              	.LBE7475:
 7622              	.LBE7483:
 7623              	.LBE7492:
 7624 0150 92ED19AA 		flds	s20, [r2, #100]
 7625              	.LBB7493:
 7626              	.LBB7484:
 7627              	.LBB7476:
 7628              	.LBB7466:
 7629              	.LBB7457:
 7630              	.LBB7446:
 7631              	.LBB7436:
 7632              	.LBB7424:
 7633              	.LBB7413:
 7634              	.LBB7400:
 7635              	.LBB7388:
 7636              	.LBB7374:
 7637              	.LBB7361:
 7638              	.LBB7346:
ARM GAS  /var/folders/28/j9jfyj_n4wz3qtvnym210h2c0000gn/T//ccYibR7K.s 			page 135


 7639 0154 E9EE287A 		vfma.f32	s15, s18, s17
 7640              	.LBE7346:
 7641              	.LBE7361:
 7642              	.LBE7374:
 7643              	.LBE7388:
 7644              	.LBE7400:
 7645              	.LBE7413:
 7646              	.LBE7424:
 7647              	.LBE7436:
 7648              	.LBE7446:
 7649              	.LBE7457:
 7650              	.LBE7466:
 7651              	.LBE7476:
 7652              	.LBE7484:
 7653              	.LBE7493:
 7654 0158 9FED539A 		flds	s18, .L84+92
 7655              	.LBB7494:
 7656              	.LBB7485:
 7657              	.LBB7477:
 7658              	.LBB7467:
 7659              	.LBB7458:
 7660              	.LBB7447:
 7661              	.LBB7437:
