ARM GAS  /var/folders/28/j9jfyj_n4wz3qtvnym210h2c0000gn/T//ccWMUdUr.s 			page 1


   1              		.syntax unified
   2              		.cpu cortex-m4
   3              		.eabi_attribute 27, 1
   4              		.eabi_attribute 28, 1
   5              		.fpu fpv4-sp-d16
   6              		.eabi_attribute 20, 1
   7              		.eabi_attribute 21, 1
   8              		.eabi_attribute 23, 3
   9              		.eabi_attribute 24, 1
  10              		.eabi_attribute 25, 1
  11              		.eabi_attribute 26, 1
  12              		.eabi_attribute 30, 2
  13              		.eabi_attribute 34, 1
  14              		.eabi_attribute 18, 4
  15              		.thumb
  16              		.file	"i2c_lld.c"
  17              		.text
  18              	.Ltext0:
  19              		.cfi_sections	.debug_frame
  20              		.align	2
  21              		.p2align 4,,15
  22              		.thumb
  23              		.thumb_func
  24              		.type	i2c_lld_abort_operation, %function
  25              	i2c_lld_abort_operation:
  26              	.LFB130:
  27              		.file 1 "/Applications/Axoloti.app/Contents/Java/chibios/os/hal/platforms/STM32/I2Cv1/i2c_lld.c"
  28              		.loc 1 142 0
  29              		.cfi_startproc
  30              		@ args = 0, pretend = 0, frame = 0
  31              		@ frame_needed = 0, uses_anonymous_args = 0
  32              		@ link register save eliminated.
  33              	.LVL0:
  34 0000 30B4     		push	{r4, r5}
  35              		.cfi_def_cfa_offset 8
  36              		.cfi_offset 4, -8
  37              		.cfi_offset 5, -4
  38              		.loc 1 143 0
  39 0002 436B     		ldr	r3, [r0, #52]
  40              	.LVL1:
  41              		.loc 1 152 0
  42 0004 046B     		ldr	r4, [r0, #48]
  43              		.loc 1 146 0
  44 0006 4FF40041 		mov	r1, #32768
  45              		.loc 1 152 0
  46 000a 2268     		ldr	r2, [r4]
  47              		.loc 1 146 0
  48 000c 1980     		strh	r1, [r3]	@ movhi
  49              		.loc 1 147 0
  50 000e 0021     		movs	r1, #0
  51 0010 1980     		strh	r1, [r3]	@ movhi
  52              		.loc 1 148 0
  53 0012 9980     		strh	r1, [r3, #4]	@ movhi
  54              		.loc 1 149 0
  55 0014 9982     		strh	r1, [r3, #20]	@ movhi
  56              		.loc 1 152 0
  57 0016 1368     		ldr	r3, [r2]
ARM GAS  /var/folders/28/j9jfyj_n4wz3qtvnym210h2c0000gn/T//ccWMUdUr.s 			page 2


  58              	.LVL2:
  59 0018 23F01F03 		bic	r3, r3, #31
  60 001c 1360     		str	r3, [r2]
  61              	.L2:
  62              		.loc 1 152 0 is_stmt 0 discriminator 2
  63 001e 1368     		ldr	r3, [r2]
  64 0020 D907     		lsls	r1, r3, #31
  65 0022 FCD4     		bmi	.L2
  66              		.loc 1 153 0 is_stmt 1 discriminator 3
  67 0024 C16A     		ldr	r1, [r0, #44]
  68              		.loc 1 152 0 discriminator 3
  69 0026 257A     		ldrb	r5, [r4, #8]	@ zero_extendqisi2
  70 0028 6068     		ldr	r0, [r4, #4]
  71              	.LVL3:
  72              		.loc 1 153 0 discriminator 3
  73 002a 0A68     		ldr	r2, [r1]
  74              		.loc 1 152 0 discriminator 3
  75 002c 3D23     		movs	r3, #61
  76 002e AB40     		lsls	r3, r3, r5
  77 0030 0360     		str	r3, [r0]
  78              		.loc 1 153 0 discriminator 3
  79 0032 1368     		ldr	r3, [r2]
  80 0034 23F01F03 		bic	r3, r3, #31
  81 0038 1360     		str	r3, [r2]
  82              	.L3:
  83              		.loc 1 153 0 is_stmt 0 discriminator 2
  84 003a 1368     		ldr	r3, [r2]
  85 003c DB07     		lsls	r3, r3, #31
  86 003e FCD4     		bmi	.L3
  87              		.loc 1 153 0 discriminator 3
  88 0040 087A     		ldrb	r0, [r1, #8]	@ zero_extendqisi2
  89 0042 4A68     		ldr	r2, [r1, #4]
  90 0044 3D23     		movs	r3, #61
  91 0046 8340     		lsls	r3, r3, r0
  92 0048 1360     		str	r3, [r2]
  93              		.loc 1 154 0 is_stmt 1 discriminator 3
  94 004a 30BC     		pop	{r4, r5}
  95              		.cfi_restore 5
  96              		.cfi_restore 4
  97              		.cfi_def_cfa_offset 0
  98 004c 7047     		bx	lr
  99              		.cfi_endproc
 100              	.LFE130:
 101              		.size	i2c_lld_abort_operation, .-i2c_lld_abort_operation
 102 004e 00BF     		.align	2
 103              		.p2align 4,,15
 104              		.thumb
 105              		.thumb_func
 106              		.type	i2c_lld_serve_event_interrupt, %function
 107              	i2c_lld_serve_event_interrupt:
 108              	.LFB134:
 109              		.loc 1 293 0
 110              		.cfi_startproc
 111              		@ args = 0, pretend = 0, frame = 0
 112              		@ frame_needed = 0, uses_anonymous_args = 0
 113              	.LVL4:
 114 0050 38B5     		push	{r3, r4, r5, lr}
ARM GAS  /var/folders/28/j9jfyj_n4wz3qtvnym210h2c0000gn/T//ccWMUdUr.s 			page 3


 115              		.cfi_def_cfa_offset 16
 116              		.cfi_offset 3, -16
 117              		.cfi_offset 4, -12
 118              		.cfi_offset 5, -8
 119              		.cfi_offset 14, -4
 120              		.loc 1 294 0
 121 0052 446B     		ldr	r4, [r0, #52]
 122              	.LVL5:
 123              		.loc 1 301 0
 124 0054 444A     		ldr	r2, .L30
 125              		.loc 1 295 0
 126 0056 238B     		ldrh	r3, [r4, #24]
 127              	.LVL6:
 128              		.loc 1 296 0
 129 0058 A58A     		ldrh	r5, [r4, #20]
 130 005a ADB2     		uxth	r5, r5
 131              	.LVL7:
 132              		.loc 1 301 0
 133 005c 45EA0343 		orr	r3, r5, r3, lsl #16
 134              	.LVL8:
 135 0060 23F07F43 		bic	r3, r3, #-16777216
 136 0064 9342     		cmp	r3, r2
 137 0066 64D0     		beq	.L10
 138 0068 1ED8     		bhi	.L11
 139 006a 073A     		subs	r2, r2, #7
 140 006c 9342     		cmp	r3, r2
 141 006e 54D0     		beq	.L12
 142 0070 0132     		adds	r2, r2, #1
 143 0072 9342     		cmp	r3, r2
 144 0074 13D1     		bne	.L9
 145              		.loc 1 315 0
 146 0076 A388     		ldrh	r3, [r4, #4]
 147              		.loc 1 316 0
 148 0078 C26A     		ldr	r2, [r0, #44]
 149              		.loc 1 315 0
 150 007a 23F40073 		bic	r3, r3, #512
 151 007e 1B04     		lsls	r3, r3, #16
 152              		.loc 1 316 0
 153 0080 1268     		ldr	r2, [r2]
 154              		.loc 1 315 0
 155 0082 1B0C     		lsrs	r3, r3, #16
 156 0084 A380     		strh	r3, [r4, #4]	@ movhi
 157              		.loc 1 316 0
 158 0086 1368     		ldr	r3, [r2]
 159 0088 43F00103 		orr	r3, r3, #1
 160 008c 1360     		str	r3, [r2]
 161              		.loc 1 317 0
 162 008e A388     		ldrh	r3, [r4, #4]
 163 0090 9BB2     		uxth	r3, r3
 164 0092 43F48053 		orr	r3, r3, #4096
 165 0096 A380     		strh	r3, [r4, #4]	@ movhi
 166              		.loc 1 318 0
 167 0098 5368     		ldr	r3, [r2, #4]
 168 009a 012B     		cmp	r3, #1
 169 009c 5CD9     		bls	.L28
 170              	.L9:
 171              		.loc 1 341 0
ARM GAS  /var/folders/28/j9jfyj_n4wz3qtvnym210h2c0000gn/T//ccWMUdUr.s 			page 4


 172 009e 15F00A0F 		tst	r5, #10
 173              		.loc 1 342 0
 174 00a2 18BF     		it	ne
 175 00a4 238B     		ldrhne	r3, [r4, #24]
 176 00a6 38BD     		pop	{r3, r4, r5, pc}
 177              	.LVL9:
 178              	.L11:
 179              		.loc 1 301 0
 180 00a8 304A     		ldr	r2, .L30+4
 181 00aa 9342     		cmp	r3, r2
 182 00ac 24D0     		beq	.L14
 183 00ae 0232     		adds	r2, r2, #2
 184 00b0 9342     		cmp	r3, r2
 185 00b2 F4D1     		bne	.L9
 186              		.loc 1 327 0
 187 00b4 C36A     		ldr	r3, [r0, #44]
 188 00b6 1B68     		ldr	r3, [r3]
 189 00b8 5A68     		ldr	r2, [r3, #4]
 190 00ba 002A     		cmp	r2, #0
 191 00bc 42D1     		bne	.L29
 192              		.loc 1 333 0
 193 00be A388     		ldrh	r3, [r4, #4]
 194 00c0 23F40073 		bic	r3, r3, #512
 195 00c4 1B04     		lsls	r3, r3, #16
 196 00c6 1B0C     		lsrs	r3, r3, #16
 197 00c8 A380     		strh	r3, [r4, #4]	@ movhi
 198              		.loc 1 334 0
 199 00ca 2388     		ldrh	r3, [r4]
 200 00cc 9BB2     		uxth	r3, r3
 201 00ce 43F40073 		orr	r3, r3, #512
 202 00d2 2380     		strh	r3, [r4]	@ movhi
 203              	.LBB7:
 204              		.loc 1 335 0
 205 00d4 2023     		movs	r3, #32
 206              	@ 335 "/Applications/Axoloti.app/Contents/Java/chibios/os/hal/platforms/STM32/I2Cv1/i2c_lld.c" 1
 207 00d6 83F31188 		msr     BASEPRI, r3
 208              	@ 0 "" 2
 209              		.thumb
 210              	.LBE7:
 211 00da C369     		ldr	r3, [r0, #28]
 212 00dc 23B1     		cbz	r3, .L19
 213              	.LVL10:
 214              	.LBB8:
 215              		.loc 1 335 0 is_stmt 0 discriminator 1
 216 00de C261     		str	r2, [r0, #28]
 217 00e0 1846     		mov	r0, r3
 218              	.LVL11:
 219 00e2 1A62     		str	r2, [r3, #32]
 220 00e4 FFF7FEFF 		bl	chSchReadyI
 221              	.LVL12:
 222              	.L19:
 223              	.LBE8:
 224              	.LBB9:
 225              		.loc 1 335 0 discriminator 3
 226 00e8 0023     		movs	r3, #0
 227              	@ 335 "/Applications/Axoloti.app/Contents/Java/chibios/os/hal/platforms/STM32/I2Cv1/i2c_lld.c" 1
 228 00ea 83F31188 		msr     BASEPRI, r3
ARM GAS  /var/folders/28/j9jfyj_n4wz3qtvnym210h2c0000gn/T//ccWMUdUr.s 			page 5


 229              	@ 0 "" 2
 230              		.thumb
 231              	.LBE9:
 232              		.loc 1 341 0 is_stmt 1 discriminator 3
 233 00ee 15F00A0F 		tst	r5, #10
 234              		.loc 1 342 0 discriminator 3
 235 00f2 18BF     		it	ne
 236 00f4 238B     		ldrhne	r3, [r4, #24]
 237 00f6 38BD     		pop	{r3, r4, r5, pc}
 238              	.LVL13:
 239              	.L14:
 240              		.loc 1 322 0
 241 00f8 A388     		ldrh	r3, [r4, #4]
 242              		.loc 1 323 0
 243 00fa 026B     		ldr	r2, [r0, #48]
 244              		.loc 1 322 0
 245 00fc 23F40073 		bic	r3, r3, #512
 246 0100 1B04     		lsls	r3, r3, #16
 247              		.loc 1 323 0
 248 0102 1268     		ldr	r2, [r2]
 249              		.loc 1 322 0
 250 0104 1B0C     		lsrs	r3, r3, #16
 251 0106 A380     		strh	r3, [r4, #4]	@ movhi
 252              		.loc 1 323 0
 253 0108 1368     		ldr	r3, [r2]
 254 010a 43F00103 		orr	r3, r3, #1
 255 010e 1360     		str	r3, [r2]
 256              		.loc 1 341 0
 257 0110 15F00A0F 		tst	r5, #10
 258              		.loc 1 342 0
 259 0114 18BF     		it	ne
 260 0116 238B     		ldrhne	r3, [r4, #24]
 261 0118 38BD     		pop	{r3, r4, r5, pc}
 262              	.LVL14:
 263              	.L12:
 264              		.loc 1 303 0
 265 011a 038C     		ldrh	r3, [r0, #32]
 266 011c 1A0A     		lsrs	r2, r3, #8
 267 011e 0BD0     		beq	.L27
 268              		.loc 1 305 0
 269 0120 03F00103 		and	r3, r3, #1
 270 0124 43F0F003 		orr	r3, r3, #240
 271 0128 02F00602 		and	r2, r2, #6
 272 012c 1343     		orrs	r3, r3, r2
 273 012e 2382     		strh	r3, [r4, #16]	@ movhi
 274 0130 B5E7     		b	.L9
 275              	.L10:
 276              		.loc 1 312 0
 277 0132 038C     		ldrh	r3, [r0, #32]
 278 0134 C3F34703 		ubfx	r3, r3, #1, #8
 279              	.L27:
 280 0138 2382     		strh	r3, [r4, #16]	@ movhi
 281              		.loc 1 341 0
 282 013a 15F00A0F 		tst	r5, #10
 283              		.loc 1 342 0
 284 013e 18BF     		it	ne
 285 0140 238B     		ldrhne	r3, [r4, #24]
ARM GAS  /var/folders/28/j9jfyj_n4wz3qtvnym210h2c0000gn/T//ccWMUdUr.s 			page 6


 286 0142 38BD     		pop	{r3, r4, r5, pc}
 287              	.LVL15:
 288              	.L29:
 289              		.loc 1 330 0
 290 0144 2388     		ldrh	r3, [r4]
 291              		.loc 1 329 0
 292 0146 028C     		ldrh	r2, [r0, #32]
 293              		.loc 1 330 0
 294 0148 9BB2     		uxth	r3, r3
 295 014a 43F4A063 		orr	r3, r3, #1280
 296              		.loc 1 329 0
 297 014e 42F00102 		orr	r2, r2, #1
 298 0152 0284     		strh	r2, [r0, #32]	@ movhi
 299              		.loc 1 330 0
 300 0154 2380     		strh	r3, [r4]	@ movhi
 301              		.loc 1 331 0
 302 0156 38BD     		pop	{r3, r4, r5, pc}
 303              	.LVL16:
 304              	.L28:
 305              		.loc 1 319 0
 306 0158 2388     		ldrh	r3, [r4]
 307 015a 23F48063 		bic	r3, r3, #1024
 308 015e 1B04     		lsls	r3, r3, #16
 309 0160 1B0C     		lsrs	r3, r3, #16
 310 0162 2380     		strh	r3, [r4]	@ movhi
 311 0164 9BE7     		b	.L9
 312              	.L31:
 313 0166 00BF     		.align	2
 314              	.L30:
 315 0168 08000300 		.word	196616
 316 016c 82000700 		.word	458882
 317              		.cfi_endproc
 318              	.LFE134:
 319              		.size	i2c_lld_serve_event_interrupt, .-i2c_lld_serve_event_interrupt
 320              		.align	2
 321              		.p2align 4,,15
 322              		.thumb
 323              		.thumb_func
 324              		.type	i2c_lld_serve_error_interrupt, %function
 325              	i2c_lld_serve_error_interrupt:
 326              	.LFB137:
 327              		.loc 1 407 0
 328              		.cfi_startproc
 329              		@ args = 0, pretend = 0, frame = 0
 330              		@ frame_needed = 0, uses_anonymous_args = 0
 331              	.LVL17:
 332 0170 70B5     		push	{r4, r5, r6, lr}
 333              		.cfi_def_cfa_offset 16
 334              		.cfi_offset 4, -16
 335              		.cfi_offset 5, -12
 336              		.cfi_offset 6, -8
 337              		.cfi_offset 14, -4
 338              		.loc 1 410 0
 339 0172 056B     		ldr	r5, [r0, #48]
 340 0174 2A68     		ldr	r2, [r5]
 341 0176 1368     		ldr	r3, [r2]
 342 0178 23F01F03 		bic	r3, r3, #31
ARM GAS  /var/folders/28/j9jfyj_n4wz3qtvnym210h2c0000gn/T//ccWMUdUr.s 			page 7


 343 017c 1360     		str	r3, [r2]
 344              	.L33:
 345              		.loc 1 410 0 is_stmt 0 discriminator 2
 346 017e 1368     		ldr	r3, [r2]
 347 0180 DE07     		lsls	r6, r3, #31
 348 0182 FCD4     		bmi	.L33
 349              		.loc 1 410 0 discriminator 3
 350 0184 2E7A     		ldrb	r6, [r5, #8]	@ zero_extendqisi2
 351              		.loc 1 411 0 is_stmt 1 discriminator 3
 352 0186 C46A     		ldr	r4, [r0, #44]
 353              		.loc 1 410 0 discriminator 3
 354 0188 6D68     		ldr	r5, [r5, #4]
 355              		.loc 1 411 0 discriminator 3
 356 018a 2268     		ldr	r2, [r4]
 357              		.loc 1 410 0 discriminator 3
 358 018c 3D23     		movs	r3, #61
 359 018e B340     		lsls	r3, r3, r6
 360 0190 2B60     		str	r3, [r5]
 361              		.loc 1 411 0 discriminator 3
 362 0192 1368     		ldr	r3, [r2]
 363 0194 23F01F03 		bic	r3, r3, #31
 364 0198 1360     		str	r3, [r2]
 365              	.L34:
 366              		.loc 1 411 0 is_stmt 0 discriminator 2
 367 019a 1368     		ldr	r3, [r2]
 368 019c 13F00103 		ands	r3, r3, #1
 369 01a0 FBD1     		bne	.L34
 370              		.loc 1 411 0 discriminator 3
 371 01a2 257A     		ldrb	r5, [r4, #8]	@ zero_extendqisi2
 372 01a4 6468     		ldr	r4, [r4, #4]
 373 01a6 3D22     		movs	r2, #61
 374 01a8 AA40     		lsls	r2, r2, r5
 375              		.loc 1 415 0 is_stmt 1 discriminator 3
 376 01aa CD05     		lsls	r5, r1, #23
 377              		.loc 1 411 0 discriminator 3
 378 01ac 2260     		str	r2, [r4]
 379              		.loc 1 416 0 discriminator 3
 380 01ae 48BF     		it	mi
 381 01b0 0123     		movmi	r3, #1
 382              		.loc 1 418 0 discriminator 3
 383 01b2 8C05     		lsls	r4, r1, #22
 384              		.loc 1 416 0 discriminator 3
 385 01b4 8360     		str	r3, [r0, #8]
 386              		.loc 1 419 0 discriminator 3
 387 01b6 44BF     		itt	mi
 388 01b8 43F00203 		orrmi	r3, r3, #2
 389 01bc 8360     		strmi	r3, [r0, #8]
 390              		.loc 1 421 0 discriminator 3
 391 01be 4A05     		lsls	r2, r1, #21
 392 01c0 0ED5     		bpl	.L38
 393              		.loc 1 422 0
 394 01c2 446B     		ldr	r4, [r0, #52]
 395 01c4 A288     		ldrh	r2, [r4, #4]
 396 01c6 22F40072 		bic	r2, r2, #512
 397 01ca 1204     		lsls	r2, r2, #16
 398 01cc 120C     		lsrs	r2, r2, #16
 399 01ce A280     		strh	r2, [r4, #4]	@ movhi
ARM GAS  /var/folders/28/j9jfyj_n4wz3qtvnym210h2c0000gn/T//ccWMUdUr.s 			page 8


 400              		.loc 1 423 0
 401 01d0 2288     		ldrh	r2, [r4]
 402 01d2 92B2     		uxth	r2, r2
 403              		.loc 1 424 0
 404 01d4 43F00403 		orr	r3, r3, #4
 405              		.loc 1 423 0
 406 01d8 42F40072 		orr	r2, r2, #512
 407 01dc 2280     		strh	r2, [r4]	@ movhi
 408              		.loc 1 424 0
 409 01de 8360     		str	r3, [r0, #8]
 410              	.L38:
 411              		.loc 1 427 0
 412 01e0 0E05     		lsls	r6, r1, #20
 413              		.loc 1 428 0
 414 01e2 44BF     		itt	mi
 415 01e4 43F00803 		orrmi	r3, r3, #8
 416 01e8 8360     		strmi	r3, [r0, #8]
 417              		.loc 1 430 0
 418 01ea 4D04     		lsls	r5, r1, #17
 419              		.loc 1 431 0
 420 01ec 44BF     		itt	mi
 421 01ee 43F02003 		orrmi	r3, r3, #32
 422 01f2 8360     		strmi	r3, [r0, #8]
 423              		.loc 1 433 0
 424 01f4 CC04     		lsls	r4, r1, #19
 425 01f6 15D5     		bpl	.L41
 426              		.loc 1 434 0
 427 01f8 43F01003 		orr	r3, r3, #16
 428              		.loc 1 436 0
 429 01fc 0904     		lsls	r1, r1, #16
 430              	.LVL18:
 431              		.loc 1 434 0
 432 01fe 8360     		str	r3, [r0, #8]
 433              		.loc 1 436 0
 434 0200 15D4     		bmi	.L42
 435              	.L43:
 436              	.LBB10:
 437              		.loc 1 441 0
 438 0202 2023     		movs	r3, #32
 439              	@ 441 "/Applications/Axoloti.app/Contents/Java/chibios/os/hal/platforms/STM32/I2Cv1/i2c_lld.c" 1
 440 0204 83F31188 		msr     BASEPRI, r3
 441              	@ 0 "" 2
 442              		.thumb
 443              	.LBE10:
 444 0208 C369     		ldr	r3, [r0, #28]
 445 020a 3BB1     		cbz	r3, .L46
 446              	.L70:
 447              	.LVL19:
 448              	.LBB11:
 449              		.loc 1 441 0 is_stmt 0 discriminator 1
 450 020c 0021     		movs	r1, #0
 451 020e 6FF00102 		mvn	r2, #1
 452 0212 C161     		str	r1, [r0, #28]
 453 0214 1846     		mov	r0, r3
 454              	.LVL20:
 455 0216 1A62     		str	r2, [r3, #32]
 456 0218 FFF7FEFF 		bl	chSchReadyI
ARM GAS  /var/folders/28/j9jfyj_n4wz3qtvnym210h2c0000gn/T//ccWMUdUr.s 			page 9


 457              	.LVL21:
 458              	.L46:
 459              	.LBE11:
 460              	.LBB12:
 461              		.loc 1 441 0 discriminator 3
 462 021c 0023     		movs	r3, #0
 463              	@ 441 "/Applications/Axoloti.app/Contents/Java/chibios/os/hal/platforms/STM32/I2Cv1/i2c_lld.c" 1
 464 021e 83F31188 		msr     BASEPRI, r3
 465              	@ 0 "" 2
 466              		.thumb
 467 0222 70BD     		pop	{r4, r5, r6, pc}
 468              	.LVL22:
 469              	.L41:
 470              	.LBE12:
 471              		.loc 1 436 0 is_stmt 1
 472 0224 0A04     		lsls	r2, r1, #16
 473 0226 02D4     		bmi	.L42
 474              		.loc 1 440 0
 475 0228 002B     		cmp	r3, #0
 476 022a EAD1     		bne	.L43
 477 022c 70BD     		pop	{r4, r5, r6, pc}
 478              	.LVL23:
 479              	.L42:
 480              		.loc 1 437 0
 481 022e 43F04003 		orr	r3, r3, #64
 482 0232 8360     		str	r3, [r0, #8]
 483              	.LBB13:
 484              		.loc 1 441 0
 485 0234 2023     		movs	r3, #32
 486              	@ 441 "/Applications/Axoloti.app/Contents/Java/chibios/os/hal/platforms/STM32/I2Cv1/i2c_lld.c" 1
 487 0236 83F31188 		msr     BASEPRI, r3
 488              	@ 0 "" 2
 489              		.thumb
 490              	.LBE13:
 491 023a C369     		ldr	r3, [r0, #28]
 492 023c 002B     		cmp	r3, #0
 493 023e E5D1     		bne	.L70
 494 0240 ECE7     		b	.L46
 495              		.cfi_endproc
 496              	.LFE137:
 497              		.size	i2c_lld_serve_error_interrupt, .-i2c_lld_serve_error_interrupt
 498 0242 00BF     		.align	2
 499 0244 AFF30080 		.p2align 4,,15
 499      AFF30080 
 499      AFF30080 
 500              		.thumb
 501              		.thumb_func
 502              		.type	i2c_lld_safety_timeout, %function
 503              	i2c_lld_safety_timeout:
 504              	.LFB131:
 505              		.loc 1 163 0
 506              		.cfi_startproc
 507              		@ args = 0, pretend = 0, frame = 0
 508              		@ frame_needed = 0, uses_anonymous_args = 0
 509              	.LVL24:
 510 0250 38B5     		push	{r3, r4, r5, lr}
 511              		.cfi_def_cfa_offset 16
ARM GAS  /var/folders/28/j9jfyj_n4wz3qtvnym210h2c0000gn/T//ccWMUdUr.s 			page 10


 512              		.cfi_offset 3, -16
 513              		.cfi_offset 4, -12
 514              		.cfi_offset 5, -8
 515              		.cfi_offset 14, -4
 516              	.LBB14:
 517              		.loc 1 166 0
 518 0252 2023     		movs	r3, #32
 519              	@ 166 "/Applications/Axoloti.app/Contents/Java/chibios/os/hal/platforms/STM32/I2Cv1/i2c_lld.c" 1
 520 0254 83F31188 		msr     BASEPRI, r3
 521              	@ 0 "" 2
 522              		.thumb
 523              	.LBE14:
 524              		.loc 1 167 0
 525 0258 C569     		ldr	r5, [r0, #28]
 526 025a 55B1     		cbz	r5, .L72
 527 025c 0446     		mov	r4, r0
 528              	.LVL25:
 529              	.LBB15:
 530              		.loc 1 169 0
 531 025e FFF7CFFE 		bl	i2c_lld_abort_operation
 532              	.LVL26:
 533              		.loc 1 170 0
 534 0262 0022     		movs	r2, #0
 535              		.loc 1 171 0
 536 0264 4FF0FF33 		mov	r3, #-1
 537              		.loc 1 170 0
 538 0268 E261     		str	r2, [r4, #28]
 539              		.loc 1 172 0
 540 026a 2846     		mov	r0, r5
 541              		.loc 1 171 0
 542 026c 2B62     		str	r3, [r5, #32]
 543              		.loc 1 172 0
 544 026e FFF7FEFF 		bl	chSchReadyI
 545              	.LVL27:
 546              	.L72:
 547              	.LBE15:
 548              	.LBB16:
 549              		.loc 1 174 0
 550 0272 0023     		movs	r3, #0
 551              	@ 174 "/Applications/Axoloti.app/Contents/Java/chibios/os/hal/platforms/STM32/I2Cv1/i2c_lld.c" 1
 552 0274 83F31188 		msr     BASEPRI, r3
 553              	@ 0 "" 2
 554              		.thumb
 555 0278 38BD     		pop	{r3, r4, r5, pc}
 556              	.LBE16:
 557              		.cfi_endproc
 558              	.LFE131:
 559              		.size	i2c_lld_safety_timeout, .-i2c_lld_safety_timeout
 560 027a 00BF     		.align	2
 561 027c AFF30080 		.p2align 4,,15
 562              		.thumb
 563              		.thumb_func
 564              		.type	i2c_lld_serve_tx_end_irq, %function
 565              	i2c_lld_serve_tx_end_irq:
 566              	.LFB136:
 567              		.loc 1 380 0
 568              		.cfi_startproc
ARM GAS  /var/folders/28/j9jfyj_n4wz3qtvnym210h2c0000gn/T//ccWMUdUr.s 			page 11


 569              		@ args = 0, pretend = 0, frame = 0
 570              		@ frame_needed = 0, uses_anonymous_args = 0
 571              	.LVL28:
 572              		.loc 1 385 0
 573 0280 11F00C0F 		tst	r1, #12
 574              		.loc 1 380 0
 575 0284 38B5     		push	{r3, r4, r5, lr}
 576              		.cfi_def_cfa_offset 16
 577              		.cfi_offset 3, -16
 578              		.cfi_offset 4, -12
 579              		.cfi_offset 5, -8
 580              		.cfi_offset 14, -4
 581              		.loc 1 380 0
 582 0286 0546     		mov	r5, r0
 583              		.loc 1 381 0
 584 0288 446B     		ldr	r4, [r0, #52]
 585              	.LVL29:
 586              		.loc 1 385 0
 587 028a 13D1     		bne	.L85
 588              	.LVL30:
 589              	.L78:
 590              		.loc 1 392 0
 591 028c 296B     		ldr	r1, [r5, #48]
 592 028e 0A68     		ldr	r2, [r1]
 593 0290 1368     		ldr	r3, [r2]
 594 0292 23F01F03 		bic	r3, r3, #31
 595 0296 1360     		str	r3, [r2]
 596              	.L79:
 597              		.loc 1 392 0 is_stmt 0 discriminator 2
 598 0298 1368     		ldr	r3, [r2]
 599 029a DB07     		lsls	r3, r3, #31
 600 029c FCD4     		bmi	.L79
 601              		.loc 1 392 0 discriminator 3
 602 029e 087A     		ldrb	r0, [r1, #8]	@ zero_extendqisi2
 603 02a0 4A68     		ldr	r2, [r1, #4]
 604 02a2 3D23     		movs	r3, #61
 605 02a4 8340     		lsls	r3, r3, r0
 606 02a6 1360     		str	r3, [r2]
 607              		.loc 1 396 0 is_stmt 1 discriminator 3
 608 02a8 A388     		ldrh	r3, [r4, #4]
 609 02aa 9BB2     		uxth	r3, r3
 610 02ac 43F40073 		orr	r3, r3, #512
 611 02b0 A380     		strh	r3, [r4, #4]	@ movhi
 612 02b2 38BD     		pop	{r3, r4, r5, pc}
 613              	.LVL31:
 614              	.L85:
 615              		.loc 1 386 0
 616 02b4 FFF7FEFF 		bl	port_halt
 617              	.LVL32:
 618 02b8 E8E7     		b	.L78
 619              		.cfi_endproc
 620              	.LFE136:
 621              		.size	i2c_lld_serve_tx_end_irq, .-i2c_lld_serve_tx_end_irq
 622 02ba 00BF     		.align	2
 623 02bc AFF30080 		.p2align 4,,15
 624              		.thumb
 625              		.thumb_func
ARM GAS  /var/folders/28/j9jfyj_n4wz3qtvnym210h2c0000gn/T//ccWMUdUr.s 			page 12


 626              		.type	i2c_lld_serve_rx_end_irq, %function
 627              	i2c_lld_serve_rx_end_irq:
 628              	.LFB135:
 629              		.loc 1 353 0
 630              		.cfi_startproc
 631              		@ args = 0, pretend = 0, frame = 0
 632              		@ frame_needed = 0, uses_anonymous_args = 0
 633              	.LVL33:
 634              		.loc 1 358 0
 635 02c0 11F00C0F 		tst	r1, #12
 636              		.loc 1 353 0
 637 02c4 70B5     		push	{r4, r5, r6, lr}
 638              		.cfi_def_cfa_offset 16
 639              		.cfi_offset 4, -16
 640              		.cfi_offset 5, -12
 641              		.cfi_offset 6, -8
 642              		.cfi_offset 14, -4
 643              		.loc 1 353 0
 644 02c6 0546     		mov	r5, r0
 645              		.loc 1 354 0
 646 02c8 446B     		ldr	r4, [r0, #52]
 647              	.LVL34:
 648              		.loc 1 358 0
 649 02ca 2DD1     		bne	.L98
 650              	.LVL35:
 651              	.L87:
 652              		.loc 1 365 0
 653 02cc E86A     		ldr	r0, [r5, #44]
 654 02ce 0168     		ldr	r1, [r0]
 655 02d0 0B68     		ldr	r3, [r1]
 656 02d2 23F01F03 		bic	r3, r3, #31
 657 02d6 0B60     		str	r3, [r1]
 658              	.L88:
 659              		.loc 1 365 0 is_stmt 0 discriminator 2
 660 02d8 0B68     		ldr	r3, [r1]
 661 02da 13F00102 		ands	r2, r3, #1
 662 02de FBD1     		bne	.L88
 663              		.loc 1 365 0 discriminator 3
 664 02e0 067A     		ldrb	r6, [r0, #8]	@ zero_extendqisi2
 665 02e2 4168     		ldr	r1, [r0, #4]
 666 02e4 3D23     		movs	r3, #61
 667 02e6 B340     		lsls	r3, r3, r6
 668 02e8 0B60     		str	r3, [r1]
 669              		.loc 1 367 0 is_stmt 1 discriminator 3
 670 02ea A388     		ldrh	r3, [r4, #4]
 671 02ec 23F48053 		bic	r3, r3, #4096
 672 02f0 1B04     		lsls	r3, r3, #16
 673 02f2 1B0C     		lsrs	r3, r3, #16
 674 02f4 A380     		strh	r3, [r4, #4]	@ movhi
 675              		.loc 1 368 0 discriminator 3
 676 02f6 2388     		ldrh	r3, [r4]
 677 02f8 23F48063 		bic	r3, r3, #1024
 678 02fc 1B04     		lsls	r3, r3, #16
 679 02fe 1B0C     		lsrs	r3, r3, #16
 680 0300 2380     		strh	r3, [r4]	@ movhi
 681              		.loc 1 369 0 discriminator 3
 682 0302 2388     		ldrh	r3, [r4]
ARM GAS  /var/folders/28/j9jfyj_n4wz3qtvnym210h2c0000gn/T//ccWMUdUr.s 			page 13


 683 0304 9BB2     		uxth	r3, r3
 684 0306 43F40073 		orr	r3, r3, #512
 685 030a 2380     		strh	r3, [r4]	@ movhi
 686              	.LBB17:
 687              		.loc 1 370 0 discriminator 3
 688 030c 2023     		movs	r3, #32
 689              	@ 370 "/Applications/Axoloti.app/Contents/Java/chibios/os/hal/platforms/STM32/I2Cv1/i2c_lld.c" 1
 690 030e 83F31188 		msr     BASEPRI, r3
 691              	@ 0 "" 2
 692              		.thumb
 693              	.LBE17:
 694 0312 EB69     		ldr	r3, [r5, #28]
 695 0314 23B1     		cbz	r3, .L89
 696              	.LVL36:
 697              	.LBB18:
 698              		.loc 1 370 0 is_stmt 0 discriminator 1
 699 0316 EA61     		str	r2, [r5, #28]
 700 0318 1846     		mov	r0, r3
 701 031a 1A62     		str	r2, [r3, #32]
 702 031c FFF7FEFF 		bl	chSchReadyI
 703              	.LVL37:
 704              	.L89:
 705              	.LBE18:
 706              	.LBB19:
 707              		.loc 1 370 0 discriminator 3
 708 0320 0023     		movs	r3, #0
 709              	@ 370 "/Applications/Axoloti.app/Contents/Java/chibios/os/hal/platforms/STM32/I2Cv1/i2c_lld.c" 1
 710 0322 83F31188 		msr     BASEPRI, r3
 711              	@ 0 "" 2
 712              		.thumb
 713 0326 70BD     		pop	{r4, r5, r6, pc}
 714              	.LVL38:
 715              	.L98:
 716              	.LBE19:
 717              		.loc 1 359 0 is_stmt 1
 718 0328 FFF7FEFF 		bl	port_halt
 719              	.LVL39:
 720 032c CEE7     		b	.L87
 721              		.cfi_endproc
 722              	.LFE135:
 723              		.size	i2c_lld_serve_rx_end_irq, .-i2c_lld_serve_rx_end_irq
 724 032e 00BF     		.align	2
 725              		.p2align 4,,15
 726              		.global	VectorBC
 727              		.thumb
 728              		.thumb_func
 729              		.type	VectorBC, %function
 730              	VectorBC:
 731              	.LFB138:
 732              		.loc 1 454 0
 733              		.cfi_startproc
 734              		@ args = 0, pretend = 0, frame = 0
 735              		@ frame_needed = 0, uses_anonymous_args = 0
 736 0330 08B5     		push	{r3, lr}
 737              		.cfi_def_cfa_offset 8
 738              		.cfi_offset 3, -8
 739              		.cfi_offset 14, -4
ARM GAS  /var/folders/28/j9jfyj_n4wz3qtvnym210h2c0000gn/T//ccWMUdUr.s 			page 14


 740              		.loc 1 458 0
 741 0332 0348     		ldr	r0, .L101
 742 0334 FFF78CFE 		bl	i2c_lld_serve_event_interrupt
 743              	.LVL40:
 744              		.loc 1 461 0
 745 0338 BDE80840 		pop	{r3, lr}
 746              		.cfi_restore 14
 747              		.cfi_restore 3
 748              		.cfi_def_cfa_offset 0
 749              		.loc 1 460 0
 750 033c FFF7FEBF 		b	_port_irq_epilogue
 751              	.LVL41:
 752              	.L102:
 753              		.align	2
 754              	.L101:
 755 0340 00000000 		.word	I2CD1
 756              		.cfi_endproc
 757              	.LFE138:
 758              		.size	VectorBC, .-VectorBC
 759              		.align	2
 760 0344 AFF30080 		.p2align 4,,15
 760      AFF30080 
 760      AFF30080 
 761              		.global	VectorC0
 762              		.thumb
 763              		.thumb_func
 764              		.type	VectorC0, %function
 765              	VectorC0:
 766              	.LFB139:
 767              		.loc 1 466 0
 768              		.cfi_startproc
 769              		@ args = 0, pretend = 0, frame = 0
 770              		@ frame_needed = 0, uses_anonymous_args = 0
 771              		.loc 1 467 0
 772 0350 0848     		ldr	r0, .L105
 773 0352 426B     		ldr	r2, [r0, #52]
 774 0354 918A     		ldrh	r1, [r2, #20]
 775              		.loc 1 466 0
 776 0356 08B5     		push	{r3, lr}
 777              		.cfi_def_cfa_offset 8
 778              		.cfi_offset 3, -8
 779              		.cfi_offset 14, -4
 780              		.loc 1 467 0
 781 0358 89B2     		uxth	r1, r1
 782              	.LVL42:
 783              		.loc 1 471 0
 784 035a 01F45F43 		and	r3, r1, #57088
 785 035e 83F47F43 		eor	r3, r3, #65280
 786 0362 83F0FF03 		eor	r3, r3, #255
 787 0366 9382     		strh	r3, [r2, #20]	@ movhi
 788              		.loc 1 472 0
 789 0368 FFF702FF 		bl	i2c_lld_serve_error_interrupt
 790              	.LVL43:
 791              		.loc 1 475 0
 792 036c BDE80840 		pop	{r3, lr}
 793              		.cfi_restore 14
 794              		.cfi_restore 3
ARM GAS  /var/folders/28/j9jfyj_n4wz3qtvnym210h2c0000gn/T//ccWMUdUr.s 			page 15


 795              		.cfi_def_cfa_offset 0
 796              		.loc 1 474 0
 797 0370 FFF7FEBF 		b	_port_irq_epilogue
 798              	.LVL44:
 799              	.L106:
 800              		.align	2
 801              	.L105:
 802 0374 00000000 		.word	I2CD1
 803              		.cfi_endproc
 804              	.LFE139:
 805              		.size	VectorC0, .-VectorC0
 806              		.align	2
 807 0378 AFF30080 		.p2align 4,,15
 807      AFF30080 
 808              		.global	VectorC4
 809              		.thumb
 810              		.thumb_func
 811              		.type	VectorC4, %function
 812              	VectorC4:
 813              	.LFB140:
 814              		.loc 1 484 0
 815              		.cfi_startproc
 816              		@ args = 0, pretend = 0, frame = 0
 817              		@ frame_needed = 0, uses_anonymous_args = 0
 818 0380 08B5     		push	{r3, lr}
 819              		.cfi_def_cfa_offset 8
 820              		.cfi_offset 3, -8
 821              		.cfi_offset 14, -4
 822              		.loc 1 488 0
 823 0382 0348     		ldr	r0, .L109
 824 0384 FFF764FE 		bl	i2c_lld_serve_event_interrupt
 825              	.LVL45:
 826              		.loc 1 491 0
 827 0388 BDE80840 		pop	{r3, lr}
 828              		.cfi_restore 14
 829              		.cfi_restore 3
 830              		.cfi_def_cfa_offset 0
 831              		.loc 1 490 0
 832 038c FFF7FEBF 		b	_port_irq_epilogue
 833              	.LVL46:
 834              	.L110:
 835              		.align	2
 836              	.L109:
 837 0390 00000000 		.word	I2CD2
 838              		.cfi_endproc
 839              	.LFE140:
 840              		.size	VectorC4, .-VectorC4
 841              		.align	2
 842 0394 AFF30080 		.p2align 4,,15
 842      AFF30080 
 842      AFF30080 
 843              		.global	VectorC8
 844              		.thumb
 845              		.thumb_func
 846              		.type	VectorC8, %function
 847              	VectorC8:
 848              	.LFB141:
ARM GAS  /var/folders/28/j9jfyj_n4wz3qtvnym210h2c0000gn/T//ccWMUdUr.s 			page 16


 849              		.loc 1 498 0
 850              		.cfi_startproc
 851              		@ args = 0, pretend = 0, frame = 0
 852              		@ frame_needed = 0, uses_anonymous_args = 0
 853              		.loc 1 499 0
 854 03a0 0848     		ldr	r0, .L113
 855 03a2 426B     		ldr	r2, [r0, #52]
 856 03a4 918A     		ldrh	r1, [r2, #20]
 857              		.loc 1 498 0
 858 03a6 08B5     		push	{r3, lr}
 859              		.cfi_def_cfa_offset 8
 860              		.cfi_offset 3, -8
 861              		.cfi_offset 14, -4
 862              		.loc 1 499 0
 863 03a8 89B2     		uxth	r1, r1
 864              	.LVL47:
 865              		.loc 1 503 0
 866 03aa 01F45F43 		and	r3, r1, #57088
 867 03ae 83F47F43 		eor	r3, r3, #65280
 868 03b2 83F0FF03 		eor	r3, r3, #255
 869 03b6 9382     		strh	r3, [r2, #20]	@ movhi
 870              		.loc 1 504 0
 871 03b8 FFF7DAFE 		bl	i2c_lld_serve_error_interrupt
 872              	.LVL48:
 873              		.loc 1 507 0
 874 03bc BDE80840 		pop	{r3, lr}
 875              		.cfi_restore 14
 876              		.cfi_restore 3
 877              		.cfi_def_cfa_offset 0
 878              		.loc 1 506 0
 879 03c0 FFF7FEBF 		b	_port_irq_epilogue
 880              	.LVL49:
 881              	.L114:
 882              		.align	2
 883              	.L113:
 884 03c4 00000000 		.word	I2CD2
 885              		.cfi_endproc
 886              	.LFE141:
 887              		.size	VectorC8, .-VectorC8
 888              		.align	2
 889 03c8 AFF30080 		.p2align 4,,15
 889      AFF30080 
 890              		.global	Vector160
 891              		.thumb
 892              		.thumb_func
 893              		.type	Vector160, %function
 894              	Vector160:
 895              	.LFB142:
 896              		.loc 1 516 0
 897              		.cfi_startproc
 898              		@ args = 0, pretend = 0, frame = 0
 899              		@ frame_needed = 0, uses_anonymous_args = 0
 900 03d0 08B5     		push	{r3, lr}
 901              		.cfi_def_cfa_offset 8
 902              		.cfi_offset 3, -8
 903              		.cfi_offset 14, -4
 904              		.loc 1 520 0
ARM GAS  /var/folders/28/j9jfyj_n4wz3qtvnym210h2c0000gn/T//ccWMUdUr.s 			page 17


 905 03d2 0348     		ldr	r0, .L117
 906 03d4 FFF73CFE 		bl	i2c_lld_serve_event_interrupt
 907              	.LVL50:
 908              		.loc 1 523 0
 909 03d8 BDE80840 		pop	{r3, lr}
 910              		.cfi_restore 14
 911              		.cfi_restore 3
 912              		.cfi_def_cfa_offset 0
 913              		.loc 1 522 0
 914 03dc FFF7FEBF 		b	_port_irq_epilogue
 915              	.LVL51:
 916              	.L118:
 917              		.align	2
 918              	.L117:
 919 03e0 00000000 		.word	I2CD3
 920              		.cfi_endproc
 921              	.LFE142:
 922              		.size	Vector160, .-Vector160
 923              		.align	2
 924 03e4 AFF30080 		.p2align 4,,15
 924      AFF30080 
 924      AFF30080 
 925              		.global	Vector164
 926              		.thumb
 927              		.thumb_func
 928              		.type	Vector164, %function
 929              	Vector164:
 930              	.LFB143:
 931              		.loc 1 530 0
 932              		.cfi_startproc
 933              		@ args = 0, pretend = 0, frame = 0
 934              		@ frame_needed = 0, uses_anonymous_args = 0
 935              		.loc 1 531 0
 936 03f0 0848     		ldr	r0, .L121
 937 03f2 426B     		ldr	r2, [r0, #52]
 938 03f4 918A     		ldrh	r1, [r2, #20]
 939              		.loc 1 530 0
 940 03f6 08B5     		push	{r3, lr}
 941              		.cfi_def_cfa_offset 8
 942              		.cfi_offset 3, -8
 943              		.cfi_offset 14, -4
 944              		.loc 1 531 0
 945 03f8 89B2     		uxth	r1, r1
 946              	.LVL52:
 947              		.loc 1 535 0
 948 03fa 01F45F43 		and	r3, r1, #57088
 949 03fe 83F47F43 		eor	r3, r3, #65280
 950 0402 83F0FF03 		eor	r3, r3, #255
 951 0406 9382     		strh	r3, [r2, #20]	@ movhi
 952              		.loc 1 536 0
 953 0408 FFF7B2FE 		bl	i2c_lld_serve_error_interrupt
 954              	.LVL53:
 955              		.loc 1 539 0
 956 040c BDE80840 		pop	{r3, lr}
 957              		.cfi_restore 14
 958              		.cfi_restore 3
 959              		.cfi_def_cfa_offset 0
ARM GAS  /var/folders/28/j9jfyj_n4wz3qtvnym210h2c0000gn/T//ccWMUdUr.s 			page 18


 960              		.loc 1 538 0
 961 0410 FFF7FEBF 		b	_port_irq_epilogue
 962              	.LVL54:
 963              	.L122:
 964              		.align	2
 965              	.L121:
 966 0414 00000000 		.word	I2CD3
 967              		.cfi_endproc
 968              	.LFE143:
 969              		.size	Vector164, .-Vector164
 970              		.align	2
 971 0418 AFF30080 		.p2align 4,,15
 971      AFF30080 
 972              		.global	i2c_lld_init
 973              		.thumb
 974              		.thumb_func
 975              		.type	i2c_lld_init, %function
 976              	i2c_lld_init:
 977              	.LFB144:
 978              		.loc 1 551 0
 979              		.cfi_startproc
 980              		@ args = 0, pretend = 0, frame = 0
 981              		@ frame_needed = 0, uses_anonymous_args = 0
 982 0420 2DE9F041 		push	{r4, r5, r6, r7, r8, lr}
 983              		.cfi_def_cfa_offset 24
 984              		.cfi_offset 4, -24
 985              		.cfi_offset 5, -20
 986              		.cfi_offset 6, -16
 987              		.cfi_offset 7, -12
 988              		.cfi_offset 8, -8
 989              		.cfi_offset 14, -4
 990              		.loc 1 554 0
 991 0424 144F     		ldr	r7, .L125
 992              		.loc 1 557 0
 993 0426 154C     		ldr	r4, .L125+4
 994              		.loc 1 562 0
 995 0428 154E     		ldr	r6, .L125+8
 996              		.loc 1 570 0
 997 042a 164D     		ldr	r5, .L125+12
 998              		.loc 1 554 0
 999 042c 3846     		mov	r0, r7
 1000 042e FFF7FEFF 		bl	i2cObjectInit
 1001              	.LVL55:
 1002              		.loc 1 556 0
 1003 0432 154B     		ldr	r3, .L125+16
 1004 0434 7B63     		str	r3, [r7, #52]
 1005              		.loc 1 555 0
 1006 0436 4FF00008 		mov	r8, #0
 1007              		.loc 1 558 0
 1008 043a 04F10C03 		add	r3, r4, #12
 1009              		.loc 1 562 0
 1010 043e 3046     		mov	r0, r6
 1011              		.loc 1 557 0
 1012 0440 FC62     		str	r4, [r7, #44]
 1013              		.loc 1 558 0
 1014 0442 3B63     		str	r3, [r7, #48]
 1015              		.loc 1 555 0
ARM GAS  /var/folders/28/j9jfyj_n4wz3qtvnym210h2c0000gn/T//ccWMUdUr.s 			page 19


 1016 0444 C7F81C80 		str	r8, [r7, #28]
 1017              		.loc 1 562 0
 1018 0448 FFF7FEFF 		bl	i2cObjectInit
 1019              	.LVL56:
 1020              		.loc 1 565 0
 1021 044c A4F12407 		sub	r7, r4, #36
 1022              		.loc 1 566 0
 1023 0450 04F11803 		add	r3, r4, #24
 1024              		.loc 1 564 0
 1025 0454 0D4A     		ldr	r2, .L125+20
 1026              		.loc 1 566 0
 1027 0456 3363     		str	r3, [r6, #48]
 1028              		.loc 1 570 0
 1029 0458 2846     		mov	r0, r5
 1030              		.loc 1 563 0
 1031 045a C6F81C80 		str	r8, [r6, #28]
 1032              		.loc 1 564 0
 1033 045e 7263     		str	r2, [r6, #52]
 1034              		.loc 1 565 0
 1035 0460 F762     		str	r7, [r6, #44]
 1036              		.loc 1 574 0
 1037 0462 0C3C     		subs	r4, r4, #12
 1038              		.loc 1 570 0
 1039 0464 FFF7FEFF 		bl	i2cObjectInit
 1040              	.LVL57:
 1041              		.loc 1 572 0
 1042 0468 094B     		ldr	r3, .L125+24
 1043              		.loc 1 573 0
 1044 046a EF62     		str	r7, [r5, #44]
 1045              		.loc 1 574 0
 1046 046c 2C63     		str	r4, [r5, #48]
 1047              		.loc 1 571 0
 1048 046e C5F81C80 		str	r8, [r5, #28]
 1049              		.loc 1 572 0
 1050 0472 6B63     		str	r3, [r5, #52]
 1051 0474 BDE8F081 		pop	{r4, r5, r6, r7, r8, pc}
 1052              	.L126:
 1053              		.align	2
 1054              	.L125:
 1055 0478 00000000 		.word	I2CD1
 1056 047c 3C000000 		.word	_stm32_dma_streams+60
 1057 0480 00000000 		.word	I2CD2
 1058 0484 00000000 		.word	I2CD3
 1059 0488 00540040 		.word	1073763328
 1060 048c 00580040 		.word	1073764352
 1061 0490 005C0040 		.word	1073765376
 1062              		.cfi_endproc
 1063              	.LFE144:
 1064              		.size	i2c_lld_init, .-i2c_lld_init
 1065              		.align	2
 1066 0494 AFF30080 		.p2align 4,,15
 1066      AFF30080 
 1066      AFF30080 
 1067              		.global	i2c_lld_start
 1068              		.thumb
 1069              		.thumb_func
 1070              		.type	i2c_lld_start, %function
ARM GAS  /var/folders/28/j9jfyj_n4wz3qtvnym210h2c0000gn/T//ccWMUdUr.s 			page 20


 1071              	i2c_lld_start:
 1072              	.LFB145:
 1073              		.loc 1 585 0
 1074              		.cfi_startproc
 1075              		@ args = 0, pretend = 0, frame = 0
 1076              		@ frame_needed = 0, uses_anonymous_args = 0
 1077              	.LVL58:
 1078 04a0 2DE9F843 		push	{r3, r4, r5, r6, r7, r8, r9, lr}
 1079              		.cfi_def_cfa_offset 32
 1080              		.cfi_offset 3, -32
 1081              		.cfi_offset 4, -28
 1082              		.cfi_offset 5, -24
 1083              		.cfi_offset 6, -20
 1084              		.cfi_offset 7, -16
 1085              		.cfi_offset 8, -12
 1086              		.cfi_offset 9, -8
 1087              		.cfi_offset 14, -4
 1088              		.loc 1 598 0
 1089 04a4 0378     		ldrb	r3, [r0]	@ zero_extendqisi2
 1090              		.loc 1 586 0
 1091 04a6 456B     		ldr	r5, [r0, #52]
 1092              	.LVL59:
 1093              		.loc 1 588 0
 1094 04a8 40F25642 		movw	r2, #1110
 1095 04ac 8262     		str	r2, [r0, #40]
 1096              		.loc 1 598 0
 1097 04ae 012B     		cmp	r3, #1
 1098              		.loc 1 592 0
 1099 04b0 40F21642 		movw	r2, #1046
 1100              		.loc 1 585 0
 1101 04b4 0446     		mov	r4, r0
 1102              		.loc 1 592 0
 1103 04b6 4262     		str	r2, [r0, #36]
 1104              		.loc 1 598 0
 1105 04b8 44D0     		beq	.L144
 1106              	.L140:
 1107              		.loc 1 586 0
 1108 04ba 2B46     		mov	r3, r5
 1109              	.LVL60:
 1110              	.L128:
 1111              		.loc 1 686 0
 1112 04bc E16A     		ldr	r1, [r4, #44]
 1113              		.loc 1 687 0
 1114 04be 226B     		ldr	r2, [r4, #48]
 1115 04c0 6068     		ldr	r0, [r4, #4]
 1116              	.LVL61:
 1117              		.loc 1 686 0
 1118 04c2 D1F80090 		ldr	r9, [r1]
 1119              		.loc 1 687 0
 1120 04c6 D2F80080 		ldr	r8, [r2]
 1121              	.LBB27:
 1122              	.LBB28:
 1123              		.loc 1 187 0
 1124 04ca 4468     		ldr	r4, [r0, #4]
 1125              	.LVL62:
 1126              		.loc 1 188 0
 1127 04cc 077A     		ldrb	r7, [r0, #8]	@ zero_extendqisi2
ARM GAS  /var/folders/28/j9jfyj_n4wz3qtvnym210h2c0000gn/T//ccWMUdUr.s 			page 21


 1128              	.LVL63:
 1129              		.loc 1 201 0
 1130 04ce 7E4E     		ldr	r6, .L151
 1131              	.LBE28:
 1132              	.LBE27:
 1133              		.loc 1 686 0
 1134 04d0 05F11002 		add	r2, r5, #16
 1135              		.loc 1 690 0
 1136 04d4 4FF4004C 		mov	ip, #32768
 1137              		.loc 1 691 0
 1138 04d8 0021     		movs	r1, #0
 1139              		.loc 1 692 0
 1140 04da 4FF4106E 		mov	lr, #2304
 1141              		.loc 1 686 0
 1142 04de C9F80820 		str	r2, [r9, #8]
 1143              		.loc 1 687 0
 1144 04e2 C8F80820 		str	r2, [r8, #8]
 1145              		.loc 1 690 0
 1146 04e6 A5F800C0 		strh	ip, [r5]	@ movhi
 1147              		.loc 1 691 0
 1148 04ea 2980     		strh	r1, [r5]	@ movhi
 1149              		.loc 1 692 0
 1150 04ec A5F804E0 		strh	lr, [r5, #4]	@ movhi
 1151              	.LBB32:
 1152              	.LBB29:
 1153              		.loc 1 194 0
 1154 04f0 9A88     		ldrh	r2, [r3, #4]
 1155 04f2 22F03F02 		bic	r2, r2, #63
 1156 04f6 1204     		lsls	r2, r2, #16
 1157 04f8 120C     		lsrs	r2, r2, #16
 1158 04fa 9A80     		strh	r2, [r3, #4]	@ movhi
 1159              		.loc 1 195 0
 1160 04fc 9A88     		ldrh	r2, [r3, #4]
 1161 04fe 92B2     		uxth	r2, r2
 1162 0500 42F02A02 		orr	r2, r2, #42
 1163              		.loc 1 201 0
 1164 0504 B442     		cmp	r4, r6
 1165              		.loc 1 195 0
 1166 0506 9A80     		strh	r2, [r3, #4]	@ movhi
 1167              	.LVL64:
 1168              		.loc 1 201 0
 1169 0508 57DD     		ble	.L145
 1170              		.loc 1 221 0
 1171 050a 704A     		ldr	r2, .L151+4
 1172 050c 9442     		cmp	r4, r2
 1173 050e 07DC     		bgt	.L132
 1174              		.loc 1 227 0
 1175 0510 022F     		cmp	r7, #2
 1176 0512 71D0     		beq	.L146
 1177              		.loc 1 234 0
 1178 0514 032F     		cmp	r7, #3
 1179 0516 62D0     		beq	.L147
 1180 0518 48F6FF71 		movw	r1, #36863
 1181              	.LVL65:
 1182              	.L134:
 1183              		.loc 1 249 0
 1184 051c 0D22     		movs	r2, #13
ARM GAS  /var/folders/28/j9jfyj_n4wz3qtvnym210h2c0000gn/T//ccWMUdUr.s 			page 22


 1185 051e 1A84     		strh	r2, [r3, #32]	@ movhi
 1186              	.LVL66:
 1187              	.L132:
 1188              		.loc 1 255 0
 1189 0520 9983     		strh	r1, [r3, #28]	@ movhi
 1190              	.LVL67:
 1191              	.LBE29:
 1192              	.LBE32:
 1193              	.LBB33:
 1194              	.LBB34:
 1195              		.loc 1 271 0
 1196 0522 0178     		ldrb	r1, [r0]	@ zero_extendqisi2
 1197              	.LVL68:
 1198              		.loc 1 270 0
 1199 0524 1A88     		ldrh	r2, [r3]
 1200              		.loc 1 271 0
 1201 0526 0229     		cmp	r1, #2
 1202              		.loc 1 270 0
 1203 0528 92B2     		uxth	r2, r2
 1204              	.LVL69:
 1205              		.loc 1 271 0
 1206 052a 52D0     		beq	.L136
 1207 052c 0329     		cmp	r1, #3
 1208 052e 4DD0     		beq	.L137
 1209 0530 0129     		cmp	r1, #1
 1210 0532 3ED0     		beq	.L148
 1211              	.L135:
 1212              		.loc 1 283 0
 1213 0534 1A80     		strh	r2, [r3]	@ movhi
 1214              	.LVL70:
 1215              	.LBE34:
 1216              	.LBE33:
 1217              		.loc 1 699 0
 1218 0536 2B88     		ldrh	r3, [r5]
 1219              	.LVL71:
 1220 0538 9BB2     		uxth	r3, r3
 1221 053a 43F00103 		orr	r3, r3, #1
 1222 053e 2B80     		strh	r3, [r5]	@ movhi
 1223 0540 BDE8F883 		pop	{r3, r4, r5, r6, r7, r8, r9, pc}
 1224              	.LVL72:
 1225              	.L144:
 1226              		.loc 1 601 0
 1227 0544 624B     		ldr	r3, .L151+8
 1228 0546 9842     		cmp	r0, r3
 1229 0548 64D0     		beq	.L149
 1230              		.loc 1 629 0
 1231 054a 624B     		ldr	r3, .L151+12
 1232 054c 9842     		cmp	r0, r3
 1233 054e 00F08E80 		beq	.L150
 1234              		.loc 1 657 0
 1235 0552 614B     		ldr	r3, .L151+16
 1236 0554 9842     		cmp	r0, r3
 1237 0556 B0D1     		bne	.L140
 1238              	.LBB37:
 1239              		.loc 1 660 0
 1240 0558 604E     		ldr	r6, .L151+20
 1241              		.loc 1 661 0
ARM GAS  /var/folders/28/j9jfyj_n4wz3qtvnym210h2c0000gn/T//ccWMUdUr.s 			page 23


 1242 055a C06A     		ldr	r0, [r0, #44]
 1243              	.LVL73:
 1244              		.loc 1 660 0
 1245 055c 336A     		ldr	r3, [r6, #32]
 1246              		.loc 1 661 0
 1247 055e 604A     		ldr	r2, .L151+24
 1248              		.loc 1 660 0
 1249 0560 43F40003 		orr	r3, r3, #8388608
 1250 0564 0027     		movs	r7, #0
 1251 0566 3362     		str	r3, [r6, #32]
 1252              		.loc 1 661 0
 1253 0568 0521     		movs	r1, #5
 1254 056a 2346     		mov	r3, r4
 1255              		.loc 1 660 0
 1256 056c 3762     		str	r7, [r6, #32]
 1257              		.loc 1 661 0
 1258 056e FFF7FEFF 		bl	dmaStreamAllocate
 1259              	.LVL74:
 1260              		.loc 1 666 0
 1261 0572 5C4A     		ldr	r2, .L151+28
 1262 0574 206B     		ldr	r0, [r4, #48]
 1263 0576 0521     		movs	r1, #5
 1264 0578 2346     		mov	r3, r4
 1265 057a FFF7FEFF 		bl	dmaStreamAllocate
 1266              	.LVL75:
 1267              		.loc 1 671 0
 1268 057e 336C     		ldr	r3, [r6, #64]
 1269 0580 43F40003 		orr	r3, r3, #8388608
 1270 0584 3364     		str	r3, [r6, #64]
 1271              		.loc 1 672 0
 1272 0586 4820     		movs	r0, #72
 1273 0588 5021     		movs	r1, #80
 1274 058a FFF7FEFF 		bl	nvicEnableVector
 1275              	.LVL76:
 1276              		.loc 1 674 0
 1277 058e 5021     		movs	r1, #80
 1278 0590 4920     		movs	r0, #73
 1279 0592 FFF7FEFF 		bl	nvicEnableVector
 1280              	.LVL77:
 1281              		.loc 1 677 0
 1282 0596 616A     		ldr	r1, [r4, #36]
 1283              		.loc 1 679 0
 1284 0598 A26A     		ldr	r2, [r4, #40]
 1285 059a 636B     		ldr	r3, [r4, #52]
 1286              		.loc 1 677 0
 1287 059c 41F0C061 		orr	r1, r1, #100663296
 1288              		.loc 1 679 0
 1289 05a0 42F0C062 		orr	r2, r2, #100663296
 1290              		.loc 1 677 0
 1291 05a4 41F44031 		orr	r1, r1, #196608
 1292              		.loc 1 679 0
 1293 05a8 42F44032 		orr	r2, r2, #196608
 1294              		.loc 1 677 0
 1295 05ac 6162     		str	r1, [r4, #36]
 1296              		.loc 1 679 0
 1297 05ae A262     		str	r2, [r4, #40]
 1298 05b0 84E7     		b	.L128
ARM GAS  /var/folders/28/j9jfyj_n4wz3qtvnym210h2c0000gn/T//ccWMUdUr.s 			page 24


 1299              	.LVL78:
 1300              	.L148:
 1301              	.LBE37:
 1302              	.LBB38:
 1303              	.LBB35:
 1304              		.loc 1 273 0
 1305 05b2 22F00A02 		bic	r2, r2, #10
 1306              	.LVL79:
 1307 05b6 92B2     		uxth	r2, r2
 1308              	.LVL80:
 1309 05b8 BCE7     		b	.L135
 1310              	.LVL81:
 1311              	.L145:
 1312              	.LBE35:
 1313              	.LBE38:
 1314              	.LBB39:
 1315              	.LBB30:
 1316              		.loc 1 219 0
 1317 05ba 2B26     		movs	r6, #43
 1318              		.loc 1 211 0
 1319 05bc 6100     		lsls	r1, r4, #1
 1320 05be 4A4A     		ldr	r2, .L151+32
 1321              		.loc 1 219 0
 1322 05c0 1E84     		strh	r6, [r3, #32]	@ movhi
 1323              		.loc 1 211 0
 1324 05c2 92FBF1F1 		sdiv	r1, r2, r1
 1325              		.loc 1 216 0
 1326 05c6 C1F30B01 		ubfx	r1, r1, #0, #12
 1327              	.LVL82:
 1328 05ca A9E7     		b	.L132
 1329              	.LVL83:
 1330              	.L137:
 1331              	.LBE30:
 1332              	.LBE39:
 1333              	.LBB40:
 1334              	.LBB36:
 1335              		.loc 1 280 0
 1336 05cc 42F00A02 		orr	r2, r2, #10
 1337              	.LVL84:
 1338 05d0 B0E7     		b	.L135
 1339              	.L136:
 1340              	.LVL85:
 1341              		.loc 1 277 0
 1342 05d2 22F00802 		bic	r2, r2, #8
 1343              	.LVL86:
 1344 05d6 92B2     		uxth	r2, r2
 1345 05d8 42F00202 		orr	r2, r2, #2
 1346              	.LVL87:
 1347 05dc AAE7     		b	.L135
 1348              	.LVL88:
 1349              	.L147:
 1350              	.LBE36:
 1351              	.LBE40:
 1352              	.LBB41:
 1353              	.LBB31:
 1354              		.loc 1 239 0
 1355 05de 04EB8401 		add	r1, r4, r4, lsl #2
ARM GAS  /var/folders/28/j9jfyj_n4wz3qtvnym210h2c0000gn/T//ccWMUdUr.s 			page 25


 1356 05e2 01EB8101 		add	r1, r1, r1, lsl #2
 1357 05e6 404A     		ldr	r2, .L151+32
 1358 05e8 92FBF1F1 		sdiv	r1, r2, r1
 1359 05ec 6FEA8141 		mvn	r1, r1, lsl #18
 1360 05f0 6FEA9141 		mvn	r1, r1, lsr #18
 1361 05f4 89B2     		uxth	r1, r1
 1362 05f6 91E7     		b	.L134
 1363              	.LVL89:
 1364              	.L146:
 1365              		.loc 1 232 0
 1366 05f8 02F11E72 		add	r2, r2, #41418752
 1367 05fc 04EB4401 		add	r1, r4, r4, lsl #1
 1368 0600 02F53132 		add	r2, r2, #181248
 1369 0604 92FBF1F1 		sdiv	r1, r2, r1
 1370 0608 6FEA4141 		mvn	r1, r1, lsl #17
 1371 060c 6FEA5141 		mvn	r1, r1, lsr #17
 1372 0610 89B2     		uxth	r1, r1
 1373 0612 83E7     		b	.L134
 1374              	.LVL90:
 1375              	.L149:
 1376              	.LBE31:
 1377              	.LBE41:
 1378              	.LBB42:
 1379              		.loc 1 604 0
 1380 0614 314E     		ldr	r6, .L151+20
 1381              		.loc 1 605 0
 1382 0616 C06A     		ldr	r0, [r0, #44]
 1383              	.LVL91:
 1384              		.loc 1 604 0
 1385 0618 336A     		ldr	r3, [r6, #32]
 1386              		.loc 1 605 0
 1387 061a 314A     		ldr	r2, .L151+24
 1388              		.loc 1 604 0
 1389 061c 43F40013 		orr	r3, r3, #2097152
 1390 0620 0027     		movs	r7, #0
 1391 0622 3362     		str	r3, [r6, #32]
 1392              		.loc 1 605 0
 1393 0624 0521     		movs	r1, #5
 1394 0626 2346     		mov	r3, r4
 1395              		.loc 1 604 0
 1396 0628 3762     		str	r7, [r6, #32]
 1397              		.loc 1 605 0
 1398 062a FFF7FEFF 		bl	dmaStreamAllocate
 1399              	.LVL92:
 1400              		.loc 1 610 0
 1401 062e 2D4A     		ldr	r2, .L151+28
 1402 0630 206B     		ldr	r0, [r4, #48]
 1403 0632 0521     		movs	r1, #5
 1404 0634 2346     		mov	r3, r4
 1405 0636 FFF7FEFF 		bl	dmaStreamAllocate
 1406              	.LVL93:
 1407              		.loc 1 615 0
 1408 063a 336C     		ldr	r3, [r6, #64]
 1409 063c 43F40013 		orr	r3, r3, #2097152
 1410 0640 3364     		str	r3, [r6, #64]
 1411              		.loc 1 616 0
 1412 0642 1F20     		movs	r0, #31
ARM GAS  /var/folders/28/j9jfyj_n4wz3qtvnym210h2c0000gn/T//ccWMUdUr.s 			page 26


 1413 0644 5021     		movs	r1, #80
 1414 0646 FFF7FEFF 		bl	nvicEnableVector
 1415              	.LVL94:
 1416              		.loc 1 618 0
 1417 064a 5021     		movs	r1, #80
 1418 064c 2020     		movs	r0, #32
 1419 064e FFF7FEFF 		bl	nvicEnableVector
 1420              	.LVL95:
 1421              		.loc 1 621 0
 1422 0652 616A     		ldr	r1, [r4, #36]
 1423              		.loc 1 623 0
 1424 0654 A26A     		ldr	r2, [r4, #40]
 1425 0656 636B     		ldr	r3, [r4, #52]
 1426              		.loc 1 621 0
 1427 0658 41F00071 		orr	r1, r1, #33554432
 1428              		.loc 1 623 0
 1429 065c 42F00072 		orr	r2, r2, #33554432
 1430              		.loc 1 621 0
 1431 0660 41F44031 		orr	r1, r1, #196608
 1432              		.loc 1 623 0
 1433 0664 42F44032 		orr	r2, r2, #196608
 1434              		.loc 1 621 0
 1435 0668 6162     		str	r1, [r4, #36]
 1436              		.loc 1 623 0
 1437 066a A262     		str	r2, [r4, #40]
 1438 066c 26E7     		b	.L128
 1439              	.LVL96:
 1440              	.L150:
 1441              	.LBE42:
 1442              	.LBB43:
 1443              		.loc 1 632 0
 1444 066e 1B4E     		ldr	r6, .L151+20
 1445              		.loc 1 633 0
 1446 0670 C06A     		ldr	r0, [r0, #44]
 1447              	.LVL97:
 1448              		.loc 1 632 0
 1449 0672 336A     		ldr	r3, [r6, #32]
 1450              		.loc 1 633 0
 1451 0674 1A4A     		ldr	r2, .L151+24
 1452              		.loc 1 632 0
 1453 0676 43F48003 		orr	r3, r3, #4194304
 1454 067a 0027     		movs	r7, #0
 1455 067c 3362     		str	r3, [r6, #32]
 1456              		.loc 1 633 0
 1457 067e 0521     		movs	r1, #5
 1458 0680 2346     		mov	r3, r4
 1459              		.loc 1 632 0
 1460 0682 3762     		str	r7, [r6, #32]
 1461              		.loc 1 633 0
 1462 0684 FFF7FEFF 		bl	dmaStreamAllocate
 1463              	.LVL98:
 1464              		.loc 1 638 0
 1465 0688 164A     		ldr	r2, .L151+28
 1466 068a 206B     		ldr	r0, [r4, #48]
 1467 068c 0521     		movs	r1, #5
 1468 068e 2346     		mov	r3, r4
 1469 0690 FFF7FEFF 		bl	dmaStreamAllocate
ARM GAS  /var/folders/28/j9jfyj_n4wz3qtvnym210h2c0000gn/T//ccWMUdUr.s 			page 27


 1470              	.LVL99:
 1471              		.loc 1 643 0
 1472 0694 336C     		ldr	r3, [r6, #64]
 1473 0696 43F48003 		orr	r3, r3, #4194304
 1474 069a 3364     		str	r3, [r6, #64]
 1475              		.loc 1 644 0
 1476 069c 2120     		movs	r0, #33
 1477 069e 5021     		movs	r1, #80
 1478 06a0 FFF7FEFF 		bl	nvicEnableVector
 1479              	.LVL100:
 1480              		.loc 1 646 0
 1481 06a4 5021     		movs	r1, #80
 1482 06a6 2220     		movs	r0, #34
 1483 06a8 FFF7FEFF 		bl	nvicEnableVector
 1484              	.LVL101:
 1485              		.loc 1 649 0
 1486 06ac 616A     		ldr	r1, [r4, #36]
 1487              		.loc 1 651 0
 1488 06ae A26A     		ldr	r2, [r4, #40]
 1489 06b0 636B     		ldr	r3, [r4, #52]
 1490              		.loc 1 649 0
 1491 06b2 41F06061 		orr	r1, r1, #234881024
 1492              		.loc 1 651 0
 1493 06b6 42F06062 		orr	r2, r2, #234881024
 1494              		.loc 1 649 0
 1495 06ba 41F44031 		orr	r1, r1, #196608
 1496              		.loc 1 651 0
 1497 06be 42F44032 		orr	r2, r2, #196608
 1498              		.loc 1 649 0
 1499 06c2 6162     		str	r1, [r4, #36]
 1500              		.loc 1 651 0
 1501 06c4 A262     		str	r2, [r4, #40]
 1502 06c6 F9E6     		b	.L128
 1503              	.L152:
 1504              		.align	2
 1505              	.L151:
 1506 06c8 A0860100 		.word	100000
 1507 06cc 801A0600 		.word	400000
 1508 06d0 00000000 		.word	I2CD1
 1509 06d4 00000000 		.word	I2CD2
 1510 06d8 00000000 		.word	I2CD3
 1511 06dc 00380240 		.word	1073887232
 1512 06e0 00000000 		.word	i2c_lld_serve_rx_end_irq
 1513 06e4 00000000 		.word	i2c_lld_serve_tx_end_irq
 1514 06e8 80DE8002 		.word	42000000
 1515              	.LBE43:
 1516              		.cfi_endproc
 1517              	.LFE145:
 1518              		.size	i2c_lld_start, .-i2c_lld_start
 1519              		.align	2
 1520 06ec AFF30080 		.p2align 4,,15
 1521              		.global	i2c_lld_stop
 1522              		.thumb
 1523              		.thumb_func
 1524              		.type	i2c_lld_stop, %function
 1525              	i2c_lld_stop:
 1526              	.LFB146:
ARM GAS  /var/folders/28/j9jfyj_n4wz3qtvnym210h2c0000gn/T//ccWMUdUr.s 			page 28


 1527              		.loc 1 709 0
 1528              		.cfi_startproc
 1529              		@ args = 0, pretend = 0, frame = 0
 1530              		@ frame_needed = 0, uses_anonymous_args = 0
 1531              	.LVL102:
 1532              		.loc 1 712 0
 1533 06f0 0378     		ldrb	r3, [r0]	@ zero_extendqisi2
 1534 06f2 012B     		cmp	r3, #1
 1535              		.loc 1 709 0
 1536 06f4 10B5     		push	{r4, lr}
 1537              		.cfi_def_cfa_offset 8
 1538              		.cfi_offset 4, -8
 1539              		.cfi_offset 14, -4
 1540              		.loc 1 709 0
 1541 06f6 0446     		mov	r4, r0
 1542              		.loc 1 712 0
 1543 06f8 10D0     		beq	.L153
 1544              		.loc 1 715 0
 1545 06fa FFF781FC 		bl	i2c_lld_abort_operation
 1546              	.LVL103:
 1547              		.loc 1 716 0
 1548 06fe 206B     		ldr	r0, [r4, #48]
 1549 0700 FFF7FEFF 		bl	dmaStreamRelease
 1550              	.LVL104:
 1551              		.loc 1 717 0
 1552 0704 E06A     		ldr	r0, [r4, #44]
 1553 0706 FFF7FEFF 		bl	dmaStreamRelease
 1554              	.LVL105:
 1555              		.loc 1 720 0
 1556 070a 174B     		ldr	r3, .L163
 1557 070c 9C42     		cmp	r4, r3
 1558 070e 12D0     		beq	.L160
 1559              		.loc 1 728 0
 1560 0710 164B     		ldr	r3, .L163+4
 1561 0712 9C42     		cmp	r4, r3
 1562 0714 1BD0     		beq	.L161
 1563              		.loc 1 736 0
 1564 0716 164B     		ldr	r3, .L163+8
 1565 0718 9C42     		cmp	r4, r3
 1566 071a 00D0     		beq	.L162
 1567              	.L153:
 1568 071c 10BD     		pop	{r4, pc}
 1569              	.LVL106:
 1570              	.L162:
 1571              		.loc 1 737 0
 1572 071e 4820     		movs	r0, #72
 1573 0720 FFF7FEFF 		bl	nvicDisableVector
 1574              	.LVL107:
 1575              		.loc 1 738 0
 1576 0724 4920     		movs	r0, #73
 1577 0726 FFF7FEFF 		bl	nvicDisableVector
 1578              	.LVL108:
 1579              		.loc 1 739 0
 1580 072a 124A     		ldr	r2, .L163+12
 1581 072c 136C     		ldr	r3, [r2, #64]
 1582 072e 23F40003 		bic	r3, r3, #8388608
 1583 0732 1364     		str	r3, [r2, #64]
ARM GAS  /var/folders/28/j9jfyj_n4wz3qtvnym210h2c0000gn/T//ccWMUdUr.s 			page 29


 1584 0734 F2E7     		b	.L153
 1585              	.L160:
 1586              		.loc 1 721 0
 1587 0736 1F20     		movs	r0, #31
 1588 0738 FFF7FEFF 		bl	nvicDisableVector
 1589              	.LVL109:
 1590              		.loc 1 722 0
 1591 073c 2020     		movs	r0, #32
 1592 073e FFF7FEFF 		bl	nvicDisableVector
 1593              	.LVL110:
 1594              		.loc 1 723 0
 1595 0742 0C4A     		ldr	r2, .L163+12
 1596 0744 136C     		ldr	r3, [r2, #64]
 1597 0746 23F40013 		bic	r3, r3, #2097152
 1598 074a 1364     		str	r3, [r2, #64]
 1599 074c 10BD     		pop	{r4, pc}
 1600              	.LVL111:
 1601              	.L161:
 1602              		.loc 1 729 0
 1603 074e 2120     		movs	r0, #33
 1604 0750 FFF7FEFF 		bl	nvicDisableVector
 1605              	.LVL112:
 1606              		.loc 1 730 0
 1607 0754 2220     		movs	r0, #34
 1608 0756 FFF7FEFF 		bl	nvicDisableVector
 1609              	.LVL113:
 1610              		.loc 1 731 0
 1611 075a 064A     		ldr	r2, .L163+12
 1612 075c 136C     		ldr	r3, [r2, #64]
 1613 075e 23F48003 		bic	r3, r3, #4194304
 1614 0762 1364     		str	r3, [r2, #64]
 1615 0764 10BD     		pop	{r4, pc}
 1616              	.LVL114:
 1617              	.L164:
 1618 0766 00BF     		.align	2
 1619              	.L163:
 1620 0768 00000000 		.word	I2CD1
 1621 076c 00000000 		.word	I2CD2
 1622 0770 00000000 		.word	I2CD3
 1623 0774 00380240 		.word	1073887232
 1624              		.cfi_endproc
 1625              	.LFE146:
 1626              		.size	i2c_lld_stop, .-i2c_lld_stop
 1627              		.align	2
 1628 0778 AFF30080 		.p2align 4,,15
 1628      AFF30080 
 1629              		.global	i2c_lld_master_receive_timeout
 1630              		.thumb
 1631              		.thumb_func
 1632              		.type	i2c_lld_master_receive_timeout, %function
 1633              	i2c_lld_master_receive_timeout:
 1634              	.LFB147:
 1635              		.loc 1 770 0
 1636              		.cfi_startproc
 1637              		@ args = 4, pretend = 0, frame = 24
 1638              		@ frame_needed = 0, uses_anonymous_args = 0
 1639              	.LVL115:
ARM GAS  /var/folders/28/j9jfyj_n4wz3qtvnym210h2c0000gn/T//ccWMUdUr.s 			page 30


 1640 0780 2DE9F043 		push	{r4, r5, r6, r7, r8, r9, lr}
 1641              		.cfi_def_cfa_offset 28
 1642              		.cfi_offset 4, -28
 1643              		.cfi_offset 5, -24
 1644              		.cfi_offset 6, -20
 1645              		.cfi_offset 7, -16
 1646              		.cfi_offset 8, -12
 1647              		.cfi_offset 9, -8
 1648              		.cfi_offset 14, -4
 1649 0784 87B0     		sub	sp, sp, #28
 1650              		.cfi_def_cfa_offset 56
 1651              		.loc 1 770 0
 1652 0786 0646     		mov	r6, r0
 1653 0788 0E9D     		ldr	r5, [sp, #56]
 1654              		.loc 1 771 0
 1655 078a 446B     		ldr	r4, [r0, #52]
 1656              	.LVL116:
 1657              		.loc 1 779 0
 1658 078c 681C     		adds	r0, r5, #1
 1659              	.LVL117:
 1660              		.loc 1 770 0
 1661 078e 0F46     		mov	r7, r1
 1662 0790 9146     		mov	r9, r2
 1663 0792 9846     		mov	r8, r3
 1664              		.loc 1 779 0
 1665 0794 05D0     		beq	.L166
 1666              		.loc 1 780 0
 1667 0796 01A8     		add	r0, sp, #4
 1668 0798 2946     		mov	r1, r5
 1669              	.LVL118:
 1670 079a 2F4A     		ldr	r2, .L189
 1671              	.LVL119:
 1672 079c 3346     		mov	r3, r6
 1673              	.LVL120:
 1674 079e FFF7FEFF 		bl	chVTSetI
 1675              	.LVL121:
 1676              	.L166:
 1677              	.LBB44:
 1678              		.loc 1 783 0
 1679 07a2 0023     		movs	r3, #0
 1680              	@ 783 "/Applications/Axoloti.app/Contents/Java/chibios/os/hal/platforms/STM32/I2Cv1/i2c_lld.c" 1
 1681 07a4 83F31188 		msr     BASEPRI, r3
 1682              	@ 0 "" 2
 1683              		.thumb
 1684              	.LBE44:
 1685              		.loc 1 790 0
 1686 07a8 F16A     		ldr	r1, [r6, #44]
 1687 07aa 726A     		ldr	r2, [r6, #36]
 1688 07ac 0968     		ldr	r1, [r1]
 1689              		.loc 1 787 0
 1690 07ae B360     		str	r3, [r6, #8]
 1691              		.loc 1 786 0
 1692 07b0 7F00     		lsls	r7, r7, #1
 1693 07b2 47F00107 		orr	r7, r7, #1
 1694 07b6 3784     		strh	r7, [r6, #32]	@ movhi
 1695              		.loc 1 790 0
 1696 07b8 0A60     		str	r2, [r1]
ARM GAS  /var/folders/28/j9jfyj_n4wz3qtvnym210h2c0000gn/T//ccWMUdUr.s 			page 31


 1697              		.loc 1 791 0
 1698 07ba C1F80C90 		str	r9, [r1, #12]
 1699              		.loc 1 792 0
 1700 07be C1F80480 		str	r8, [r1, #4]
 1701              		.loc 1 796 0
 1702 07c2 02E0     		b	.L167
 1703              	.L168:
 1704              	.LBB45:
 1705              		.loc 1 800 0
 1706 07c4 0023     		movs	r3, #0
 1707              	@ 800 "/Applications/Axoloti.app/Contents/Java/chibios/os/hal/platforms/STM32/I2Cv1/i2c_lld.c" 1
 1708 07c6 83F31188 		msr     BASEPRI, r3
 1709              	@ 0 "" 2
 1710              		.thumb
 1711              	.L167:
 1712              	.LBE45:
 1713              		.loc 1 796 0
 1714 07ca 238B     		ldrh	r3, [r4, #24]
 1715 07cc 13F0020F 		tst	r3, #2
 1716              	.LBB46:
 1717              		.loc 1 797 0
 1718 07d0 4FF02003 		mov	r3, #32
 1719              	.LBE46:
 1720              		.loc 1 796 0
 1721 07d4 02D1     		bne	.L170
 1722              		.loc 1 796 0 is_stmt 0 discriminator 1
 1723 07d6 2288     		ldrh	r2, [r4]
 1724 07d8 9205     		lsls	r2, r2, #22
 1725 07da 0BD5     		bpl	.L188
 1726              	.L170:
 1727              	.LBB47:
 1728              		.loc 1 797 0 is_stmt 1
 1729              	@ 797 "/Applications/Axoloti.app/Contents/Java/chibios/os/hal/platforms/STM32/I2Cv1/i2c_lld.c" 1
 1730 07dc 83F31188 		msr     BASEPRI, r3
 1731              	@ 0 "" 2
 1732              		.thumb
 1733              	.LBE47:
 1734              		.loc 1 798 0
 1735 07e0 691C     		adds	r1, r5, #1
 1736 07e2 EFD0     		beq	.L168
 1737              		.loc 1 798 0 is_stmt 0 discriminator 1
 1738 07e4 049B     		ldr	r3, [sp, #16]
 1739 07e6 002B     		cmp	r3, #0
 1740 07e8 ECD1     		bne	.L168
 1741              	.L172:
 1742              		.loc 1 799 0 is_stmt 1
 1743 07ea 4FF0FF30 		mov	r0, #-1
 1744              		.loc 1 822 0
 1745 07ee 07B0     		add	sp, sp, #28
 1746              		.cfi_remember_state
 1747              		.cfi_def_cfa_offset 28
 1748              		@ sp needed
 1749 07f0 BDE8F083 		pop	{r4, r5, r6, r7, r8, r9, pc}
 1750              	.LVL122:
 1751              	.L188:
 1752              		.cfi_restore_state
 1753              	.LBB48:
ARM GAS  /var/folders/28/j9jfyj_n4wz3qtvnym210h2c0000gn/T//ccWMUdUr.s 			page 32


 1754              		.loc 1 804 0
 1755              	@ 804 "/Applications/Axoloti.app/Contents/Java/chibios/os/hal/platforms/STM32/I2Cv1/i2c_lld.c" 1
 1756 07f4 83F31188 		msr     BASEPRI, r3
 1757              	@ 0 "" 2
 1758              		.thumb
 1759              	.LBE48:
 1760              		.loc 1 808 0
 1761 07f8 0135     		adds	r5, r5, #1
 1762 07fa 1CD0     		beq	.L171
 1763              		.loc 1 808 0 is_stmt 0 discriminator 1
 1764 07fc 049B     		ldr	r3, [sp, #16]
 1765 07fe 002B     		cmp	r3, #0
 1766 0800 F3D0     		beq	.L172
 1767              		.loc 1 812 0 is_stmt 1
 1768 0802 A388     		ldrh	r3, [r4, #4]
 1769              		.loc 1 816 0
 1770 0804 154D     		ldr	r5, .L189+4
 1771              		.loc 1 812 0
 1772 0806 9BB2     		uxth	r3, r3
 1773 0808 43F40073 		orr	r3, r3, #512
 1774 080c A380     		strh	r3, [r4, #4]	@ movhi
 1775              		.loc 1 813 0
 1776 080e 2388     		ldrh	r3, [r4]
 1777              		.loc 1 816 0
 1778 0810 AA69     		ldr	r2, [r5, #24]
 1779              		.loc 1 813 0
 1780 0812 9BB2     		uxth	r3, r3
 1781 0814 43F4A063 		orr	r3, r3, #1280
 1782 0818 2380     		strh	r3, [r4]	@ movhi
 1783              		.loc 1 817 0
 1784 081a 0220     		movs	r0, #2
 1785              		.loc 1 816 0
 1786 081c F261     		str	r2, [r6, #28]
 1787              		.loc 1 817 0
 1788 081e FFF7FEFF 		bl	chSchGoSleepS
 1789              	.LVL123:
 1790              		.loc 1 818 0
 1791 0822 049B     		ldr	r3, [sp, #16]
 1792 0824 13B1     		cbz	r3, .L174
 1793              		.loc 1 819 0
 1794 0826 01A8     		add	r0, sp, #4
 1795 0828 FFF7FEFF 		bl	chVTResetI
 1796              	.LVL124:
 1797              	.L174:
 1798              		.loc 1 821 0
 1799 082c AB69     		ldr	r3, [r5, #24]
 1800 082e 186A     		ldr	r0, [r3, #32]
 1801              		.loc 1 822 0
 1802 0830 07B0     		add	sp, sp, #28
 1803              		.cfi_remember_state
 1804              		.cfi_def_cfa_offset 28
 1805              		@ sp needed
 1806 0832 BDE8F083 		pop	{r4, r5, r6, r7, r8, r9, pc}
 1807              	.LVL125:
 1808              	.L171:
 1809              		.cfi_restore_state
 1810              		.loc 1 812 0
ARM GAS  /var/folders/28/j9jfyj_n4wz3qtvnym210h2c0000gn/T//ccWMUdUr.s 			page 33


 1811 0836 A388     		ldrh	r3, [r4, #4]
 1812              		.loc 1 816 0
 1813 0838 084D     		ldr	r5, .L189+4
 1814              		.loc 1 812 0
 1815 083a 9BB2     		uxth	r3, r3
 1816 083c 43F40073 		orr	r3, r3, #512
 1817 0840 A380     		strh	r3, [r4, #4]	@ movhi
 1818              		.loc 1 813 0
 1819 0842 2388     		ldrh	r3, [r4]
 1820              		.loc 1 816 0
 1821 0844 AA69     		ldr	r2, [r5, #24]
 1822              		.loc 1 813 0
 1823 0846 9BB2     		uxth	r3, r3
 1824 0848 43F4A063 		orr	r3, r3, #1280
 1825 084c 2380     		strh	r3, [r4]	@ movhi
 1826              		.loc 1 817 0
 1827 084e 0220     		movs	r0, #2
 1828              		.loc 1 816 0
 1829 0850 F261     		str	r2, [r6, #28]
 1830              		.loc 1 817 0
 1831 0852 FFF7FEFF 		bl	chSchGoSleepS
 1832              	.LVL126:
 1833 0856 E9E7     		b	.L174
 1834              	.L190:
 1835              		.align	2
 1836              	.L189:
 1837 0858 00000000 		.word	i2c_lld_safety_timeout
 1838 085c 00000000 		.word	rlist
 1839              		.cfi_endproc
 1840              	.LFE147:
 1841              		.size	i2c_lld_master_receive_timeout, .-i2c_lld_master_receive_timeout
 1842              		.align	2
 1843              		.p2align 4,,15
 1844              		.global	i2c_lld_master_transmit_timeout
 1845              		.thumb
 1846              		.thumb_func
 1847              		.type	i2c_lld_master_transmit_timeout, %function
 1848              	i2c_lld_master_transmit_timeout:
 1849              	.LFB148:
 1850              		.loc 1 852 0
 1851              		.cfi_startproc
 1852              		@ args = 12, pretend = 0, frame = 24
 1853              		@ frame_needed = 0, uses_anonymous_args = 0
 1854              	.LVL127:
 1855 0860 2DE9F043 		push	{r4, r5, r6, r7, r8, r9, lr}
 1856              		.cfi_def_cfa_offset 28
 1857              		.cfi_offset 4, -28
 1858              		.cfi_offset 5, -24
 1859              		.cfi_offset 6, -20
 1860              		.cfi_offset 7, -16
 1861              		.cfi_offset 8, -12
 1862              		.cfi_offset 9, -8
 1863              		.cfi_offset 14, -4
 1864 0864 87B0     		sub	sp, sp, #28
 1865              		.cfi_def_cfa_offset 56
 1866              		.loc 1 852 0
 1867 0866 8046     		mov	r8, r0
ARM GAS  /var/folders/28/j9jfyj_n4wz3qtvnym210h2c0000gn/T//ccWMUdUr.s 			page 34


 1868 0868 109D     		ldr	r5, [sp, #64]
 1869              		.loc 1 853 0
 1870 086a 446B     		ldr	r4, [r0, #52]
 1871              	.LVL128:
 1872              		.loc 1 862 0
 1873 086c 681C     		adds	r0, r5, #1
 1874              	.LVL129:
 1875              		.loc 1 852 0
 1876 086e 8946     		mov	r9, r1
 1877 0870 1746     		mov	r7, r2
 1878 0872 1E46     		mov	r6, r3
 1879              		.loc 1 862 0
 1880 0874 05D0     		beq	.L192
 1881              		.loc 1 863 0
 1882 0876 01A8     		add	r0, sp, #4
 1883 0878 2946     		mov	r1, r5
 1884              	.LVL130:
 1885 087a 364A     		ldr	r2, .L215
 1886              	.LVL131:
 1887 087c 4346     		mov	r3, r8
 1888              	.LVL132:
 1889 087e FFF7FEFF 		bl	chVTSetI
 1890              	.LVL133:
 1891              	.L192:
 1892              	.LBB49:
 1893              		.loc 1 866 0
 1894 0882 0023     		movs	r3, #0
 1895              	@ 866 "/Applications/Axoloti.app/Contents/Java/chibios/os/hal/platforms/STM32/I2Cv1/i2c_lld.c" 1
 1896 0884 83F31188 		msr     BASEPRI, r3
 1897              	@ 0 "" 2
 1898              		.thumb
 1899              	.LBE49:
 1900              		.loc 1 873 0
 1901 0888 D8F83010 		ldr	r1, [r8, #48]
 1902              		.loc 1 878 0
 1903 088c D8F82C20 		ldr	r2, [r8, #44]
 1904              		.loc 1 873 0
 1905 0890 0968     		ldr	r1, [r1]
 1906              		.loc 1 878 0
 1907 0892 1268     		ldr	r2, [r2]
 1908              		.loc 1 870 0
 1909 0894 C8F80830 		str	r3, [r8, #8]
 1910              		.loc 1 869 0
 1911 0898 4FEA4909 		lsl	r9, r9, #1
 1912              		.loc 1 873 0
 1913 089c D8F82830 		ldr	r3, [r8, #40]
 1914              		.loc 1 878 0
 1915 08a0 D8F82400 		ldr	r0, [r8, #36]
 1916              		.loc 1 869 0
 1917 08a4 A8F82090 		strh	r9, [r8, #32]	@ movhi
 1918              		.loc 1 873 0
 1919 08a8 0B60     		str	r3, [r1]
 1920              		.loc 1 879 0
 1921 08aa 0E9B     		ldr	r3, [sp, #56]
 1922              		.loc 1 874 0
 1923 08ac CF60     		str	r7, [r1, #12]
 1924              		.loc 1 875 0
ARM GAS  /var/folders/28/j9jfyj_n4wz3qtvnym210h2c0000gn/T//ccWMUdUr.s 			page 35


 1925 08ae 4E60     		str	r6, [r1, #4]
 1926              		.loc 1 878 0
 1927 08b0 1060     		str	r0, [r2]
 1928              		.loc 1 879 0
 1929 08b2 D360     		str	r3, [r2, #12]
 1930              		.loc 1 880 0
 1931 08b4 0F9B     		ldr	r3, [sp, #60]
 1932 08b6 5360     		str	r3, [r2, #4]
 1933              		.loc 1 884 0
 1934 08b8 02E0     		b	.L193
 1935              	.L194:
 1936              	.LBB50:
 1937              		.loc 1 888 0
 1938 08ba 0023     		movs	r3, #0
 1939              	@ 888 "/Applications/Axoloti.app/Contents/Java/chibios/os/hal/platforms/STM32/I2Cv1/i2c_lld.c" 1
 1940 08bc 83F31188 		msr     BASEPRI, r3
 1941              	@ 0 "" 2
 1942              		.thumb
 1943              	.L193:
 1944              	.LBE50:
 1945              		.loc 1 884 0
 1946 08c0 238B     		ldrh	r3, [r4, #24]
 1947 08c2 13F0020F 		tst	r3, #2
 1948              	.LBB51:
 1949              		.loc 1 885 0
 1950 08c6 4FF02003 		mov	r3, #32
 1951              	.LBE51:
 1952              		.loc 1 884 0
 1953 08ca 02D1     		bne	.L196
 1954              		.loc 1 884 0 is_stmt 0 discriminator 1
 1955 08cc 2288     		ldrh	r2, [r4]
 1956 08ce 9205     		lsls	r2, r2, #22
 1957 08d0 0BD5     		bpl	.L214
 1958              	.L196:
 1959              	.LBB52:
 1960              		.loc 1 885 0 is_stmt 1
 1961              	@ 885 "/Applications/Axoloti.app/Contents/Java/chibios/os/hal/platforms/STM32/I2Cv1/i2c_lld.c" 1
 1962 08d2 83F31188 		msr     BASEPRI, r3
 1963              	@ 0 "" 2
 1964              		.thumb
 1965              	.LBE52:
 1966              		.loc 1 886 0
 1967 08d6 691C     		adds	r1, r5, #1
 1968 08d8 EFD0     		beq	.L194
 1969              		.loc 1 886 0 is_stmt 0 discriminator 1
 1970 08da 049B     		ldr	r3, [sp, #16]
 1971 08dc 002B     		cmp	r3, #0
 1972 08de ECD1     		bne	.L194
 1973              	.L198:
 1974              		.loc 1 887 0 is_stmt 1
 1975 08e0 4FF0FF30 		mov	r0, #-1
 1976              		.loc 1 910 0
 1977 08e4 07B0     		add	sp, sp, #28
 1978              		.cfi_remember_state
 1979              		.cfi_def_cfa_offset 28
 1980              		@ sp needed
 1981 08e6 BDE8F083 		pop	{r4, r5, r6, r7, r8, r9, pc}
ARM GAS  /var/folders/28/j9jfyj_n4wz3qtvnym210h2c0000gn/T//ccWMUdUr.s 			page 36


 1982              	.LVL134:
 1983              	.L214:
 1984              		.cfi_restore_state
 1985              	.LBB53:
 1986              		.loc 1 892 0
 1987              	@ 892 "/Applications/Axoloti.app/Contents/Java/chibios/os/hal/platforms/STM32/I2Cv1/i2c_lld.c" 1
 1988 08ea 83F31188 		msr     BASEPRI, r3
 1989              	@ 0 "" 2
 1990              		.thumb
 1991              	.LBE53:
 1992              		.loc 1 896 0
 1993 08ee 0135     		adds	r5, r5, #1
 1994 08f0 1DD0     		beq	.L197
 1995              		.loc 1 896 0 is_stmt 0 discriminator 1
 1996 08f2 049B     		ldr	r3, [sp, #16]
 1997 08f4 002B     		cmp	r3, #0
 1998 08f6 F3D0     		beq	.L198
 1999              		.loc 1 900 0 is_stmt 1
 2000 08f8 A388     		ldrh	r3, [r4, #4]
 2001              		.loc 1 904 0
 2002 08fa 174D     		ldr	r5, .L215+4
 2003              		.loc 1 900 0
 2004 08fc 9BB2     		uxth	r3, r3
 2005 08fe 43F40073 		orr	r3, r3, #512
 2006 0902 A380     		strh	r3, [r4, #4]	@ movhi
 2007              		.loc 1 901 0
 2008 0904 2388     		ldrh	r3, [r4]
 2009              		.loc 1 904 0
 2010 0906 AA69     		ldr	r2, [r5, #24]
 2011              		.loc 1 901 0
 2012 0908 9BB2     		uxth	r3, r3
 2013 090a 43F48073 		orr	r3, r3, #256
 2014 090e 2380     		strh	r3, [r4]	@ movhi
 2015              		.loc 1 905 0
 2016 0910 0220     		movs	r0, #2
 2017              		.loc 1 904 0
 2018 0912 C8F81C20 		str	r2, [r8, #28]
 2019              		.loc 1 905 0
 2020 0916 FFF7FEFF 		bl	chSchGoSleepS
 2021              	.LVL135:
 2022              		.loc 1 906 0
 2023 091a 049B     		ldr	r3, [sp, #16]
 2024 091c 13B1     		cbz	r3, .L200
 2025              		.loc 1 907 0
 2026 091e 01A8     		add	r0, sp, #4
 2027 0920 FFF7FEFF 		bl	chVTResetI
 2028              	.LVL136:
 2029              	.L200:
 2030              		.loc 1 909 0
 2031 0924 AB69     		ldr	r3, [r5, #24]
 2032 0926 186A     		ldr	r0, [r3, #32]
 2033              		.loc 1 910 0
 2034 0928 07B0     		add	sp, sp, #28
 2035              		.cfi_remember_state
 2036              		.cfi_def_cfa_offset 28
 2037              		@ sp needed
 2038 092a BDE8F083 		pop	{r4, r5, r6, r7, r8, r9, pc}
ARM GAS  /var/folders/28/j9jfyj_n4wz3qtvnym210h2c0000gn/T//ccWMUdUr.s 			page 37


 2039              	.LVL137:
 2040              	.L197:
 2041              		.cfi_restore_state
 2042              		.loc 1 900 0
 2043 092e A388     		ldrh	r3, [r4, #4]
 2044              		.loc 1 904 0
 2045 0930 094D     		ldr	r5, .L215+4
 2046              		.loc 1 900 0
 2047 0932 9BB2     		uxth	r3, r3
 2048 0934 43F40073 		orr	r3, r3, #512
 2049 0938 A380     		strh	r3, [r4, #4]	@ movhi
 2050              		.loc 1 901 0
 2051 093a 2388     		ldrh	r3, [r4]
 2052              		.loc 1 904 0
 2053 093c AA69     		ldr	r2, [r5, #24]
 2054              		.loc 1 901 0
 2055 093e 9BB2     		uxth	r3, r3
 2056 0940 43F48073 		orr	r3, r3, #256
 2057 0944 2380     		strh	r3, [r4]	@ movhi
 2058              		.loc 1 905 0
 2059 0946 0220     		movs	r0, #2
 2060              		.loc 1 904 0
 2061 0948 C8F81C20 		str	r2, [r8, #28]
 2062              		.loc 1 905 0
 2063 094c FFF7FEFF 		bl	chSchGoSleepS
 2064              	.LVL138:
 2065 0950 E8E7     		b	.L200
 2066              	.L216:
 2067 0952 00BF     		.align	2
 2068              	.L215:
 2069 0954 00000000 		.word	i2c_lld_safety_timeout
 2070 0958 00000000 		.word	rlist
 2071              		.cfi_endproc
 2072              	.LFE148:
 2073              		.size	i2c_lld_master_transmit_timeout, .-i2c_lld_master_transmit_timeout
 2074              		.comm	I2CD3,56,4
 2075              		.comm	I2CD2,56,4
 2076              		.comm	I2CD1,56,4
 2077              	.Letext0:
 2078              		.file 2 "/Applications/axoloti_runtime/platform_osx/lib/gcc/arm-none-eabi/4.9.3/include/stddef.h"
 2079              		.file 3 "/Applications/axoloti_runtime/platform_osx/arm-none-eabi/include/machine/_default_types.h
 2080              		.file 4 "/Applications/axoloti_runtime/platform_osx/arm-none-eabi/include/sys/_stdint.h"
 2081              		.file 5 "/Applications/Axoloti.app/Contents/Java/chibios/os/ports/GCC/ARMCMx/chtypes.h"
 2082              		.file 6 "/Applications/Axoloti.app/Contents/Java/chibios/os/kernel/include/chlists.h"
 2083              		.file 7 "/Applications/Axoloti.app/Contents/Java/chibios/os/kernel/include/chthreads.h"
 2084              		.file 8 "/Applications/Axoloti.app/Contents/Java/chibios/os/ports/GCC/ARMCMx/chcore_v7m.h"
 2085              		.file 9 "/Applications/Axoloti.app/Contents/Java/chibios/os/kernel/include/chvt.h"
 2086              		.file 10 "/Applications/Axoloti.app/Contents/Java/chibios/os/kernel/include/chschd.h"
 2087              		.file 11 "/Applications/Axoloti.app/Contents/Java/chibios/os/kernel/include/chmtx.h"
 2088              		.file 12 "/Applications/Axoloti.app/Contents/Java/chibios/os/hal/platforms/STM32F4xx/stm32f4xx.h"
 2089              		.file 13 "/Applications/Axoloti.app/Contents/Java/chibios/os/hal/platforms/STM32F4xx/stm32_dma.h"
 2090              		.file 14 "/Applications/Axoloti.app/Contents/Java/chibios/os/hal/include/i2c.h"
 2091              		.file 15 "/Applications/Axoloti.app/Contents/Java/chibios/os/hal/platforms/STM32/I2Cv1/i2c_lld.h"
 2092              		.file 16 "/Applications/Axoloti.app/Contents/Java/CMSIS//Include/core_cm4.h"
 2093              		.file 17 "/Applications/Axoloti.app/Contents/Java/chibios/os/ports/common/ARMCMx/nvic.h"