ARM GAS  /var/folders/28/j9jfyj_n4wz3qtvnym210h2c0000gn/T//cc7mox5M.s 			page 1


   1              		.syntax unified
   2              		.cpu cortex-m4
   3              		.eabi_attribute 27, 1
   4              		.eabi_attribute 28, 1
   5              		.fpu fpv4-sp-d16
   6              		.eabi_attribute 20, 1
   7              		.eabi_attribute 21, 1
   8              		.eabi_attribute 23, 3
   9              		.eabi_attribute 24, 1
  10              		.eabi_attribute 25, 1
  11              		.eabi_attribute 26, 1
  12              		.eabi_attribute 30, 2
  13              		.eabi_attribute 34, 1
  14              		.eabi_attribute 18, 4
  15              		.thumb
  16              		.file	"main.c"
  17              		.text
  18              	.Ltext0:
  19              		.cfi_sections	.debug_frame
  20              		.align	2
  21              		.p2align 4
  22              		.thumb
  23              		.thumb_func
  24              		.type	test.12402, %function
  25              	test.12402:
  26              	.LFB184:
  27              		.file 1 "sdram.c"
  28              		.loc 1 327 0
  29              		.cfi_startproc
  30              		@ args = 0, pretend = 0, frame = 24
  31              		@ frame_needed = 1, uses_anonymous_args = 0
  32              		@ link register save eliminated.
  33 0000 80B4     		push	{r7}
  34              		.cfi_def_cfa_offset 4
  35              		.cfi_offset 7, -4
  36 0002 87B0     		sub	sp, sp, #28
  37              		.cfi_def_cfa_offset 32
  38 0004 00AF     		add	r7, sp, #0
  39              		.cfi_def_cfa_register 7
  40              		.loc 1 328 0
  41 0006 0A4B     		ldr	r3, .L2
  42 0008 1B68     		ldr	r3, [r3]
  43 000a 7B61     		str	r3, [r7, #20]
  44              	.LVL0:
  45              		.loc 1 329 0
  46 000c 084B     		ldr	r3, .L2
  47              	.LVL1:
  48 000e 5B68     		ldr	r3, [r3, #4]
  49 0010 3B61     		str	r3, [r7, #16]
  50              	.LVL2:
  51              		.loc 1 330 0
  52 0012 074B     		ldr	r3, .L2
  53              	.LVL3:
  54 0014 9B68     		ldr	r3, [r3, #8]
  55 0016 FB60     		str	r3, [r7, #12]
  56              	.LVL4:
  57              		.loc 1 331 0
ARM GAS  /var/folders/28/j9jfyj_n4wz3qtvnym210h2c0000gn/T//cc7mox5M.s 			page 2


  58 0018 054B     		ldr	r3, .L2
  59              	.LVL5:
  60 001a DB68     		ldr	r3, [r3, #12]
  61 001c BB60     		str	r3, [r7, #8]
  62              	.LVL6:
  63              		.loc 1 332 0
  64 001e 044B     		ldr	r3, .L2
  65              	.LVL7:
  66 0020 5B6A     		ldr	r3, [r3, #36]
  67 0022 7B60     		str	r3, [r7, #4]
  68              	.LVL8:
  69              		.loc 1 333 0
  70 0024 1C37     		adds	r7, r7, #28
  71              		.cfi_def_cfa_offset 4
  72 0026 BD46     		mov	sp, r7
  73              		.cfi_def_cfa_register 13
  74              	.LVL9:
  75              		@ sp needed
  76 0028 5DF8047B 		ldr	r7, [sp], #4
  77              		.cfi_restore 7
  78              		.cfi_def_cfa_offset 0
  79 002c 7047     		bx	lr
  80              	.L3:
  81 002e 00BF     		.align	2
  82              	.L2:
  83 0030 00180240 		.word	1073879040
  84              		.cfi_endproc
  85              	.LFE184:
  86              		.size	test.12402, .-test.12402
  87              		.align	2
  88 0034 AFF30080 		.p2align 4,,15
  88      AFF30080 
  88      AFF30080 
  89              		.global	memTest
  90              		.thumb
  91              		.thumb_func
  92              		.type	memTest, %function
  93              	memTest:
  94              	.LFB182:
  95              		.loc 1 164 0
  96              		.cfi_startproc
  97              		@ args = 0, pretend = 0, frame = 16
  98              		@ frame_needed = 0, uses_anonymous_args = 0
  99              	.LVL10:
 100 0040 10B5     		push	{r4, lr}
 101              		.cfi_def_cfa_offset 8
 102              		.cfi_offset 4, -8
 103              		.cfi_offset 14, -4
 104 0042 84B0     		sub	sp, sp, #16
 105              		.cfi_def_cfa_offset 24
 106              		.loc 1 174 0
 107 0044 0023     		movs	r3, #0
 108              		.loc 1 175 0
 109 0046 1022     		movs	r2, #16
 110              		.loc 1 174 0
 111 0048 0193     		str	r3, [sp, #4]
 112              		.loc 1 175 0
ARM GAS  /var/folders/28/j9jfyj_n4wz3qtvnym210h2c0000gn/T//cc7mox5M.s 			page 3


 113 004a 0292     		str	r2, [sp, #8]
 114              		.loc 1 176 0
 115 004c 0392     		str	r2, [sp, #12]
 116              	.LVL11:
 117              		.loc 1 184 0
 118 004e 0193     		str	r3, [sp, #4]
 119 0050 019B     		ldr	r3, [sp, #4]
 120 0052 029A     		ldr	r2, [sp, #8]
 121 0054 9A42     		cmp	r2, r3
 122 0056 28DD     		ble	.L12
 123              	.LBB36:
 124              		.loc 1 188 0
 125 0058 3049     		ldr	r1, .L29
 126              	.LVL12:
 127              	.L18:
 128              		.loc 1 185 0
 129 005a 019B     		ldr	r3, [sp, #4]
 130              	.LVL13:
 131 005c 4FF04042 		mov	r2, #-1073741824
 132              	.LVL14:
 133              	.L8:
 134              		.loc 1 188 0 discriminator 3
 135 0060 01FB03F3 		mul	r3, r1, r3
 136              	.LVL15:
 137 0064 0133     		adds	r3, r3, #1
 138              	.LVL16:
 139              		.loc 1 190 0 discriminator 3
 140 0066 42F8043B 		str	r3, [r2], #4
 141              		.loc 1 187 0 discriminator 3
 142 006a 12F17E5F 		cmn	r2, #1065353216
 143 006e F7D1     		bne	.L8
 144              		.loc 1 193 0
 145 0070 0198     		ldr	r0, [sp, #4]
 146              	.LVL17:
 147 0072 4FF04043 		mov	r3, #-1073741824
 148 0076 02E0     		b	.L11
 149              	.LVL18:
 150              	.L9:
 151              		.loc 1 194 0 discriminator 2
 152 0078 13F17E5F 		cmn	r3, #1065353216
 153 007c 0ED0     		beq	.L27
 154              	.LVL19:
 155              	.L11:
 156              		.loc 1 195 0
 157 007e 01FB00F2 		mul	r2, r1, r0
 158              	.LVL20:
 159              		.loc 1 196 0
 160 0082 1868     		ldr	r0, [r3]
 161              	.LVL21:
 162              		.loc 1 195 0
 163 0084 0132     		adds	r2, r2, #1
 164              		.loc 1 197 0
 165 0086 9042     		cmp	r0, r2
 166 0088 03F10403 		add	r3, r3, #4
 167 008c F4D0     		beq	.L9
 168              		.loc 1 198 0
 169 008e 0520     		movs	r0, #5
ARM GAS  /var/folders/28/j9jfyj_n4wz3qtvnym210h2c0000gn/T//cc7mox5M.s 			page 4


 170              	.LVL22:
 171 0090 FFF7FEFF 		bl	setErrorFlag
 172              	.LVL23:
 173              	.L10:
 174              		.loc 1 200 0 discriminator 1
 175 0094 6420     		movs	r0, #100
 176 0096 FFF7FEFF 		bl	chThdSleep
 177              	.LVL24:
 178              		.loc 1 201 0 discriminator 1
 179 009a FBE7     		b	.L10
 180              	.LVL25:
 181              	.L27:
 182              	.LBE36:
 183              		.loc 1 184 0 discriminator 2
 184 009c 019B     		ldr	r3, [sp, #4]
 185 009e 0133     		adds	r3, r3, #1
 186 00a0 0193     		str	r3, [sp, #4]
 187 00a2 019A     		ldr	r2, [sp, #4]
 188 00a4 029B     		ldr	r3, [sp, #8]
 189 00a6 9A42     		cmp	r2, r3
 190 00a8 D7DB     		blt	.L18
 191              	.LVL26:
 192              	.L12:
 193              		.loc 1 214 0
 194 00aa 0023     		movs	r3, #0
 195 00ac 0193     		str	r3, [sp, #4]
 196 00ae 019B     		ldr	r3, [sp, #4]
 197 00b0 039A     		ldr	r2, [sp, #12]
 198 00b2 9A42     		cmp	r2, r3
 199 00b4 30DD     		ble	.L4
 200              	.LBB37:
 201              		.loc 1 218 0
 202 00b6 194C     		ldr	r4, .L29
 203              	.L17:
 204              		.loc 1 215 0
 205 00b8 019B     		ldr	r3, [sp, #4]
 206              	.LVL27:
 207              		.loc 1 217 0
 208 00ba 0022     		movs	r2, #0
 209              	.LVL28:
 210              	.L13:
 211              		.loc 1 218 0 discriminator 3
 212 00bc 04FB03F3 		mul	r3, r4, r3
 213              	.LVL29:
 214 00c0 0133     		adds	r3, r3, #1
 215              	.LVL30:
 216              		.loc 1 219 0 discriminator 3
 217 00c2 C3F31601 		ubfx	r1, r3, #0, #23
 218 00c6 D0B2     		uxtb	r0, r2
 219 00c8 01F14041 		add	r1, r1, #-1073741824
 220              		.loc 1 217 0 discriminator 3
 221 00cc 0132     		adds	r2, r2, #1
 222              	.LVL31:
 223 00ce B2F5801F 		cmp	r2, #1048576
 224              		.loc 1 219 0 discriminator 3
 225 00d2 0870     		strb	r0, [r1]
 226              		.loc 1 217 0 discriminator 3
ARM GAS  /var/folders/28/j9jfyj_n4wz3qtvnym210h2c0000gn/T//cc7mox5M.s 			page 5


 227 00d4 F2D1     		bne	.L13
 228              		.loc 1 222 0
 229 00d6 019B     		ldr	r3, [sp, #4]
 230              	.LVL32:
 231              		.loc 1 223 0
 232 00d8 0022     		movs	r2, #0
 233 00da 02E0     		b	.L16
 234              	.LVL33:
 235              	.L14:
 236              		.loc 1 223 0 is_stmt 0 discriminator 2
 237 00dc B2F5801F 		cmp	r2, #1048576
 238 00e0 13D0     		beq	.L28
 239              	.LVL34:
 240              	.L16:
 241              		.loc 1 224 0 is_stmt 1
 242 00e2 04FB03F3 		mul	r3, r4, r3
 243              	.LVL35:
 244 00e6 0133     		adds	r3, r3, #1
 245              	.LVL36:
 246              		.loc 1 225 0
 247 00e8 C3F31600 		ubfx	r0, r3, #0, #23
 248 00ec 00F14040 		add	r0, r0, #-1073741824
 249 00f0 D1B2     		uxtb	r1, r2
 250 00f2 0078     		ldrb	r0, [r0]	@ zero_extendqisi2
 251 00f4 8842     		cmp	r0, r1
 252 00f6 02F10102 		add	r2, r2, #1
 253              	.LVL37:
 254 00fa EFD0     		beq	.L14
 255              		.loc 1 226 0
 256 00fc 0520     		movs	r0, #5
 257 00fe FFF7FEFF 		bl	setErrorFlag
 258              	.LVL38:
 259              	.L15:
 260              		.loc 1 228 0 discriminator 1
 261 0102 6420     		movs	r0, #100
 262 0104 FFF7FEFF 		bl	chThdSleep
 263              	.LVL39:
 264              		.loc 1 229 0 discriminator 1
 265 0108 FBE7     		b	.L15
 266              	.LVL40:
 267              	.L28:
 268              	.LBE37:
 269              		.loc 1 214 0 discriminator 2
 270 010a 019B     		ldr	r3, [sp, #4]
 271              	.LVL41:
 272 010c 0133     		adds	r3, r3, #1
 273 010e 0193     		str	r3, [sp, #4]
 274 0110 019A     		ldr	r2, [sp, #4]
 275              	.LVL42:
 276 0112 039B     		ldr	r3, [sp, #12]
 277 0114 9A42     		cmp	r2, r3
 278 0116 CFDB     		blt	.L17
 279              	.L4:
 280              		.loc 1 234 0
 281 0118 04B0     		add	sp, sp, #16
 282              		.cfi_def_cfa_offset 8
 283              		@ sp needed
ARM GAS  /var/folders/28/j9jfyj_n4wz3qtvnym210h2c0000gn/T//cc7mox5M.s 			page 6


 284 011a 10BD     		pop	{r4, pc}
 285              	.L30:
 286              		.align	2
 287              	.L29:
 288 011c 354E5A01 		.word	22695477
 289              		.cfi_endproc
 290              	.LFE182:
 291              		.size	memTest, .-memTest
 292              		.align	2
 293              		.p2align 4,,15
 294              		.global	SDRAM_InitSequence
 295              		.thumb
 296              		.thumb_func
 297              		.type	SDRAM_InitSequence, %function
 298              	SDRAM_InitSequence:
 299              	.LFB183:
 300              		.loc 1 241 0
 301              		.cfi_startproc
 302              		@ args = 0, pretend = 0, frame = 0
 303              		@ frame_needed = 0, uses_anonymous_args = 0
 304              	.LVL43:
 305 0120 10B5     		push	{r4, lr}
 306              		.cfi_def_cfa_offset 8
 307              		.cfi_offset 4, -8
 308              		.cfi_offset 14, -4
 309              	.LBB38:
 310              	.LBB39:
 311              		.file 2 "stm32f4xx_fmc.c"
 312              		.loc 2 1187 0
 313 0122 1D4A     		ldr	r2, .L51
 314              	.L33:
 315              	.LVL44:
 316              		.loc 2 1187 0 is_stmt 0 discriminator 1
 317 0124 9369     		ldr	r3, [r2, #24]
 318              	.LVL45:
 319 0126 1C4C     		ldr	r4, .L51
 320              		.loc 2 1191 0 is_stmt 1 discriminator 1
 321 0128 9906     		lsls	r1, r3, #26
 322 012a FBD4     		bmi	.L33
 323              	.LVL46:
 324              	.LBE39:
 325              	.LBE38:
 326              	.LBB40:
 327              	.LBB41:
 328              		.loc 2 968 0
 329 012c 1123     		movs	r3, #17
 330              	.LVL47:
 331 012e 2361     		str	r3, [r4, #16]
 332              	.LBE41:
 333              	.LBE40:
 334              		.loc 1 263 0
 335 0130 6420     		movs	r0, #100
 336 0132 FFF7FEFF 		bl	chThdSleep
 337              	.LVL48:
 338              	.L35:
 339              	.LBB42:
 340              	.LBB43:
ARM GAS  /var/folders/28/j9jfyj_n4wz3qtvnym210h2c0000gn/T//cc7mox5M.s 			page 7


 341              		.loc 2 1187 0 discriminator 1
 342 0136 A269     		ldr	r2, [r4, #24]
 343              	.LVL49:
 344 0138 174B     		ldr	r3, .L51
 345              		.loc 2 1191 0 discriminator 1
 346 013a 9206     		lsls	r2, r2, #26
 347              	.LVL50:
 348 013c FBD4     		bmi	.L35
 349              	.LVL51:
 350              	.LBE43:
 351              	.LBE42:
 352              	.LBB44:
 353              	.LBB45:
 354              		.loc 2 968 0
 355 013e 1222     		movs	r2, #18
 356 0140 1A61     		str	r2, [r3, #16]
 357              	.LVL52:
 358              	.LBE45:
 359              	.LBE44:
 360              	.LBB46:
 361              	.LBB47:
 362              		.loc 2 1187 0
 363 0142 1A46     		mov	r2, r3
 364              	.L37:
 365              	.LVL53:
 366              		.loc 2 1187 0 is_stmt 0 discriminator 1
 367 0144 9169     		ldr	r1, [r2, #24]
 368              	.LVL54:
 369 0146 144B     		ldr	r3, .L51
 370              		.loc 2 1191 0 is_stmt 1 discriminator 1
 371 0148 8C06     		lsls	r4, r1, #26
 372 014a FBD4     		bmi	.L37
 373              	.LVL55:
 374              	.LBE47:
 375              	.LBE46:
 376              	.LBB48:
 377              	.LBB49:
 378              		.loc 2 968 0
 379 014c 7322     		movs	r2, #115
 380 014e 1A61     		str	r2, [r3, #16]
 381              	.LBE49:
 382              	.LBE48:
 383              	.LBB50:
 384              	.LBB51:
 385              		.loc 2 1187 0
 386 0150 1A46     		mov	r2, r3
 387              	.LVL56:
 388              	.L39:
 389              		.loc 2 1187 0 is_stmt 0 discriminator 1
 390 0152 9169     		ldr	r1, [r2, #24]
 391              	.LVL57:
 392 0154 104B     		ldr	r3, .L51
 393              		.loc 2 1191 0 is_stmt 1 discriminator 1
 394 0156 8806     		lsls	r0, r1, #26
 395 0158 FBD4     		bmi	.L39
 396              	.LVL58:
 397              	.LBE51:
ARM GAS  /var/folders/28/j9jfyj_n4wz3qtvnym210h2c0000gn/T//cc7mox5M.s 			page 8


 398              	.LBE50:
 399              	.LBB52:
 400              	.LBB53:
 401              		.loc 2 968 0
 402 015a 7322     		movs	r2, #115
 403 015c 1A61     		str	r2, [r3, #16]
 404              	.LVL59:
 405              	.LBE53:
 406              	.LBE52:
 407              	.LBB54:
 408              	.LBB55:
 409              		.loc 2 1187 0
 410 015e 1A46     		mov	r2, r3
 411              	.LVL60:
 412              	.L41:
 413              		.loc 2 1187 0 is_stmt 0 discriminator 1
 414 0160 9169     		ldr	r1, [r2, #24]
 415              	.LVL61:
 416 0162 0D4B     		ldr	r3, .L51
 417              		.loc 2 1191 0 is_stmt 1 discriminator 1
 418 0164 8906     		lsls	r1, r1, #26
 419              	.LVL62:
 420 0166 FBD4     		bmi	.L41
 421              	.LVL63:
 422              	.LBE55:
 423              	.LBE54:
 424              	.LBB56:
 425              	.LBB57:
 426              		.loc 2 968 0
 427 0168 0C4A     		ldr	r2, .L51+4
 428 016a 1A61     		str	r2, [r3, #16]
 429              	.LVL64:
 430              	.LBE57:
 431              	.LBE56:
 432              	.LBB58:
 433              	.LBB59:
 434              		.loc 2 1010 0
 435 016c 5A69     		ldr	r2, [r3, #20]
 436 016e 42F42D62 		orr	r2, r2, #2768
 437 0172 42F00402 		orr	r2, r2, #4
 438 0176 5A61     		str	r2, [r3, #20]
 439              	.L43:
 440              	.LVL65:
 441              	.LBE59:
 442              	.LBE58:
 443              	.LBB60:
 444              	.LBB61:
 445              		.loc 2 1187 0 discriminator 1
 446 0178 9A69     		ldr	r2, [r3, #24]
 447              	.LVL66:
 448 017a 0749     		ldr	r1, .L51
 449              		.loc 2 1191 0 discriminator 1
 450 017c 9206     		lsls	r2, r2, #26
 451              	.LVL67:
 452 017e FBD4     		bmi	.L43
 453              	.LVL68:
 454              	.LBE61:
ARM GAS  /var/folders/28/j9jfyj_n4wz3qtvnym210h2c0000gn/T//cc7mox5M.s 			page 9


 455              	.LBE60:
 456              	.LBB62:
 457              	.LBB63:
 458              		.loc 2 1047 0
 459 0180 0A68     		ldr	r2, [r1]
 460 0182 47F6FF53 		movw	r3, #32255
 461 0186 1340     		ands	r3, r3, r2
 462 0188 0B60     		str	r3, [r1]
 463              	.LBE63:
 464              	.LBE62:
 465              		.loc 1 334 0
 466 018a FFF739FF 		bl	test.12402
 467              	.LVL69:
 468              		.loc 1 335 0
 469 018e 0120     		movs	r0, #1
 470              		.loc 1 336 0
 471 0190 BDE81040 		pop	{r4, lr}
 472              		.cfi_restore 14
 473              		.cfi_restore 4
 474              		.cfi_def_cfa_offset 0
 475              		.loc 1 335 0
 476 0194 FFF7FEBF 		b	chThdSleep
 477              	.LVL70:
 478              	.L52:
 479              		.align	2
 480              	.L51:
 481 0198 400100A0 		.word	-1610612416
 482 019c 14420400 		.word	279060
 483              		.cfi_endproc
 484              	.LFE183:
 485              		.size	SDRAM_InitSequence, .-SDRAM_InitSequence
 486              		.align	2
 487              		.p2align 4,,15
 488              		.global	SDRAM_WriteBuffer
 489              		.thumb
 490              		.thumb_func
 491              		.type	SDRAM_WriteBuffer, %function
 492              	SDRAM_WriteBuffer:
 493              	.LFB185:
 494              		.loc 1 347 0
 495              		.cfi_startproc
 496              		@ args = 0, pretend = 0, frame = 8
 497              		@ frame_needed = 0, uses_anonymous_args = 0
 498              		@ link register save eliminated.
 499              	.LVL71:
 500 01a0 10B4     		push	{r4}
 501              		.cfi_def_cfa_offset 4
 502              		.cfi_offset 4, -4
 503 01a2 83B0     		sub	sp, sp, #12
 504              		.cfi_def_cfa_offset 16
 505              	.LBB64:
 506              	.LBB65:
 507              		.loc 2 1047 0
 508 01a4 0D4B     		ldr	r3, .L62
 509              	.LBE65:
 510              	.LBE64:
 511              		.loc 1 349 0
ARM GAS  /var/folders/28/j9jfyj_n4wz3qtvnym210h2c0000gn/T//cc7mox5M.s 			page 10


 512 01a6 0191     		str	r1, [sp, #4]
 513              	.LVL72:
 514              	.LBB67:
 515              	.LBB66:
 516              		.loc 2 1047 0
 517 01a8 1C68     		ldr	r4, [r3]
 518 01aa 47F6FF51 		movw	r1, #32255
 519              	.LVL73:
 520 01ae 2140     		ands	r1, r1, r4
 521 01b0 1960     		str	r1, [r3]
 522              	.LVL74:
 523              	.LBE66:
 524              	.LBE67:
 525              	.LBB68:
 526              	.LBB69:
 527              		.loc 2 1187 0
 528 01b2 1946     		mov	r1, r3
 529              	.L54:
 530              	.LVL75:
 531              		.loc 2 1187 0 is_stmt 0 discriminator 1
 532 01b4 8B69     		ldr	r3, [r1, #24]
 533              	.LVL76:
 534              		.loc 2 1191 0 is_stmt 1 discriminator 1
 535 01b6 9B06     		lsls	r3, r3, #26
 536              	.LVL77:
 537 01b8 FCD4     		bmi	.L54
 538              	.LBE69:
 539              	.LBE68:
 540              		.loc 1 359 0 discriminator 1
 541 01ba 52B1     		cbz	r2, .L53
 542              	.L56:
 543              		.loc 1 361 0 discriminator 2
 544 01bc 0199     		ldr	r1, [sp, #4]
 545              	.LVL78:
 546              		.loc 1 364 0 discriminator 2
 547 01be 019B     		ldr	r3, [sp, #4]
 548              		.loc 1 361 0 discriminator 2
 549 01c0 50F8044B 		ldr	r4, [r0], #4
 550              	.LVL79:
 551 01c4 01F14041 		add	r1, r1, #-1073741824
 552              		.loc 1 364 0 discriminator 2
 553 01c8 0433     		adds	r3, r3, #4
 554              		.loc 1 359 0 discriminator 2
 555 01ca 013A     		subs	r2, r2, #1
 556              	.LVL80:
 557              		.loc 1 361 0 discriminator 2
 558 01cc 0C60     		str	r4, [r1]
 559              		.loc 1 364 0 discriminator 2
 560 01ce 0193     		str	r3, [sp, #4]
 561              		.loc 1 359 0 discriminator 2
 562 01d0 F4D1     		bne	.L56
 563              	.L53:
 564              		.loc 1 367 0
 565 01d2 03B0     		add	sp, sp, #12
 566              		.cfi_def_cfa_offset 4
 567              		@ sp needed
 568 01d4 5DF8044B 		ldr	r4, [sp], #4
ARM GAS  /var/folders/28/j9jfyj_n4wz3qtvnym210h2c0000gn/T//cc7mox5M.s 			page 11


 569              		.cfi_restore 4
 570              		.cfi_def_cfa_offset 0
 571 01d8 7047     		bx	lr
 572              	.L63:
 573 01da 00BF     		.align	2
 574              	.L62:
 575 01dc 400100A0 		.word	-1610612416
 576              		.cfi_endproc
 577              	.LFE185:
 578              		.size	SDRAM_WriteBuffer, .-SDRAM_WriteBuffer
 579              		.align	2
 580              		.p2align 4,,15
 581              		.global	SDRAM_ReadBuffer
 582              		.thumb
 583              		.thumb_func
 584              		.type	SDRAM_ReadBuffer, %function
 585              	SDRAM_ReadBuffer:
 586              	.LFB186:
 587              		.loc 1 378 0
 588              		.cfi_startproc
 589              		@ args = 0, pretend = 0, frame = 8
 590              		@ frame_needed = 0, uses_anonymous_args = 0
 591              		@ link register save eliminated.
 592              	.LVL81:
 593 01e0 10B4     		push	{r4}
 594              		.cfi_def_cfa_offset 4
 595              		.cfi_offset 4, -4
 596 01e2 83B0     		sub	sp, sp, #12
 597              		.cfi_def_cfa_offset 16
 598              	.LBB70:
 599              	.LBB71:
 600              		.loc 2 1187 0
 601 01e4 0A4C     		ldr	r4, .L73
 602              	.LBE71:
 603              	.LBE70:
 604              		.loc 1 380 0
 605 01e6 0191     		str	r1, [sp, #4]
 606              	.L65:
 607              	.LVL82:
 608              	.LBB73:
 609              	.LBB72:
 610              		.loc 2 1187 0 discriminator 1
 611 01e8 A369     		ldr	r3, [r4, #24]
 612              	.LVL83:
 613              		.loc 2 1191 0 discriminator 1
 614 01ea 9B06     		lsls	r3, r3, #26
 615              	.LVL84:
 616 01ec FCD4     		bmi	.L65
 617              	.LBE72:
 618              	.LBE73:
 619              		.loc 1 387 0 discriminator 1
 620 01ee 5AB1     		cbz	r2, .L64
 621              	.LVL85:
 622              	.L67:
 623              		.loc 1 388 0 discriminator 2
 624 01f0 019B     		ldr	r3, [sp, #4]
 625 01f2 03F14043 		add	r3, r3, #-1073741824
ARM GAS  /var/folders/28/j9jfyj_n4wz3qtvnym210h2c0000gn/T//cc7mox5M.s 			page 12


 626              		.loc 1 387 0 discriminator 2
 627 01f6 013A     		subs	r2, r2, #1
 628              	.LVL86:
 629              		.loc 1 388 0 discriminator 2
 630 01f8 1968     		ldr	r1, [r3]
 631              		.loc 1 391 0 discriminator 2
 632 01fa 019B     		ldr	r3, [sp, #4]
 633              		.loc 1 388 0 discriminator 2
 634 01fc 40F8041B 		str	r1, [r0], #4
 635              	.LVL87:
 636              		.loc 1 391 0 discriminator 2
 637 0200 03F10403 		add	r3, r3, #4
 638 0204 0193     		str	r3, [sp, #4]
 639              		.loc 1 387 0 discriminator 2
 640 0206 F3D1     		bne	.L67
 641              	.L64:
 642              		.loc 1 393 0
 643 0208 03B0     		add	sp, sp, #12
 644              		.cfi_def_cfa_offset 4
 645              		@ sp needed
 646 020a 5DF8044B 		ldr	r4, [sp], #4
 647              		.cfi_restore 4
 648              		.cfi_def_cfa_offset 0
 649 020e 7047     		bx	lr
 650              	.L74:
 651              		.align	2
 652              	.L73:
 653 0210 400100A0 		.word	-1610612416
 654              		.cfi_endproc
 655              	.LFE186:
 656              		.size	SDRAM_ReadBuffer, .-SDRAM_ReadBuffer
 657              		.align	2
 658 0214 AFF30080 		.p2align 4,,15
 658      AFF30080 
 658      AFF30080 
 659              		.global	FMC_NORSRAMDeInit
 660              		.thumb
 661              		.thumb_func
 662              		.type	FMC_NORSRAMDeInit, %function
 663              	FMC_NORSRAMDeInit:
 664              	.LFB187:
 665              		.loc 2 134 0
 666              		.cfi_startproc
 667              		@ args = 0, pretend = 0, frame = 0
 668              		@ frame_needed = 0, uses_anonymous_args = 0
 669              		@ link register save eliminated.
 670              	.LVL88:
 671              		.loc 2 141 0
 672 0220 4FF02043 		mov	r3, #-1610612736
 673              		.loc 2 139 0
 674 0224 60B1     		cbz	r0, .L78
 675              		.loc 2 146 0
 676 0226 43F2D202 		movw	r2, #12498
 677 022a 43F82020 		str	r2, [r3, r0, lsl #2]
 678              	.L77:
 679 022e 8000     		lsls	r0, r0, #2
 680              	.LVL89:
ARM GAS  /var/folders/28/j9jfyj_n4wz3qtvnym210h2c0000gn/T//cc7mox5M.s 			page 13


 681 0230 00F12040 		add	r0, r0, #-1610612736
 682              		.loc 2 148 0
 683 0234 6FF07043 		mvn	r3, #-268435456
 684 0238 4360     		str	r3, [r0, #4]
 685              		.loc 2 149 0
 686 023a C0F80431 		str	r3, [r0, #260]
 687 023e 7047     		bx	lr
 688              	.LVL90:
 689              	.L78:
 690              		.loc 2 141 0
 691 0240 43F2DB02 		movw	r2, #12507
 692 0244 1A60     		str	r2, [r3]
 693 0246 F2E7     		b	.L77
 694              		.cfi_endproc
 695              	.LFE187:
 696              		.size	FMC_NORSRAMDeInit, .-FMC_NORSRAMDeInit
 697              		.align	2
 698 0248 AFF30080 		.p2align 4,,15
 698      AFF30080 
 699              		.global	FMC_NORSRAMInit
 700              		.thumb
 701              		.thumb_func
 702              		.type	FMC_NORSRAMInit, %function
 703              	FMC_NORSRAMInit:
 704              	.LFB188:
 705              		.loc 2 161 0
 706              		.cfi_startproc
 707              		@ args = 0, pretend = 0, frame = 8
 708              		@ frame_needed = 0, uses_anonymous_args = 0
 709              	.LVL91:
 710 0250 2DE9F042 		push	{r4, r5, r6, r7, r9, lr}
 711              		.cfi_def_cfa_offset 24
 712              		.cfi_offset 4, -24
 713              		.cfi_offset 5, -20
 714              		.cfi_offset 6, -16
 715              		.cfi_offset 7, -12
 716              		.cfi_offset 9, -8
 717              		.cfi_offset 14, -4
 718 0254 82B0     		sub	sp, sp, #8
 719              		.cfi_def_cfa_offset 32
 720              		.loc 2 194 0
 721 0256 C169     		ldr	r1, [r0, #28]
 722              		.loc 2 167 0
 723 0258 8368     		ldr	r3, [r0, #8]
 724              		.loc 2 194 0
 725 025a 0191     		str	r1, [sp, #4]
 726              		.loc 2 189 0
 727 025c 4168     		ldr	r1, [r0, #4]
 728              		.loc 2 190 0
 729 025e C768     		ldr	r7, [r0, #12]
 730              		.loc 2 191 0
 731 0260 0669     		ldr	r6, [r0, #16]
 732              		.loc 2 192 0
 733 0262 4569     		ldr	r5, [r0, #20]
 734              		.loc 2 193 0
 735 0264 8469     		ldr	r4, [r0, #24]
 736              		.loc 2 175 0
ARM GAS  /var/folders/28/j9jfyj_n4wz3qtvnym210h2c0000gn/T//cc7mox5M.s 			page 14


 737 0266 D0F828E0 		ldr	lr, [r0, #40]
 738              		.loc 2 165 0
 739 026a 0268     		ldr	r2, [r0]
 740              		.loc 2 189 0
 741 026c 43EA0109 		orr	r9, r3, r1
 742              		.loc 2 190 0
 743 0270 49EA0707 		orr	r7, r9, r7
 744              		.loc 2 191 0
 745 0274 3E43     		orrs	r6, r6, r7
 746              		.loc 2 192 0
 747 0276 3543     		orrs	r5, r5, r6
 748              		.loc 2 194 0
 749 0278 0199     		ldr	r1, [sp, #4]
 750              		.loc 2 178 0
 751 027a 476B     		ldr	r7, [r0, #52]
 752              		.loc 2 193 0
 753 027c 2C43     		orrs	r4, r4, r5
 754              		.loc 2 194 0
 755 027e 0C43     		orrs	r4, r4, r1
 756              		.loc 2 195 0
 757 0280 016A     		ldr	r1, [r0, #32]
 758              		.loc 2 185 0
 759 0282 856B     		ldr	r5, [r0, #56]
 760              		.loc 2 195 0
 761 0284 0C43     		orrs	r4, r4, r1
 762              		.loc 2 196 0
 763 0286 416A     		ldr	r1, [r0, #36]
 764 0288 0C43     		orrs	r4, r4, r1
 765              		.loc 2 198 0
 766 028a C16A     		ldr	r1, [r0, #44]
 767              		.loc 2 197 0
 768 028c 44EA0E04 		orr	r4, r4, lr
 769              		.loc 2 198 0
 770 0290 0C43     		orrs	r4, r4, r1
 771              		.loc 2 199 0
 772 0292 016B     		ldr	r1, [r0, #48]
 773 0294 9600     		lsls	r6, r2, #2
 774 0296 0C43     		orrs	r4, r4, r1
 775 0298 06F12046 		add	r6, r6, #-1610612736
 776              		.loc 2 200 0
 777 029c 3C43     		orrs	r4, r4, r7
 778              		.loc 2 204 0
 779 029e 082B     		cmp	r3, #8
 780              		.loc 2 185 0
 781 02a0 A969     		ldr	r1, [r5, #24]
 782              		.loc 2 188 0
 783 02a2 3460     		str	r4, [r6]
 784              		.loc 2 204 0
 785 02a4 1ED0     		beq	.L88
 786              		.loc 2 210 0
 787 02a6 B7F5801F 		cmp	r7, #1048576
 788 02aa 22D0     		beq	.L89
 789              	.L87:
 790 02ac 2F69     		ldr	r7, [r5, #16]
 791              	.LVL92:
 792              	.L82:
 793              		.loc 2 223 0
ARM GAS  /var/folders/28/j9jfyj_n4wz3qtvnym210h2c0000gn/T//cc7mox5M.s 			page 15


 794 02ae AA68     		ldr	r2, [r5, #8]
 795              		.loc 2 224 0
 796 02b0 EB68     		ldr	r3, [r5, #12]
 797              		.loc 2 222 0
 798 02b2 95E81010 		ldmia	r5, {r4, ip}
 799 02b6 2143     		orrs	r1, r1, r4
 800 02b8 41EA0C11 		orr	r1, r1, ip, lsl #4
 801              		.loc 2 226 0
 802 02bc 6D69     		ldr	r5, [r5, #20]
 803 02be 41EA0222 		orr	r2, r1, r2, lsl #8
 804 02c2 42EA0342 		orr	r2, r2, r3, lsl #16
 805 02c6 42EA0563 		orr	r3, r2, r5, lsl #24
 806 02ca 43EA0753 		orr	r3, r3, r7, lsl #20
 807              		.loc 2 230 0
 808 02ce BEF5804F 		cmp	lr, #16384
 809              		.loc 2 220 0
 810 02d2 7360     		str	r3, [r6, #4]
 811              		.loc 2 230 0
 812 02d4 22D0     		beq	.L90
 813              		.loc 2 249 0
 814 02d6 6FF07043 		mvn	r3, #-268435456
 815 02da C6F80431 		str	r3, [r6, #260]
 816              		.loc 2 252 0
 817 02de 02B0     		add	sp, sp, #8
 818              		.cfi_remember_state
 819              		.cfi_def_cfa_offset 24
 820              		@ sp needed
 821 02e0 BDE8F082 		pop	{r4, r5, r6, r7, r9, pc}
 822              	.LVL93:
 823              	.L88:
 824              		.cfi_restore_state
 825              		.loc 2 206 0
 826 02e4 3368     		ldr	r3, [r6]
 827              		.loc 2 210 0
 828 02e6 B7F5801F 		cmp	r7, #1048576
 829              		.loc 2 206 0
 830 02ea 43F04003 		orr	r3, r3, #64
 831 02ee 3360     		str	r3, [r6]
 832              		.loc 2 210 0
 833 02f0 DCD1     		bne	.L87
 834              	.L89:
 835              		.loc 2 210 0 is_stmt 0 discriminator 1
 836 02f2 002A     		cmp	r2, #0
 837 02f4 DAD0     		beq	.L87
 838              		.loc 2 212 0 is_stmt 1
 839 02f6 4FF02043 		mov	r3, #-1610612736
 840 02fa 5A68     		ldr	r2, [r3, #4]
 841              	.LVL94:
 842              		.loc 2 214 0
 843 02fc 1C68     		ldr	r4, [r3]
 844 02fe 44F48014 		orr	r4, r4, #1048576
 845 0302 1C60     		str	r4, [r3]
 846              		.loc 2 215 0
 847 0304 1C68     		ldr	r4, [r3]
 848 0306 44F48074 		orr	r4, r4, #256
 849 030a 1C60     		str	r4, [r3]
 850              		.loc 2 216 0
ARM GAS  /var/folders/28/j9jfyj_n4wz3qtvnym210h2c0000gn/T//cc7mox5M.s 			page 16


 851 030c 2F69     		ldr	r7, [r5, #16]
 852              		.loc 2 212 0
 853 030e 22F47002 		bic	r2, r2, #15728640
 854              	.LVL95:
 855              		.loc 2 216 0
 856 0312 7C1E     		subs	r4, r7, #1
 857 0314 42EA0452 		orr	r2, r2, r4, lsl #20
 858              	.LVL96:
 859 0318 5A60     		str	r2, [r3, #4]
 860 031a C8E7     		b	.L82
 861              	.L90:
 862              		.loc 2 237 0
 863 031c C06B     		ldr	r0, [r0, #60]
 864              	.LVL97:
 865 031e 0568     		ldr	r5, [r0]
 866 0320 8169     		ldr	r1, [r0, #24]
 867              		.loc 2 241 0
 868 0322 4268     		ldr	r2, [r0, #4]
 869              		.loc 2 242 0
 870 0324 8368     		ldr	r3, [r0, #8]
 871              		.loc 2 243 0
 872 0326 0469     		ldr	r4, [r0, #16]
 873              		.loc 2 244 0
 874 0328 4069     		ldr	r0, [r0, #20]
 875 032a 2943     		orrs	r1, r1, r5
 876 032c 41EA0212 		orr	r2, r1, r2, lsl #4
 877 0330 42EA0322 		orr	r2, r2, r3, lsl #8
 878 0334 42EA0453 		orr	r3, r2, r4, lsl #20
 879 0338 43EA0063 		orr	r3, r3, r0, lsl #24
 880              		.loc 2 239 0
 881 033c C6F80431 		str	r3, [r6, #260]
 882              		.loc 2 252 0
 883 0340 02B0     		add	sp, sp, #8
 884              		.cfi_def_cfa_offset 24
 885              		@ sp needed
 886 0342 BDE8F082 		pop	{r4, r5, r6, r7, r9, pc}
 887              		.cfi_endproc
 888              	.LFE188:
 889              		.size	FMC_NORSRAMInit, .-FMC_NORSRAMInit
 890 0346 00BF     		.align	2
 891 0348 AFF30080 		.p2align 4,,15
 891      AFF30080 
 892              		.global	FMC_NORSRAMStructInit
 893              		.thumb
 894              		.thumb_func
 895              		.type	FMC_NORSRAMStructInit, %function
 896              	FMC_NORSRAMStructInit:
 897              	.LFB189:
 898              		.loc 2 261 0
 899              		.cfi_startproc
 900              		@ args = 0, pretend = 0, frame = 0
 901              		@ frame_needed = 0, uses_anonymous_args = 0
 902              	.LVL98:
 903 0350 F0B5     		push	{r4, r5, r6, r7, lr}
 904              		.cfi_def_cfa_offset 20
 905              		.cfi_offset 4, -20
 906              		.cfi_offset 5, -16
ARM GAS  /var/folders/28/j9jfyj_n4wz3qtvnym210h2c0000gn/T//cc7mox5M.s 			page 17


 907              		.cfi_offset 6, -12
 908              		.cfi_offset 7, -8
 909              		.cfi_offset 14, -4
 910              		.loc 2 285 0
 911 0352 C16B     		ldr	r1, [r0, #60]
 912              		.loc 2 278 0
 913 0354 846B     		ldr	r4, [r0, #56]
 914              		.loc 2 264 0
 915 0356 0223     		movs	r3, #2
 916 0358 4360     		str	r3, [r0, #4]
 917              		.loc 2 278 0
 918 035a 0F22     		movs	r2, #15
 919              		.loc 2 263 0
 920 035c 0023     		movs	r3, #0
 921              		.loc 2 280 0
 922 035e FF25     		movs	r5, #255
 923              		.loc 2 266 0
 924 0360 4FF0100E 		mov	lr, #16
 925              		.loc 2 272 0
 926 0364 4FF48057 		mov	r7, #4096
 927              		.loc 2 273 0
 928 0368 4FF40056 		mov	r6, #8192
 929              		.loc 2 266 0
 930 036c C0F80CE0 		str	lr, [r0, #12]
 931              		.loc 2 272 0
 932 0370 0762     		str	r7, [r0, #32]
 933              		.loc 2 273 0
 934 0372 4662     		str	r6, [r0, #36]
 935              		.loc 2 263 0
 936 0374 0360     		str	r3, [r0]
 937              		.loc 2 265 0
 938 0376 8360     		str	r3, [r0, #8]
 939              		.loc 2 267 0
 940 0378 0361     		str	r3, [r0, #16]
 941              		.loc 2 268 0
 942 037a C362     		str	r3, [r0, #44]
 943              		.loc 2 269 0
 944 037c 4361     		str	r3, [r0, #20]
 945              		.loc 2 270 0
 946 037e 8361     		str	r3, [r0, #24]
 947              		.loc 2 271 0
 948 0380 C361     		str	r3, [r0, #28]
 949              		.loc 2 274 0
 950 0382 8362     		str	r3, [r0, #40]
 951              		.loc 2 275 0
 952 0384 0363     		str	r3, [r0, #48]
 953              		.loc 2 276 0
 954 0386 4363     		str	r3, [r0, #52]
 955              		.loc 2 284 0
 956 0388 A361     		str	r3, [r4, #24]
 957              		.loc 2 278 0
 958 038a 2260     		str	r2, [r4]
 959              		.loc 2 279 0
 960 038c 6260     		str	r2, [r4, #4]
 961              		.loc 2 281 0
 962 038e E260     		str	r2, [r4, #12]
 963              		.loc 2 282 0
ARM GAS  /var/folders/28/j9jfyj_n4wz3qtvnym210h2c0000gn/T//cc7mox5M.s 			page 18


 964 0390 2261     		str	r2, [r4, #16]
 965              		.loc 2 283 0
 966 0392 6261     		str	r2, [r4, #20]
 967              		.loc 2 280 0
 968 0394 A560     		str	r5, [r4, #8]
 969              		.loc 2 285 0
 970 0396 0A60     		str	r2, [r1]
 971              		.loc 2 286 0
 972 0398 4A60     		str	r2, [r1, #4]
 973              		.loc 2 287 0
 974 039a 8D60     		str	r5, [r1, #8]
 975              		.loc 2 288 0
 976 039c CA60     		str	r2, [r1, #12]
 977              		.loc 2 289 0
 978 039e 0A61     		str	r2, [r1, #16]
 979              		.loc 2 290 0
 980 03a0 4A61     		str	r2, [r1, #20]
 981              		.loc 2 291 0
 982 03a2 8B61     		str	r3, [r1, #24]
 983 03a4 F0BD     		pop	{r4, r5, r6, r7, pc}
 984              		.cfi_endproc
 985              	.LFE189:
 986              		.size	FMC_NORSRAMStructInit, .-FMC_NORSRAMStructInit
 987 03a6 00BF     		.align	2
 988 03a8 AFF30080 		.p2align 4,,15
 988      AFF30080 
 989              		.global	FMC_NORSRAMCmd
 990              		.thumb
 991              		.thumb_func
 992              		.type	FMC_NORSRAMCmd, %function
 993              	FMC_NORSRAMCmd:
 994              	.LFB190:
 995              		.loc 2 306 0
 996              		.cfi_startproc
 997              		@ args = 0, pretend = 0, frame = 0
 998              		@ frame_needed = 0, uses_anonymous_args = 0
 999              		@ link register save eliminated.
 1000              	.LVL99:
 1001 03b0 8000     		lsls	r0, r0, #2
 1002              	.LVL100:
 1003 03b2 00F12040 		add	r0, r0, #-1610612736
 1004              		.loc 2 310 0
 1005 03b6 21B9     		cbnz	r1, .L96
 1006              		.loc 2 318 0
 1007 03b8 0268     		ldr	r2, [r0]
 1008 03ba 044B     		ldr	r3, .L97
 1009 03bc 1340     		ands	r3, r3, r2
 1010 03be 0360     		str	r3, [r0]
 1011 03c0 7047     		bx	lr
 1012              	.L96:
 1013              		.loc 2 313 0
 1014 03c2 0368     		ldr	r3, [r0]
 1015 03c4 43F00103 		orr	r3, r3, #1
 1016 03c8 0360     		str	r3, [r0]
 1017 03ca 7047     		bx	lr
 1018              	.L98:
 1019              		.align	2
ARM GAS  /var/folders/28/j9jfyj_n4wz3qtvnym210h2c0000gn/T//cc7mox5M.s 			page 19


 1020              	.L97:
 1021 03cc FEFF0F00 		.word	1048574
 1022              		.cfi_endproc
 1023              	.LFE190:
 1024              		.size	FMC_NORSRAMCmd, .-FMC_NORSRAMCmd
 1025              		.align	2
 1026              		.p2align 4,,15
 1027              		.global	FMC_NANDDeInit
 1028              		.thumb
 1029              		.thumb_func
 1030              		.type	FMC_NANDDeInit, %function
 1031              	FMC_NANDDeInit:
 1032              	.LFB191:
 1033              		.loc 2 379 0
 1034              		.cfi_startproc
 1035              		@ args = 0, pretend = 0, frame = 0
 1036              		@ frame_needed = 0, uses_anonymous_args = 0
 1037              		@ link register save eliminated.
 1038              	.LVL101:
 1039              		.loc 2 383 0
 1040 03d0 1028     		cmp	r0, #16
 1041              		.loc 2 386 0
 1042 03d2 0CBF     		ite	eq
 1043 03d4 054B     		ldreq	r3, .L103
 1044              		.loc 2 395 0
 1045 03d6 064B     		ldrne	r3, .L103+4
 1046              		.loc 2 397 0
 1047 03d8 4FF0FC32 		mov	r2, #-50529028
 1048              		.loc 2 395 0
 1049 03dc 1820     		movs	r0, #24
 1050              	.LVL102:
 1051              		.loc 2 396 0
 1052 03de 4021     		movs	r1, #64
 1053              		.loc 2 395 0
 1054 03e0 1860     		str	r0, [r3]
 1055              		.loc 2 396 0
 1056 03e2 5960     		str	r1, [r3, #4]
 1057              		.loc 2 397 0
 1058 03e4 9A60     		str	r2, [r3, #8]
 1059              		.loc 2 398 0
 1060 03e6 DA60     		str	r2, [r3, #12]
 1061 03e8 7047     		bx	lr
 1062              	.L104:
 1063 03ea 00BF     		.align	2
 1064              	.L103:
 1065 03ec 600000A0 		.word	-1610612640
 1066 03f0 800000A0 		.word	-1610612608
 1067              		.cfi_endproc
 1068              	.LFE191:
 1069              		.size	FMC_NANDDeInit, .-FMC_NANDDeInit
 1070              		.align	2
 1071 03f4 AFF30080 		.p2align 4,,15
 1071      AFF30080 
 1071      AFF30080 
 1072              		.global	FMC_NANDInit
 1073              		.thumb
 1074              		.thumb_func
ARM GAS  /var/folders/28/j9jfyj_n4wz3qtvnym210h2c0000gn/T//cc7mox5M.s 			page 20


 1075              		.type	FMC_NANDInit, %function
 1076              	FMC_NANDInit:
 1077              	.LFB192:
 1078              		.loc 2 410 0
 1079              		.cfi_startproc
 1080              		@ args = 0, pretend = 0, frame = 8
 1081              		@ frame_needed = 0, uses_anonymous_args = 0
 1082              	.LVL103:
 1083 0400 2DE9F04E 		push	{r4, r5, r6, r7, r9, r10, fp, lr}
 1084              		.cfi_def_cfa_offset 32
 1085              		.cfi_offset 4, -32
 1086              		.cfi_offset 5, -28
 1087              		.cfi_offset 6, -24
 1088              		.cfi_offset 7, -20
 1089              		.cfi_offset 9, -16
 1090              		.cfi_offset 10, -12
 1091              		.cfi_offset 11, -8
 1092              		.cfi_offset 14, -4
 1093 0404 82B0     		sub	sp, sp, #8
 1094              		.cfi_def_cfa_offset 40
 1095 0406 0669     		ldr	r6, [r0, #16]
 1096              		.loc 2 432 0
 1097 0408 8468     		ldr	r4, [r0, #8]
 1098 040a 0196     		str	r6, [sp, #4]
 1099 040c 4668     		ldr	r6, [r0, #4]
 1100              		.loc 2 446 0
 1101 040e 036A     		ldr	r3, [r0, #32]
 1102              		.loc 2 440 0
 1103 0410 C569     		ldr	r5, [r0, #28]
 1104              		.loc 2 448 0
 1105 0412 9A68     		ldr	r2, [r3, #8]
 1106              		.loc 2 442 0
 1107 0414 A968     		ldr	r1, [r5, #8]
 1108              		.loc 2 447 0
 1109 0416 D3F804A0 		ldr	r10, [r3, #4]
 1110              		.loc 2 441 0
 1111 041a D5F804B0 		ldr	fp, [r5, #4]
 1112              		.loc 2 436 0
 1113 041e D0F81490 		ldr	r9, [r0, #20]
 1114              		.loc 2 441 0
 1115 0422 D5F800E0 		ldr	lr, [r5]
 1116              		.loc 2 443 0
 1117 0426 EF68     		ldr	r7, [r5, #12]
 1118              		.loc 2 447 0
 1119 0428 1D68     		ldr	r5, [r3]
 1120              		.loc 2 449 0
 1121 042a DB68     		ldr	r3, [r3, #12]
 1122              		.loc 2 432 0
 1123 042c 3443     		orrs	r4, r4, r6
 1124 042e C668     		ldr	r6, [r0, #12]
 1125 0430 44F00804 		orr	r4, r4, #8
 1126 0434 3443     		orrs	r4, r4, r6
 1127 0436 019E     		ldr	r6, [sp, #4]
 1128              		.loc 2 448 0
 1129 0438 1204     		lsls	r2, r2, #16
 1130 043a 2643     		orrs	r6, r6, r4
 1131              		.loc 2 437 0
ARM GAS  /var/folders/28/j9jfyj_n4wz3qtvnym210h2c0000gn/T//cc7mox5M.s 			page 21


 1132 043c 8469     		ldr	r4, [r0, #24]
 1133              		.loc 2 451 0
 1134 043e 0068     		ldr	r0, [r0]
 1135              	.LVL104:
 1136 0440 42EA0A2A 		orr	r10, r2, r10, lsl #8
 1137              		.loc 2 442 0
 1138 0444 0904     		lsls	r1, r1, #16
 1139 0446 41EA0B21 		orr	r1, r1, fp, lsl #8
 1140              		.loc 2 451 0
 1141 044a 1028     		cmp	r0, #16
 1142              		.loc 2 447 0
 1143 044c 4AEA0505 		orr	r5, r10, r5
 1144              		.loc 2 446 0
 1145 0450 45EA0365 		orr	r5, r5, r3, lsl #24
 1146 0454 46EA4929 		orr	r9, r6, r9, lsl #9
 1147              		.loc 2 454 0
 1148 0458 0CBF     		ite	eq
 1149 045a 074B     		ldreq	r3, .L109
 1150              		.loc 2 461 0
 1151 045c 074B     		ldrne	r3, .L109+4
 1152              		.loc 2 441 0
 1153 045e 41EA0E0E 		orr	lr, r1, lr
 1154              		.loc 2 431 0
 1155 0462 49EA4436 		orr	r6, r9, r4, lsl #13
 1156              	.LVL105:
 1157              		.loc 2 440 0
 1158 0466 4EEA0761 		orr	r1, lr, r7, lsl #24
 1159              	.LVL106:
 1160              		.loc 2 461 0
 1161 046a 1E60     		str	r6, [r3]
 1162              		.loc 2 462 0
 1163 046c 9960     		str	r1, [r3, #8]
 1164              		.loc 2 463 0
 1165 046e DD60     		str	r5, [r3, #12]
 1166              		.loc 2 465 0
 1167 0470 02B0     		add	sp, sp, #8
 1168              		.cfi_def_cfa_offset 32
 1169              		@ sp needed
 1170 0472 BDE8F08E 		pop	{r4, r5, r6, r7, r9, r10, fp, pc}
 1171              	.LVL107:
 1172              	.L110:
 1173 0476 00BF     		.align	2
 1174              	.L109:
 1175 0478 600000A0 		.word	-1610612640
 1176 047c 800000A0 		.word	-1610612608
 1177              		.cfi_endproc
 1178              	.LFE192:
 1179              		.size	FMC_NANDInit, .-FMC_NANDInit
 1180              		.align	2
 1181              		.p2align 4,,15
 1182              		.global	FMC_NANDStructInit
 1183              		.thumb
 1184              		.thumb_func
 1185              		.type	FMC_NANDStructInit, %function
 1186              	FMC_NANDStructInit:
 1187              	.LFB193:
 1188              		.loc 2 475 0
ARM GAS  /var/folders/28/j9jfyj_n4wz3qtvnym210h2c0000gn/T//cc7mox5M.s 			page 22


 1189              		.cfi_startproc
 1190              		@ args = 0, pretend = 0, frame = 0
 1191              		@ frame_needed = 0, uses_anonymous_args = 0
 1192              		@ link register save eliminated.
 1193              	.LVL108:
 1194 0480 30B4     		push	{r4, r5}
 1195              		.cfi_def_cfa_offset 8
 1196              		.cfi_offset 4, -8
 1197              		.cfi_offset 5, -4
 1198              		.loc 2 488 0
 1199 0482 016A     		ldr	r1, [r0, #32]
 1200              		.loc 2 484 0
 1201 0484 C469     		ldr	r4, [r0, #28]
 1202 0486 FC23     		movs	r3, #252
 1203              		.loc 2 478 0
 1204 0488 0022     		movs	r2, #0
 1205              		.loc 2 477 0
 1206 048a 1025     		movs	r5, #16
 1207 048c 0560     		str	r5, [r0]
 1208              		.loc 2 479 0
 1209 048e 8560     		str	r5, [r0, #8]
 1210              		.loc 2 478 0
 1211 0490 4260     		str	r2, [r0, #4]
 1212              		.loc 2 480 0
 1213 0492 C260     		str	r2, [r0, #12]
 1214              		.loc 2 481 0
 1215 0494 0261     		str	r2, [r0, #16]
 1216              		.loc 2 482 0
 1217 0496 4261     		str	r2, [r0, #20]
 1218              		.loc 2 483 0
 1219 0498 8261     		str	r2, [r0, #24]
 1220              		.loc 2 484 0
 1221 049a 2360     		str	r3, [r4]
 1222              		.loc 2 485 0
 1223 049c 6360     		str	r3, [r4, #4]
 1224              		.loc 2 486 0
 1225 049e A360     		str	r3, [r4, #8]
 1226              		.loc 2 487 0
 1227 04a0 E360     		str	r3, [r4, #12]
 1228              		.loc 2 488 0
 1229 04a2 0B60     		str	r3, [r1]
 1230              		.loc 2 489 0
 1231 04a4 4B60     		str	r3, [r1, #4]
 1232              		.loc 2 490 0
 1233 04a6 8B60     		str	r3, [r1, #8]
 1234              		.loc 2 491 0
 1235 04a8 CB60     		str	r3, [r1, #12]
 1236              		.loc 2 492 0
 1237 04aa 30BC     		pop	{r4, r5}
 1238              		.cfi_restore 5
 1239              		.cfi_restore 4
 1240              		.cfi_def_cfa_offset 0
 1241 04ac 7047     		bx	lr
 1242              		.cfi_endproc
 1243              	.LFE193:
 1244              		.size	FMC_NANDStructInit, .-FMC_NANDStructInit
 1245 04ae 00BF     		.align	2
ARM GAS  /var/folders/28/j9jfyj_n4wz3qtvnym210h2c0000gn/T//cc7mox5M.s 			page 23


 1246              		.p2align 4,,15
 1247              		.global	FMC_NANDCmd
 1248              		.thumb
 1249              		.thumb_func
 1250              		.type	FMC_NANDCmd, %function
 1251              	FMC_NANDCmd:
 1252              	.LFB194:
 1253              		.loc 2 504 0
 1254              		.cfi_startproc
 1255              		@ args = 0, pretend = 0, frame = 0
 1256              		@ frame_needed = 0, uses_anonymous_args = 0
 1257              		@ link register save eliminated.
 1258              	.LVL109:
 1259              		.loc 2 508 0
 1260 04b0 41B1     		cbz	r1, .L114
 1261              		.loc 2 511 0
 1262 04b2 1028     		cmp	r0, #16
 1263              		.loc 2 513 0
 1264 04b4 0CBF     		ite	eq
 1265 04b6 084A     		ldreq	r2, .L118
 1266              		.loc 2 517 0
 1267 04b8 084A     		ldrne	r2, .L118+4
 1268 04ba 1368     		ldr	r3, [r2]
 1269 04bc 43F00403 		orr	r3, r3, #4
 1270 04c0 1360     		str	r3, [r2]
 1271 04c2 7047     		bx	lr
 1272              	.L114:
 1273              		.loc 2 523 0
 1274 04c4 1028     		cmp	r0, #16
 1275              		.loc 2 525 0
 1276 04c6 0CBF     		ite	eq
 1277 04c8 034A     		ldreq	r2, .L118
 1278              		.loc 2 529 0
 1279 04ca 044A     		ldrne	r2, .L118+4
 1280 04cc 044B     		ldr	r3, .L118+8
 1281 04ce 1168     		ldr	r1, [r2]
 1282              	.LVL110:
 1283 04d0 0B40     		ands	r3, r3, r1
 1284 04d2 1360     		str	r3, [r2]
 1285 04d4 7047     		bx	lr
 1286              	.L119:
 1287 04d6 00BF     		.align	2
 1288              	.L118:
 1289 04d8 600000A0 		.word	-1610612640
 1290 04dc 800000A0 		.word	-1610612608
 1291 04e0 FBFF0F00 		.word	1048571
 1292              		.cfi_endproc
 1293              	.LFE194:
 1294              		.size	FMC_NANDCmd, .-FMC_NANDCmd
 1295              		.align	2
 1296 04e4 AFF30080 		.p2align 4,,15
 1296      AFF30080 
 1296      AFF30080 
 1297              		.global	FMC_NANDECCCmd
 1298              		.thumb
 1299              		.thumb_func
 1300              		.type	FMC_NANDECCCmd, %function
ARM GAS  /var/folders/28/j9jfyj_n4wz3qtvnym210h2c0000gn/T//cc7mox5M.s 			page 24


 1301              	FMC_NANDECCCmd:
 1302              	.LFB195:
 1303              		.loc 2 544 0
 1304              		.cfi_startproc
 1305              		@ args = 0, pretend = 0, frame = 0
 1306              		@ frame_needed = 0, uses_anonymous_args = 0
 1307              		@ link register save eliminated.
 1308              	.LVL111:
 1309              		.loc 2 548 0
 1310 04f0 41B1     		cbz	r1, .L121
 1311              		.loc 2 551 0
 1312 04f2 1028     		cmp	r0, #16
 1313              		.loc 2 553 0
 1314 04f4 0CBF     		ite	eq
 1315 04f6 084A     		ldreq	r2, .L125
 1316              		.loc 2 557 0
 1317 04f8 084A     		ldrne	r2, .L125+4
 1318 04fa 1368     		ldr	r3, [r2]
 1319 04fc 43F04003 		orr	r3, r3, #64
 1320 0500 1360     		str	r3, [r2]
 1321 0502 7047     		bx	lr
 1322              	.L121:
 1323              		.loc 2 563 0
 1324 0504 1028     		cmp	r0, #16
 1325              		.loc 2 565 0
 1326 0506 0CBF     		ite	eq
 1327 0508 034A     		ldreq	r2, .L125
 1328              		.loc 2 569 0
 1329 050a 044A     		ldrne	r2, .L125+4
 1330 050c 044B     		ldr	r3, .L125+8
 1331 050e 1168     		ldr	r1, [r2]
 1332              	.LVL112:
 1333 0510 0B40     		ands	r3, r3, r1
 1334 0512 1360     		str	r3, [r2]
 1335 0514 7047     		bx	lr
 1336              	.L126:
 1337 0516 00BF     		.align	2
 1338              	.L125:
 1339 0518 600000A0 		.word	-1610612640
 1340 051c 800000A0 		.word	-1610612608
 1341 0520 BFFF0F00 		.word	1048511
 1342              		.cfi_endproc
 1343              	.LFE195:
 1344              		.size	FMC_NANDECCCmd, .-FMC_NANDECCCmd
 1345              		.align	2
 1346 0524 AFF30080 		.p2align 4,,15
 1346      AFF30080 
 1346      AFF30080 
 1347              		.global	FMC_GetECC
 1348              		.thumb
 1349              		.thumb_func
 1350              		.type	FMC_GetECC, %function
 1351              	FMC_GetECC:
 1352              	.LFB196:
 1353              		.loc 2 583 0
 1354              		.cfi_startproc
 1355              		@ args = 0, pretend = 0, frame = 0
ARM GAS  /var/folders/28/j9jfyj_n4wz3qtvnym210h2c0000gn/T//cc7mox5M.s 			page 25


 1356              		@ frame_needed = 0, uses_anonymous_args = 0
 1357              		@ link register save eliminated.
 1358              	.LVL113:
 1359              		.loc 2 586 0
 1360 0530 1028     		cmp	r0, #16
 1361              		.loc 2 589 0
 1362 0532 0CBF     		ite	eq
 1363 0534 014B     		ldreq	r3, .L130
 1364              		.loc 2 594 0
 1365 0536 024B     		ldrne	r3, .L130+4
 1366 0538 5869     		ldr	r0, [r3, #20]
 1367              	.LVL114:
 1368              		.loc 2 598 0
 1369 053a 7047     		bx	lr
 1370              	.L131:
 1371              		.align	2
 1372              	.L130:
 1373 053c 600000A0 		.word	-1610612640
 1374 0540 800000A0 		.word	-1610612608
 1375              		.cfi_endproc
 1376              	.LFE196:
 1377              		.size	FMC_GetECC, .-FMC_GetECC
 1378              		.align	2
 1379 0544 AFF30080 		.p2align 4,,15
 1379      AFF30080 
 1379      AFF30080 
 1380              		.global	FMC_PCCARDDeInit
 1381              		.thumb
 1382              		.thumb_func
 1383              		.type	FMC_PCCARDDeInit, %function
 1384              	FMC_PCCARDDeInit:
 1385              	.LFB197:
 1386              		.loc 2 647 0
 1387              		.cfi_startproc
 1388              		@ args = 0, pretend = 0, frame = 0
 1389              		@ frame_needed = 0, uses_anonymous_args = 0
 1390              		@ link register save eliminated.
 1391              		.loc 2 649 0
 1392 0550 054B     		ldr	r3, .L133
 1393              		.loc 2 651 0
 1394 0552 4FF0FC32 		mov	r2, #-50529028
 1395              		.loc 2 649 0
 1396 0556 1820     		movs	r0, #24
 1397              		.loc 2 650 0
 1398 0558 0021     		movs	r1, #0
 1399              		.loc 2 649 0
 1400 055a 1860     		str	r0, [r3]
 1401              		.loc 2 650 0
 1402 055c 5960     		str	r1, [r3, #4]
 1403              		.loc 2 651 0
 1404 055e 9A60     		str	r2, [r3, #8]
 1405              		.loc 2 652 0
 1406 0560 DA60     		str	r2, [r3, #12]
 1407              		.loc 2 653 0
 1408 0562 1A61     		str	r2, [r3, #16]
 1409 0564 7047     		bx	lr
 1410              	.L134:
ARM GAS  /var/folders/28/j9jfyj_n4wz3qtvnym210h2c0000gn/T//cc7mox5M.s 			page 26


 1411 0566 00BF     		.align	2
 1412              	.L133:
 1413 0568 A00000A0 		.word	-1610612576
 1414              		.cfi_endproc
 1415              	.LFE197:
 1416              		.size	FMC_PCCARDDeInit, .-FMC_PCCARDDeInit
 1417              		.align	2
 1418 056c AFF30080 		.p2align 4,,15
 1419              		.global	FMC_PCCARDInit
 1420              		.thumb
 1421              		.thumb_func
 1422              		.type	FMC_PCCARDInit, %function
 1423              	FMC_PCCARDInit:
 1424              	.LFB198:
 1425              		.loc 2 664 0
 1426              		.cfi_startproc
 1427              		@ args = 0, pretend = 0, frame = 0
 1428              		@ frame_needed = 0, uses_anonymous_args = 0
 1429              		@ link register save eliminated.
 1430              	.LVL115:
 1431              		.loc 2 687 0
 1432 0570 90E80C00 		ldmia	r0, {r2, r3}
 1433              		.loc 2 688 0
 1434 0574 8168     		ldr	r1, [r0, #8]
 1435 0576 42F01002 		orr	r2, r2, #16
 1436              		.loc 2 664 0
 1437 057a 70B4     		push	{r4, r5, r6}
 1438              		.cfi_def_cfa_offset 12
 1439              		.cfi_offset 4, -12
 1440              		.cfi_offset 5, -8
 1441              		.cfi_offset 6, -4
 1442 057c 42EA4323 		orr	r3, r2, r3, lsl #9
 1443              		.loc 2 685 0
 1444 0580 144C     		ldr	r4, .L137
 1445              		.loc 2 691 0
 1446 0582 C668     		ldr	r6, [r0, #12]
 1447              		.loc 2 697 0
 1448 0584 0569     		ldr	r5, [r0, #16]
 1449              		.loc 2 703 0
 1450 0586 4069     		ldr	r0, [r0, #20]
 1451              	.LVL116:
 1452              		.loc 2 687 0
 1453 0588 43EA4133 		orr	r3, r3, r1, lsl #13
 1454              		.loc 2 685 0
 1455 058c 2360     		str	r3, [r4]
 1456              		.loc 2 692 0
 1457 058e 96E80C00 		ldmia	r6, {r2, r3}
 1458              		.loc 2 693 0
 1459 0592 B168     		ldr	r1, [r6, #8]
 1460              		.loc 2 694 0
 1461 0594 F668     		ldr	r6, [r6, #12]
 1462              		.loc 2 693 0
 1463 0596 0904     		lsls	r1, r1, #16
 1464 0598 41EA0323 		orr	r3, r1, r3, lsl #8
 1465              		.loc 2 692 0
 1466 059c 1343     		orrs	r3, r3, r2
 1467              		.loc 2 693 0
ARM GAS  /var/folders/28/j9jfyj_n4wz3qtvnym210h2c0000gn/T//cc7mox5M.s 			page 27


 1468 059e 43EA0663 		orr	r3, r3, r6, lsl #24
 1469              		.loc 2 691 0
 1470 05a2 A360     		str	r3, [r4, #8]
 1471              		.loc 2 698 0
 1472 05a4 95E80C00 		ldmia	r5, {r2, r3}
 1473              		.loc 2 699 0
 1474 05a8 A968     		ldr	r1, [r5, #8]
 1475              		.loc 2 700 0
 1476 05aa ED68     		ldr	r5, [r5, #12]
 1477              		.loc 2 699 0
 1478 05ac 0904     		lsls	r1, r1, #16
 1479 05ae 41EA0323 		orr	r3, r1, r3, lsl #8
 1480              		.loc 2 698 0
 1481 05b2 1343     		orrs	r3, r3, r2
 1482              		.loc 2 699 0
 1483 05b4 43EA0563 		orr	r3, r3, r5, lsl #24
 1484              		.loc 2 697 0
 1485 05b8 E360     		str	r3, [r4, #12]
 1486              		.loc 2 704 0
 1487 05ba 90E80C00 		ldmia	r0, {r2, r3}
 1488              		.loc 2 705 0
 1489 05be 8168     		ldr	r1, [r0, #8]
 1490              		.loc 2 706 0
 1491 05c0 C068     		ldr	r0, [r0, #12]
 1492              		.loc 2 705 0
 1493 05c2 0904     		lsls	r1, r1, #16
 1494 05c4 41EA0323 		orr	r3, r1, r3, lsl #8
 1495              		.loc 2 704 0
 1496 05c8 1343     		orrs	r3, r3, r2
 1497              		.loc 2 705 0
 1498 05ca 43EA0063 		orr	r3, r3, r0, lsl #24
 1499              		.loc 2 703 0
 1500 05ce 2361     		str	r3, [r4, #16]
 1501              		.loc 2 707 0
 1502 05d0 70BC     		pop	{r4, r5, r6}
 1503              		.cfi_restore 6
 1504              		.cfi_restore 5
 1505              		.cfi_restore 4
 1506              		.cfi_def_cfa_offset 0
 1507 05d2 7047     		bx	lr
 1508              	.L138:
 1509              		.align	2
 1510              	.L137:
 1511 05d4 A00000A0 		.word	-1610612576
 1512              		.cfi_endproc
 1513              	.LFE198:
 1514              		.size	FMC_PCCARDInit, .-FMC_PCCARDInit
 1515              		.align	2
 1516 05d8 AFF30080 		.p2align 4,,15
 1516      AFF30080 
 1517              		.global	FMC_PCCARDStructInit
 1518              		.thumb
 1519              		.thumb_func
 1520              		.type	FMC_PCCARDStructInit, %function
 1521              	FMC_PCCARDStructInit:
 1522              	.LFB199:
 1523              		.loc 2 716 0
ARM GAS  /var/folders/28/j9jfyj_n4wz3qtvnym210h2c0000gn/T//cc7mox5M.s 			page 28


 1524              		.cfi_startproc
 1525              		@ args = 0, pretend = 0, frame = 0
 1526              		@ frame_needed = 0, uses_anonymous_args = 0
 1527              		@ link register save eliminated.
 1528              	.LVL117:
 1529 05e0 30B4     		push	{r4, r5}
 1530              		.cfi_def_cfa_offset 8
 1531              		.cfi_offset 4, -8
 1532              		.cfi_offset 5, -4
 1533              		.loc 2 725 0
 1534 05e2 0169     		ldr	r1, [r0, #16]
 1535              		.loc 2 721 0
 1536 05e4 C468     		ldr	r4, [r0, #12]
 1537              		.loc 2 729 0
 1538 05e6 4269     		ldr	r2, [r0, #20]
 1539              		.loc 2 721 0
 1540 05e8 FC23     		movs	r3, #252
 1541              		.loc 2 718 0
 1542 05ea 0025     		movs	r5, #0
 1543 05ec 0560     		str	r5, [r0]
 1544              		.loc 2 719 0
 1545 05ee 4560     		str	r5, [r0, #4]
 1546              		.loc 2 720 0
 1547 05f0 8560     		str	r5, [r0, #8]
 1548              		.loc 2 721 0
 1549 05f2 2360     		str	r3, [r4]
 1550              		.loc 2 722 0
 1551 05f4 6360     		str	r3, [r4, #4]
 1552              		.loc 2 723 0
 1553 05f6 A360     		str	r3, [r4, #8]
 1554              		.loc 2 724 0
 1555 05f8 E360     		str	r3, [r4, #12]
 1556              		.loc 2 725 0
 1557 05fa 0B60     		str	r3, [r1]
 1558              		.loc 2 726 0
 1559 05fc 4B60     		str	r3, [r1, #4]
 1560              		.loc 2 727 0
 1561 05fe 8B60     		str	r3, [r1, #8]
 1562              		.loc 2 728 0
 1563 0600 CB60     		str	r3, [r1, #12]
 1564              		.loc 2 733 0
 1565 0602 30BC     		pop	{r4, r5}
 1566              		.cfi_restore 5
 1567              		.cfi_restore 4
 1568              		.cfi_def_cfa_offset 0
 1569              		.loc 2 729 0
 1570 0604 1360     		str	r3, [r2]
 1571              		.loc 2 730 0
 1572 0606 5360     		str	r3, [r2, #4]
 1573              		.loc 2 731 0
 1574 0608 9360     		str	r3, [r2, #8]
 1575              		.loc 2 732 0
 1576 060a D360     		str	r3, [r2, #12]
 1577              		.loc 2 733 0
 1578 060c 7047     		bx	lr
 1579              		.cfi_endproc
 1580              	.LFE199:
ARM GAS  /var/folders/28/j9jfyj_n4wz3qtvnym210h2c0000gn/T//cc7mox5M.s 			page 29


 1581              		.size	FMC_PCCARDStructInit, .-FMC_PCCARDStructInit
 1582 060e 00BF     		.align	2
 1583              		.p2align 4,,15
 1584              		.global	FMC_PCCARDCmd
 1585              		.thumb
 1586              		.thumb_func
 1587              		.type	FMC_PCCARDCmd, %function
 1588              	FMC_PCCARDCmd:
 1589              	.LFB200:
 1590              		.loc 2 742 0
 1591              		.cfi_startproc
 1592              		@ args = 0, pretend = 0, frame = 0
 1593              		@ frame_needed = 0, uses_anonymous_args = 0
 1594              		@ link register save eliminated.
 1595              	.LVL118:
 1596              		.loc 2 748 0
 1597 0610 054A     		ldr	r2, .L145
 1598              		.loc 2 745 0
 1599 0612 20B9     		cbnz	r0, .L144
 1600              		.loc 2 753 0
 1601 0614 1168     		ldr	r1, [r2]
 1602 0616 054B     		ldr	r3, .L145+4
 1603 0618 0B40     		ands	r3, r3, r1
 1604 061a 1360     		str	r3, [r2]
 1605 061c 7047     		bx	lr
 1606              	.L144:
 1607              		.loc 2 748 0
 1608 061e 1368     		ldr	r3, [r2]
 1609 0620 43F00403 		orr	r3, r3, #4
 1610 0624 1360     		str	r3, [r2]
 1611 0626 7047     		bx	lr
 1612              	.L146:
 1613              		.align	2
 1614              	.L145:
 1615 0628 A00000A0 		.word	-1610612576
 1616 062c FBFF0F00 		.word	1048571
 1617              		.cfi_endproc
 1618              	.LFE200:
 1619              		.size	FMC_PCCARDCmd, .-FMC_PCCARDCmd
 1620              		.align	2
 1621              		.p2align 4,,15
 1622              		.global	FMC_SDRAMDeInit
 1623              		.thumb
 1624              		.thumb_func
 1625              		.type	FMC_SDRAMDeInit, %function
 1626              	FMC_SDRAMDeInit:
 1627              	.LFB201:
 1628              		.loc 2 814 0
 1629              		.cfi_startproc
 1630              		@ args = 0, pretend = 0, frame = 0
 1631              		@ frame_needed = 0, uses_anonymous_args = 0
 1632              		@ link register save eliminated.
 1633              	.LVL119:
 1634 0630 30B4     		push	{r4, r5}
 1635              		.cfi_def_cfa_offset 8
 1636              		.cfi_offset 4, -8
 1637              		.cfi_offset 5, -4
ARM GAS  /var/folders/28/j9jfyj_n4wz3qtvnym210h2c0000gn/T//cc7mox5M.s 			page 30


 1638 0632 8000     		lsls	r0, r0, #2
 1639              	.LVL120:
 1640              		.loc 2 820 0
 1641 0634 084B     		ldr	r3, .L149
 1642 0636 00F12040 		add	r0, r0, #-1610612736
 1643 063a 0022     		movs	r2, #0
 1644              		.loc 2 818 0
 1645 063c 4FF43475 		mov	r5, #720
 1646              		.loc 2 819 0
 1647 0640 6FF07044 		mvn	r4, #-268435456
 1648              		.loc 2 818 0
 1649 0644 C0F84051 		str	r5, [r0, #320]
 1650              		.loc 2 819 0
 1651 0648 C0F84841 		str	r4, [r0, #328]
 1652              		.loc 2 820 0
 1653 064c 1A61     		str	r2, [r3, #16]
 1654              		.loc 2 823 0
 1655 064e 30BC     		pop	{r4, r5}
 1656              		.cfi_restore 5
 1657              		.cfi_restore 4
 1658              		.cfi_def_cfa_offset 0
 1659              		.loc 2 821 0
 1660 0650 5A61     		str	r2, [r3, #20]
 1661              		.loc 2 822 0
 1662 0652 9A61     		str	r2, [r3, #24]
 1663              		.loc 2 823 0
 1664 0654 7047     		bx	lr
 1665              	.L150:
 1666 0656 00BF     		.align	2
 1667              	.L149:
 1668 0658 400100A0 		.word	-1610612416
 1669              		.cfi_endproc
 1670              	.LFE201:
 1671              		.size	FMC_SDRAMDeInit, .-FMC_SDRAMDeInit
 1672              		.align	2
 1673 065c AFF30080 		.p2align 4,,15
 1674              		.global	FMC_SDRAMInit
 1675              		.thumb
 1676              		.thumb_func
 1677              		.type	FMC_SDRAMInit, %function
 1678              	FMC_SDRAMInit:
 1679              	.LFB202:
 1680              		.loc 2 834 0
 1681              		.cfi_startproc
 1682              		@ args = 0, pretend = 0, frame = 8
 1683              		@ frame_needed = 0, uses_anonymous_args = 0
 1684              		@ link register save eliminated.
 1685              	.LVL121:
 1686 0660 2DE9F001 		push	{r4, r5, r6, r7, r8}
 1687              		.cfi_def_cfa_offset 20
 1688              		.cfi_offset 4, -20
 1689              		.cfi_offset 5, -16
 1690              		.cfi_offset 6, -12
 1691              		.cfi_offset 7, -8
 1692              		.cfi_offset 8, -4
 1693 0664 83B0     		sub	sp, sp, #12
 1694              		.cfi_def_cfa_offset 32
ARM GAS  /var/folders/28/j9jfyj_n4wz3qtvnym210h2c0000gn/T//cc7mox5M.s 			page 31


 1695 0666 8369     		ldr	r3, [r0, #24]
 1696 0668 0193     		str	r3, [sp, #4]
 1697 066a 8668     		ldr	r6, [r0, #8]
 1698 066c C368     		ldr	r3, [r0, #12]
 1699 066e 0569     		ldr	r5, [r0, #16]
 1700 0670 4469     		ldr	r4, [r0, #20]
 1701              		.loc 2 851 0
 1702 0672 C769     		ldr	r7, [r0, #28]
 1703              		.loc 2 852 0
 1704 0674 D0F82080 		ldr	r8, [r0, #32]
 1705              		.loc 2 853 0
 1706 0678 416A     		ldr	r1, [r0, #36]
 1707              		.loc 2 875 0
 1708 067a 0268     		ldr	r2, [r0]
 1709 067c 1E43     		orrs	r6, r6, r3
 1710 067e 3543     		orrs	r5, r5, r6
 1711 0680 019B     		ldr	r3, [sp, #4]
 1712 0682 2C43     		orrs	r4, r4, r5
 1713 0684 2343     		orrs	r3, r3, r4
 1714 0686 3B43     		orrs	r3, r3, r7
 1715 0688 43EA0803 		orr	r3, r3, r8
 1716              		.loc 2 865 0
 1717 068c 4468     		ldr	r4, [r0, #4]
 1718 068e 0B43     		orrs	r3, r3, r1
 1719 0690 2343     		orrs	r3, r3, r4
 1720              	.LVL122:
 1721              		.loc 2 875 0
 1722 0692 02BB     		cbnz	r2, .L152
 1723              		.loc 2 891 0
 1724 0694 876A     		ldr	r7, [r0, #40]
 1725              		.loc 2 877 0
 1726 0696 234E     		ldr	r6, .L155
 1727              		.loc 2 897 0
 1728 0698 07F10C01 		add	r1, r7, #12
 1729              		.loc 2 877 0
 1730 069c 3360     		str	r3, [r6]
 1731              		.loc 2 893 0
 1732 069e BD68     		ldr	r5, [r7, #8]
 1733              		.loc 2 892 0
 1734 06a0 7868     		ldr	r0, [r7, #4]
 1735              	.LVL123:
 1736              		.loc 2 891 0
 1737 06a2 3C68     		ldr	r4, [r7]
 1738              		.loc 2 897 0
 1739 06a4 8EC9     		ldmia	r1, {r1, r2, r3, r7}
 1740              	.LVL124:
 1741              		.loc 2 893 0
 1742 06a6 013D     		subs	r5, r5, #1
 1743 06a8 2D02     		lsls	r5, r5, #8
 1744              		.loc 2 892 0
 1745 06aa 0138     		subs	r0, r0, #1
 1746 06ac 45EA0010 		orr	r0, r5, r0, lsl #4
 1747              		.loc 2 891 0
 1748 06b0 013C     		subs	r4, r4, #1
 1749              		.loc 2 892 0
 1750 06b2 0443     		orrs	r4, r4, r0
 1751              		.loc 2 894 0
ARM GAS  /var/folders/28/j9jfyj_n4wz3qtvnym210h2c0000gn/T//cc7mox5M.s 			page 32


 1752 06b4 0139     		subs	r1, r1, #1
 1753              		.loc 2 893 0
 1754 06b6 44EA0130 		orr	r0, r4, r1, lsl #12
 1755              		.loc 2 895 0
 1756 06ba 013A     		subs	r2, r2, #1
 1757              		.loc 2 894 0
 1758 06bc 40EA0241 		orr	r1, r0, r2, lsl #16
 1759              		.loc 2 896 0
 1760 06c0 013B     		subs	r3, r3, #1
 1761              		.loc 2 895 0
 1762 06c2 41EA0352 		orr	r2, r1, r3, lsl #20
 1763              		.loc 2 897 0
 1764 06c6 7B1E     		subs	r3, r7, #1
 1765              		.loc 2 891 0
 1766 06c8 42EA0363 		orr	r3, r2, r3, lsl #24
 1767              	.LVL125:
 1768              		.loc 2 899 0
 1769 06cc B360     		str	r3, [r6, #8]
 1770              	.LVL126:
 1771              		.loc 2 915 0
 1772 06ce 03B0     		add	sp, sp, #12
 1773              		.cfi_remember_state
 1774              		.cfi_def_cfa_offset 20
 1775              		@ sp needed
 1776 06d0 BDE8F001 		pop	{r4, r5, r6, r7, r8}
 1777              		.cfi_restore 8
 1778              		.cfi_restore 7
 1779              		.cfi_restore 6
 1780              		.cfi_restore 5
 1781              		.cfi_restore 4
 1782              		.cfi_def_cfa_offset 0
 1783 06d4 7047     		bx	lr
 1784              	.LVL127:
 1785              	.L152:
 1786              		.cfi_restore_state
 1787              		.loc 2 885 0
 1788 06d6 134D     		ldr	r5, .L155
 1789              		.loc 2 881 0
 1790 06d8 48EA070C 		orr	ip, r8, r7
 1791 06dc 4CEA0101 		orr	r1, ip, r1
 1792              	.LVL128:
 1793              		.loc 2 903 0
 1794 06e0 876A     		ldr	r7, [r0, #40]
 1795              		.loc 2 885 0
 1796 06e2 2960     		str	r1, [r5]
 1797              		.loc 2 886 0
 1798 06e4 45F82230 		str	r3, [r5, r2, lsl #2]
 1799              		.loc 2 905 0
 1800 06e8 BE68     		ldr	r6, [r7, #8]
 1801              		.loc 2 904 0
 1802 06ea 7B68     		ldr	r3, [r7, #4]
 1803              	.LVL129:
 1804              		.loc 2 908 0
 1805 06ec FC68     		ldr	r4, [r7, #12]
 1806              		.loc 2 903 0
 1807 06ee 3968     		ldr	r1, [r7]
 1808              	.LVL130:
ARM GAS  /var/folders/28/j9jfyj_n4wz3qtvnym210h2c0000gn/T//cc7mox5M.s 			page 33


 1809              		.loc 2 909 0
 1810 06f0 7869     		ldr	r0, [r7, #20]
 1811              	.LVL131:
 1812              		.loc 2 906 0
 1813 06f2 3F69     		ldr	r7, [r7, #16]
 1814              		.loc 2 905 0
 1815 06f4 013E     		subs	r6, r6, #1
 1816 06f6 3602     		lsls	r6, r6, #8
 1817              		.loc 2 904 0
 1818 06f8 013B     		subs	r3, r3, #1
 1819 06fa 46EA0313 		orr	r3, r6, r3, lsl #4
 1820              		.loc 2 908 0
 1821 06fe 013C     		subs	r4, r4, #1
 1822              		.loc 2 903 0
 1823 0700 0139     		subs	r1, r1, #1
 1824              		.loc 2 904 0
 1825 0702 1943     		orrs	r1, r1, r3
 1826              		.loc 2 912 0
 1827 0704 0232     		adds	r2, r2, #2
 1828              	.LVL132:
 1829              		.loc 2 908 0
 1830 0706 2403     		lsls	r4, r4, #12
 1831              		.loc 2 906 0
 1832 0708 7B1E     		subs	r3, r7, #1
 1833              		.loc 2 909 0
 1834 070a 0138     		subs	r0, r0, #1
 1835              		.loc 2 908 0
 1836 070c 44EA0050 		orr	r0, r4, r0, lsl #20
 1837              		.loc 2 903 0
 1838 0710 41EA0343 		orr	r3, r1, r3, lsl #16
 1839              	.LVL133:
 1840              		.loc 2 911 0
 1841 0714 A860     		str	r0, [r5, #8]
 1842              	.LVL134:
 1843              		.loc 2 912 0
 1844 0716 45F82230 		str	r3, [r5, r2, lsl #2]
 1845              		.loc 2 915 0
 1846 071a 03B0     		add	sp, sp, #12
 1847              		.cfi_def_cfa_offset 20
 1848              		@ sp needed
 1849 071c BDE8F001 		pop	{r4, r5, r6, r7, r8}
 1850              		.cfi_restore 4
 1851              		.cfi_restore 5
 1852              		.cfi_restore 6
 1853              		.cfi_restore 7
 1854              		.cfi_restore 8
 1855              		.cfi_def_cfa_offset 0
 1856 0720 7047     		bx	lr
 1857              	.L156:
 1858 0722 00BF     		.align	2
 1859              	.L155:
 1860 0724 400100A0 		.word	-1610612416
 1861              		.cfi_endproc
 1862              	.LFE202:
 1863              		.size	FMC_SDRAMInit, .-FMC_SDRAMInit
 1864              		.align	2
 1865 0728 AFF30080 		.p2align 4,,15
ARM GAS  /var/folders/28/j9jfyj_n4wz3qtvnym210h2c0000gn/T//cc7mox5M.s 			page 34


 1865      AFF30080 
 1866              		.global	SDRAM_Init
 1867              		.thumb
 1868              		.thumb_func
 1869              		.type	SDRAM_Init, %function
 1870              	SDRAM_Init:
 1871              	.LFB180:
 1872              		.loc 1 61 0
 1873              		.cfi_startproc
 1874              		@ args = 0, pretend = 0, frame = 72
 1875              		@ frame_needed = 0, uses_anonymous_args = 0
 1876 0730 2DE9F041 		push	{r4, r5, r6, r7, r8, lr}
 1877              		.cfi_def_cfa_offset 24
 1878              		.cfi_offset 4, -24
 1879              		.cfi_offset 5, -20
 1880              		.cfi_offset 6, -16
 1881              		.cfi_offset 7, -12
 1882              		.cfi_offset 8, -8
 1883              		.cfi_offset 14, -4
 1884              		.loc 1 66 0
 1885 0734 3A4A     		ldr	r2, .L159
 1886              		.loc 1 88 0
 1887 0736 3B4C     		ldr	r4, .L159+4
 1888              		.loc 1 66 0
 1889 0738 936B     		ldr	r3, [r2, #56]
 1890              		.loc 1 94 0
 1891 073a 3B4E     		ldr	r6, .L159+8
 1892              		.loc 1 96 0
 1893 073c 3B4D     		ldr	r5, .L159+12
 1894              		.loc 1 66 0
 1895 073e 43F00103 		orr	r3, r3, #1
 1896              		.loc 1 61 0
 1897 0742 92B0     		sub	sp, sp, #72
 1898              		.cfi_def_cfa_offset 96
 1899              		.loc 1 66 0
 1900 0744 9363     		str	r3, [r2, #56]
 1901              		.loc 1 88 0
 1902 0746 2046     		mov	r0, r4
 1903 0748 0421     		movs	r1, #4
 1904 074a 40F20262 		movw	r2, #1538
 1905 074e FFF7FEFF 		bl	_pal_lld_setgroupmode
 1906              	.LVL135:
 1907              		.loc 1 89 0
 1908 0752 A368     		ldr	r3, [r4, #8]
 1909 0754 43F03003 		orr	r3, r3, #48
 1910 0758 A360     		str	r3, [r4, #8]
 1911              		.loc 1 90 0
 1912 075a 2046     		mov	r0, r4
 1913 075c 0121     		movs	r1, #1
 1914 075e 40F20262 		movw	r2, #1538
 1915 0762 FFF7FEFF 		bl	_pal_lld_setgroupmode
 1916              	.LVL136:
 1917              		.loc 1 91 0
 1918 0766 A368     		ldr	r3, [r4, #8]
 1919 0768 43F00303 		orr	r3, r3, #3
 1920 076c A360     		str	r3, [r4, #8]
 1921              		.loc 1 92 0
ARM GAS  /var/folders/28/j9jfyj_n4wz3qtvnym210h2c0000gn/T//cc7mox5M.s 			page 35


 1922 076e 2046     		mov	r0, r4
 1923 0770 0821     		movs	r1, #8
 1924 0772 40F20262 		movw	r2, #1538
 1925 0776 FFF7FEFF 		bl	_pal_lld_setgroupmode
 1926              	.LVL137:
 1927              		.loc 1 93 0
 1928 077a A368     		ldr	r3, [r4, #8]
 1929 077c 43F0C003 		orr	r3, r3, #192
 1930 0780 A360     		str	r3, [r4, #8]
 1931              		.loc 1 94 0
 1932 0782 3046     		mov	r0, r6
 1933 0784 4FF40061 		mov	r1, #2048
 1934 0788 40F20262 		movw	r2, #1538
 1935 078c FFF7FEFF 		bl	_pal_lld_setgroupmode
 1936              	.LVL138:
 1937              		.loc 1 95 0
 1938 0790 B368     		ldr	r3, [r6, #8]
 1939 0792 43F44003 		orr	r3, r3, #12582912
 1940 0796 B360     		str	r3, [r6, #8]
 1941              		.loc 1 96 0
 1942 0798 2846     		mov	r0, r5
 1943 079a 4FF40041 		mov	r1, #32768
 1944 079e 40F20262 		movw	r2, #1538
 1945 07a2 FFF7FEFF 		bl	_pal_lld_setgroupmode
 1946              	.LVL139:
 1947              		.loc 1 97 0
 1948 07a6 AB68     		ldr	r3, [r5, #8]
 1949 07a8 43F04043 		orr	r3, r3, #-1073741824
 1950 07ac AB60     		str	r3, [r5, #8]
 1951              		.loc 1 98 0
 1952 07ae 2846     		mov	r0, r5
 1953 07b0 4FF48071 		mov	r1, #256
 1954 07b4 40F20262 		movw	r2, #1538
 1955 07b8 FFF7FEFF 		bl	_pal_lld_setgroupmode
 1956              	.LVL140:
 1957              		.loc 1 99 0
 1958 07bc AB68     		ldr	r3, [r5, #8]
 1959 07be 43F44033 		orr	r3, r3, #196608
 1960 07c2 AB60     		str	r3, [r5, #8]
 1961              		.loc 1 121 0
 1962 07c4 0022     		movs	r2, #0
 1963              		.loc 1 106 0
 1964 07c6 0223     		movs	r3, #2
 1965              		.loc 1 110 0
 1966 07c8 0421     		movs	r1, #4
 1967              		.loc 1 127 0
 1968 07ca 4FF0400C 		mov	ip, #64
 1969              		.loc 1 128 0
 1970 07ce 4FF4807E 		mov	lr, #256
 1971              		.loc 1 108 0
 1972 07d2 0724     		movs	r4, #7
 1973              		.loc 1 136 0
 1974 07d4 07A8     		add	r0, sp, #28
 1975              		.loc 1 126 0
 1976 07d6 4FF01008 		mov	r8, #16
 1977              		.loc 1 130 0
 1978 07da 4FF40067 		mov	r7, #2048
ARM GAS  /var/folders/28/j9jfyj_n4wz3qtvnym210h2c0000gn/T//cc7mox5M.s 			page 36


 1979              		.loc 1 131 0
 1980 07de 4FF48056 		mov	r6, #4096
 1981              		.loc 1 132 0
 1982 07e2 4FF40055 		mov	r5, #8192
 1983              		.loc 1 106 0
 1984 07e6 0093     		str	r3, [sp]
 1985              		.loc 1 114 0
 1986 07e8 0493     		str	r3, [sp, #16]
 1987              		.loc 1 116 0
 1988 07ea 0593     		str	r3, [sp, #20]
 1989              		.loc 1 118 0
 1990 07ec 0693     		str	r3, [sp, #24]
 1991              		.loc 1 110 0
 1992 07ee 0291     		str	r1, [sp, #8]
 1993              		.loc 1 125 0
 1994 07f0 0991     		str	r1, [sp, #36]
 1995              		.loc 1 121 0
 1996 07f2 0792     		str	r2, [sp, #28]
 1997              		.loc 1 123 0
 1998 07f4 0892     		str	r2, [sp, #32]
 1999              		.loc 1 129 0
 2000 07f6 0D92     		str	r2, [sp, #52]
 2001              		.loc 1 127 0
 2002 07f8 CDF82CC0 		str	ip, [sp, #44]
 2003              		.loc 1 128 0
 2004 07fc CDF830E0 		str	lr, [sp, #48]
 2005              		.loc 1 108 0
 2006 0800 0194     		str	r4, [sp, #4]
 2007              		.loc 1 112 0
 2008 0802 0394     		str	r4, [sp, #12]
 2009              		.loc 1 126 0
 2010 0804 CDF82880 		str	r8, [sp, #40]
 2011              		.loc 1 130 0
 2012 0808 0E97     		str	r7, [sp, #56]
 2013              		.loc 1 131 0
 2014 080a 0F96     		str	r6, [sp, #60]
 2015              		.loc 1 132 0
 2016 080c 1095     		str	r5, [sp, #64]
 2017              		.loc 1 133 0
 2018 080e CDF844D0 		str	sp, [sp, #68]
 2019              		.loc 1 136 0
 2020 0812 FFF7FEFF 		bl	FMC_SDRAMInit
 2021              	.LVL141:
 2022              		.loc 1 139 0
 2023 0816 FFF7FEFF 		bl	SDRAM_InitSequence
 2024              	.LVL142:
 2025              		.loc 1 141 0
 2026 081a 12B0     		add	sp, sp, #72
 2027              		.cfi_def_cfa_offset 24
 2028              		@ sp needed
 2029 081c BDE8F081 		pop	{r4, r5, r6, r7, r8, pc}
 2030              	.L160:
 2031              		.align	2
 2032              	.L159:
 2033 0820 00380240 		.word	1073887232
 2034 0824 00080240 		.word	1073874944
 2035 0828 00140240 		.word	1073878016
ARM GAS  /var/folders/28/j9jfyj_n4wz3qtvnym210h2c0000gn/T//cc7mox5M.s 			page 37


 2036 082c 00180240 		.word	1073879040
 2037              		.cfi_endproc
 2038              	.LFE180:
 2039              		.size	SDRAM_Init, .-SDRAM_Init
 2040              		.align	2
 2041              		.p2align 4,,15
 2042              		.global	configSDRAM
 2043              		.thumb
 2044              		.thumb_func
 2045              		.type	configSDRAM, %function
 2046              	configSDRAM:
 2047              	.LFB181:
 2048              		.loc 1 143 0
 2049              		.cfi_startproc
 2050              		@ args = 0, pretend = 0, frame = 0
 2051              		@ frame_needed = 0, uses_anonymous_args = 0
 2052              		@ link register save eliminated.
 2053              		.loc 1 144 0
 2054 0830 FFF7FEBF 		b	SDRAM_Init
 2055              	.LVL143:
 2056              		.cfi_endproc
 2057              	.LFE181:
 2058              		.size	configSDRAM, .-configSDRAM
 2059              		.align	2
 2060 0834 AFF30080 		.p2align 4,,15
 2060      AFF30080 
 2060      AFF30080 
 2061              		.global	FMC_SDRAMStructInit
 2062              		.thumb
 2063              		.thumb_func
 2064              		.type	FMC_SDRAMStructInit, %function
 2065              	FMC_SDRAMStructInit:
 2066              	.LFB203:
 2067              		.loc 2 924 0
 2068              		.cfi_startproc
 2069              		@ args = 0, pretend = 0, frame = 0
 2070              		@ frame_needed = 0, uses_anonymous_args = 0
 2071              		@ link register save eliminated.
 2072              	.LVL144:
 2073 0840 30B4     		push	{r4, r5}
 2074              		.cfi_def_cfa_offset 8
 2075              		.cfi_offset 4, -8
 2076              		.cfi_offset 5, -4
 2077              		.loc 2 937 0
 2078 0842 826A     		ldr	r2, [r0, #40]
 2079              		.loc 2 930 0
 2080 0844 4023     		movs	r3, #64
 2081 0846 0361     		str	r3, [r0, #16]
 2082              		.loc 2 926 0
 2083 0848 0021     		movs	r1, #0
 2084              		.loc 2 929 0
 2085 084a 1023     		movs	r3, #16
 2086              		.loc 2 931 0
 2087 084c 8025     		movs	r5, #128
 2088              		.loc 2 932 0
 2089 084e 4FF40074 		mov	r4, #512
 2090              		.loc 2 931 0
ARM GAS  /var/folders/28/j9jfyj_n4wz3qtvnym210h2c0000gn/T//cc7mox5M.s 			page 38


 2091 0852 4561     		str	r5, [r0, #20]
 2092              		.loc 2 932 0
 2093 0854 8461     		str	r4, [r0, #24]
 2094              		.loc 2 926 0
 2095 0856 0160     		str	r1, [r0]
 2096              		.loc 2 927 0
 2097 0858 4160     		str	r1, [r0, #4]
 2098              		.loc 2 928 0
 2099 085a 8160     		str	r1, [r0, #8]
 2100              		.loc 2 933 0
 2101 085c C161     		str	r1, [r0, #28]
 2102              		.loc 2 934 0
 2103 085e 0162     		str	r1, [r0, #32]
 2104              		.loc 2 935 0
 2105 0860 4162     		str	r1, [r0, #36]
 2106              		.loc 2 929 0
 2107 0862 C360     		str	r3, [r0, #12]
 2108              		.loc 2 945 0
 2109 0864 30BC     		pop	{r4, r5}
 2110              		.cfi_restore 5
 2111              		.cfi_restore 4
 2112              		.cfi_def_cfa_offset 0
 2113              		.loc 2 937 0
 2114 0866 1360     		str	r3, [r2]
 2115              		.loc 2 938 0
 2116 0868 5360     		str	r3, [r2, #4]
 2117              		.loc 2 939 0
 2118 086a 9360     		str	r3, [r2, #8]
 2119              		.loc 2 940 0
 2120 086c D360     		str	r3, [r2, #12]
 2121              		.loc 2 941 0
 2122 086e 1361     		str	r3, [r2, #16]
 2123              		.loc 2 942 0
 2124 0870 5361     		str	r3, [r2, #20]
 2125              		.loc 2 943 0
 2126 0872 9361     		str	r3, [r2, #24]
 2127              		.loc 2 945 0
 2128 0874 7047     		bx	lr
 2129              		.cfi_endproc
 2130              	.LFE203:
 2131              		.size	FMC_SDRAMStructInit, .-FMC_SDRAMStructInit
 2132 0876 00BF     		.align	2
 2133 0878 AFF30080 		.p2align 4,,15
 2133      AFF30080 
 2134              		.global	FMC_SDRAMCmdConfig
 2135              		.thumb
 2136              		.thumb_func
 2137              		.type	FMC_SDRAMCmdConfig, %function
 2138              	FMC_SDRAMCmdConfig:
 2139              	.LFB204:
 2140              		.loc 2 954 0
 2141              		.cfi_startproc
 2142              		@ args = 0, pretend = 0, frame = 0
 2143              		@ frame_needed = 0, uses_anonymous_args = 0
 2144              		@ link register save eliminated.
 2145              	.LVL145:
 2146              		.loc 2 965 0
ARM GAS  /var/folders/28/j9jfyj_n4wz3qtvnym210h2c0000gn/T//cc7mox5M.s 			page 39


 2147 0880 011D     		adds	r1, r0, #4
 2148              		.loc 2 954 0
 2149 0882 30B4     		push	{r4, r5}
 2150              		.cfi_def_cfa_offset 8
 2151              		.cfi_offset 4, -8
 2152              		.cfi_offset 5, -4
 2153              		.loc 2 965 0
 2154 0884 2AC9     		ldmia	r1, {r1, r3, r5}
 2155 0886 0268     		ldr	r2, [r0]
 2156              		.loc 2 968 0
 2157 0888 044C     		ldr	r4, .L166
 2158 088a 0A43     		orrs	r2, r2, r1
 2159 088c 42EA4522 		orr	r2, r2, r5, lsl #9
 2160              		.loc 2 965 0
 2161 0890 013B     		subs	r3, r3, #1
 2162              		.loc 2 963 0
 2163 0892 42EA4313 		orr	r3, r2, r3, lsl #5
 2164              	.LVL146:
 2165              		.loc 2 968 0
 2166 0896 2361     		str	r3, [r4, #16]
 2167              		.loc 2 970 0
 2168 0898 30BC     		pop	{r4, r5}
 2169              		.cfi_restore 5
 2170              		.cfi_restore 4
 2171              		.cfi_def_cfa_offset 0
 2172 089a 7047     		bx	lr
 2173              	.L167:
 2174              		.align	2
 2175              	.L166:
 2176 089c 400100A0 		.word	-1610612416
 2177              		.cfi_endproc
 2178              	.LFE204:
 2179              		.size	FMC_SDRAMCmdConfig, .-FMC_SDRAMCmdConfig
 2180              		.align	2
 2181              		.p2align 4,,15
 2182              		.global	FMC_GetModeStatus
 2183              		.thumb
 2184              		.thumb_func
 2185              		.type	FMC_GetModeStatus, %function
 2186              	FMC_GetModeStatus:
 2187              	.LFB205:
 2188              		.loc 2 980 0
 2189              		.cfi_startproc
 2190              		@ args = 0, pretend = 0, frame = 0
 2191              		@ frame_needed = 0, uses_anonymous_args = 0
 2192              		@ link register save eliminated.
 2193              	.LVL147:
 2194              		.loc 2 989 0
 2195 08a0 054B     		ldr	r3, .L172
 2196              		.loc 2 987 0
 2197 08a2 20B1     		cbz	r0, .L171
 2198              		.loc 2 993 0
 2199 08a4 9869     		ldr	r0, [r3, #24]
 2200              	.LVL148:
 2201 08a6 00F01800 		and	r0, r0, #24
 2202 08aa 8008     		lsrs	r0, r0, #2
 2203              	.LVL149:
ARM GAS  /var/folders/28/j9jfyj_n4wz3qtvnym210h2c0000gn/T//cc7mox5M.s 			page 40


 2204              		.loc 2 998 0
 2205 08ac 7047     		bx	lr
 2206              	.LVL150:
 2207              	.L171:
 2208              		.loc 2 989 0
 2209 08ae 9869     		ldr	r0, [r3, #24]
 2210              	.LVL151:
 2211 08b0 00F00600 		and	r0, r0, #6
 2212              	.LVL152:
 2213 08b4 7047     		bx	lr
 2214              	.L173:
 2215 08b6 00BF     		.align	2
 2216              	.L172:
 2217 08b8 400100A0 		.word	-1610612416
 2218              		.cfi_endproc
 2219              	.LFE205:
 2220              		.size	FMC_GetModeStatus, .-FMC_GetModeStatus
 2221              		.align	2
 2222 08bc AFF30080 		.p2align 4,,15
 2223              		.global	FMC_SetRefreshCount
 2224              		.thumb
 2225              		.thumb_func
 2226              		.type	FMC_SetRefreshCount, %function
 2227              	FMC_SetRefreshCount:
 2228              	.LFB206:
 2229              		.loc 2 1006 0
 2230              		.cfi_startproc
 2231              		@ args = 0, pretend = 0, frame = 0
 2232              		@ frame_needed = 0, uses_anonymous_args = 0
 2233              		@ link register save eliminated.
 2234              	.LVL153:
 2235              		.loc 2 1010 0
 2236 08c0 024A     		ldr	r2, .L175
 2237 08c2 5369     		ldr	r3, [r2, #20]
 2238 08c4 43EA4000 		orr	r0, r3, r0, lsl #1
 2239              	.LVL154:
 2240 08c8 5061     		str	r0, [r2, #20]
 2241 08ca 7047     		bx	lr
 2242              	.L176:
 2243              		.align	2
 2244              	.L175:
 2245 08cc 400100A0 		.word	-1610612416
 2246              		.cfi_endproc
 2247              	.LFE206:
 2248              		.size	FMC_SetRefreshCount, .-FMC_SetRefreshCount
 2249              		.align	2
 2250              		.p2align 4,,15
 2251              		.global	FMC_SetAutoRefresh_Number
 2252              		.thumb
 2253              		.thumb_func
 2254              		.type	FMC_SetAutoRefresh_Number, %function
 2255              	FMC_SetAutoRefresh_Number:
 2256              	.LFB207:
 2257              		.loc 2 1020 0
 2258              		.cfi_startproc
 2259              		@ args = 0, pretend = 0, frame = 0
 2260              		@ frame_needed = 0, uses_anonymous_args = 0
ARM GAS  /var/folders/28/j9jfyj_n4wz3qtvnym210h2c0000gn/T//cc7mox5M.s 			page 41


 2261              		@ link register save eliminated.
 2262              	.LVL155:
 2263              		.loc 2 1024 0
 2264 08d0 024A     		ldr	r2, .L178
 2265 08d2 1369     		ldr	r3, [r2, #16]
 2266 08d4 43EA4010 		orr	r0, r3, r0, lsl #5
 2267              	.LVL156:
 2268 08d8 1061     		str	r0, [r2, #16]
 2269 08da 7047     		bx	lr
 2270              	.L179:
 2271              		.align	2
 2272              	.L178:
 2273 08dc 400100A0 		.word	-1610612416
 2274              		.cfi_endproc
 2275              	.LFE207:
 2276              		.size	FMC_SetAutoRefresh_Number, .-FMC_SetAutoRefresh_Number
 2277              		.align	2
 2278              		.p2align 4,,15
 2279              		.global	FMC_SDRAMWriteProtectionConfig
 2280              		.thumb
 2281              		.thumb_func
 2282              		.type	FMC_SDRAMWriteProtectionConfig, %function
 2283              	FMC_SDRAMWriteProtectionConfig:
 2284              	.LFB208:
 2285              		.loc 2 1036 0
 2286              		.cfi_startproc
 2287              		@ args = 0, pretend = 0, frame = 0
 2288              		@ frame_needed = 0, uses_anonymous_args = 0
 2289              		@ link register save eliminated.
 2290              	.LVL157:
 2291 08e0 8000     		lsls	r0, r0, #2
 2292              	.LVL158:
 2293 08e2 00F12040 		add	r0, r0, #-1610612736
 2294              		.loc 2 1041 0
 2295 08e6 39B9     		cbnz	r1, .L183
 2296              		.loc 2 1047 0
 2297 08e8 D0F84021 		ldr	r2, [r0, #320]
 2298 08ec 47F6FF53 		movw	r3, #32255
 2299 08f0 1340     		ands	r3, r3, r2
 2300 08f2 C0F84031 		str	r3, [r0, #320]
 2301 08f6 7047     		bx	lr
 2302              	.L183:
 2303              		.loc 2 1043 0
 2304 08f8 D0F84031 		ldr	r3, [r0, #320]
 2305 08fc 43F40073 		orr	r3, r3, #512
 2306 0900 C0F84031 		str	r3, [r0, #320]
 2307 0904 7047     		bx	lr
 2308              		.cfi_endproc
 2309              	.LFE208:
 2310              		.size	FMC_SDRAMWriteProtectionConfig, .-FMC_SDRAMWriteProtectionConfig
 2311 0906 00BF     		.align	2
 2312 0908 AFF30080 		.p2align 4,,15
 2312      AFF30080 
 2313              		.global	FMC_ITConfig
 2314              		.thumb
 2315              		.thumb_func
 2316              		.type	FMC_ITConfig, %function
ARM GAS  /var/folders/28/j9jfyj_n4wz3qtvnym210h2c0000gn/T//cc7mox5M.s 			page 42


 2317              	FMC_ITConfig:
 2318              	.LFB209:
 2319              		.loc 2 1088 0
 2320              		.cfi_startproc
 2321              		@ args = 0, pretend = 0, frame = 0
 2322              		@ frame_needed = 0, uses_anonymous_args = 0
 2323              		@ link register save eliminated.
 2324              	.LVL159:
 2325              		.loc 2 1093 0
 2326 0910 62B1     		cbz	r2, .L185
 2327              		.loc 2 1096 0
 2328 0912 1028     		cmp	r0, #16
 2329 0914 1ED0     		beq	.L193
 2330              		.loc 2 1101 0
 2331 0916 B0F5807F 		cmp	r0, #256
 2332 091a 2BD0     		beq	.L194
 2333              		.loc 2 1106 0
 2334 091c B0F5805F 		cmp	r0, #4096
 2335 0920 1DD0     		beq	.L195
 2336              		.loc 2 1114 0
 2337 0922 1A4A     		ldr	r2, .L199
 2338              	.LVL160:
 2339 0924 5369     		ldr	r3, [r2, #20]
 2340 0926 1943     		orrs	r1, r1, r3
 2341              	.LVL161:
 2342 0928 5161     		str	r1, [r2, #20]
 2343 092a 7047     		bx	lr
 2344              	.LVL162:
 2345              	.L185:
 2346              		.loc 2 1120 0
 2347 092c 1028     		cmp	r0, #16
 2348 092e 0BD0     		beq	.L196
 2349              		.loc 2 1126 0
 2350 0930 B0F5807F 		cmp	r0, #256
 2351 0934 18D0     		beq	.L197
 2352              		.loc 2 1131 0
 2353 0936 B0F5805F 		cmp	r0, #4096
 2354 093a 20D0     		beq	.L198
 2355              		.loc 2 1139 0
 2356 093c 134A     		ldr	r2, .L199
 2357              	.LVL163:
 2358 093e 5369     		ldr	r3, [r2, #20]
 2359 0940 23EA0101 		bic	r1, r3, r1
 2360              	.LVL164:
 2361 0944 5161     		str	r1, [r2, #20]
 2362 0946 7047     		bx	lr
 2363              	.LVL165:
 2364              	.L196:
 2365              		.loc 2 1123 0
 2366 0948 114A     		ldr	r2, .L199+4
 2367              	.LVL166:
 2368 094a 5368     		ldr	r3, [r2, #4]
 2369 094c 23EA0101 		bic	r1, r3, r1
 2370              	.LVL167:
 2371 0950 5160     		str	r1, [r2, #4]
 2372 0952 7047     		bx	lr
 2373              	.LVL168:
ARM GAS  /var/folders/28/j9jfyj_n4wz3qtvnym210h2c0000gn/T//cc7mox5M.s 			page 43


 2374              	.L193:
 2375              		.loc 2 1098 0
 2376 0954 0E4A     		ldr	r2, .L199+4
 2377              	.LVL169:
 2378 0956 5368     		ldr	r3, [r2, #4]
 2379 0958 1943     		orrs	r1, r1, r3
 2380              	.LVL170:
 2381 095a 5160     		str	r1, [r2, #4]
 2382 095c 7047     		bx	lr
 2383              	.LVL171:
 2384              	.L195:
 2385              		.loc 2 1108 0
 2386 095e 0D4A     		ldr	r2, .L199+8
 2387              	.LVL172:
 2388 0960 5368     		ldr	r3, [r2, #4]
 2389 0962 1943     		orrs	r1, r1, r3
 2390              	.LVL173:
 2391 0964 5160     		str	r1, [r2, #4]
 2392 0966 7047     		bx	lr
 2393              	.LVL174:
 2394              	.L197:
 2395              		.loc 2 1128 0
 2396 0968 0B4A     		ldr	r2, .L199+12
 2397              	.LVL175:
 2398 096a 5368     		ldr	r3, [r2, #4]
 2399 096c 23EA0101 		bic	r1, r3, r1
 2400              	.LVL176:
 2401 0970 5160     		str	r1, [r2, #4]
 2402 0972 7047     		bx	lr
 2403              	.LVL177:
 2404              	.L194:
 2405              		.loc 2 1103 0
 2406 0974 084A     		ldr	r2, .L199+12
 2407              	.LVL178:
 2408 0976 5368     		ldr	r3, [r2, #4]
 2409 0978 1943     		orrs	r1, r1, r3
 2410              	.LVL179:
 2411 097a 5160     		str	r1, [r2, #4]
 2412 097c 7047     		bx	lr
 2413              	.LVL180:
 2414              	.L198:
 2415              		.loc 2 1133 0
 2416 097e 054A     		ldr	r2, .L199+8
 2417              	.LVL181:
 2418 0980 5368     		ldr	r3, [r2, #4]
 2419 0982 23EA0101 		bic	r1, r3, r1
 2420              	.LVL182:
 2421 0986 5160     		str	r1, [r2, #4]
 2422 0988 7047     		bx	lr
 2423              	.L200:
 2424 098a 00BF     		.align	2
 2425              	.L199:
 2426 098c 400100A0 		.word	-1610612416
 2427 0990 600000A0 		.word	-1610612640
 2428 0994 A00000A0 		.word	-1610612576
 2429 0998 800000A0 		.word	-1610612608
 2430              		.cfi_endproc
ARM GAS  /var/folders/28/j9jfyj_n4wz3qtvnym210h2c0000gn/T//cc7mox5M.s 			page 44


 2431              	.LFE209:
 2432              		.size	FMC_ITConfig, .-FMC_ITConfig
 2433              		.align	2
 2434 099c AFF30080 		.p2align 4,,15
 2435              		.global	FMC_GetFlagStatus
 2436              		.thumb
 2437              		.thumb_func
 2438              		.type	FMC_GetFlagStatus, %function
 2439              	FMC_GetFlagStatus:
 2440              	.LFB210:
 2441              		.loc 2 1165 0
 2442              		.cfi_startproc
 2443              		@ args = 0, pretend = 0, frame = 0
 2444              		@ frame_needed = 0, uses_anonymous_args = 0
 2445              		@ link register save eliminated.
 2446              	.LVL183:
 2447              		.loc 2 1173 0
 2448 09a0 1028     		cmp	r0, #16
 2449 09a2 10D0     		beq	.L206
 2450              		.loc 2 1177 0
 2451 09a4 B0F5807F 		cmp	r0, #256
 2452 09a8 10D0     		beq	.L207
 2453              		.loc 2 1181 0
 2454 09aa B0F5805F 		cmp	r0, #4096
 2455              		.loc 2 1183 0
 2456 09ae 0BBF     		itete	eq
 2457 09b0 084B     		ldreq	r3, .L208
 2458              		.loc 2 1187 0
 2459 09b2 094B     		ldrne	r3, .L208+4
 2460              		.loc 2 1183 0
 2461 09b4 5B68     		ldreq	r3, [r3, #4]
 2462              	.LVL184:
 2463              		.loc 2 1187 0
 2464 09b6 9B69     		ldrne	r3, [r3, #24]
 2465              	.LVL185:
 2466              	.L203:
 2467              		.loc 2 1191 0
 2468 09b8 03EA0100 		and	r0, r3, r1
 2469              	.LVL186:
 2470              		.loc 2 1201 0
 2471 09bc 081A     		subs	r0, r1, r0
 2472 09be B0FA80F0 		clz	r0, r0
 2473 09c2 4009     		lsrs	r0, r0, #5
 2474 09c4 7047     		bx	lr
 2475              	.LVL187:
 2476              	.L206:
 2477              		.loc 2 1175 0
 2478 09c6 054B     		ldr	r3, .L208+8
 2479 09c8 5B68     		ldr	r3, [r3, #4]
 2480              	.LVL188:
 2481 09ca F5E7     		b	.L203
 2482              	.LVL189:
 2483              	.L207:
 2484              		.loc 2 1179 0
 2485 09cc 044B     		ldr	r3, .L208+12
 2486 09ce 5B68     		ldr	r3, [r3, #4]
 2487              	.LVL190:
ARM GAS  /var/folders/28/j9jfyj_n4wz3qtvnym210h2c0000gn/T//cc7mox5M.s 			page 45


 2488 09d0 F2E7     		b	.L203
 2489              	.L209:
 2490 09d2 00BF     		.align	2
 2491              	.L208:
 2492 09d4 A00000A0 		.word	-1610612576
 2493 09d8 400100A0 		.word	-1610612416
 2494 09dc 600000A0 		.word	-1610612640
 2495 09e0 800000A0 		.word	-1610612608
 2496              		.cfi_endproc
 2497              	.LFE210:
 2498              		.size	FMC_GetFlagStatus, .-FMC_GetFlagStatus
 2499              		.align	2
 2500 09e4 AFF30080 		.p2align 4,,15
 2500      AFF30080 
 2500      AFF30080 
 2501              		.global	FMC_ClearFlag
 2502              		.thumb
 2503              		.thumb_func
 2504              		.type	FMC_ClearFlag, %function
 2505              	FMC_ClearFlag:
 2506              	.LFB211:
 2507              		.loc 2 1221 0
 2508              		.cfi_startproc
 2509              		@ args = 0, pretend = 0, frame = 0
 2510              		@ frame_needed = 0, uses_anonymous_args = 0
 2511              		@ link register save eliminated.
 2512              	.LVL191:
 2513              		.loc 2 1226 0
 2514 09f0 1028     		cmp	r0, #16
 2515 09f2 0BD0     		beq	.L215
 2516              		.loc 2 1230 0
 2517 09f4 B0F5807F 		cmp	r0, #256
 2518 09f8 0ED0     		beq	.L216
 2519              		.loc 2 1234 0
 2520 09fa B0F5805F 		cmp	r0, #4096
 2521 09fe 11D0     		beq	.L217
 2522              		.loc 2 1241 0
 2523 0a00 0B4A     		ldr	r2, .L218
 2524 0a02 5369     		ldr	r3, [r2, #20]
 2525 0a04 23EA0101 		bic	r1, r3, r1
 2526              	.LVL192:
 2527 0a08 5161     		str	r1, [r2, #20]
 2528 0a0a 7047     		bx	lr
 2529              	.LVL193:
 2530              	.L215:
 2531              		.loc 2 1228 0
 2532 0a0c 094A     		ldr	r2, .L218+4
 2533 0a0e 5368     		ldr	r3, [r2, #4]
 2534 0a10 23EA0101 		bic	r1, r3, r1
 2535              	.LVL194:
 2536 0a14 5160     		str	r1, [r2, #4]
 2537 0a16 7047     		bx	lr
 2538              	.LVL195:
 2539              	.L216:
 2540              		.loc 2 1232 0
 2541 0a18 074A     		ldr	r2, .L218+8
 2542 0a1a 5368     		ldr	r3, [r2, #4]
ARM GAS  /var/folders/28/j9jfyj_n4wz3qtvnym210h2c0000gn/T//cc7mox5M.s 			page 46


 2543 0a1c 23EA0101 		bic	r1, r3, r1
 2544              	.LVL196:
 2545 0a20 5160     		str	r1, [r2, #4]
 2546 0a22 7047     		bx	lr
 2547              	.LVL197:
 2548              	.L217:
 2549              		.loc 2 1236 0
 2550 0a24 054A     		ldr	r2, .L218+12
 2551 0a26 5368     		ldr	r3, [r2, #4]
 2552 0a28 23EA0101 		bic	r1, r3, r1
 2553              	.LVL198:
 2554 0a2c 5160     		str	r1, [r2, #4]
 2555 0a2e 7047     		bx	lr
 2556              	.L219:
 2557              		.align	2
 2558              	.L218:
 2559 0a30 400100A0 		.word	-1610612416
 2560 0a34 600000A0 		.word	-1610612640
 2561 0a38 800000A0 		.word	-1610612608
 2562 0a3c A00000A0 		.word	-1610612576
 2563              		.cfi_endproc
 2564              	.LFE211:
 2565              		.size	FMC_ClearFlag, .-FMC_ClearFlag
 2566              		.align	2
 2567              		.p2align 4,,15
 2568              		.global	FMC_GetITStatus
 2569              		.thumb
 2570              		.thumb_func
 2571              		.type	FMC_GetITStatus, %function
 2572              	FMC_GetITStatus:
 2573              	.LFB212:
 2574              		.loc 2 1264 0
 2575              		.cfi_startproc
 2576              		@ args = 0, pretend = 0, frame = 0
 2577              		@ frame_needed = 0, uses_anonymous_args = 0
 2578              		@ link register save eliminated.
 2579              	.LVL199:
 2580              		.loc 2 1275 0
 2581 0a40 1028     		cmp	r0, #16
 2582              		.loc 2 1264 0
 2583 0a42 10B4     		push	{r4}
 2584              		.cfi_def_cfa_offset 4
 2585              		.cfi_offset 4, -4
 2586              		.loc 2 1275 0
 2587 0a44 1CD0     		beq	.L231
 2588              		.loc 2 1279 0
 2589 0a46 B0F5807F 		cmp	r0, #256
 2590 0a4a 12D0     		beq	.L232
 2591              		.loc 2 1283 0
 2592 0a4c B0F5805F 		cmp	r0, #4096
 2593 0a50 1DD0     		beq	.L233
 2594              		.loc 2 1290 0
 2595 0a52 104A     		ldr	r2, .L234
 2596 0a54 5369     		ldr	r3, [r2, #20]
 2597              	.LVL200:
 2598              		.loc 2 1291 0
 2599 0a56 9469     		ldr	r4, [r2, #24]
ARM GAS  /var/folders/28/j9jfyj_n4wz3qtvnym210h2c0000gn/T//cc7mox5M.s 			page 47


 2600              	.LVL201:
 2601              		.loc 2 1298 0
 2602 0a58 0128     		cmp	r0, #1
 2603              		.loc 2 1295 0
 2604 0a5a 01EA0302 		and	r2, r1, r3
 2605              	.LVL202:
 2606              		.loc 2 1298 0
 2607 0a5e 0CD8     		bhi	.L222
 2608              		.loc 2 1300 0
 2609 0a60 04F00100 		and	r0, r4, #1
 2610              	.LVL203:
 2611              	.L226:
 2612              		.loc 2 1307 0
 2613 0a64 10B1     		cbz	r0, .L229
 2614              		.loc 2 1309 0 discriminator 1
 2615 0a66 101C     		adds	r0, r2, #0
 2616              	.LVL204:
 2617 0a68 18BF     		it	ne
 2618 0a6a 0120     		movne	r0, #1
 2619              	.L229:
 2620              		.loc 2 1316 0
 2621 0a6c 5DF8044B 		ldr	r4, [sp], #4
 2622              		.cfi_remember_state
 2623              		.cfi_restore 4
 2624              		.cfi_def_cfa_offset 0
 2625 0a70 7047     		bx	lr
 2626              	.LVL205:
 2627              	.L232:
 2628              		.cfi_restore_state
 2629              		.loc 2 1281 0
 2630 0a72 094B     		ldr	r3, .L234+4
 2631 0a74 5B68     		ldr	r3, [r3, #4]
 2632              	.LVL206:
 2633              	.L224:
 2634              		.loc 2 1295 0
 2635 0a76 03EA0102 		and	r2, r3, r1
 2636              	.LVL207:
 2637              	.L222:
 2638              		.loc 2 1304 0
 2639 0a7a 03EAD100 		and	r0, r3, r1, lsr #3
 2640              	.LVL208:
 2641 0a7e F1E7     		b	.L226
 2642              	.LVL209:
 2643              	.L231:
 2644              		.loc 2 1277 0
 2645 0a80 064B     		ldr	r3, .L234+8
 2646 0a82 5B68     		ldr	r3, [r3, #4]
 2647              	.LVL210:
 2648              		.loc 2 1295 0
 2649 0a84 01EA0302 		and	r2, r1, r3
 2650              	.LVL211:
 2651              		.loc 2 1304 0
 2652 0a88 03EAD100 		and	r0, r3, r1, lsr #3
 2653              	.LVL212:
 2654 0a8c EAE7     		b	.L226
 2655              	.LVL213:
 2656              	.L233:
ARM GAS  /var/folders/28/j9jfyj_n4wz3qtvnym210h2c0000gn/T//cc7mox5M.s 			page 48


 2657              		.loc 2 1285 0
 2658 0a8e 044B     		ldr	r3, .L234+12
 2659 0a90 5B68     		ldr	r3, [r3, #4]
 2660              	.LVL214:
 2661 0a92 F0E7     		b	.L224
 2662              	.L235:
 2663              		.align	2
 2664              	.L234:
 2665 0a94 400100A0 		.word	-1610612416
 2666 0a98 800000A0 		.word	-1610612608
 2667 0a9c 600000A0 		.word	-1610612640
 2668 0aa0 A00000A0 		.word	-1610612576
 2669              		.cfi_endproc
 2670              	.LFE212:
 2671              		.size	FMC_GetITStatus, .-FMC_GetITStatus
 2672              		.align	2
 2673 0aa4 AFF30080 		.p2align 4,,15
 2673      AFF30080 
 2673      AFF30080 
 2674              		.global	FMC_ClearITPendingBit
 2675              		.thumb
 2676              		.thumb_func
 2677              		.type	FMC_ClearITPendingBit, %function
 2678              	FMC_ClearITPendingBit:
 2679              	.LFB213:
 2680              		.loc 2 1336 0
 2681              		.cfi_startproc
 2682              		@ args = 0, pretend = 0, frame = 0
 2683              		@ frame_needed = 0, uses_anonymous_args = 0
 2684              		@ link register save eliminated.
 2685              	.LVL215:
 2686              		.loc 2 1341 0
 2687 0ab0 1028     		cmp	r0, #16
 2688 0ab2 0BD0     		beq	.L241
 2689              		.loc 2 1345 0
 2690 0ab4 B0F5807F 		cmp	r0, #256
 2691 0ab8 0ED0     		beq	.L242
 2692              		.loc 2 1349 0
 2693 0aba B0F5805F 		cmp	r0, #4096
 2694 0abe 11D0     		beq	.L243
 2695              		.loc 2 1356 0
 2696 0ac0 0B4A     		ldr	r2, .L244
 2697 0ac2 5369     		ldr	r3, [r2, #20]
 2698 0ac4 43F00103 		orr	r3, r3, #1
 2699 0ac8 5361     		str	r3, [r2, #20]
 2700 0aca 7047     		bx	lr
 2701              	.L241:
 2702              		.loc 2 1343 0
 2703 0acc 094A     		ldr	r2, .L244+4
 2704 0ace 5368     		ldr	r3, [r2, #4]
 2705 0ad0 23EAD101 		bic	r1, r3, r1, lsr #3
 2706              	.LVL216:
 2707 0ad4 5160     		str	r1, [r2, #4]
 2708 0ad6 7047     		bx	lr
 2709              	.LVL217:
 2710              	.L242:
 2711              		.loc 2 1347 0
ARM GAS  /var/folders/28/j9jfyj_n4wz3qtvnym210h2c0000gn/T//cc7mox5M.s 			page 49


 2712 0ad8 074A     		ldr	r2, .L244+8
 2713 0ada 5368     		ldr	r3, [r2, #4]
 2714 0adc 23EAD101 		bic	r1, r3, r1, lsr #3
 2715              	.LVL218:
 2716 0ae0 5160     		str	r1, [r2, #4]
 2717 0ae2 7047     		bx	lr
 2718              	.LVL219:
 2719              	.L243:
 2720              		.loc 2 1351 0
 2721 0ae4 054A     		ldr	r2, .L244+12
 2722 0ae6 5368     		ldr	r3, [r2, #4]
 2723 0ae8 23EAD101 		bic	r1, r3, r1, lsr #3
 2724              	.LVL220:
 2725 0aec 5160     		str	r1, [r2, #4]
 2726 0aee 7047     		bx	lr
 2727              	.L245:
 2728              		.align	2
 2729              	.L244:
 2730 0af0 400100A0 		.word	-1610612416
 2731 0af4 600000A0 		.word	-1610612640
 2732 0af8 800000A0 		.word	-1610612608
 2733 0afc A00000A0 		.word	-1610612576
 2734              		.cfi_endproc
 2735              	.LFE213:
 2736              		.size	FMC_ClearITPendingBit, .-FMC_ClearITPendingBit
 2737              		.section	.text.startup,"ax",%progbits
 2738              		.align	2
 2739              		.p2align 4,,15
 2740              		.global	main
 2741              		.thumb
 2742              		.thumb_func
 2743              		.type	main, %function
 2744              	main:
 2745              	.LFB214:
 2746              		.file 3 "main.c"
 2747              		.loc 3 83 0
 2748              		.cfi_startproc
 2749              		@ Volatile: function does not return.
 2750              		@ args = 0, pretend = 0, frame = 0
 2751              		@ frame_needed = 0, uses_anonymous_args = 0
 2752 0000 08B5     		push	{r3, lr}
 2753              		.cfi_def_cfa_offset 8
 2754              		.cfi_offset 3, -8
 2755              		.cfi_offset 14, -4
 2756              		.loc 3 87 0
 2757 0002 0021     		movs	r1, #0
 2758 0004 4FF40072 		mov	r2, #512
 2759 0008 4FF00050 		mov	r0, #536870912
 2760 000c FFF7FEFF 		bl	memcpy
 2761              	.LVL221:
 2762              		.loc 3 90 0
 2763 0010 2E4A     		ldr	r2, .L259
 2764              		.loc 3 117 0
 2765 0012 2F4D     		ldr	r5, .L259+4
 2766              		.loc 3 90 0
 2767 0014 1368     		ldr	r3, [r2]
 2768              		.loc 3 122 0
ARM GAS  /var/folders/28/j9jfyj_n4wz3qtvnym210h2c0000gn/T//cc7mox5M.s 			page 50


 2769 0016 2F4C     		ldr	r4, .L259+8
 2770              		.loc 3 90 0
 2771 0018 43F00303 		orr	r3, r3, #3
 2772 001c 1360     		str	r3, [r2]
 2773              		.loc 3 92 0
 2774 001e FFF7FEFF 		bl	halInit
 2775              	.LVL222:
 2776              		.loc 3 93 0
 2777 0022 FFF7FEFF 		bl	chSysInit
 2778              	.LVL223:
 2779              		.loc 3 95 0
 2780 0026 FFF7FEFF 		bl	sdcard_init
 2781              	.LVL224:
 2782              		.loc 3 96 0
 2783 002a FFF7FEFF 		bl	sysmon_init
 2784              	.LVL225:
 2785              		.loc 3 110 0
 2786 002e FFF7FEFF 		bl	exception_init
 2787              	.LVL226:
 2788              		.loc 3 112 0
 2789 0032 FFF7FEFF 		bl	InitPatch0
 2790              	.LVL227:
 2791              		.loc 3 114 0
 2792 0036 FFF7FEFF 		bl	InitPConnection
 2793              	.LVL228:
 2794              		.loc 3 117 0
 2795 003a 0221     		movs	r1, #2
 2796 003c 0122     		movs	r2, #1
 2797 003e 2846     		mov	r0, r5
 2798 0040 FFF7FEFF 		bl	_pal_lld_setgroupmode
 2799              	.LVL229:
 2800              		.loc 3 118 0
 2801 0044 0223     		movs	r3, #2
 2802 0046 2B83     		strh	r3, [r5, #24]	@ movhi
 2803              		.loc 3 120 0
 2804 0048 0A20     		movs	r0, #10
 2805 004a FFF7FEFF 		bl	chThdSleep
 2806              	.LVL230:
 2807              		.loc 3 122 0
 2808 004e 4FF48061 		mov	r1, #1024
 2809 0052 2046     		mov	r0, r4
 2810 0054 4022     		movs	r2, #64
 2811 0056 FFF7FEFF 		bl	_pal_lld_setgroupmode
 2812              	.LVL231:
 2813              		.loc 3 124 0
 2814 005a FFF7FEFF 		bl	axoloti_board_init
 2815              	.LVL232:
 2816              		.loc 3 125 0
 2817 005e FFF7FEFF 		bl	adc_init
 2818              	.LVL233:
 2819              		.loc 3 126 0
 2820 0062 FFF7FEFF 		bl	axoloti_math_init
 2821              	.LVL234:
 2822              		.loc 3 127 0
 2823 0066 FFF7FEFF 		bl	midi_init
 2824              	.LVL235:
 2825              		.loc 3 128 0
ARM GAS  /var/folders/28/j9jfyj_n4wz3qtvnym210h2c0000gn/T//cc7mox5M.s 			page 51


 2826 006a FFF7FEFF 		bl	start_dsp_thread
 2827              	.LVL236:
 2828              		.loc 3 129 0
 2829 006e FFF7FEFF 		bl	codec_init
 2830              	.LVL237:
 2831              		.loc 3 130 0
 2832 0072 2369     		ldr	r3, [r4, #16]
 2833 0074 5905     		lsls	r1, r3, #21
 2834 0076 0FD5     		bpl	.L257
 2835              	.L247:
 2836              		.loc 3 136 0
 2837 0078 FFF7FEFF 		bl	axoloti_control_init
 2838              	.LVL238:
 2839              		.loc 3 138 0
 2840 007c FFF7FEFF 		bl	ui_init
 2841              	.LVL239:
 2842              	.LBB74:
 2843              	.LBB75:
 2844              		.loc 1 144 0
 2845 0080 FFF7FEFF 		bl	SDRAM_Init
 2846              	.LVL240:
 2847              	.LBE75:
 2848              	.LBE74:
 2849              		.loc 3 146 0
 2850 0084 FFF7FEFF 		bl	MY_USBH_Init
 2851              	.LVL241:
 2852              		.loc 3 149 0
 2853 0088 FFF7FEFF 		bl	exception_check
 2854              	.LVL242:
 2855 008c 40B1     		cbz	r0, .L258
 2856              	.L252:
 2857              		.loc 3 169 0 discriminator 1
 2858 008e 4FF47A70 		mov	r0, #1000
 2859 0092 FFF7FEFF 		bl	chThdSleep
 2860              	.LVL243:
 2861              		.loc 3 170 0 discriminator 1
 2862 0096 FAE7     		b	.L252
 2863              	.L257:
 2864              		.loc 3 132 0
 2865 0098 0120     		movs	r0, #1
 2866 009a FFF7FEFF 		bl	chThdSleep
 2867              	.LVL244:
 2868 009e EBE7     		b	.L247
 2869              	.L258:
 2870              		.loc 3 153 0
 2871 00a0 FFF7FEFF 		bl	sdcard_attemptMountIfUnmounted
 2872              	.LVL245:
 2873              		.loc 3 154 0
 2874 00a4 0C4B     		ldr	r3, .L259+12
 2875 00a6 1B78     		ldrb	r3, [r3]	@ zero_extendqisi2
 2876 00a8 2BB1     		cbz	r3, .L250
 2877              		.loc 3 154 0 is_stmt 0 discriminator 1
 2878 00aa 0A4B     		ldr	r3, .L259+8
 2879 00ac 1B69     		ldr	r3, [r3, #16]
 2880 00ae 5A05     		lsls	r2, r3, #21
 2881 00b0 01D4     		bmi	.L250
 2882              		.loc 3 156 0 is_stmt 1
ARM GAS  /var/folders/28/j9jfyj_n4wz3qtvnym210h2c0000gn/T//cc7mox5M.s 			page 52


 2883 00b2 FFF7FEFF 		bl	LoadPatchStartSD
 2884              	.LVL246:
 2885              	.L250:
 2886              		.loc 3 162 0
 2887 00b6 094B     		ldr	r3, .L259+16
 2888 00b8 1B78     		ldrb	r3, [r3]	@ zero_extendqisi2
 2889 00ba 012B     		cmp	r3, #1
 2890 00bc E7D1     		bne	.L252
 2891              		.loc 3 163 0
 2892 00be 054B     		ldr	r3, .L259+8
 2893 00c0 1B69     		ldr	r3, [r3, #16]
 2894 00c2 5B05     		lsls	r3, r3, #21
 2895 00c4 E3D4     		bmi	.L252
 2896              		.loc 3 164 0
 2897 00c6 FFF7FEFF 		bl	LoadPatchStartFlash
 2898              	.LVL247:
 2899 00ca E0E7     		b	.L252
 2900              	.L260:
 2901              		.align	2
 2902              	.L259:
 2903 00cc 00380140 		.word	1073821696
 2904 00d0 00080240 		.word	1073874944
 2905 00d4 00000240 		.word	1073872896
 2906 00d8 00000000 		.word	fs_ready
 2907 00dc 00000000 		.word	patchStatus
 2908              		.cfi_endproc
 2909              	.LFE214:
 2910              		.size	main, .-main
 2911              		.text
 2912              		.align	2
 2913              		.p2align 4,,15
 2914              		.global	HAL_Delay
 2915              		.thumb
 2916              		.thumb_func
 2917              		.type	HAL_Delay, %function
 2918              	HAL_Delay:
 2919              	.LFB215:
 2920              		.loc 3 173 0
 2921              		.cfi_startproc
 2922              		@ args = 0, pretend = 0, frame = 0
 2923              		@ frame_needed = 0, uses_anonymous_args = 0
 2924              		@ link register save eliminated.
 2925              	.LVL248:
 2926              		.loc 3 174 0
 2927 0b00 4FF47A73 		mov	r3, #1000
 2928 0b04 03FB00F0 		mul	r0, r3, r0
 2929              	.LVL249:
 2930 0b08 034B     		ldr	r3, .L262
 2931 0b0a 0138     		subs	r0, r0, #1
 2932 0b0c A3FB0030 		umull	r3, r0, r3, r0
 2933 0b10 8009     		lsrs	r0, r0, #6
 2934 0b12 0130     		adds	r0, r0, #1
 2935 0b14 FFF7FEBF 		b	chThdSleep
 2936              	.LVL250:
 2937              	.L263:
 2938              		.align	2
 2939              	.L262:
ARM GAS  /var/folders/28/j9jfyj_n4wz3qtvnym210h2c0000gn/T//cc7mox5M.s 			page 53


 2940 0b18 D34D6210 		.word	274877907
 2941              		.cfi_endproc
 2942              	.LFE215:
 2943              		.size	HAL_Delay, .-HAL_Delay
 2944              		.align	2
 2945 0b1c AFF30080 		.p2align 4,,15
 2946              		.global	_sbrk
 2947              		.thumb
 2948              		.thumb_func
 2949              		.type	_sbrk, %function
 2950              	_sbrk:
 2951              	.LFB216:
 2952              		.loc 3 177 0
 2953              		.cfi_startproc
 2954              		@ Volatile: function does not return.
 2955              		@ args = 0, pretend = 0, frame = 0
 2956              		@ frame_needed = 0, uses_anonymous_args = 0
 2957              		@ link register save eliminated.
 2958              	.L265:
 2959              		.loc 3 179 0 discriminator 1
 2960 0b20 FEE7     		b	.L265
 2961              		.cfi_endproc
 2962              	.LFE216:
 2963              		.size	_sbrk, .-_sbrk
 2964              	.Letext0:
 2965              		.file 4 "/Applications/axoloti_runtime/platform_osx/arm-none-eabi/include/machine/_default_types.h
 2966              		.file 5 "/Applications/axoloti_runtime/platform_osx/arm-none-eabi/include/sys/_stdint.h"
 2967              		.file 6 "/Applications/Axoloti.app/Contents/Java/chibios/os/hal/platforms/STM32F4xx/stm32f4xx.h"
 2968              		.file 7 "stm32f4xx_fmc.h"
 2969              		.file 8 "/Applications/Axoloti.app/Contents/Java/chibios/os/ports/GCC/ARMCMx/chtypes.h"
 2970              		.file 9 "/Applications/Axoloti.app/Contents/Java/chibios/os/hal/platforms/STM32/GPIOv2/pal_lld.h"
 2971              		.file 10 "patch.h"
 2972              		.file 11 "sysmon.h"
 2973              		.file 12 "/Applications/Axoloti.app/Contents/Java/CMSIS//Include/core_cm4.h"
 2974              		.file 13 "sdcard.h"
 2975              		.file 14 "axoloti_math.h"
 2976              		.file 15 "/Applications/Axoloti.app/Contents/Java/chibios/os/kernel/include/chthreads.h"
 2977              		.file 16 "/Applications/Axoloti.app/Contents/Java/chibios/os/hal/include/hal.h"
 2978              		.file 17 "/Applications/Axoloti.app/Contents/Java/chibios/os/kernel/include/chsys.h"
 2979              		.file 18 "exceptions.h"
 2980              		.file 19 "pconnection.h"
 2981              		.file 20 "axoloti_board.h"
 2982              		.file 21 "midi.h"
 2983              		.file 22 "codec.h"
 2984              		.file 23 "axoloti_control.h"
 2985              		.file 24 "ui.h"
 2986 0b22 00BF     		.section	.debug_info,"",%progbits
 2987              	.Ldebug_info0:
 2988 0000 201B0000 		.4byte	0x1b20
 2989 0004 0400     		.2byte	0x4
 2990 0006 00000000 		.4byte	.Ldebug_abbrev0
 2991 000a 04       		.byte	0x4
 2992 000b 01       		.uleb128 0x1
 2993 000c CB0D0000 		.4byte	.LASF292
 2994 0010 01       		.byte	0x1
 2995 0011 6B000000 		.4byte	.LASF293
 2996 0015 3E0B0000 		.4byte	.LASF294
ARM GAS  /var/folders/28/j9jfyj_n4wz3qtvnym210h2c0000gn/T//cc7mox5M.s 			page 54


 2997 0019 30000000 		.4byte	.Ldebug_ranges0+0x30
 2998 001d 00000000 		.4byte	0
 2999 0021 00000000 		.4byte	.Ldebug_line0
 3000 0025 02       		.uleb128 0x2
 3001 0026 08       		.byte	0x8
 3002 0027 07       		.byte	0x7
 3003 0028 D2020000 		.4byte	.LASF0
 3004 002c 02       		.uleb128 0x2
 3005 002d 04       		.byte	0x4
 3006 002e 07       		.byte	0x7
 3007 002f 07010000 		.4byte	.LASF1
 3008 0033 02       		.uleb128 0x2
 3009 0034 01       		.byte	0x1
 3010 0035 06       		.byte	0x6
 3011 0036 600F0000 		.4byte	.LASF2
 3012 003a 03       		.uleb128 0x3
 3013 003b A90B0000 		.4byte	.LASF4
 3014 003f 04       		.byte	0x4
 3015 0040 1D       		.byte	0x1d
 3016 0041 45000000 		.4byte	0x45
 3017 0045 02       		.uleb128 0x2
 3018 0046 01       		.byte	0x1
 3019 0047 08       		.byte	0x8
 3020 0048 0D0D0000 		.4byte	.LASF3
 3021 004c 03       		.uleb128 0x3
 3022 004d 1B080000 		.4byte	.LASF5
 3023 0051 04       		.byte	0x4
 3024 0052 29       		.byte	0x29
 3025 0053 57000000 		.4byte	0x57
 3026 0057 02       		.uleb128 0x2
 3027 0058 02       		.byte	0x2
 3028 0059 05       		.byte	0x5
 3029 005a 710A0000 		.4byte	.LASF6
 3030 005e 03       		.uleb128 0x3
 3031 005f D0030000 		.4byte	.LASF7
 3032 0063 04       		.byte	0x4
 3033 0064 2B       		.byte	0x2b
 3034 0065 69000000 		.4byte	0x69
 3035 0069 02       		.uleb128 0x2
 3036 006a 02       		.byte	0x2
 3037 006b 07       		.byte	0x7
 3038 006c 7B090000 		.4byte	.LASF8
 3039 0070 03       		.uleb128 0x3
 3040 0071 63010000 		.4byte	.LASF9
 3041 0075 04       		.byte	0x4
 3042 0076 3F       		.byte	0x3f
 3043 0077 7B000000 		.4byte	0x7b
 3044 007b 02       		.uleb128 0x2
 3045 007c 04       		.byte	0x4
 3046 007d 05       		.byte	0x5
 3047 007e 8A0A0000 		.4byte	.LASF10
 3048 0082 03       		.uleb128 0x3
 3049 0083 1B0D0000 		.4byte	.LASF11
 3050 0087 04       		.byte	0x4
 3051 0088 41       		.byte	0x41
 3052 0089 8D000000 		.4byte	0x8d
 3053 008d 02       		.uleb128 0x2
ARM GAS  /var/folders/28/j9jfyj_n4wz3qtvnym210h2c0000gn/T//cc7mox5M.s 			page 55


 3054 008e 04       		.byte	0x4
 3055 008f 07       		.byte	0x7
 3056 0090 B70C0000 		.4byte	.LASF12
 3057 0094 02       		.uleb128 0x2
 3058 0095 08       		.byte	0x8
 3059 0096 05       		.byte	0x5
 3060 0097 D5060000 		.4byte	.LASF13
 3061 009b 04       		.uleb128 0x4
 3062 009c 04       		.byte	0x4
 3063 009d 05       		.byte	0x5
 3064 009e 696E7400 		.ascii	"int\000"
 3065 00a2 03       		.uleb128 0x3
 3066 00a3 8A060000 		.4byte	.LASF14
 3067 00a7 05       		.byte	0x5
 3068 00a8 14       		.byte	0x14
 3069 00a9 3A000000 		.4byte	0x3a
 3070 00ad 03       		.uleb128 0x3
 3071 00ae 70030000 		.4byte	.LASF15
 3072 00b2 05       		.byte	0x5
 3073 00b3 19       		.byte	0x19
 3074 00b4 4C000000 		.4byte	0x4c
 3075 00b8 03       		.uleb128 0x3
 3076 00b9 D5090000 		.4byte	.LASF16
 3077 00bd 05       		.byte	0x5
 3078 00be 1A       		.byte	0x1a
 3079 00bf 5E000000 		.4byte	0x5e
 3080 00c3 03       		.uleb128 0x3
 3081 00c4 DE0C0000 		.4byte	.LASF17
 3082 00c8 05       		.byte	0x5
 3083 00c9 1F       		.byte	0x1f
 3084 00ca 70000000 		.4byte	0x70
 3085 00ce 03       		.uleb128 0x3
 3086 00cf 8C020000 		.4byte	.LASF18
 3087 00d3 05       		.byte	0x5
 3088 00d4 20       		.byte	0x20
 3089 00d5 82000000 		.4byte	0x82
 3090 00d9 02       		.uleb128 0x2
 3091 00da 04       		.byte	0x4
 3092 00db 07       		.byte	0x7
 3093 00dc 940C0000 		.4byte	.LASF19
 3094 00e0 05       		.uleb128 0x5
 3095 00e1 CE000000 		.4byte	0xce
 3096 00e5 F0000000 		.4byte	0xf0
 3097 00e9 06       		.uleb128 0x6
 3098 00ea D9000000 		.4byte	0xd9
 3099 00ee 07       		.byte	0x7
 3100 00ef 00       		.byte	0
 3101 00f0 07       		.uleb128 0x7
 3102 00f1 CE000000 		.4byte	0xce
 3103 00f5 05       		.uleb128 0x5
 3104 00f6 CE000000 		.4byte	0xce
 3105 00fa 05010000 		.4byte	0x105
 3106 00fe 06       		.uleb128 0x6
 3107 00ff D9000000 		.4byte	0xd9
 3108 0103 01       		.byte	0x1
 3109 0104 00       		.byte	0
 3110 0105 05       		.uleb128 0x5
ARM GAS  /var/folders/28/j9jfyj_n4wz3qtvnym210h2c0000gn/T//cc7mox5M.s 			page 56


 3111 0106 CE000000 		.4byte	0xce
 3112 010a 15010000 		.4byte	0x115
 3113 010e 06       		.uleb128 0x6
 3114 010f D9000000 		.4byte	0xd9
 3115 0113 03       		.byte	0x3
 3116 0114 00       		.byte	0
 3117 0115 07       		.uleb128 0x7
 3118 0116 C3000000 		.4byte	0xc3
 3119 011a 08       		.uleb128 0x8
 3120 011b CE000000 		.4byte	0xce
 3121 011f 09       		.uleb128 0x9
 3122 0120 01       		.byte	0x1
 3123 0121 06       		.byte	0x6
 3124 0122 F701     		.2byte	0x1f7
 3125 0124 35010000 		.4byte	0x135
 3126 0128 0A       		.uleb128 0xa
 3127 0129 EA0A0000 		.4byte	.LASF20
 3128 012d 00       		.sleb128 0
 3129 012e 0B       		.uleb128 0xb
 3130 012f 53455400 		.ascii	"SET\000"
 3131 0133 01       		.sleb128 1
 3132 0134 00       		.byte	0
 3133 0135 0C       		.uleb128 0xc
 3134 0136 A9010000 		.4byte	.LASF21
 3135 013a 06       		.byte	0x6
 3136 013b F701     		.2byte	0x1f7
 3137 013d 1F010000 		.4byte	0x11f
 3138 0141 0C       		.uleb128 0xc
 3139 0142 2D050000 		.4byte	.LASF22
 3140 0146 06       		.byte	0x6
 3141 0147 F701     		.2byte	0x1f7
 3142 0149 1F010000 		.4byte	0x11f
 3143 014d 09       		.uleb128 0x9
 3144 014e 01       		.byte	0x1
 3145 014f 06       		.byte	0x6
 3146 0150 F901     		.2byte	0x1f9
 3147 0152 63010000 		.4byte	0x163
 3148 0156 0A       		.uleb128 0xa
 3149 0157 7B060000 		.4byte	.LASF23
 3150 015b 00       		.sleb128 0
 3151 015c 0A       		.uleb128 0xa
 3152 015d 830C0000 		.4byte	.LASF24
 3153 0161 01       		.sleb128 1
 3154 0162 00       		.byte	0
 3155 0163 0C       		.uleb128 0xc
 3156 0164 19010000 		.4byte	.LASF25
 3157 0168 06       		.byte	0x6
 3158 0169 F901     		.2byte	0x1f9
 3159 016b 4D010000 		.4byte	0x14d
 3160 016f 0D       		.uleb128 0xd
 3161 0170 20       		.byte	0x20
 3162 0171 06       		.byte	0x6
 3163 0172 8B03     		.2byte	0x38b
 3164 0174 86010000 		.4byte	0x186
 3165 0178 0E       		.uleb128 0xe
 3166 0179 D0060000 		.4byte	.LASF27
 3167 017d 06       		.byte	0x6
ARM GAS  /var/folders/28/j9jfyj_n4wz3qtvnym210h2c0000gn/T//cc7mox5M.s 			page 57


 3168 017e 8D03     		.2byte	0x38d
 3169 0180 86010000 		.4byte	0x186
 3170 0184 00       		.byte	0
 3171 0185 00       		.byte	0
 3172 0186 07       		.uleb128 0x7
 3173 0187 E0000000 		.4byte	0xe0
 3174 018b 0C       		.uleb128 0xc
 3175 018c 67040000 		.4byte	.LASF26
 3176 0190 06       		.byte	0x6
 3177 0191 8E03     		.2byte	0x38e
 3178 0193 6F010000 		.4byte	0x16f
 3179 0197 0D       		.uleb128 0xd
 3180 0198 1C       		.byte	0x1c
 3181 0199 06       		.byte	0x6
 3182 019a 9403     		.2byte	0x394
 3183 019c AE010000 		.4byte	0x1ae
 3184 01a0 0E       		.uleb128 0xe
 3185 01a1 A40B0000 		.4byte	.LASF28
 3186 01a5 06       		.byte	0x6
 3187 01a6 9603     		.2byte	0x396
 3188 01a8 BE010000 		.4byte	0x1be
 3189 01ac 00       		.byte	0
 3190 01ad 00       		.byte	0
 3191 01ae 05       		.uleb128 0x5
 3192 01af CE000000 		.4byte	0xce
 3193 01b3 BE010000 		.4byte	0x1be
 3194 01b7 06       		.uleb128 0x6
 3195 01b8 D9000000 		.4byte	0xd9
 3196 01bc 06       		.byte	0x6
 3197 01bd 00       		.byte	0
 3198 01be 07       		.uleb128 0x7
 3199 01bf AE010000 		.4byte	0x1ae
 3200 01c3 0C       		.uleb128 0xc
 3201 01c4 1A050000 		.4byte	.LASF29
 3202 01c8 06       		.byte	0x6
 3203 01c9 9703     		.2byte	0x397
 3204 01cb 97010000 		.4byte	0x197
 3205 01cf 0D       		.uleb128 0xd
 3206 01d0 18       		.byte	0x18
 3207 01d1 06       		.byte	0x6
 3208 01d2 9D03     		.2byte	0x39d
 3209 01d4 27020000 		.4byte	0x227
 3210 01d8 0E       		.uleb128 0xe
 3211 01d9 66050000 		.4byte	.LASF30
 3212 01dd 06       		.byte	0x6
 3213 01de 9F03     		.2byte	0x39f
 3214 01e0 F0000000 		.4byte	0xf0
 3215 01e4 00       		.byte	0
 3216 01e5 0F       		.uleb128 0xf
 3217 01e6 53523200 		.ascii	"SR2\000"
 3218 01ea 06       		.byte	0x6
 3219 01eb A003     		.2byte	0x3a0
 3220 01ed F0000000 		.4byte	0xf0
 3221 01f1 04       		.byte	0x4
 3222 01f2 0E       		.uleb128 0xe
 3223 01f3 1C100000 		.4byte	.LASF31
 3224 01f7 06       		.byte	0x6
ARM GAS  /var/folders/28/j9jfyj_n4wz3qtvnym210h2c0000gn/T//cc7mox5M.s 			page 58


 3225 01f8 A103     		.2byte	0x3a1
 3226 01fa F0000000 		.4byte	0xf0
 3227 01fe 08       		.byte	0x8
 3228 01ff 0E       		.uleb128 0xe
 3229 0200 03100000 		.4byte	.LASF32
 3230 0204 06       		.byte	0x6
 3231 0205 A203     		.2byte	0x3a2
 3232 0207 F0000000 		.4byte	0xf0
 3233 020b 0C       		.byte	0xc
 3234 020c 0E       		.uleb128 0xe
 3235 020d 2B0A0000 		.4byte	.LASF33
 3236 0211 06       		.byte	0x6
 3237 0212 A303     		.2byte	0x3a3
 3238 0214 CE000000 		.4byte	0xce
 3239 0218 10       		.byte	0x10
 3240 0219 0E       		.uleb128 0xe
 3241 021a D3080000 		.4byte	.LASF34
 3242 021e 06       		.byte	0x6
 3243 021f A403     		.2byte	0x3a4
 3244 0221 F0000000 		.4byte	0xf0
 3245 0225 14       		.byte	0x14
 3246 0226 00       		.byte	0
 3247 0227 0C       		.uleb128 0xc
 3248 0228 22090000 		.4byte	.LASF35
 3249 022c 06       		.byte	0x6
 3250 022d A503     		.2byte	0x3a5
 3251 022f CF010000 		.4byte	0x1cf
 3252 0233 0D       		.uleb128 0xd
 3253 0234 18       		.byte	0x18
 3254 0235 06       		.byte	0x6
 3255 0236 AB03     		.2byte	0x3ab
 3256 0238 8B020000 		.4byte	0x28b
 3257 023c 0E       		.uleb128 0xe
 3258 023d 260B0000 		.4byte	.LASF36
 3259 0241 06       		.byte	0x6
 3260 0242 AD03     		.2byte	0x3ad
 3261 0244 F0000000 		.4byte	0xf0
 3262 0248 00       		.byte	0
 3263 0249 0F       		.uleb128 0xf
 3264 024a 53523300 		.ascii	"SR3\000"
 3265 024e 06       		.byte	0x6
 3266 024f AE03     		.2byte	0x3ae
 3267 0251 F0000000 		.4byte	0xf0
 3268 0255 04       		.byte	0x4
 3269 0256 0E       		.uleb128 0xe
 3270 0257 22100000 		.4byte	.LASF37
 3271 025b 06       		.byte	0x6
 3272 025c AF03     		.2byte	0x3af
 3273 025e F0000000 		.4byte	0xf0
 3274 0262 08       		.byte	0x8
 3275 0263 0E       		.uleb128 0xe
 3276 0264 09100000 		.4byte	.LASF38
 3277 0268 06       		.byte	0x6
 3278 0269 B003     		.2byte	0x3b0
 3279 026b F0000000 		.4byte	0xf0
 3280 026f 0C       		.byte	0xc
 3281 0270 0E       		.uleb128 0xe
ARM GAS  /var/folders/28/j9jfyj_n4wz3qtvnym210h2c0000gn/T//cc7mox5M.s 			page 59


 3282 0271 2B0A0000 		.4byte	.LASF33
 3283 0275 06       		.byte	0x6
 3284 0276 B103     		.2byte	0x3b1
 3285 0278 CE000000 		.4byte	0xce
 3286 027c 10       		.byte	0x10
 3287 027d 0E       		.uleb128 0xe
 3288 027e D9080000 		.4byte	.LASF39
 3289 0282 06       		.byte	0x6
 3290 0283 B203     		.2byte	0x3b2
 3291 0285 F0000000 		.4byte	0xf0
 3292 0289 14       		.byte	0x14
 3293 028a 00       		.byte	0
 3294 028b 0C       		.uleb128 0xc
 3295 028c DE0E0000 		.4byte	.LASF40
 3296 0290 06       		.byte	0x6
 3297 0291 B303     		.2byte	0x3b3
 3298 0293 33020000 		.4byte	0x233
 3299 0297 0D       		.uleb128 0xd
 3300 0298 14       		.byte	0x14
 3301 0299 06       		.byte	0x6
 3302 029a B903     		.2byte	0x3b9
 3303 029c E2020000 		.4byte	0x2e2
 3304 02a0 0E       		.uleb128 0xe
 3305 02a1 2B0B0000 		.4byte	.LASF41
 3306 02a5 06       		.byte	0x6
 3307 02a6 BB03     		.2byte	0x3bb
 3308 02a8 F0000000 		.4byte	0xf0
 3309 02ac 00       		.byte	0
 3310 02ad 0F       		.uleb128 0xf
 3311 02ae 53523400 		.ascii	"SR4\000"
 3312 02b2 06       		.byte	0x6
 3313 02b3 BC03     		.2byte	0x3bc
 3314 02b5 F0000000 		.4byte	0xf0
 3315 02b9 04       		.byte	0x4
 3316 02ba 0E       		.uleb128 0xe
 3317 02bb 28100000 		.4byte	.LASF42
 3318 02bf 06       		.byte	0x6
 3319 02c0 BD03     		.2byte	0x3bd
 3320 02c2 F0000000 		.4byte	0xf0
 3321 02c6 08       		.byte	0x8
 3322 02c7 0E       		.uleb128 0xe
 3323 02c8 23070000 		.4byte	.LASF43
 3324 02cc 06       		.byte	0x6
 3325 02cd BE03     		.2byte	0x3be
 3326 02cf F0000000 		.4byte	0xf0
 3327 02d3 0C       		.byte	0xc
 3328 02d4 0E       		.uleb128 0xe
 3329 02d5 780C0000 		.4byte	.LASF44
 3330 02d9 06       		.byte	0x6
 3331 02da BF03     		.2byte	0x3bf
 3332 02dc F0000000 		.4byte	0xf0
 3333 02e0 10       		.byte	0x10
 3334 02e1 00       		.byte	0
 3335 02e2 0C       		.uleb128 0xc
 3336 02e3 2B020000 		.4byte	.LASF45
 3337 02e7 06       		.byte	0x6
 3338 02e8 C003     		.2byte	0x3c0
ARM GAS  /var/folders/28/j9jfyj_n4wz3qtvnym210h2c0000gn/T//cc7mox5M.s 			page 60


 3339 02ea 97020000 		.4byte	0x297
 3340 02ee 0D       		.uleb128 0xd
 3341 02ef 1C       		.byte	0x1c
 3342 02f0 06       		.byte	0x6
 3343 02f1 C603     		.2byte	0x3c6
 3344 02f3 39030000 		.4byte	0x339
 3345 02f7 0E       		.uleb128 0xe
 3346 02f8 490F0000 		.4byte	.LASF46
 3347 02fc 06       		.byte	0x6
 3348 02fd C803     		.2byte	0x3c8
 3349 02ff 39030000 		.4byte	0x339
 3350 0303 00       		.byte	0
 3351 0304 0E       		.uleb128 0xe
 3352 0305 66000000 		.4byte	.LASF47
 3353 0309 06       		.byte	0x6
 3354 030a C903     		.2byte	0x3c9
 3355 030c 3E030000 		.4byte	0x33e
 3356 0310 08       		.byte	0x8
 3357 0311 0E       		.uleb128 0xe
 3358 0312 7D0C0000 		.4byte	.LASF48
 3359 0316 06       		.byte	0x6
 3360 0317 CA03     		.2byte	0x3ca
 3361 0319 F0000000 		.4byte	0xf0
 3362 031d 10       		.byte	0x10
 3363 031e 0E       		.uleb128 0xe
 3364 031f AA050000 		.4byte	.LASF49
 3365 0323 06       		.byte	0x6
 3366 0324 CB03     		.2byte	0x3cb
 3367 0326 F0000000 		.4byte	0xf0
 3368 032a 14       		.byte	0x14
 3369 032b 0E       		.uleb128 0xe
 3370 032c F70F0000 		.4byte	.LASF50
 3371 0330 06       		.byte	0x6
 3372 0331 CC03     		.2byte	0x3cc
 3373 0333 F0000000 		.4byte	0xf0
 3374 0337 18       		.byte	0x18
 3375 0338 00       		.byte	0
 3376 0339 07       		.uleb128 0x7
 3377 033a F5000000 		.4byte	0xf5
 3378 033e 07       		.uleb128 0x7
 3379 033f F5000000 		.4byte	0xf5
 3380 0343 0C       		.uleb128 0xc
 3381 0344 8A0D0000 		.4byte	.LASF51
 3382 0348 06       		.byte	0x6
 3383 0349 CD03     		.2byte	0x3cd
 3384 034b EE020000 		.4byte	0x2ee
 3385 034f 0D       		.uleb128 0xd
 3386 0350 24       		.byte	0x24
 3387 0351 06       		.byte	0x6
 3388 0352 E903     		.2byte	0x3e9
 3389 0354 9A030000 		.4byte	0x39a
 3390 0358 0E       		.uleb128 0xe
 3391 0359 24020000 		.4byte	.LASF52
 3392 035d 06       		.byte	0x6
 3393 035e EB03     		.2byte	0x3eb
 3394 0360 F0000000 		.4byte	0xf0
 3395 0364 00       		.byte	0
ARM GAS  /var/folders/28/j9jfyj_n4wz3qtvnym210h2c0000gn/T//cc7mox5M.s 			page 61


 3396 0365 0F       		.uleb128 0xf
 3397 0366 504D4300 		.ascii	"PMC\000"
 3398 036a 06       		.byte	0x6
 3399 036b EC03     		.2byte	0x3ec
 3400 036d F0000000 		.4byte	0xf0
 3401 0371 04       		.byte	0x4
 3402 0372 0E       		.uleb128 0xe
 3403 0373 1C070000 		.4byte	.LASF53
 3404 0377 06       		.byte	0x6
 3405 0378 ED03     		.2byte	0x3ed
 3406 037a 9A030000 		.4byte	0x39a
 3407 037e 08       		.byte	0x8
 3408 037f 0E       		.uleb128 0xe
 3409 0380 2F000000 		.4byte	.LASF54
 3410 0384 06       		.byte	0x6
 3411 0385 EE03     		.2byte	0x3ee
 3412 0387 F5000000 		.4byte	0xf5
 3413 038b 18       		.byte	0x18
 3414 038c 0E       		.uleb128 0xe
 3415 038d 78030000 		.4byte	.LASF55
 3416 0391 06       		.byte	0x6
 3417 0392 EF03     		.2byte	0x3ef
 3418 0394 F0000000 		.4byte	0xf0
 3419 0398 20       		.byte	0x20
 3420 0399 00       		.byte	0
 3421 039a 07       		.uleb128 0x7
 3422 039b 05010000 		.4byte	0x105
 3423 039f 0C       		.uleb128 0xc
 3424 03a0 840F0000 		.4byte	.LASF56
 3425 03a4 06       		.byte	0x6
 3426 03a5 F003     		.2byte	0x3f0
 3427 03a7 4F030000 		.4byte	0x34f
 3428 03ab 0D       		.uleb128 0xd
 3429 03ac 90       		.byte	0x90
 3430 03ad 06       		.byte	0x6
 3431 03ae 5804     		.2byte	0x458
 3432 03b0 54050000 		.4byte	0x554
 3433 03b4 0F       		.uleb128 0xf
 3434 03b5 435200   		.ascii	"CR\000"
 3435 03b8 06       		.byte	0x6
 3436 03b9 5A04     		.2byte	0x45a
 3437 03bb F0000000 		.4byte	0xf0
 3438 03bf 00       		.byte	0
 3439 03c0 0E       		.uleb128 0xe
 3440 03c1 F20B0000 		.4byte	.LASF57
 3441 03c5 06       		.byte	0x6
 3442 03c6 5B04     		.2byte	0x45b
 3443 03c8 F0000000 		.4byte	0xf0
 3444 03cc 04       		.byte	0x4
 3445 03cd 0E       		.uleb128 0xe
 3446 03ce 9E0D0000 		.4byte	.LASF58
 3447 03d2 06       		.byte	0x6
 3448 03d3 5C04     		.2byte	0x45c
 3449 03d5 F0000000 		.4byte	0xf0
 3450 03d9 08       		.byte	0x8
 3451 03da 0F       		.uleb128 0xf
 3452 03db 43495200 		.ascii	"CIR\000"
ARM GAS  /var/folders/28/j9jfyj_n4wz3qtvnym210h2c0000gn/T//cc7mox5M.s 			page 62


 3453 03df 06       		.byte	0x6
 3454 03e0 5D04     		.2byte	0x45d
 3455 03e2 F0000000 		.4byte	0xf0
 3456 03e6 0C       		.byte	0xc
 3457 03e7 0E       		.uleb128 0xe
 3458 03e8 76100000 		.4byte	.LASF59
 3459 03ec 06       		.byte	0x6
 3460 03ed 5E04     		.2byte	0x45e
 3461 03ef F0000000 		.4byte	0xf0
 3462 03f3 10       		.byte	0x10
 3463 03f4 0E       		.uleb128 0xe
 3464 03f5 000A0000 		.4byte	.LASF60
 3465 03f9 06       		.byte	0x6
 3466 03fa 5F04     		.2byte	0x45f
 3467 03fc F0000000 		.4byte	0xf0
 3468 0400 14       		.byte	0x14
 3469 0401 0E       		.uleb128 0xe
 3470 0402 15040000 		.4byte	.LASF61
 3471 0406 06       		.byte	0x6
 3472 0407 6004     		.2byte	0x460
 3473 0409 F0000000 		.4byte	0xf0
 3474 040d 18       		.byte	0x18
 3475 040e 0E       		.uleb128 0xe
 3476 040f 2B0A0000 		.4byte	.LASF33
 3477 0413 06       		.byte	0x6
 3478 0414 6104     		.2byte	0x461
 3479 0416 CE000000 		.4byte	0xce
 3480 041a 1C       		.byte	0x1c
 3481 041b 0E       		.uleb128 0xe
 3482 041c 31060000 		.4byte	.LASF62
 3483 0420 06       		.byte	0x6
 3484 0421 6204     		.2byte	0x462
 3485 0423 F0000000 		.4byte	0xf0
 3486 0427 20       		.byte	0x20
 3487 0428 0E       		.uleb128 0xe
 3488 0429 C5000000 		.4byte	.LASF63
 3489 042d 06       		.byte	0x6
 3490 042e 6304     		.2byte	0x463
 3491 0430 F0000000 		.4byte	0xf0
 3492 0434 24       		.byte	0x24
 3493 0435 0E       		.uleb128 0xe
 3494 0436 350A0000 		.4byte	.LASF64
 3495 043a 06       		.byte	0x6
 3496 043b 6404     		.2byte	0x464
 3497 043d F5000000 		.4byte	0xf5
 3498 0441 28       		.byte	0x28
 3499 0442 0E       		.uleb128 0xe
 3500 0443 30030000 		.4byte	.LASF65
 3501 0447 06       		.byte	0x6
 3502 0448 6504     		.2byte	0x465
 3503 044a F0000000 		.4byte	0xf0
 3504 044e 30       		.byte	0x30
 3505 044f 0E       		.uleb128 0xe
 3506 0450 D60C0000 		.4byte	.LASF66
 3507 0454 06       		.byte	0x6
 3508 0455 6604     		.2byte	0x466
 3509 0457 F0000000 		.4byte	0xf0
ARM GAS  /var/folders/28/j9jfyj_n4wz3qtvnym210h2c0000gn/T//cc7mox5M.s 			page 63


 3510 045b 34       		.byte	0x34
 3511 045c 0E       		.uleb128 0xe
 3512 045d B0050000 		.4byte	.LASF67
 3513 0461 06       		.byte	0x6
 3514 0462 6704     		.2byte	0x467
 3515 0464 F0000000 		.4byte	0xf0
 3516 0468 38       		.byte	0x38
 3517 0469 0E       		.uleb128 0xe
 3518 046a 3F0A0000 		.4byte	.LASF68
 3519 046e 06       		.byte	0x6
 3520 046f 6804     		.2byte	0x468
 3521 0471 CE000000 		.4byte	0xce
 3522 0475 3C       		.byte	0x3c
 3523 0476 0E       		.uleb128 0xe
 3524 0477 5E000000 		.4byte	.LASF69
 3525 047b 06       		.byte	0x6
 3526 047c 6904     		.2byte	0x469
 3527 047e F0000000 		.4byte	0xf0
 3528 0482 40       		.byte	0x40
 3529 0483 0E       		.uleb128 0xe
 3530 0484 1A090000 		.4byte	.LASF70
 3531 0488 06       		.byte	0x6
 3532 0489 6A04     		.2byte	0x46a
 3533 048b F0000000 		.4byte	0xf0
 3534 048f 44       		.byte	0x44
 3535 0490 0E       		.uleb128 0xe
 3536 0491 490A0000 		.4byte	.LASF71
 3537 0495 06       		.byte	0x6
 3538 0496 6B04     		.2byte	0x46b
 3539 0498 F5000000 		.4byte	0xf5
 3540 049c 48       		.byte	0x48
 3541 049d 0E       		.uleb128 0xe
 3542 049e 3D020000 		.4byte	.LASF72
 3543 04a2 06       		.byte	0x6
 3544 04a3 6C04     		.2byte	0x46c
 3545 04a5 F0000000 		.4byte	0xf0
 3546 04a9 50       		.byte	0x50
 3547 04aa 0E       		.uleb128 0xe
 3548 04ab DC010000 		.4byte	.LASF73
 3549 04af 06       		.byte	0x6
 3550 04b0 6D04     		.2byte	0x46d
 3551 04b2 F0000000 		.4byte	0xf0
 3552 04b6 54       		.byte	0x54
 3553 04b7 0E       		.uleb128 0xe
 3554 04b8 8A0C0000 		.4byte	.LASF74
 3555 04bc 06       		.byte	0x6
 3556 04bd 6E04     		.2byte	0x46e
 3557 04bf F0000000 		.4byte	0xf0
 3558 04c3 58       		.byte	0x58
 3559 04c4 0E       		.uleb128 0xe
 3560 04c5 530A0000 		.4byte	.LASF75
 3561 04c9 06       		.byte	0x6
 3562 04ca 6F04     		.2byte	0x46f
 3563 04cc CE000000 		.4byte	0xce
 3564 04d0 5C       		.byte	0x5c
 3565 04d1 0E       		.uleb128 0xe
 3566 04d2 CE070000 		.4byte	.LASF76
ARM GAS  /var/folders/28/j9jfyj_n4wz3qtvnym210h2c0000gn/T//cc7mox5M.s 			page 64


 3567 04d6 06       		.byte	0x6
 3568 04d7 7004     		.2byte	0x470
 3569 04d9 F0000000 		.4byte	0xf0
 3570 04dd 60       		.byte	0x60
 3571 04de 0E       		.uleb128 0xe
 3572 04df 9E000000 		.4byte	.LASF77
 3573 04e3 06       		.byte	0x6
 3574 04e4 7104     		.2byte	0x471
 3575 04e6 F0000000 		.4byte	0xf0
 3576 04ea 64       		.byte	0x64
 3577 04eb 0E       		.uleb128 0xe
 3578 04ec 5D0A0000 		.4byte	.LASF78
 3579 04f0 06       		.byte	0x6
 3580 04f1 7204     		.2byte	0x472
 3581 04f3 F5000000 		.4byte	0xf5
 3582 04f7 68       		.byte	0x68
 3583 04f8 0E       		.uleb128 0xe
 3584 04f9 1F000000 		.4byte	.LASF79
 3585 04fd 06       		.byte	0x6
 3586 04fe 7304     		.2byte	0x473
 3587 0500 F0000000 		.4byte	0xf0
 3588 0504 70       		.byte	0x70
 3589 0505 0F       		.uleb128 0xf
 3590 0506 43535200 		.ascii	"CSR\000"
 3591 050a 06       		.byte	0x6
 3592 050b 7404     		.2byte	0x474
 3593 050d F0000000 		.4byte	0xf0
 3594 0511 74       		.byte	0x74
 3595 0512 0E       		.uleb128 0xe
 3596 0513 670A0000 		.4byte	.LASF80
 3597 0517 06       		.byte	0x6
 3598 0518 7504     		.2byte	0x475
 3599 051a F5000000 		.4byte	0xf5
 3600 051e 78       		.byte	0x78
 3601 051f 0E       		.uleb128 0xe
 3602 0520 3D030000 		.4byte	.LASF81
 3603 0524 06       		.byte	0x6
 3604 0525 7604     		.2byte	0x476
 3605 0527 F0000000 		.4byte	0xf0
 3606 052b 80       		.byte	0x80
 3607 052c 0E       		.uleb128 0xe
 3608 052d F60C0000 		.4byte	.LASF82
 3609 0531 06       		.byte	0x6
 3610 0532 7704     		.2byte	0x477
 3611 0534 F0000000 		.4byte	0xf0
 3612 0538 84       		.byte	0x84
 3613 0539 0E       		.uleb128 0xe
 3614 053a 24000000 		.4byte	.LASF83
 3615 053e 06       		.byte	0x6
 3616 053f 7804     		.2byte	0x478
 3617 0541 F0000000 		.4byte	0xf0
 3618 0545 88       		.byte	0x88
 3619 0546 0E       		.uleb128 0xe
 3620 0547 40000000 		.4byte	.LASF84
 3621 054b 06       		.byte	0x6
 3622 054c 7904     		.2byte	0x479
 3623 054e F0000000 		.4byte	0xf0
ARM GAS  /var/folders/28/j9jfyj_n4wz3qtvnym210h2c0000gn/T//cc7mox5M.s 			page 65


 3624 0552 8C       		.byte	0x8c
 3625 0553 00       		.byte	0
 3626 0554 0C       		.uleb128 0xc
 3627 0555 72010000 		.4byte	.LASF85
 3628 0559 06       		.byte	0x6
 3629 055a 7B04     		.2byte	0x47b
 3630 055c AB030000 		.4byte	0x3ab
 3631 0560 10       		.uleb128 0x10
 3632 0561 1C       		.byte	0x1c
 3633 0562 07       		.byte	0x7
 3634 0563 32       		.byte	0x32
 3635 0564 BD050000 		.4byte	0x5bd
 3636 0568 11       		.uleb128 0x11
 3637 0569 7B080000 		.4byte	.LASF86
 3638 056d 07       		.byte	0x7
 3639 056e 34       		.byte	0x34
 3640 056f CE000000 		.4byte	0xce
 3641 0573 00       		.byte	0
 3642 0574 11       		.uleb128 0x11
 3643 0575 F00A0000 		.4byte	.LASF87
 3644 0579 07       		.byte	0x7
 3645 057a 39       		.byte	0x39
 3646 057b CE000000 		.4byte	0xce
 3647 057f 04       		.byte	0x4
 3648 0580 11       		.uleb128 0x11
 3649 0581 69090000 		.4byte	.LASF88
 3650 0585 07       		.byte	0x7
 3651 0586 3E       		.byte	0x3e
 3652 0587 CE000000 		.4byte	0xce
 3653 058b 08       		.byte	0x8
 3654 058c 11       		.uleb128 0x11
 3655 058d 8F010000 		.4byte	.LASF89
 3656 0591 07       		.byte	0x7
 3657 0592 43       		.byte	0x43
 3658 0593 CE000000 		.4byte	0xce
 3659 0597 0C       		.byte	0xc
 3660 0598 11       		.uleb128 0x11
 3661 0599 AC040000 		.4byte	.LASF90
 3662 059d 07       		.byte	0x7
 3663 059e 48       		.byte	0x48
 3664 059f CE000000 		.4byte	0xce
 3665 05a3 10       		.byte	0x10
 3666 05a4 11       		.uleb128 0x11
 3667 05a5 190C0000 		.4byte	.LASF91
 3668 05a9 07       		.byte	0x7
 3669 05aa 4C       		.byte	0x4c
 3670 05ab CE000000 		.4byte	0xce
 3671 05af 14       		.byte	0x14
 3672 05b0 11       		.uleb128 0x11
 3673 05b1 930F0000 		.4byte	.LASF92
 3674 05b5 07       		.byte	0x7
 3675 05b6 54       		.byte	0x54
 3676 05b7 CE000000 		.4byte	0xce
 3677 05bb 18       		.byte	0x18
 3678 05bc 00       		.byte	0
 3679 05bd 03       		.uleb128 0x3
 3680 05be FD050000 		.4byte	.LASF93
ARM GAS  /var/folders/28/j9jfyj_n4wz3qtvnym210h2c0000gn/T//cc7mox5M.s 			page 66


 3681 05c2 07       		.byte	0x7
 3682 05c3 56       		.byte	0x56
 3683 05c4 60050000 		.4byte	0x560
 3684 05c8 10       		.uleb128 0x10
 3685 05c9 40       		.byte	0x40
 3686 05ca 07       		.byte	0x7
 3687 05cb 5B       		.byte	0x5b
 3688 05cc 91060000 		.4byte	0x691
 3689 05d0 11       		.uleb128 0x11
 3690 05d1 B4010000 		.4byte	.LASF94
 3691 05d5 07       		.byte	0x7
 3692 05d6 5D       		.byte	0x5d
 3693 05d7 CE000000 		.4byte	0xce
 3694 05db 00       		.byte	0
 3695 05dc 11       		.uleb128 0x11
 3696 05dd C70F0000 		.4byte	.LASF95
 3697 05e1 07       		.byte	0x7
 3698 05e2 60       		.byte	0x60
 3699 05e3 CE000000 		.4byte	0xce
 3700 05e7 04       		.byte	0x4
 3701 05e8 11       		.uleb128 0x11
 3702 05e9 7B0A0000 		.4byte	.LASF96
 3703 05ed 07       		.byte	0x7
 3704 05ee 64       		.byte	0x64
 3705 05ef CE000000 		.4byte	0xce
 3706 05f3 08       		.byte	0x8
 3707 05f4 11       		.uleb128 0x11
 3708 05f5 DA050000 		.4byte	.LASF97
 3709 05f9 07       		.byte	0x7
 3710 05fa 68       		.byte	0x68
 3711 05fb CE000000 		.4byte	0xce
 3712 05ff 0C       		.byte	0xc
 3713 0600 11       		.uleb128 0x11
 3714 0601 090A0000 		.4byte	.LASF98
 3715 0605 07       		.byte	0x7
 3716 0606 6B       		.byte	0x6b
 3717 0607 CE000000 		.4byte	0xce
 3718 060b 10       		.byte	0x10
 3719 060c 11       		.uleb128 0x11
 3720 060d 93050000 		.4byte	.LASF99
 3721 0611 07       		.byte	0x7
 3722 0612 6F       		.byte	0x6f
 3723 0613 CE000000 		.4byte	0xce
 3724 0617 14       		.byte	0x14
 3725 0618 11       		.uleb128 0x11
 3726 0619 A5080000 		.4byte	.LASF100
 3727 061d 07       		.byte	0x7
 3728 061e 73       		.byte	0x73
 3729 061f CE000000 		.4byte	0xce
 3730 0623 18       		.byte	0x18
 3731 0624 11       		.uleb128 0x11
 3732 0625 77070000 		.4byte	.LASF101
 3733 0629 07       		.byte	0x7
 3734 062a 77       		.byte	0x77
 3735 062b CE000000 		.4byte	0xce
 3736 062f 1C       		.byte	0x1c
 3737 0630 11       		.uleb128 0x11
ARM GAS  /var/folders/28/j9jfyj_n4wz3qtvnym210h2c0000gn/T//cc7mox5M.s 			page 67


 3738 0631 450D0000 		.4byte	.LASF102
 3739 0635 07       		.byte	0x7
 3740 0636 7C       		.byte	0x7c
 3741 0637 CE000000 		.4byte	0xce
 3742 063b 20       		.byte	0x20
 3743 063c 11       		.uleb128 0x11
 3744 063d 930A0000 		.4byte	.LASF103
 3745 0641 07       		.byte	0x7
 3746 0642 7F       		.byte	0x7f
 3747 0643 CE000000 		.4byte	0xce
 3748 0647 24       		.byte	0x24
 3749 0648 11       		.uleb128 0x11
 3750 0649 DE090000 		.4byte	.LASF104
 3751 064d 07       		.byte	0x7
 3752 064e 83       		.byte	0x83
 3753 064f CE000000 		.4byte	0xce
 3754 0653 28       		.byte	0x28
 3755 0654 11       		.uleb128 0x11
 3756 0655 95020000 		.4byte	.LASF105
 3757 0659 07       		.byte	0x7
 3758 065a 86       		.byte	0x86
 3759 065b CE000000 		.4byte	0xce
 3760 065f 2C       		.byte	0x2c
 3761 0660 11       		.uleb128 0x11
 3762 0661 C40E0000 		.4byte	.LASF106
 3763 0665 07       		.byte	0x7
 3764 0666 8A       		.byte	0x8a
 3765 0667 CE000000 		.4byte	0xce
 3766 066b 30       		.byte	0x30
 3767 066c 11       		.uleb128 0x11
 3768 066d A30D0000 		.4byte	.LASF107
 3769 0671 07       		.byte	0x7
 3770 0672 8D       		.byte	0x8d
 3771 0673 CE000000 		.4byte	0xce
 3772 0677 34       		.byte	0x34
 3773 0678 11       		.uleb128 0x11
 3774 0679 5D070000 		.4byte	.LASF108
 3775 067d 07       		.byte	0x7
 3776 067e 93       		.byte	0x93
 3777 067f 91060000 		.4byte	0x691
 3778 0683 38       		.byte	0x38
 3779 0684 11       		.uleb128 0x11
 3780 0685 BC020000 		.4byte	.LASF109
 3781 0689 07       		.byte	0x7
 3782 068a 95       		.byte	0x95
 3783 068b 91060000 		.4byte	0x691
 3784 068f 3C       		.byte	0x3c
 3785 0690 00       		.byte	0
 3786 0691 12       		.uleb128 0x12
 3787 0692 04       		.byte	0x4
 3788 0693 BD050000 		.4byte	0x5bd
 3789 0697 03       		.uleb128 0x3
 3790 0698 E6010000 		.4byte	.LASF110
 3791 069c 07       		.byte	0x7
 3792 069d 96       		.byte	0x96
 3793 069e C8050000 		.4byte	0x5c8
 3794 06a2 10       		.uleb128 0x10
ARM GAS  /var/folders/28/j9jfyj_n4wz3qtvnym210h2c0000gn/T//cc7mox5M.s 			page 68


 3795 06a3 10       		.byte	0x10
 3796 06a4 07       		.byte	0x7
 3797 06a5 9B       		.byte	0x9b
 3798 06a6 DB060000 		.4byte	0x6db
 3799 06aa 11       		.uleb128 0x11
 3800 06ab 16020000 		.4byte	.LASF111
 3801 06af 07       		.byte	0x7
 3802 06b0 9D       		.byte	0x9d
 3803 06b1 CE000000 		.4byte	0xce
 3804 06b5 00       		.byte	0
 3805 06b6 11       		.uleb128 0x11
 3806 06b7 08050000 		.4byte	.LASF112
 3807 06bb 07       		.byte	0x7
 3808 06bc A3       		.byte	0xa3
 3809 06bd CE000000 		.4byte	0xce
 3810 06c1 04       		.byte	0x4
 3811 06c2 11       		.uleb128 0x11
 3812 06c3 F6080000 		.4byte	.LASF113
 3813 06c7 07       		.byte	0x7
 3814 06c8 A9       		.byte	0xa9
 3815 06c9 CE000000 		.4byte	0xce
 3816 06cd 08       		.byte	0x8
 3817 06ce 11       		.uleb128 0x11
 3818 06cf C3050000 		.4byte	.LASF114
 3819 06d3 07       		.byte	0x7
 3820 06d4 B0       		.byte	0xb0
 3821 06d5 CE000000 		.4byte	0xce
 3822 06d9 0C       		.byte	0xc
 3823 06da 00       		.byte	0
 3824 06db 03       		.uleb128 0x3
 3825 06dc 45050000 		.4byte	.LASF115
 3826 06e0 07       		.byte	0x7
 3827 06e1 B5       		.byte	0xb5
 3828 06e2 A2060000 		.4byte	0x6a2
 3829 06e6 10       		.uleb128 0x10
 3830 06e7 24       		.byte	0x24
 3831 06e8 07       		.byte	0x7
 3832 06e9 BA       		.byte	0xba
 3833 06ea 5B070000 		.4byte	0x75b
 3834 06ee 11       		.uleb128 0x11
 3835 06ef B4010000 		.4byte	.LASF94
 3836 06f3 07       		.byte	0x7
 3837 06f4 BC       		.byte	0xbc
 3838 06f5 CE000000 		.4byte	0xce
 3839 06f9 00       		.byte	0
 3840 06fa 11       		.uleb128 0x11
 3841 06fb BD010000 		.4byte	.LASF116
 3842 06ff 07       		.byte	0x7
 3843 0700 BF       		.byte	0xbf
 3844 0701 CE000000 		.4byte	0xce
 3845 0705 04       		.byte	0x4
 3846 0706 11       		.uleb128 0x11
 3847 0707 DA050000 		.4byte	.LASF97
 3848 070b 07       		.byte	0x7
 3849 070c C2       		.byte	0xc2
 3850 070d CE000000 		.4byte	0xce
 3851 0711 08       		.byte	0x8
ARM GAS  /var/folders/28/j9jfyj_n4wz3qtvnym210h2c0000gn/T//cc7mox5M.s 			page 69


 3852 0712 11       		.uleb128 0x11
 3853 0713 DF080000 		.4byte	.LASF117
 3854 0717 07       		.byte	0x7
 3855 0718 C5       		.byte	0xc5
 3856 0719 CE000000 		.4byte	0xce
 3857 071d 0C       		.byte	0xc
 3858 071e 11       		.uleb128 0x11
 3859 071f 2E100000 		.4byte	.LASF118
 3860 0723 07       		.byte	0x7
 3861 0724 C8       		.byte	0xc8
 3862 0725 CE000000 		.4byte	0xce
 3863 0729 10       		.byte	0x10
 3864 072a 11       		.uleb128 0x11
 3865 072b 29070000 		.4byte	.LASF119
 3866 072f 07       		.byte	0x7
 3867 0730 CB       		.byte	0xcb
 3868 0731 CE000000 		.4byte	0xce
 3869 0735 14       		.byte	0x14
 3870 0736 11       		.uleb128 0x11
 3871 0737 EF090000 		.4byte	.LASF120
 3872 073b 07       		.byte	0x7
 3873 073c CF       		.byte	0xcf
 3874 073d CE000000 		.4byte	0xce
 3875 0741 18       		.byte	0x18
 3876 0742 11       		.uleb128 0x11
 3877 0743 EB000000 		.4byte	.LASF121
 3878 0747 07       		.byte	0x7
 3879 0748 D3       		.byte	0xd3
 3880 0749 5B070000 		.4byte	0x75b
 3881 074d 1C       		.byte	0x1c
 3882 074e 11       		.uleb128 0x11
 3883 074f 00000000 		.4byte	.LASF122
 3884 0753 07       		.byte	0x7
 3885 0754 D5       		.byte	0xd5
 3886 0755 5B070000 		.4byte	0x75b
 3887 0759 20       		.byte	0x20
 3888 075a 00       		.byte	0
 3889 075b 12       		.uleb128 0x12
 3890 075c 04       		.byte	0x4
 3891 075d DB060000 		.4byte	0x6db
 3892 0761 03       		.uleb128 0x3
 3893 0762 C1090000 		.4byte	.LASF123
 3894 0766 07       		.byte	0x7
 3895 0767 D6       		.byte	0xd6
 3896 0768 E6060000 		.4byte	0x6e6
 3897 076c 10       		.uleb128 0x10
 3898 076d 18       		.byte	0x18
 3899 076e 07       		.byte	0x7
 3900 076f DC       		.byte	0xdc
 3901 0770 BD070000 		.4byte	0x7bd
 3902 0774 11       		.uleb128 0x11
 3903 0775 BD010000 		.4byte	.LASF116
 3904 0779 07       		.byte	0x7
 3905 077a DE       		.byte	0xde
 3906 077b CE000000 		.4byte	0xce
 3907 077f 00       		.byte	0
 3908 0780 11       		.uleb128 0x11
ARM GAS  /var/folders/28/j9jfyj_n4wz3qtvnym210h2c0000gn/T//cc7mox5M.s 			page 70


 3909 0781 29070000 		.4byte	.LASF119
 3910 0785 07       		.byte	0x7
 3911 0786 E1       		.byte	0xe1
 3912 0787 CE000000 		.4byte	0xce
 3913 078b 04       		.byte	0x4
 3914 078c 11       		.uleb128 0x11
 3915 078d EF090000 		.4byte	.LASF120
 3916 0791 07       		.byte	0x7
 3917 0792 E5       		.byte	0xe5
 3918 0793 CE000000 		.4byte	0xce
 3919 0797 08       		.byte	0x8
 3920 0798 11       		.uleb128 0x11
 3921 0799 EB000000 		.4byte	.LASF121
 3922 079d 07       		.byte	0x7
 3923 079e EA       		.byte	0xea
 3924 079f 5B070000 		.4byte	0x75b
 3925 07a3 0C       		.byte	0xc
 3926 07a4 11       		.uleb128 0x11
 3927 07a5 00000000 		.4byte	.LASF122
 3928 07a9 07       		.byte	0x7
 3929 07aa EC       		.byte	0xec
 3930 07ab 5B070000 		.4byte	0x75b
 3931 07af 10       		.byte	0x10
 3932 07b0 11       		.uleb128 0x11
 3933 07b1 B8030000 		.4byte	.LASF124
 3934 07b5 07       		.byte	0x7
 3935 07b6 EE       		.byte	0xee
 3936 07b7 5B070000 		.4byte	0x75b
 3937 07bb 14       		.byte	0x14
 3938 07bc 00       		.byte	0
 3939 07bd 03       		.uleb128 0x3
 3940 07be 3E100000 		.4byte	.LASF125
 3941 07c2 07       		.byte	0x7
 3942 07c3 EF       		.byte	0xef
 3943 07c4 6C070000 		.4byte	0x76c
 3944 07c8 10       		.uleb128 0x10
 3945 07c9 1C       		.byte	0x1c
 3946 07ca 07       		.byte	0x7
 3947 07cb F5       		.byte	0xf5
 3948 07cc 29080000 		.4byte	0x829
 3949 07d0 11       		.uleb128 0x11
 3950 07d1 1A030000 		.4byte	.LASF126
 3951 07d5 07       		.byte	0x7
 3952 07d6 F7       		.byte	0xf7
 3953 07d7 CE000000 		.4byte	0xce
 3954 07db 00       		.byte	0
 3955 07dc 11       		.uleb128 0x11
 3956 07dd FD010000 		.4byte	.LASF127
 3957 07e1 07       		.byte	0x7
 3958 07e2 FB       		.byte	0xfb
 3959 07e3 CE000000 		.4byte	0xce
 3960 07e7 04       		.byte	0x4
 3961 07e8 11       		.uleb128 0x11
 3962 07e9 EF020000 		.4byte	.LASF128
 3963 07ed 07       		.byte	0x7
 3964 07ee FF       		.byte	0xff
 3965 07ef CE000000 		.4byte	0xce
ARM GAS  /var/folders/28/j9jfyj_n4wz3qtvnym210h2c0000gn/T//cc7mox5M.s 			page 71


 3966 07f3 08       		.byte	0x8
 3967 07f4 0E       		.uleb128 0xe
 3968 07f5 BC070000 		.4byte	.LASF129
 3969 07f9 07       		.byte	0x7
 3970 07fa 0301     		.2byte	0x103
 3971 07fc CE000000 		.4byte	0xce
 3972 0800 0C       		.byte	0xc
 3973 0801 0E       		.uleb128 0xe
 3974 0802 330F0000 		.4byte	.LASF130
 3975 0806 07       		.byte	0x7
 3976 0807 0801     		.2byte	0x108
 3977 0809 CE000000 		.4byte	0xce
 3978 080d 10       		.byte	0x10
 3979 080e 0E       		.uleb128 0xe
 3980 080f E60B0000 		.4byte	.LASF131
 3981 0813 07       		.byte	0x7
 3982 0814 0B01     		.2byte	0x10b
 3983 0816 CE000000 		.4byte	0xce
 3984 081a 14       		.byte	0x14
 3985 081b 0E       		.uleb128 0xe
 3986 081c 2D0D0000 		.4byte	.LASF132
 3987 0820 07       		.byte	0x7
 3988 0821 0F01     		.2byte	0x10f
 3989 0823 CE000000 		.4byte	0xce
 3990 0827 18       		.byte	0x18
 3991 0828 00       		.byte	0
 3992 0829 0C       		.uleb128 0xc
 3993 082a 4D0C0000 		.4byte	.LASF133
 3994 082e 07       		.byte	0x7
 3995 082f 1301     		.2byte	0x113
 3996 0831 C8070000 		.4byte	0x7c8
 3997 0835 0D       		.uleb128 0xd
 3998 0836 10       		.byte	0x10
 3999 0837 07       		.byte	0x7
 4000 0838 1A01     		.2byte	0x11a
 4001 083a 73080000 		.4byte	0x873
 4002 083e 0E       		.uleb128 0xe
 4003 083f 83050000 		.4byte	.LASF134
 4004 0843 07       		.byte	0x7
 4005 0844 1C01     		.2byte	0x11c
 4006 0846 CE000000 		.4byte	0xce
 4007 084a 00       		.byte	0
 4008 084b 0E       		.uleb128 0xe
 4009 084c 810B0000 		.4byte	.LASF135
 4010 0850 07       		.byte	0x7
 4011 0851 1F01     		.2byte	0x11f
 4012 0853 CE000000 		.4byte	0xce
 4013 0857 04       		.byte	0x4
 4014 0858 0E       		.uleb128 0xe
 4015 0859 040B0000 		.4byte	.LASF136
 4016 085d 07       		.byte	0x7
 4017 085e 2201     		.2byte	0x122
 4018 0860 CE000000 		.4byte	0xce
 4019 0864 08       		.byte	0x8
 4020 0865 0E       		.uleb128 0xe
 4021 0866 B30B0000 		.4byte	.LASF137
 4022 086a 07       		.byte	0x7
ARM GAS  /var/folders/28/j9jfyj_n4wz3qtvnym210h2c0000gn/T//cc7mox5M.s 			page 72


 4023 086b 2601     		.2byte	0x126
 4024 086d CE000000 		.4byte	0xce
 4025 0871 0C       		.byte	0xc
 4026 0872 00       		.byte	0
 4027 0873 0C       		.uleb128 0xc
 4028 0874 6C0F0000 		.4byte	.LASF138
 4029 0878 07       		.byte	0x7
 4030 0879 2801     		.2byte	0x128
 4031 087b 35080000 		.4byte	0x835
 4032 087f 0D       		.uleb128 0xd
 4033 0880 2C       		.byte	0x2c
 4034 0881 07       		.byte	0x7
 4035 0882 2E01     		.2byte	0x12e
 4036 0884 18090000 		.4byte	0x918
 4037 0888 0E       		.uleb128 0xe
 4038 0889 B4010000 		.4byte	.LASF94
 4039 088d 07       		.byte	0x7
 4040 088e 3001     		.2byte	0x130
 4041 0890 CE000000 		.4byte	0xce
 4042 0894 00       		.byte	0
 4043 0895 0E       		.uleb128 0xe
 4044 0896 F00E0000 		.4byte	.LASF139
 4045 089a 07       		.byte	0x7
 4046 089b 3301     		.2byte	0x133
 4047 089d CE000000 		.4byte	0xce
 4048 08a1 04       		.byte	0x4
 4049 08a2 0E       		.uleb128 0xe
 4050 08a3 B2080000 		.4byte	.LASF140
 4051 08a7 07       		.byte	0x7
 4052 08a8 3601     		.2byte	0x136
 4053 08aa CE000000 		.4byte	0xce
 4054 08ae 08       		.byte	0x8
 4055 08af 0E       		.uleb128 0xe
 4056 08b0 52020000 		.4byte	.LASF141
 4057 08b4 07       		.byte	0x7
 4058 08b5 3901     		.2byte	0x139
 4059 08b7 CE000000 		.4byte	0xce
 4060 08bb 0C       		.byte	0xc
 4061 08bc 0E       		.uleb128 0xe
 4062 08bd 4D060000 		.4byte	.LASF142
 4063 08c1 07       		.byte	0x7
 4064 08c2 3C01     		.2byte	0x13c
 4065 08c4 CE000000 		.4byte	0xce
 4066 08c8 10       		.byte	0x10
 4067 08c9 0E       		.uleb128 0xe
 4068 08ca CD010000 		.4byte	.LASF143
 4069 08ce 07       		.byte	0x7
 4070 08cf 3F01     		.2byte	0x13f
 4071 08d1 CE000000 		.4byte	0xce
 4072 08d5 14       		.byte	0x14
 4073 08d6 0E       		.uleb128 0xe
 4074 08d7 59080000 		.4byte	.LASF144
 4075 08db 07       		.byte	0x7
 4076 08dc 4201     		.2byte	0x142
 4077 08de CE000000 		.4byte	0xce
 4078 08e2 18       		.byte	0x18
 4079 08e3 0E       		.uleb128 0xe
ARM GAS  /var/folders/28/j9jfyj_n4wz3qtvnym210h2c0000gn/T//cc7mox5M.s 			page 73


 4080 08e4 68020000 		.4byte	.LASF145
 4081 08e8 07       		.byte	0x7
 4082 08e9 4501     		.2byte	0x145
 4083 08eb CE000000 		.4byte	0xce
 4084 08ef 1C       		.byte	0x1c
 4085 08f0 0E       		.uleb128 0xe
 4086 08f1 43030000 		.4byte	.LASF146
 4087 08f5 07       		.byte	0x7
 4088 08f6 4901     		.2byte	0x149
 4089 08f8 CE000000 		.4byte	0xce
 4090 08fc 20       		.byte	0x20
 4091 08fd 0E       		.uleb128 0xe
 4092 08fe 7A020000 		.4byte	.LASF147
 4093 0902 07       		.byte	0x7
 4094 0903 4D01     		.2byte	0x14d
 4095 0905 CE000000 		.4byte	0xce
 4096 0909 24       		.byte	0x24
 4097 090a 0E       		.uleb128 0xe
 4098 090b 89040000 		.4byte	.LASF148
 4099 090f 07       		.byte	0x7
 4100 0910 5001     		.2byte	0x150
 4101 0912 18090000 		.4byte	0x918
 4102 0916 28       		.byte	0x28
 4103 0917 00       		.byte	0
 4104 0918 12       		.uleb128 0x12
 4105 0919 04       		.byte	0x4
 4106 091a 29080000 		.4byte	0x829
 4107 091e 0C       		.uleb128 0xc
 4108 091f A0070000 		.4byte	.LASF149
 4109 0923 07       		.byte	0x7
 4110 0924 5201     		.2byte	0x152
 4111 0926 7F080000 		.4byte	0x87f
 4112 092a 03       		.uleb128 0x3
 4113 092b DA040000 		.4byte	.LASF150
 4114 092f 08       		.byte	0x8
 4115 0930 2B       		.byte	0x2b
 4116 0931 35090000 		.4byte	0x935
 4117 0935 02       		.uleb128 0x2
 4118 0936 01       		.byte	0x1
 4119 0937 02       		.byte	0x2
 4120 0938 02050000 		.4byte	.LASF151
 4121 093c 03       		.uleb128 0x3
 4122 093d CE000000 		.4byte	.LASF152
 4123 0941 08       		.byte	0x8
 4124 0942 35       		.byte	0x35
 4125 0943 CE000000 		.4byte	0xce
 4126 0947 13       		.uleb128 0x13
 4127 0948 04       		.byte	0x4
 4128 0949 02       		.uleb128 0x2
 4129 094a 01       		.byte	0x1
 4130 094b 08       		.byte	0x8
 4131 094c 64060000 		.4byte	.LASF153
 4132 0950 10       		.uleb128 0x10
 4133 0951 04       		.byte	0x4
 4134 0952 09       		.byte	0x9
 4135 0953 96       		.byte	0x96
 4136 0954 71090000 		.4byte	0x971
ARM GAS  /var/folders/28/j9jfyj_n4wz3qtvnym210h2c0000gn/T//cc7mox5M.s 			page 74


 4137 0958 14       		.uleb128 0x14
 4138 0959 73657400 		.ascii	"set\000"
 4139 095d 09       		.byte	0x9
 4140 095e 97       		.byte	0x97
 4141 095f B8000000 		.4byte	0xb8
 4142 0963 00       		.byte	0
 4143 0964 11       		.uleb128 0x11
 4144 0965 1E040000 		.4byte	.LASF154
 4145 0969 09       		.byte	0x9
 4146 096a 98       		.byte	0x98
 4147 096b B8000000 		.4byte	0xb8
 4148 096f 02       		.byte	0x2
 4149 0970 00       		.byte	0
 4150 0971 15       		.uleb128 0x15
 4151 0972 04       		.byte	0x4
 4152 0973 09       		.byte	0x9
 4153 0974 94       		.byte	0x94
 4154 0975 8C090000 		.4byte	0x98c
 4155 0979 16       		.uleb128 0x16
 4156 097a 5700     		.ascii	"W\000"
 4157 097c 09       		.byte	0x9
 4158 097d 95       		.byte	0x95
 4159 097e CE000000 		.4byte	0xce
 4160 0982 16       		.uleb128 0x16
 4161 0983 4800     		.ascii	"H\000"
 4162 0985 09       		.byte	0x9
 4163 0986 99       		.byte	0x99
 4164 0987 50090000 		.4byte	0x950
 4165 098b 00       		.byte	0
 4166 098c 10       		.uleb128 0x10
 4167 098d 28       		.byte	0x28
 4168 098e 09       		.byte	0x9
 4169 098f 8C       		.byte	0x8c
 4170 0990 0D0A0000 		.4byte	0xa0d
 4171 0994 11       		.uleb128 0x11
 4172 0995 E5030000 		.4byte	.LASF155
 4173 0999 09       		.byte	0x9
 4174 099a 8E       		.byte	0x8e
 4175 099b F0000000 		.4byte	0xf0
 4176 099f 00       		.byte	0
 4177 09a0 11       		.uleb128 0x11
 4178 09a1 E30A0000 		.4byte	.LASF156
 4179 09a5 09       		.byte	0x9
 4180 09a6 8F       		.byte	0x8f
 4181 09a7 F0000000 		.4byte	0xf0
 4182 09ab 04       		.byte	0x4
 4183 09ac 11       		.uleb128 0x11
 4184 09ad 61090000 		.4byte	.LASF157
 4185 09b1 09       		.byte	0x9
 4186 09b2 90       		.byte	0x90
 4187 09b3 F0000000 		.4byte	0xf0
 4188 09b7 08       		.byte	0x8
 4189 09b8 11       		.uleb128 0x11
 4190 09b9 F7050000 		.4byte	.LASF158
 4191 09bd 09       		.byte	0x9
 4192 09be 91       		.byte	0x91
 4193 09bf F0000000 		.4byte	0xf0
ARM GAS  /var/folders/28/j9jfyj_n4wz3qtvnym210h2c0000gn/T//cc7mox5M.s 			page 75


 4194 09c3 0C       		.byte	0xc
 4195 09c4 14       		.uleb128 0x14
 4196 09c5 49445200 		.ascii	"IDR\000"
 4197 09c9 09       		.byte	0x9
 4198 09ca 92       		.byte	0x92
 4199 09cb F0000000 		.4byte	0xf0
 4200 09cf 10       		.byte	0x10
 4201 09d0 14       		.uleb128 0x14
 4202 09d1 4F445200 		.ascii	"ODR\000"
 4203 09d5 09       		.byte	0x9
 4204 09d6 93       		.byte	0x93
 4205 09d7 F0000000 		.4byte	0xf0
 4206 09db 14       		.byte	0x14
 4207 09dc 11       		.uleb128 0x11
 4208 09dd 72000000 		.4byte	.LASF159
 4209 09e1 09       		.byte	0x9
 4210 09e2 9A       		.byte	0x9a
 4211 09e3 0D0A0000 		.4byte	0xa0d
 4212 09e7 18       		.byte	0x18
 4213 09e8 11       		.uleb128 0x11
 4214 09e9 7F100000 		.4byte	.LASF160
 4215 09ed 09       		.byte	0x9
 4216 09ee 9B       		.byte	0x9b
 4217 09ef F0000000 		.4byte	0xf0
 4218 09f3 1C       		.byte	0x1c
 4219 09f4 11       		.uleb128 0x11
 4220 09f5 10040000 		.4byte	.LASF161
 4221 09f9 09       		.byte	0x9
 4222 09fa 9C       		.byte	0x9c
 4223 09fb F0000000 		.4byte	0xf0
 4224 09ff 20       		.byte	0x20
 4225 0a00 11       		.uleb128 0x11
 4226 0a01 F9030000 		.4byte	.LASF162
 4227 0a05 09       		.byte	0x9
 4228 0a06 9D       		.byte	0x9d
 4229 0a07 F0000000 		.4byte	0xf0
 4230 0a0b 24       		.byte	0x24
 4231 0a0c 00       		.byte	0
 4232 0a0d 07       		.uleb128 0x7
 4233 0a0e 71090000 		.4byte	0x971
 4234 0a12 03       		.uleb128 0x3
 4235 0a13 290C0000 		.4byte	.LASF163
 4236 0a17 09       		.byte	0x9
 4237 0a18 9E       		.byte	0x9e
 4238 0a19 8C090000 		.4byte	0x98c
 4239 0a1d 03       		.uleb128 0x3
 4240 0a1e 3E080000 		.4byte	.LASF164
 4241 0a22 09       		.byte	0x9
 4242 0a23 F0       		.byte	0xf0
 4243 0a24 CE000000 		.4byte	0xce
 4244 0a28 03       		.uleb128 0x3
 4245 0a29 250F0000 		.4byte	.LASF165
 4246 0a2d 09       		.byte	0x9
 4247 0a2e F5       		.byte	0xf5
 4248 0a2f CE000000 		.4byte	0xce
 4249 0a33 03       		.uleb128 0x3
 4250 0a34 B8050000 		.4byte	.LASF166
ARM GAS  /var/folders/28/j9jfyj_n4wz3qtvnym210h2c0000gn/T//cc7mox5M.s 			page 76


 4251 0a38 09       		.byte	0x9
 4252 0a39 FD       		.byte	0xfd
 4253 0a3a 3E0A0000 		.4byte	0xa3e
 4254 0a3e 12       		.uleb128 0x12
 4255 0a3f 04       		.byte	0x4
 4256 0a40 120A0000 		.4byte	0xa12
 4257 0a44 02       		.uleb128 0x2
 4258 0a45 04       		.byte	0x4
 4259 0a46 04       		.byte	0x4
 4260 0a47 E9020000 		.4byte	.LASF167
 4261 0a4b 17       		.uleb128 0x17
 4262 0a4c 01       		.byte	0x1
 4263 0a4d 0A       		.byte	0xa
 4264 0a4e 48       		.byte	0x48
 4265 0a4f 6C0A0000 		.4byte	0xa6c
 4266 0a53 0A       		.uleb128 0xa
 4267 0a54 34090000 		.4byte	.LASF168
 4268 0a58 00       		.sleb128 0
 4269 0a59 0A       		.uleb128 0xa
 4270 0a5a 8E090000 		.4byte	.LASF169
 4271 0a5e 01       		.sleb128 1
 4272 0a5f 0A       		.uleb128 0xa
 4273 0a60 930B0000 		.4byte	.LASF170
 4274 0a64 02       		.sleb128 2
 4275 0a65 0A       		.uleb128 0xa
 4276 0a66 CE040000 		.4byte	.LASF171
 4277 0a6a 03       		.sleb128 3
 4278 0a6b 00       		.byte	0
 4279 0a6c 03       		.uleb128 0x3
 4280 0a6d 4B080000 		.4byte	.LASF172
 4281 0a71 0A       		.byte	0xa
 4282 0a72 4E       		.byte	0x4e
 4283 0a73 4B0A0000 		.4byte	0xa4b
 4284 0a77 02       		.uleb128 0x2
 4285 0a78 08       		.byte	0x8
 4286 0a79 04       		.byte	0x4
 4287 0a7a E8040000 		.4byte	.LASF173
 4288 0a7e 02       		.uleb128 0x2
 4289 0a7f 08       		.byte	0x8
 4290 0a80 04       		.byte	0x4
 4291 0a81 B5090000 		.4byte	.LASF174
 4292 0a85 17       		.uleb128 0x17
 4293 0a86 01       		.byte	0x1
 4294 0a87 0B       		.byte	0xb
 4295 0a88 23       		.byte	0x23
 4296 0a89 BE0A0000 		.4byte	0xabe
 4297 0a8d 0A       		.uleb128 0xa
 4298 0a8e 03030000 		.4byte	.LASF175
 4299 0a92 00       		.sleb128 0
 4300 0a93 0A       		.uleb128 0xa
 4301 0a94 BC040000 		.4byte	.LASF176
 4302 0a98 01       		.sleb128 1
 4303 0a99 0A       		.uleb128 0xa
 4304 0a9a AA020000 		.4byte	.LASF177
 4305 0a9e 02       		.sleb128 2
 4306 0a9f 0A       		.uleb128 0xa
 4307 0aa0 D8000000 		.4byte	.LASF178
ARM GAS  /var/folders/28/j9jfyj_n4wz3qtvnym210h2c0000gn/T//cc7mox5M.s 			page 77


 4308 0aa4 03       		.sleb128 3
 4309 0aa5 0A       		.uleb128 0xa
 4310 0aa6 AE0F0000 		.4byte	.LASF179
 4311 0aaa 04       		.sleb128 4
 4312 0aab 0A       		.uleb128 0xa
 4313 0aac 54100000 		.4byte	.LASF180
 4314 0ab0 05       		.sleb128 5
 4315 0ab1 0A       		.uleb128 0xa
 4316 0ab2 90080000 		.4byte	.LASF181
 4317 0ab6 06       		.sleb128 6
 4318 0ab7 0A       		.uleb128 0xa
 4319 0ab8 79040000 		.4byte	.LASF182
 4320 0abc 07       		.sleb128 7
 4321 0abd 00       		.byte	0
 4322 0abe 03       		.uleb128 0x3
 4323 0abf 90030000 		.4byte	.LASF183
 4324 0ac3 0B       		.byte	0xb
 4325 0ac4 2C       		.byte	0x2c
 4326 0ac5 850A0000 		.4byte	0xa85
 4327 0ac9 18       		.uleb128 0x18
 4328 0aca 4E0F0000 		.4byte	.LASF295
 4329 0ace 02       		.byte	0x2
 4330 0acf 8C04     		.2byte	0x48c
 4331 0ad1 35010000 		.4byte	0x135
 4332 0ad5 01       		.byte	0x1
 4333 0ad6 0B0B0000 		.4byte	0xb0b
 4334 0ada 19       		.uleb128 0x19
 4335 0adb B4010000 		.4byte	.LASF94
 4336 0adf 02       		.byte	0x2
 4337 0ae0 8C04     		.2byte	0x48c
 4338 0ae2 CE000000 		.4byte	0xce
 4339 0ae6 19       		.uleb128 0x19
 4340 0ae7 7E010000 		.4byte	.LASF184
 4341 0aeb 02       		.byte	0x2
 4342 0aec 8C04     		.2byte	0x48c
 4343 0aee CE000000 		.4byte	0xce
 4344 0af2 1A       		.uleb128 0x1a
 4345 0af3 DA0F0000 		.4byte	.LASF185
 4346 0af7 02       		.byte	0x2
 4347 0af8 8E04     		.2byte	0x48e
 4348 0afa 35010000 		.4byte	0x135
 4349 0afe 1A       		.uleb128 0x1a
 4350 0aff D4050000 		.4byte	.LASF186
 4351 0b03 02       		.byte	0x2
 4352 0b04 8F04     		.2byte	0x48f
 4353 0b06 CE000000 		.4byte	0xce
 4354 0b0a 00       		.byte	0
 4355 0b0b 1B       		.uleb128 0x1b
 4356 0b0c E40F0000 		.4byte	.LASF189
 4357 0b10 02       		.byte	0x2
 4358 0b11 B903     		.2byte	0x3b9
 4359 0b13 01       		.byte	0x1
 4360 0b14 310B0000 		.4byte	0xb31
 4361 0b18 19       		.uleb128 0x19
 4362 0b19 360C0000 		.4byte	.LASF187
 4363 0b1d 02       		.byte	0x2
 4364 0b1e B903     		.2byte	0x3b9
ARM GAS  /var/folders/28/j9jfyj_n4wz3qtvnym210h2c0000gn/T//cc7mox5M.s 			page 78


 4365 0b20 310B0000 		.4byte	0xb31
 4366 0b24 1A       		.uleb128 0x1a
 4367 0b25 14010000 		.4byte	.LASF188
 4368 0b29 02       		.byte	0x2
 4369 0b2a BB03     		.2byte	0x3bb
 4370 0b2c CE000000 		.4byte	0xce
 4371 0b30 00       		.byte	0
 4372 0b31 12       		.uleb128 0x12
 4373 0b32 04       		.byte	0x4
 4374 0b33 73080000 		.4byte	0x873
 4375 0b37 1B       		.uleb128 0x1b
 4376 0b38 51030000 		.4byte	.LASF190
 4377 0b3c 02       		.byte	0x2
 4378 0b3d ED03     		.2byte	0x3ed
 4379 0b3f 01       		.byte	0x1
 4380 0b40 510B0000 		.4byte	0xb51
 4381 0b44 19       		.uleb128 0x19
 4382 0b45 79050000 		.4byte	.LASF191
 4383 0b49 02       		.byte	0x2
 4384 0b4a ED03     		.2byte	0x3ed
 4385 0b4c CE000000 		.4byte	0xce
 4386 0b50 00       		.byte	0
 4387 0b51 1B       		.uleb128 0x1b
 4388 0b52 96090000 		.4byte	.LASF192
 4389 0b56 02       		.byte	0x2
 4390 0b57 0B04     		.2byte	0x40b
 4391 0b59 01       		.byte	0x1
 4392 0b5a 770B0000 		.4byte	0xb77
 4393 0b5e 19       		.uleb128 0x19
 4394 0b5f D30E0000 		.4byte	.LASF193
 4395 0b63 02       		.byte	0x2
 4396 0b64 0B04     		.2byte	0x40b
 4397 0b66 CE000000 		.4byte	0xce
 4398 0b6a 19       		.uleb128 0x19
 4399 0b6b EE050000 		.4byte	.LASF194
 4400 0b6f 02       		.byte	0x2
 4401 0b70 0B04     		.2byte	0x40b
 4402 0b72 63010000 		.4byte	0x163
 4403 0b76 00       		.byte	0
 4404 0b77 1C       		.uleb128 0x1c
 4405 0b78 010D0000 		.4byte	.LASF272
 4406 0b7c 01       		.byte	0x1
 4407 0b7d 8F       		.byte	0x8f
 4408 0b7e 01       		.byte	0x1
 4409 0b7f 1D       		.uleb128 0x1d
 4410 0b80 230A0000 		.4byte	.LASF200
 4411 0b84 01       		.byte	0x1
 4412 0b85 A4       		.byte	0xa4
 4413 0b86 40000000 		.4byte	.LFB182
 4414 0b8a E0000000 		.4byte	.LFE182-.LFB182
 4415 0b8e 01       		.uleb128 0x1
 4416 0b8f 9C       		.byte	0x9c
 4417 0b90 890C0000 		.4byte	0xc89
 4418 0b94 1E       		.uleb128 0x1e
 4419 0b95 55070000 		.4byte	.LASF195
 4420 0b99 01       		.byte	0x1
 4421 0b9a A5       		.byte	0xa5
ARM GAS  /var/folders/28/j9jfyj_n4wz3qtvnym210h2c0000gn/T//cc7mox5M.s 			page 79


 4422 0b9b 9B000000 		.4byte	0x9b
 4423 0b9f 00008000 		.4byte	0x800000
 4424 0ba3 1F       		.uleb128 0x1f
 4425 0ba4 38030000 		.4byte	.LASF196
 4426 0ba8 01       		.byte	0x1
 4427 0ba9 A7       		.byte	0xa7
 4428 0baa 47090000 		.4byte	0x947
 4429 0bae 80808080 		.sleb128 -1073741824
 4429      7C
 4430 0bb3 20       		.uleb128 0x20
 4431 0bb4 6900     		.ascii	"i\000"
 4432 0bb6 01       		.byte	0x1
 4433 0bb7 A9       		.byte	0xa9
 4434 0bb8 9B000000 		.4byte	0x9b
 4435 0bbc 00000000 		.4byte	.LLST4
 4436 0bc0 21       		.uleb128 0x21
 4437 0bc1 6100     		.ascii	"a\000"
 4438 0bc3 01       		.byte	0x1
 4439 0bc4 AB       		.byte	0xab
 4440 0bc5 1A010000 		.4byte	0x11a
 4441 0bc9 354E5A01 		.4byte	0x15a4e35
 4442 0bcd 22       		.uleb128 0x22
 4443 0bce 6300     		.ascii	"c\000"
 4444 0bd0 01       		.byte	0x1
 4445 0bd1 AC       		.byte	0xac
 4446 0bd2 1A010000 		.4byte	0x11a
 4447 0bd6 01       		.byte	0x1
 4448 0bd7 23       		.uleb128 0x23
 4449 0bd8 2E0F0000 		.4byte	.LASF197
 4450 0bdc 01       		.byte	0x1
 4451 0bdd AE       		.byte	0xae
 4452 0bde 890C0000 		.4byte	0xc89
 4453 0be2 02       		.uleb128 0x2
 4454 0be3 91       		.byte	0x91
 4455 0be4 6C       		.sleb128 -20
 4456 0be5 23       		.uleb128 0x23
 4457 0be6 C10F0000 		.4byte	.LASF198
 4458 0bea 01       		.byte	0x1
 4459 0beb AF       		.byte	0xaf
 4460 0bec 890C0000 		.4byte	0xc89
 4461 0bf0 02       		.uleb128 0x2
 4462 0bf1 91       		.byte	0x91
 4463 0bf2 70       		.sleb128 -16
 4464 0bf3 23       		.uleb128 0x23
 4465 0bf4 FC0F0000 		.4byte	.LASF199
 4466 0bf8 01       		.byte	0x1
 4467 0bf9 B0       		.byte	0xb0
 4468 0bfa 890C0000 		.4byte	0xc89
 4469 0bfe 02       		.uleb128 0x2
 4470 0bff 91       		.byte	0x91
 4471 0c00 74       		.sleb128 -12
 4472 0c01 20       		.uleb128 0x20
 4473 0c02 746D7000 		.ascii	"tmp\000"
 4474 0c06 01       		.byte	0x1
 4475 0c07 B2       		.byte	0xb2
 4476 0c08 CE000000 		.4byte	0xce
 4477 0c0c 75000000 		.4byte	.LLST5
ARM GAS  /var/folders/28/j9jfyj_n4wz3qtvnym210h2c0000gn/T//cc7mox5M.s 			page 80


 4478 0c10 24       		.uleb128 0x24
 4479 0c11 58000000 		.4byte	.LBB36
 4480 0c15 44000000 		.4byte	.LBE36-.LBB36
 4481 0c19 4E0C0000 		.4byte	0xc4e
 4482 0c1d 20       		.uleb128 0x20
 4483 0c1e 7800     		.ascii	"x\000"
 4484 0c20 01       		.byte	0x1
 4485 0c21 B9       		.byte	0xb9
 4486 0c22 CE000000 		.4byte	0xce
 4487 0c26 AB000000 		.4byte	.LLST6
 4488 0c2a 25       		.uleb128 0x25
 4489 0c2b 94000000 		.4byte	.LVL23
 4490 0c2f 301A0000 		.4byte	0x1a30
 4491 0c33 3D0C0000 		.4byte	0xc3d
 4492 0c37 26       		.uleb128 0x26
 4493 0c38 01       		.uleb128 0x1
 4494 0c39 50       		.byte	0x50
 4495 0c3a 01       		.uleb128 0x1
 4496 0c3b 35       		.byte	0x35
 4497 0c3c 00       		.byte	0
 4498 0c3d 27       		.uleb128 0x27
 4499 0c3e 9A000000 		.4byte	.LVL24
 4500 0c42 411A0000 		.4byte	0x1a41
 4501 0c46 26       		.uleb128 0x26
 4502 0c47 01       		.uleb128 0x1
 4503 0c48 50       		.byte	0x50
 4504 0c49 02       		.uleb128 0x2
 4505 0c4a 08       		.byte	0x8
 4506 0c4b 64       		.byte	0x64
 4507 0c4c 00       		.byte	0
 4508 0c4d 00       		.byte	0
 4509 0c4e 28       		.uleb128 0x28
 4510 0c4f B6000000 		.4byte	.LBB37
 4511 0c53 54000000 		.4byte	.LBE37-.LBB37
 4512 0c57 20       		.uleb128 0x20
 4513 0c58 7800     		.ascii	"x\000"
 4514 0c5a 01       		.byte	0x1
 4515 0c5b D7       		.byte	0xd7
 4516 0c5c CE000000 		.4byte	0xce
 4517 0c60 F7000000 		.4byte	.LLST7
 4518 0c64 25       		.uleb128 0x25
 4519 0c65 02010000 		.4byte	.LVL38
 4520 0c69 301A0000 		.4byte	0x1a30
 4521 0c6d 770C0000 		.4byte	0xc77
 4522 0c71 26       		.uleb128 0x26
 4523 0c72 01       		.uleb128 0x1
 4524 0c73 50       		.byte	0x50
 4525 0c74 01       		.uleb128 0x1
 4526 0c75 35       		.byte	0x35
 4527 0c76 00       		.byte	0
 4528 0c77 27       		.uleb128 0x27
 4529 0c78 08010000 		.4byte	.LVL39
 4530 0c7c 411A0000 		.4byte	0x1a41
 4531 0c80 26       		.uleb128 0x26
 4532 0c81 01       		.uleb128 0x1
 4533 0c82 50       		.byte	0x50
 4534 0c83 02       		.uleb128 0x2
ARM GAS  /var/folders/28/j9jfyj_n4wz3qtvnym210h2c0000gn/T//cc7mox5M.s 			page 81


 4535 0c84 08       		.byte	0x8
 4536 0c85 64       		.byte	0x64
 4537 0c86 00       		.byte	0
 4538 0c87 00       		.byte	0
 4539 0c88 00       		.byte	0
 4540 0c89 07       		.uleb128 0x7
 4541 0c8a 9B000000 		.4byte	0x9b
 4542 0c8e 1D       		.uleb128 0x1d
 4543 0c8f 77000000 		.4byte	.LASF201
 4544 0c93 01       		.byte	0x1
 4545 0c94 F1       		.byte	0xf1
 4546 0c95 20010000 		.4byte	.LFB183
 4547 0c99 80000000 		.4byte	.LFE183-.LFB183
 4548 0c9d 01       		.uleb128 0x1
 4549 0c9e 9C       		.byte	0x9c
 4550 0c9f E20F0000 		.4byte	0xfe2
 4551 0ca3 29       		.uleb128 0x29
 4552 0ca4 D8070000 		.4byte	.LASF202
 4553 0ca8 01       		.byte	0x1
 4554 0ca9 F2       		.byte	0xf2
 4555 0caa 73080000 		.4byte	0x873
 4556 0cae 2B010000 		.4byte	.LLST8
 4557 0cb2 29       		.uleb128 0x29
 4558 0cb3 14010000 		.4byte	.LASF188
 4559 0cb7 01       		.byte	0x1
 4560 0cb8 F3       		.byte	0xf3
 4561 0cb9 CE000000 		.4byte	0xce
 4562 0cbd 9D010000 		.4byte	.LLST9
 4563 0cc1 2A       		.uleb128 0x2a
 4564 0cc2 6D010000 		.4byte	.LASF296
 4565 0cc6 01       		.byte	0x1
 4566 0cc7 4701     		.2byte	0x147
 4567 0cc9 00000000 		.4byte	.LFB184
 4568 0ccd 34000000 		.4byte	.LFE184-.LFB184
 4569 0cd1 01       		.uleb128 0x1
 4570 0cd2 9C       		.byte	0x9c
 4571 0cd3 260D0000 		.4byte	0xd26
 4572 0cd7 2B       		.uleb128 0x2b
 4573 0cd8 3C090000 		.4byte	.LASF203
 4574 0cdc 01       		.byte	0x1
 4575 0cdd 4801     		.2byte	0x148
 4576 0cdf CE000000 		.4byte	0xce
 4577 0ce3 BF010000 		.4byte	.LLST0
 4578 0ce7 2B       		.uleb128 0x2b
 4579 0ce8 9F040000 		.4byte	.LASF204
 4580 0cec 01       		.byte	0x1
 4581 0ced 4901     		.2byte	0x149
 4582 0cef CE000000 		.4byte	0xce
 4583 0cf3 EA010000 		.4byte	.LLST1
 4584 0cf7 2B       		.uleb128 0x2b
 4585 0cf8 300B0000 		.4byte	.LASF205
 4586 0cfc 01       		.byte	0x1
 4587 0cfd 4A01     		.2byte	0x14a
 4588 0cff CE000000 		.4byte	0xce
 4589 0d03 15020000 		.4byte	.LLST2
 4590 0d07 2B       		.uleb128 0x2b
 4591 0d08 4C040000 		.4byte	.LASF206
ARM GAS  /var/folders/28/j9jfyj_n4wz3qtvnym210h2c0000gn/T//cc7mox5M.s 			page 82


 4592 0d0c 01       		.byte	0x1
 4593 0d0d 4B01     		.2byte	0x14b
 4594 0d0f CE000000 		.4byte	0xce
 4595 0d13 40020000 		.4byte	.LLST3
 4596 0d17 2C       		.uleb128 0x2c
 4597 0d18 65030000 		.4byte	.LASF207
 4598 0d1c 01       		.byte	0x1
 4599 0d1d 4C01     		.2byte	0x14c
 4600 0d1f CE000000 		.4byte	0xce
 4601 0d23 01       		.uleb128 0x1
 4602 0d24 53       		.byte	0x53
 4603 0d25 00       		.byte	0
 4604 0d26 2D       		.uleb128 0x2d
 4605 0d27 C90A0000 		.4byte	0xac9
 4606 0d2b 22010000 		.4byte	.LBB38
 4607 0d2f 0A000000 		.4byte	.LBE38-.LBB38
 4608 0d33 01       		.byte	0x1
 4609 0d34 FC       		.byte	0xfc
 4610 0d35 5F0D0000 		.4byte	0xd5f
 4611 0d39 2E       		.uleb128 0x2e
 4612 0d3a E60A0000 		.4byte	0xae6
 4613 0d3e 20       		.byte	0x20
 4614 0d3f 2E       		.uleb128 0x2e
 4615 0d40 DA0A0000 		.4byte	0xada
 4616 0d44 00       		.byte	0
 4617 0d45 28       		.uleb128 0x28
 4618 0d46 22010000 		.4byte	.LBB39
 4619 0d4a 0A000000 		.4byte	.LBE39-.LBB39
 4620 0d4e 2F       		.uleb128 0x2f
 4621 0d4f F20A0000 		.4byte	0xaf2
 4622 0d53 00       		.byte	0
 4623 0d54 30       		.uleb128 0x30
 4624 0d55 FE0A0000 		.4byte	0xafe
 4625 0d59 6B020000 		.4byte	.LLST10
 4626 0d5d 00       		.byte	0
 4627 0d5e 00       		.byte	0
 4628 0d5f 2D       		.uleb128 0x2d
 4629 0d60 0B0B0000 		.4byte	0xb0b
 4630 0d64 2C010000 		.4byte	.LBB40
 4631 0d68 04000000 		.4byte	.LBE40-.LBB40
 4632 0d6c 01       		.byte	0x1
 4633 0d6d FF       		.byte	0xff
 4634 0d6e 8F0D0000 		.4byte	0xd8f
 4635 0d72 31       		.uleb128 0x31
 4636 0d73 180B0000 		.4byte	0xb18
 4637 0d77 06       		.uleb128 0x6
 4638 0d78 F2       		.byte	0xf2
 4639 0d79 A30C0000 		.4byte	.Ldebug_info0+3235
 4640 0d7d 00       		.sleb128 0
 4641 0d7e 28       		.uleb128 0x28
 4642 0d7f 2C010000 		.4byte	.LBB41
 4643 0d83 04000000 		.4byte	.LBE41-.LBB41
 4644 0d87 2F       		.uleb128 0x2f
 4645 0d88 240B0000 		.4byte	0xb24
 4646 0d8c 11       		.byte	0x11
 4647 0d8d 00       		.byte	0
 4648 0d8e 00       		.byte	0
ARM GAS  /var/folders/28/j9jfyj_n4wz3qtvnym210h2c0000gn/T//cc7mox5M.s 			page 83


 4649 0d8f 32       		.uleb128 0x32
 4650 0d90 C90A0000 		.4byte	0xac9
 4651 0d94 36010000 		.4byte	.LBB42
 4652 0d98 08000000 		.4byte	.LBE42-.LBB42
 4653 0d9c 01       		.byte	0x1
 4654 0d9d 1001     		.2byte	0x110
 4655 0d9f C90D0000 		.4byte	0xdc9
 4656 0da3 2E       		.uleb128 0x2e
 4657 0da4 E60A0000 		.4byte	0xae6
 4658 0da8 20       		.byte	0x20
 4659 0da9 2E       		.uleb128 0x2e
 4660 0daa DA0A0000 		.4byte	0xada
 4661 0dae 00       		.byte	0
 4662 0daf 28       		.uleb128 0x28
 4663 0db0 36010000 		.4byte	.LBB43
 4664 0db4 08000000 		.4byte	.LBE43-.LBB43
 4665 0db8 2F       		.uleb128 0x2f
 4666 0db9 F20A0000 		.4byte	0xaf2
 4667 0dbd 00       		.byte	0
 4668 0dbe 30       		.uleb128 0x30
 4669 0dbf FE0A0000 		.4byte	0xafe
 4670 0dc3 8A020000 		.4byte	.LLST11
 4671 0dc7 00       		.byte	0
 4672 0dc8 00       		.byte	0
 4673 0dc9 32       		.uleb128 0x32
 4674 0dca 0B0B0000 		.4byte	0xb0b
 4675 0dce 3E010000 		.4byte	.LBB44
 4676 0dd2 04000000 		.4byte	.LBE44-.LBB44
 4677 0dd6 01       		.byte	0x1
 4678 0dd7 1301     		.2byte	0x113
 4679 0dd9 FA0D0000 		.4byte	0xdfa
 4680 0ddd 31       		.uleb128 0x31
 4681 0dde 180B0000 		.4byte	0xb18
 4682 0de2 06       		.uleb128 0x6
 4683 0de3 F2       		.byte	0xf2
 4684 0de4 A30C0000 		.4byte	.Ldebug_info0+3235
 4685 0de8 00       		.sleb128 0
 4686 0de9 28       		.uleb128 0x28
 4687 0dea 3E010000 		.4byte	.LBB45
 4688 0dee 04000000 		.4byte	.LBE45-.LBB45
 4689 0df2 2F       		.uleb128 0x2f
 4690 0df3 240B0000 		.4byte	0xb24
 4691 0df7 12       		.byte	0x12
 4692 0df8 00       		.byte	0
 4693 0df9 00       		.byte	0
 4694 0dfa 32       		.uleb128 0x32
 4695 0dfb C90A0000 		.4byte	0xac9
 4696 0dff 42010000 		.4byte	.LBB46
 4697 0e03 0A000000 		.4byte	.LBE46-.LBB46
 4698 0e07 01       		.byte	0x1
 4699 0e08 1C01     		.2byte	0x11c
 4700 0e0a 340E0000 		.4byte	0xe34
 4701 0e0e 2E       		.uleb128 0x2e
 4702 0e0f E60A0000 		.4byte	0xae6
 4703 0e13 20       		.byte	0x20
 4704 0e14 2E       		.uleb128 0x2e
 4705 0e15 DA0A0000 		.4byte	0xada
ARM GAS  /var/folders/28/j9jfyj_n4wz3qtvnym210h2c0000gn/T//cc7mox5M.s 			page 84


 4706 0e19 00       		.byte	0
 4707 0e1a 28       		.uleb128 0x28
 4708 0e1b 42010000 		.4byte	.LBB47
 4709 0e1f 0A000000 		.4byte	.LBE47-.LBB47
 4710 0e23 2F       		.uleb128 0x2f
 4711 0e24 F20A0000 		.4byte	0xaf2
 4712 0e28 00       		.byte	0
 4713 0e29 30       		.uleb128 0x30
 4714 0e2a FE0A0000 		.4byte	0xafe
 4715 0e2e A9020000 		.4byte	.LLST12
 4716 0e32 00       		.byte	0
 4717 0e33 00       		.byte	0
 4718 0e34 32       		.uleb128 0x32
 4719 0e35 0B0B0000 		.4byte	0xb0b
 4720 0e39 4C010000 		.4byte	.LBB48
 4721 0e3d 04000000 		.4byte	.LBE48-.LBB48
 4722 0e41 01       		.byte	0x1
 4723 0e42 1F01     		.2byte	0x11f
 4724 0e44 650E0000 		.4byte	0xe65
 4725 0e48 31       		.uleb128 0x31
 4726 0e49 180B0000 		.4byte	0xb18
 4727 0e4d 06       		.uleb128 0x6
 4728 0e4e F2       		.byte	0xf2
 4729 0e4f A30C0000 		.4byte	.Ldebug_info0+3235
 4730 0e53 00       		.sleb128 0
 4731 0e54 28       		.uleb128 0x28
 4732 0e55 4C010000 		.4byte	.LBB49
 4733 0e59 04000000 		.4byte	.LBE49-.LBB49
 4734 0e5d 2F       		.uleb128 0x2f
 4735 0e5e 240B0000 		.4byte	0xb24
 4736 0e62 73       		.byte	0x73
 4737 0e63 00       		.byte	0
 4738 0e64 00       		.byte	0
 4739 0e65 32       		.uleb128 0x32
 4740 0e66 C90A0000 		.4byte	0xac9
 4741 0e6a 50010000 		.4byte	.LBB50
 4742 0e6e 0A000000 		.4byte	.LBE50-.LBB50
 4743 0e72 01       		.byte	0x1
 4744 0e73 2201     		.2byte	0x122
 4745 0e75 9F0E0000 		.4byte	0xe9f
 4746 0e79 2E       		.uleb128 0x2e
 4747 0e7a E60A0000 		.4byte	0xae6
 4748 0e7e 20       		.byte	0x20
 4749 0e7f 2E       		.uleb128 0x2e
 4750 0e80 DA0A0000 		.4byte	0xada
 4751 0e84 00       		.byte	0
 4752 0e85 28       		.uleb128 0x28
 4753 0e86 50010000 		.4byte	.LBB51
 4754 0e8a 0A000000 		.4byte	.LBE51-.LBB51
 4755 0e8e 2F       		.uleb128 0x2f
 4756 0e8f F20A0000 		.4byte	0xaf2
 4757 0e93 00       		.byte	0
 4758 0e94 30       		.uleb128 0x30
 4759 0e95 FE0A0000 		.4byte	0xafe
 4760 0e99 C8020000 		.4byte	.LLST13
 4761 0e9d 00       		.byte	0
 4762 0e9e 00       		.byte	0
ARM GAS  /var/folders/28/j9jfyj_n4wz3qtvnym210h2c0000gn/T//cc7mox5M.s 			page 85


 4763 0e9f 32       		.uleb128 0x32
 4764 0ea0 0B0B0000 		.4byte	0xb0b
 4765 0ea4 5A010000 		.4byte	.LBB52
 4766 0ea8 04000000 		.4byte	.LBE52-.LBB52
 4767 0eac 01       		.byte	0x1
 4768 0ead 2501     		.2byte	0x125
 4769 0eaf D00E0000 		.4byte	0xed0
 4770 0eb3 31       		.uleb128 0x31
 4771 0eb4 180B0000 		.4byte	0xb18
 4772 0eb8 06       		.uleb128 0x6
 4773 0eb9 F2       		.byte	0xf2
 4774 0eba A30C0000 		.4byte	.Ldebug_info0+3235
 4775 0ebe 00       		.sleb128 0
 4776 0ebf 28       		.uleb128 0x28
 4777 0ec0 5A010000 		.4byte	.LBB53
 4778 0ec4 04000000 		.4byte	.LBE53-.LBB53
 4779 0ec8 2F       		.uleb128 0x2f
 4780 0ec9 240B0000 		.4byte	0xb24
 4781 0ecd 73       		.byte	0x73
 4782 0ece 00       		.byte	0
 4783 0ecf 00       		.byte	0
 4784 0ed0 32       		.uleb128 0x32
 4785 0ed1 C90A0000 		.4byte	0xac9
 4786 0ed5 5E010000 		.4byte	.LBB54
 4787 0ed9 0A000000 		.4byte	.LBE54-.LBB54
 4788 0edd 01       		.byte	0x1
 4789 0ede 3501     		.2byte	0x135
 4790 0ee0 0A0F0000 		.4byte	0xf0a
 4791 0ee4 2E       		.uleb128 0x2e
 4792 0ee5 E60A0000 		.4byte	0xae6
 4793 0ee9 20       		.byte	0x20
 4794 0eea 2E       		.uleb128 0x2e
 4795 0eeb DA0A0000 		.4byte	0xada
 4796 0eef 00       		.byte	0
 4797 0ef0 28       		.uleb128 0x28
 4798 0ef1 5E010000 		.4byte	.LBB55
 4799 0ef5 0A000000 		.4byte	.LBE55-.LBB55
 4800 0ef9 2F       		.uleb128 0x2f
 4801 0efa F20A0000 		.4byte	0xaf2
 4802 0efe 00       		.byte	0
 4803 0eff 30       		.uleb128 0x30
 4804 0f00 FE0A0000 		.4byte	0xafe
 4805 0f04 E7020000 		.4byte	.LLST14
 4806 0f08 00       		.byte	0
 4807 0f09 00       		.byte	0
 4808 0f0a 32       		.uleb128 0x32
 4809 0f0b 0B0B0000 		.4byte	0xb0b
 4810 0f0f 68010000 		.4byte	.LBB56
 4811 0f13 04000000 		.4byte	.LBE56-.LBB56
 4812 0f17 01       		.byte	0x1
 4813 0f18 3801     		.2byte	0x138
 4814 0f1a 3E0F0000 		.4byte	0xf3e
 4815 0f1e 31       		.uleb128 0x31
 4816 0f1f 180B0000 		.4byte	0xb18
 4817 0f23 06       		.uleb128 0x6
 4818 0f24 F2       		.byte	0xf2
 4819 0f25 A30C0000 		.4byte	.Ldebug_info0+3235
ARM GAS  /var/folders/28/j9jfyj_n4wz3qtvnym210h2c0000gn/T//cc7mox5M.s 			page 86


 4820 0f29 00       		.sleb128 0
 4821 0f2a 28       		.uleb128 0x28
 4822 0f2b 68010000 		.4byte	.LBB57
 4823 0f2f 04000000 		.4byte	.LBE57-.LBB57
 4824 0f33 33       		.uleb128 0x33
 4825 0f34 240B0000 		.4byte	0xb24
 4826 0f38 14420400 		.4byte	0x44214
 4827 0f3c 00       		.byte	0
 4828 0f3d 00       		.byte	0
 4829 0f3e 32       		.uleb128 0x32
 4830 0f3f 370B0000 		.4byte	0xb37
 4831 0f43 6C010000 		.4byte	.LBB58
 4832 0f47 0C000000 		.4byte	.LBE58-.LBB58
 4833 0f4b 01       		.byte	0x1
 4834 0f4c 3F01     		.2byte	0x13f
 4835 0f4e 5A0F0000 		.4byte	0xf5a
 4836 0f52 34       		.uleb128 0x34
 4837 0f53 440B0000 		.4byte	0xb44
 4838 0f57 6A05     		.2byte	0x56a
 4839 0f59 00       		.byte	0
 4840 0f5a 32       		.uleb128 0x32
 4841 0f5b C90A0000 		.4byte	0xac9
 4842 0f5f 78010000 		.4byte	.LBB60
 4843 0f63 08000000 		.4byte	.LBE60-.LBB60
 4844 0f67 01       		.byte	0x1
 4845 0f68 4101     		.2byte	0x141
 4846 0f6a 940F0000 		.4byte	0xf94
 4847 0f6e 2E       		.uleb128 0x2e
 4848 0f6f E60A0000 		.4byte	0xae6
 4849 0f73 20       		.byte	0x20
 4850 0f74 2E       		.uleb128 0x2e
 4851 0f75 DA0A0000 		.4byte	0xada
 4852 0f79 00       		.byte	0
 4853 0f7a 28       		.uleb128 0x28
 4854 0f7b 78010000 		.4byte	.LBB61
 4855 0f7f 08000000 		.4byte	.LBE61-.LBB61
 4856 0f83 2F       		.uleb128 0x2f
 4857 0f84 F20A0000 		.4byte	0xaf2
 4858 0f88 00       		.byte	0
 4859 0f89 30       		.uleb128 0x30
 4860 0f8a FE0A0000 		.4byte	0xafe
 4861 0f8e 06030000 		.4byte	.LLST15
 4862 0f92 00       		.byte	0
 4863 0f93 00       		.byte	0
 4864 0f94 32       		.uleb128 0x32
 4865 0f95 510B0000 		.4byte	0xb51
 4866 0f99 80010000 		.4byte	.LBB62
 4867 0f9d 0A000000 		.4byte	.LBE62-.LBB62
 4868 0fa1 01       		.byte	0x1
 4869 0fa2 4401     		.2byte	0x144
 4870 0fa4 B50F0000 		.4byte	0xfb5
 4871 0fa8 2E       		.uleb128 0x2e
 4872 0fa9 6A0B0000 		.4byte	0xb6a
 4873 0fad 00       		.byte	0
 4874 0fae 2E       		.uleb128 0x2e
 4875 0faf 5E0B0000 		.4byte	0xb5e
 4876 0fb3 00       		.byte	0
ARM GAS  /var/folders/28/j9jfyj_n4wz3qtvnym210h2c0000gn/T//cc7mox5M.s 			page 87


 4877 0fb4 00       		.byte	0
 4878 0fb5 25       		.uleb128 0x25
 4879 0fb6 36010000 		.4byte	.LVL48
 4880 0fba 411A0000 		.4byte	0x1a41
 4881 0fbe C90F0000 		.4byte	0xfc9
 4882 0fc2 26       		.uleb128 0x26
 4883 0fc3 01       		.uleb128 0x1
 4884 0fc4 50       		.byte	0x50
 4885 0fc5 02       		.uleb128 0x2
 4886 0fc6 08       		.byte	0x8
 4887 0fc7 64       		.byte	0x64
 4888 0fc8 00       		.byte	0
 4889 0fc9 35       		.uleb128 0x35
 4890 0fca 8E010000 		.4byte	.LVL69
 4891 0fce C10C0000 		.4byte	0xcc1
 4892 0fd2 36       		.uleb128 0x36
 4893 0fd3 98010000 		.4byte	.LVL70
 4894 0fd7 411A0000 		.4byte	0x1a41
 4895 0fdb 26       		.uleb128 0x26
 4896 0fdc 01       		.uleb128 0x1
 4897 0fdd 50       		.byte	0x50
 4898 0fde 01       		.uleb128 0x1
 4899 0fdf 31       		.byte	0x31
 4900 0fe0 00       		.byte	0
 4901 0fe1 00       		.byte	0
 4902 0fe2 37       		.uleb128 0x37
 4903 0fe3 08090000 		.4byte	.LASF208
 4904 0fe7 01       		.byte	0x1
 4905 0fe8 5A01     		.2byte	0x15a
 4906 0fea A0010000 		.4byte	.LFB185
 4907 0fee 40000000 		.4byte	.LFE185-.LFB185
 4908 0ff2 01       		.uleb128 0x1
 4909 0ff3 9C       		.byte	0x9c
 4910 0ff4 8F100000 		.4byte	0x108f
 4911 0ff8 38       		.uleb128 0x38
 4912 0ff9 87010000 		.4byte	.LASF209
 4913 0ffd 01       		.byte	0x1
 4914 0ffe 5A01     		.2byte	0x15a
 4915 1000 8F100000 		.4byte	0x108f
 4916 1004 25030000 		.4byte	.LLST16
 4917 1008 38       		.uleb128 0x38
 4918 1009 29010000 		.4byte	.LASF210
 4919 100d 01       		.byte	0x1
 4920 100e 5A01     		.2byte	0x15a
 4921 1010 CE000000 		.4byte	0xce
 4922 1014 43030000 		.4byte	.LLST17
 4923 1018 38       		.uleb128 0x38
 4924 1019 C90C0000 		.4byte	.LASF211
 4925 101d 01       		.byte	0x1
 4926 101e 5B01     		.2byte	0x15b
 4927 1020 CE000000 		.4byte	0xce
 4928 1024 70030000 		.4byte	.LLST18
 4929 1028 2C       		.uleb128 0x2c
 4930 1029 48090000 		.4byte	.LASF212
 4931 102d 01       		.byte	0x1
 4932 102e 5D01     		.2byte	0x15d
 4933 1030 F0000000 		.4byte	0xf0
ARM GAS  /var/folders/28/j9jfyj_n4wz3qtvnym210h2c0000gn/T//cc7mox5M.s 			page 88


 4934 1034 02       		.uleb128 0x2
 4935 1035 91       		.byte	0x91
 4936 1036 74       		.sleb128 -12
 4937 1037 39       		.uleb128 0x39
 4938 1038 510B0000 		.4byte	0xb51
 4939 103c A4010000 		.4byte	.LBB64
 4940 1040 00000000 		.4byte	.Ldebug_ranges0+0
 4941 1044 01       		.byte	0x1
 4942 1045 6001     		.2byte	0x160
 4943 1047 58100000 		.4byte	0x1058
 4944 104b 2E       		.uleb128 0x2e
 4945 104c 6A0B0000 		.4byte	0xb6a
 4946 1050 00       		.byte	0
 4947 1051 2E       		.uleb128 0x2e
 4948 1052 5E0B0000 		.4byte	0xb5e
 4949 1056 00       		.byte	0
 4950 1057 00       		.byte	0
 4951 1058 3A       		.uleb128 0x3a
 4952 1059 C90A0000 		.4byte	0xac9
 4953 105d B2010000 		.4byte	.LBB68
 4954 1061 08000000 		.4byte	.LBE68-.LBB68
 4955 1065 01       		.byte	0x1
 4956 1066 6301     		.2byte	0x163
 4957 1068 2E       		.uleb128 0x2e
 4958 1069 E60A0000 		.4byte	0xae6
 4959 106d 20       		.byte	0x20
 4960 106e 2E       		.uleb128 0x2e
 4961 106f DA0A0000 		.4byte	0xada
 4962 1073 00       		.byte	0
 4963 1074 28       		.uleb128 0x28
 4964 1075 B2010000 		.4byte	.LBB69
 4965 1079 08000000 		.4byte	.LBE69-.LBB69
 4966 107d 2F       		.uleb128 0x2f
 4967 107e F20A0000 		.4byte	0xaf2
 4968 1082 00       		.byte	0
 4969 1083 30       		.uleb128 0x30
 4970 1084 FE0A0000 		.4byte	0xafe
 4971 1088 9B030000 		.4byte	.LLST19
 4972 108c 00       		.byte	0
 4973 108d 00       		.byte	0
 4974 108e 00       		.byte	0
 4975 108f 12       		.uleb128 0x12
 4976 1090 04       		.byte	0x4
 4977 1091 CE000000 		.4byte	0xce
 4978 1095 37       		.uleb128 0x37
 4979 1096 0B070000 		.4byte	.LASF213
 4980 109a 01       		.byte	0x1
 4981 109b 7901     		.2byte	0x179
 4982 109d E0010000 		.4byte	.LFB186
 4983 10a1 34000000 		.4byte	.LFE186-.LFB186
 4984 10a5 01       		.uleb128 0x1
 4985 10a6 9C       		.byte	0x9c
 4986 10a7 1D110000 		.4byte	0x111d
 4987 10ab 38       		.uleb128 0x38
 4988 10ac 87010000 		.4byte	.LASF209
 4989 10b0 01       		.byte	0x1
 4990 10b1 7901     		.2byte	0x179
ARM GAS  /var/folders/28/j9jfyj_n4wz3qtvnym210h2c0000gn/T//cc7mox5M.s 			page 89


 4991 10b3 8F100000 		.4byte	0x108f
 4992 10b7 BA030000 		.4byte	.LLST20
 4993 10bb 38       		.uleb128 0x38
 4994 10bc EB030000 		.4byte	.LASF214
 4995 10c0 01       		.byte	0x1
 4996 10c1 7901     		.2byte	0x179
 4997 10c3 CE000000 		.4byte	0xce
 4998 10c7 D8030000 		.4byte	.LLST21
 4999 10cb 38       		.uleb128 0x38
 5000 10cc C90C0000 		.4byte	.LASF211
 5001 10d0 01       		.byte	0x1
 5002 10d1 7A01     		.2byte	0x17a
 5003 10d3 CE000000 		.4byte	0xce
 5004 10d7 F9030000 		.4byte	.LLST22
 5005 10db 2C       		.uleb128 0x2c
 5006 10dc 48090000 		.4byte	.LASF212
 5007 10e0 01       		.byte	0x1
 5008 10e1 7C01     		.2byte	0x17c
 5009 10e3 F0000000 		.4byte	0xf0
 5010 10e7 02       		.uleb128 0x2
 5011 10e8 91       		.byte	0x91
 5012 10e9 74       		.sleb128 -12
 5013 10ea 3B       		.uleb128 0x3b
 5014 10eb C90A0000 		.4byte	0xac9
 5015 10ef E4010000 		.4byte	.LBB70
 5016 10f3 18000000 		.4byte	.Ldebug_ranges0+0x18
 5017 10f7 01       		.byte	0x1
 5018 10f8 7F01     		.2byte	0x17f
 5019 10fa 2E       		.uleb128 0x2e
 5020 10fb E60A0000 		.4byte	0xae6
 5021 10ff 20       		.byte	0x20
 5022 1100 2E       		.uleb128 0x2e
 5023 1101 DA0A0000 		.4byte	0xada
 5024 1105 00       		.byte	0
 5025 1106 3C       		.uleb128 0x3c
 5026 1107 18000000 		.4byte	.Ldebug_ranges0+0x18
 5027 110b 2F       		.uleb128 0x2f
 5028 110c F20A0000 		.4byte	0xaf2
 5029 1110 00       		.byte	0
 5030 1111 30       		.uleb128 0x30
 5031 1112 FE0A0000 		.4byte	0xafe
 5032 1116 24040000 		.4byte	.LLST23
 5033 111a 00       		.byte	0
 5034 111b 00       		.byte	0
 5035 111c 00       		.byte	0
 5036 111d 1D       		.uleb128 0x1d
 5037 111e FE030000 		.4byte	.LASF215
 5038 1122 02       		.byte	0x2
 5039 1123 85       		.byte	0x85
 5040 1124 20020000 		.4byte	.LFB187
 5041 1128 28000000 		.4byte	.LFE187-.LFB187
 5042 112c 01       		.uleb128 0x1
 5043 112d 9C       		.byte	0x9c
 5044 112e 42110000 		.4byte	0x1142
 5045 1132 3D       		.uleb128 0x3d
 5046 1133 B4010000 		.4byte	.LASF94
 5047 1137 02       		.byte	0x2
ARM GAS  /var/folders/28/j9jfyj_n4wz3qtvnym210h2c0000gn/T//cc7mox5M.s 			page 90


 5048 1138 85       		.byte	0x85
 5049 1139 CE000000 		.4byte	0xce
 5050 113d 43040000 		.4byte	.LLST24
 5051 1141 00       		.byte	0
 5052 1142 1D       		.uleb128 0x1d
 5053 1143 680C0000 		.4byte	.LASF216
 5054 1147 02       		.byte	0x2
 5055 1148 A0       		.byte	0xa0
 5056 1149 50020000 		.4byte	.LFB188
 5057 114d F6000000 		.4byte	.LFE188-.LFB188
 5058 1151 01       		.uleb128 0x1
 5059 1152 9C       		.byte	0x9c
 5060 1153 76110000 		.4byte	0x1176
 5061 1157 3D       		.uleb128 0x3d
 5062 1158 92060000 		.4byte	.LASF217
 5063 115c 02       		.byte	0x2
 5064 115d A0       		.byte	0xa0
 5065 115e 76110000 		.4byte	0x1176
 5066 1162 6F040000 		.4byte	.LLST25
 5067 1166 29       		.uleb128 0x29
 5068 1167 14010000 		.4byte	.LASF188
 5069 116b 02       		.byte	0x2
 5070 116c A2       		.byte	0xa2
 5071 116d CE000000 		.4byte	0xce
 5072 1171 90040000 		.4byte	.LLST26
 5073 1175 00       		.byte	0
 5074 1176 12       		.uleb128 0x12
 5075 1177 04       		.byte	0x4
 5076 1178 97060000 		.4byte	0x697
 5077 117c 37       		.uleb128 0x37
 5078 117d 48000000 		.4byte	.LASF218
 5079 1181 02       		.byte	0x2
 5080 1182 0401     		.2byte	0x104
 5081 1184 50030000 		.4byte	.LFB189
 5082 1188 56000000 		.4byte	.LFE189-.LFB189
 5083 118c 01       		.uleb128 0x1
 5084 118d 9C       		.byte	0x9c
 5085 118e A1110000 		.4byte	0x11a1
 5086 1192 3E       		.uleb128 0x3e
 5087 1193 92060000 		.4byte	.LASF217
 5088 1197 02       		.byte	0x2
 5089 1198 0401     		.2byte	0x104
 5090 119a 76110000 		.4byte	0x1176
 5091 119e 01       		.uleb128 0x1
 5092 119f 50       		.byte	0x50
 5093 11a0 00       		.byte	0
 5094 11a1 37       		.uleb128 0x37
 5095 11a2 58040000 		.4byte	.LASF219
 5096 11a6 02       		.byte	0x2
 5097 11a7 3101     		.2byte	0x131
 5098 11a9 B0030000 		.4byte	.LFB190
 5099 11ad 20000000 		.4byte	.LFE190-.LFB190
 5100 11b1 01       		.uleb128 0x1
 5101 11b2 9C       		.byte	0x9c
 5102 11b3 D6110000 		.4byte	0x11d6
 5103 11b7 38       		.uleb128 0x38
 5104 11b8 B4010000 		.4byte	.LASF94
ARM GAS  /var/folders/28/j9jfyj_n4wz3qtvnym210h2c0000gn/T//cc7mox5M.s 			page 91


 5105 11bc 02       		.byte	0x2
 5106 11bd 3101     		.2byte	0x131
 5107 11bf CE000000 		.4byte	0xce
 5108 11c3 CE040000 		.4byte	.LLST27
 5109 11c7 3E       		.uleb128 0x3e
 5110 11c8 EE050000 		.4byte	.LASF194
 5111 11cc 02       		.byte	0x2
 5112 11cd 3101     		.2byte	0x131
 5113 11cf 63010000 		.4byte	0x163
 5114 11d3 01       		.uleb128 0x1
 5115 11d4 51       		.byte	0x51
 5116 11d5 00       		.byte	0
 5117 11d6 37       		.uleb128 0x37
 5118 11d7 36050000 		.4byte	.LASF220
 5119 11db 02       		.byte	0x2
 5120 11dc 7A01     		.2byte	0x17a
 5121 11de D0030000 		.4byte	.LFB191
 5122 11e2 24000000 		.4byte	.LFE191-.LFB191
 5123 11e6 01       		.uleb128 0x1
 5124 11e7 9C       		.byte	0x9c
 5125 11e8 FD110000 		.4byte	0x11fd
 5126 11ec 38       		.uleb128 0x38
 5127 11ed B4010000 		.4byte	.LASF94
 5128 11f1 02       		.byte	0x2
 5129 11f2 7A01     		.2byte	0x17a
 5130 11f4 CE000000 		.4byte	0xce
 5131 11f8 EF040000 		.4byte	.LLST28
 5132 11fc 00       		.byte	0
 5133 11fd 37       		.uleb128 0x37
 5134 11fe FE060000 		.4byte	.LASF221
 5135 1202 02       		.byte	0x2
 5136 1203 9901     		.2byte	0x199
 5137 1205 00040000 		.4byte	.LFB192
 5138 1209 80000000 		.4byte	.LFE192-.LFB192
 5139 120d 01       		.uleb128 0x1
 5140 120e 9C       		.byte	0x9c
 5141 120f 54120000 		.4byte	0x1254
 5142 1213 38       		.uleb128 0x38
 5143 1214 39040000 		.4byte	.LASF222
 5144 1218 02       		.byte	0x2
 5145 1219 9901     		.2byte	0x199
 5146 121b 54120000 		.4byte	0x1254
 5147 121f 10050000 		.4byte	.LLST29
 5148 1223 2B       		.uleb128 0x2b
 5149 1224 83060000 		.4byte	.LASF223
 5150 1228 02       		.byte	0x2
 5151 1229 9B01     		.2byte	0x19b
 5152 122b CE000000 		.4byte	0xce
 5153 122f 31050000 		.4byte	.LLST30
 5154 1233 2B       		.uleb128 0x2b
 5155 1234 9C0B0000 		.4byte	.LASF224
 5156 1238 02       		.byte	0x2
 5157 1239 9B01     		.2byte	0x19b
 5158 123b CE000000 		.4byte	0xce
 5159 123f 50050000 		.4byte	.LLST31
 5160 1243 2B       		.uleb128 0x2b
 5161 1244 9D080000 		.4byte	.LASF225
ARM GAS  /var/folders/28/j9jfyj_n4wz3qtvnym210h2c0000gn/T//cc7mox5M.s 			page 92


 5162 1248 02       		.byte	0x2
 5163 1249 9B01     		.2byte	0x19b
 5164 124b CE000000 		.4byte	0xce
 5165 124f 6F050000 		.4byte	.LLST32
 5166 1253 00       		.byte	0
 5167 1254 12       		.uleb128 0x12
 5168 1255 04       		.byte	0x4
 5169 1256 61070000 		.4byte	0x761
 5170 125a 37       		.uleb128 0x37
 5171 125b 580D0000 		.4byte	.LASF226
 5172 125f 02       		.byte	0x2
 5173 1260 DA01     		.2byte	0x1da
 5174 1262 80040000 		.4byte	.LFB193
 5175 1266 2E000000 		.4byte	.LFE193-.LFB193
 5176 126a 01       		.uleb128 0x1
 5177 126b 9C       		.byte	0x9c
 5178 126c 7F120000 		.4byte	0x127f
 5179 1270 3E       		.uleb128 0x3e
 5180 1271 39040000 		.4byte	.LASF222
 5181 1275 02       		.byte	0x2
 5182 1276 DA01     		.2byte	0x1da
 5183 1278 54120000 		.4byte	0x1254
 5184 127c 01       		.uleb128 0x1
 5185 127d 50       		.byte	0x50
 5186 127e 00       		.byte	0
 5187 127f 37       		.uleb128 0x37
 5188 1280 A8060000 		.4byte	.LASF227
 5189 1284 02       		.byte	0x2
 5190 1285 F701     		.2byte	0x1f7
 5191 1287 B0040000 		.4byte	.LFB194
 5192 128b 34000000 		.4byte	.LFE194-.LFB194
 5193 128f 01       		.uleb128 0x1
 5194 1290 9C       		.byte	0x9c
 5195 1291 B4120000 		.4byte	0x12b4
 5196 1295 3E       		.uleb128 0x3e
 5197 1296 B4010000 		.4byte	.LASF94
 5198 129a 02       		.byte	0x2
 5199 129b F701     		.2byte	0x1f7
 5200 129d CE000000 		.4byte	0xce
 5201 12a1 01       		.uleb128 0x1
 5202 12a2 50       		.byte	0x50
 5203 12a3 38       		.uleb128 0x38
 5204 12a4 EE050000 		.4byte	.LASF194
 5205 12a8 02       		.byte	0x2
 5206 12a9 F701     		.2byte	0x1f7
 5207 12ab 63010000 		.4byte	0x163
 5208 12af 9A050000 		.4byte	.LLST33
 5209 12b3 00       		.byte	0
 5210 12b4 37       		.uleb128 0x37
 5211 12b5 E7080000 		.4byte	.LASF228
 5212 12b9 02       		.byte	0x2
 5213 12ba 1F02     		.2byte	0x21f
 5214 12bc F0040000 		.4byte	.LFB195
 5215 12c0 34000000 		.4byte	.LFE195-.LFB195
 5216 12c4 01       		.uleb128 0x1
 5217 12c5 9C       		.byte	0x9c
 5218 12c6 E9120000 		.4byte	0x12e9
ARM GAS  /var/folders/28/j9jfyj_n4wz3qtvnym210h2c0000gn/T//cc7mox5M.s 			page 93


 5219 12ca 3E       		.uleb128 0x3e
 5220 12cb B4010000 		.4byte	.LASF94
 5221 12cf 02       		.byte	0x2
 5222 12d0 1F02     		.2byte	0x21f
 5223 12d2 CE000000 		.4byte	0xce
 5224 12d6 01       		.uleb128 0x1
 5225 12d7 50       		.byte	0x50
 5226 12d8 38       		.uleb128 0x38
 5227 12d9 EE050000 		.4byte	.LASF194
 5228 12dd 02       		.byte	0x2
 5229 12de 1F02     		.2byte	0x21f
 5230 12e0 63010000 		.4byte	0x163
 5231 12e4 BB050000 		.4byte	.LLST34
 5232 12e8 00       		.byte	0
 5233 12e9 3F       		.uleb128 0x3f
 5234 12ea 7F0D0000 		.4byte	.LASF245
 5235 12ee 02       		.byte	0x2
 5236 12ef 4602     		.2byte	0x246
 5237 12f1 CE000000 		.4byte	0xce
 5238 12f5 30050000 		.4byte	.LFB196
 5239 12f9 14000000 		.4byte	.LFE196-.LFB196
 5240 12fd 01       		.uleb128 0x1
 5241 12fe 9C       		.byte	0x9c
 5242 12ff 24130000 		.4byte	0x1324
 5243 1303 38       		.uleb128 0x38
 5244 1304 B4010000 		.4byte	.LASF94
 5245 1308 02       		.byte	0x2
 5246 1309 4602     		.2byte	0x246
 5247 130b CE000000 		.4byte	0xce
 5248 130f DC050000 		.4byte	.LLST35
 5249 1313 2B       		.uleb128 0x2b
 5250 1314 B5070000 		.4byte	.LASF229
 5251 1318 02       		.byte	0x2
 5252 1319 4802     		.2byte	0x248
 5253 131b CE000000 		.4byte	0xce
 5254 131f FD050000 		.4byte	.LLST36
 5255 1323 00       		.byte	0
 5256 1324 40       		.uleb128 0x40
 5257 1325 A60C0000 		.4byte	.LASF260
 5258 1329 02       		.byte	0x2
 5259 132a 8602     		.2byte	0x286
 5260 132c 50050000 		.4byte	.LFB197
 5261 1330 1C000000 		.4byte	.LFE197-.LFB197
 5262 1334 01       		.uleb128 0x1
 5263 1335 9C       		.byte	0x9c
 5264 1336 37       		.uleb128 0x37
 5265 1337 AF0A0000 		.4byte	.LASF230
 5266 133b 02       		.byte	0x2
 5267 133c 9702     		.2byte	0x297
 5268 133e 70050000 		.4byte	.LFB198
 5269 1342 68000000 		.4byte	.LFE198-.LFB198
 5270 1346 01       		.uleb128 0x1
 5271 1347 9C       		.byte	0x9c
 5272 1348 5D130000 		.4byte	0x135d
 5273 134c 38       		.uleb128 0x38
 5274 134d CE0A0000 		.4byte	.LASF231
 5275 1351 02       		.byte	0x2
ARM GAS  /var/folders/28/j9jfyj_n4wz3qtvnym210h2c0000gn/T//cc7mox5M.s 			page 94


 5276 1352 9702     		.2byte	0x297
 5277 1354 5D130000 		.4byte	0x135d
 5278 1358 1C060000 		.4byte	.LLST37
 5279 135c 00       		.byte	0
 5280 135d 12       		.uleb128 0x12
 5281 135e 04       		.byte	0x4
 5282 135f BD070000 		.4byte	0x7bd
 5283 1363 37       		.uleb128 0x37
 5284 1364 24040000 		.4byte	.LASF232
 5285 1368 02       		.byte	0x2
 5286 1369 CB02     		.2byte	0x2cb
 5287 136b E0050000 		.4byte	.LFB199
 5288 136f 2E000000 		.4byte	.LFE199-.LFB199
 5289 1373 01       		.uleb128 0x1
 5290 1374 9C       		.byte	0x9c
 5291 1375 88130000 		.4byte	0x1388
 5292 1379 3E       		.uleb128 0x3e
 5293 137a CE0A0000 		.4byte	.LASF231
 5294 137e 02       		.byte	0x2
 5295 137f CB02     		.2byte	0x2cb
 5296 1381 5D130000 		.4byte	0x135d
 5297 1385 01       		.uleb128 0x1
 5298 1386 50       		.byte	0x50
 5299 1387 00       		.byte	0
 5300 1388 37       		.uleb128 0x37
 5301 1389 0D080000 		.4byte	.LASF233
 5302 138d 02       		.byte	0x2
 5303 138e E502     		.2byte	0x2e5
 5304 1390 10060000 		.4byte	.LFB200
 5305 1394 20000000 		.4byte	.LFE200-.LFB200
 5306 1398 01       		.uleb128 0x1
 5307 1399 9C       		.byte	0x9c
 5308 139a AD130000 		.4byte	0x13ad
 5309 139e 3E       		.uleb128 0x3e
 5310 139f EE050000 		.4byte	.LASF194
 5311 13a3 02       		.byte	0x2
 5312 13a4 E502     		.2byte	0x2e5
 5313 13a6 63010000 		.4byte	0x163
 5314 13aa 01       		.uleb128 0x1
 5315 13ab 50       		.byte	0x50
 5316 13ac 00       		.byte	0
 5317 13ad 37       		.uleb128 0x37
 5318 13ae C0060000 		.4byte	.LASF234
 5319 13b2 02       		.byte	0x2
 5320 13b3 2D03     		.2byte	0x32d
 5321 13b5 30060000 		.4byte	.LFB201
 5322 13b9 2C000000 		.4byte	.LFE201-.LFB201
 5323 13bd 01       		.uleb128 0x1
 5324 13be 9C       		.byte	0x9c
 5325 13bf D4130000 		.4byte	0x13d4
 5326 13c3 38       		.uleb128 0x38
 5327 13c4 B4010000 		.4byte	.LASF94
 5328 13c8 02       		.byte	0x2
 5329 13c9 2D03     		.2byte	0x32d
 5330 13cb CE000000 		.4byte	0xce
 5331 13cf 3D060000 		.4byte	.LLST38
 5332 13d3 00       		.byte	0
ARM GAS  /var/folders/28/j9jfyj_n4wz3qtvnym210h2c0000gn/T//cc7mox5M.s 			page 95


 5333 13d4 37       		.uleb128 0x37
 5334 13d5 6D080000 		.4byte	.LASF235
 5335 13d9 02       		.byte	0x2
 5336 13da 4103     		.2byte	0x341
 5337 13dc 60060000 		.4byte	.LFB202
 5338 13e0 C8000000 		.4byte	.LFE202-.LFB202
 5339 13e4 01       		.uleb128 0x1
 5340 13e5 9C       		.byte	0x9c
 5341 13e6 3B140000 		.4byte	0x143b
 5342 13ea 38       		.uleb128 0x38
 5343 13eb EA060000 		.4byte	.LASF236
 5344 13ef 02       		.byte	0x2
 5345 13f0 4103     		.2byte	0x341
 5346 13f2 3B140000 		.4byte	0x143b
 5347 13f6 5E060000 		.4byte	.LLST39
 5348 13fa 2B       		.uleb128 0x2b
 5349 13fb 3A060000 		.4byte	.LASF237
 5350 13ff 02       		.byte	0x2
 5351 1400 4403     		.2byte	0x344
 5352 1402 CE000000 		.4byte	0xce
 5353 1406 98060000 		.4byte	.LLST40
 5354 140a 2B       		.uleb128 0x2b
 5355 140b A6030000 		.4byte	.LASF238
 5356 140f 02       		.byte	0x2
 5357 1410 4503     		.2byte	0x345
 5358 1412 CE000000 		.4byte	0xce
 5359 1416 F0060000 		.4byte	.LLST41
 5360 141a 2B       		.uleb128 0x2b
 5361 141b AC030000 		.4byte	.LASF239
 5362 141f 02       		.byte	0x2
 5363 1420 4603     		.2byte	0x346
 5364 1422 CE000000 		.4byte	0xce
 5365 1426 26070000 		.4byte	.LLST42
 5366 142a 2B       		.uleb128 0x2b
 5367 142b B2030000 		.4byte	.LASF240
 5368 142f 02       		.byte	0x2
 5369 1430 4703     		.2byte	0x347
 5370 1432 CE000000 		.4byte	0xce
 5371 1436 45070000 		.4byte	.LLST43
 5372 143a 00       		.byte	0
 5373 143b 12       		.uleb128 0x12
 5374 143c 04       		.byte	0x4
 5375 143d 1E090000 		.4byte	0x91e
 5376 1441 1D       		.uleb128 0x1d
 5377 1442 DB0B0000 		.4byte	.LASF241
 5378 1446 01       		.byte	0x1
 5379 1447 3D       		.byte	0x3d
 5380 1448 30070000 		.4byte	.LFB180
 5381 144c 00010000 		.4byte	.LFE180-.LFB180
 5382 1450 01       		.uleb128 0x1
 5383 1451 9C       		.byte	0x9c
 5384 1452 59150000 		.4byte	0x1559
 5385 1456 23       		.uleb128 0x23
 5386 1457 1A060000 		.4byte	.LASF242
 5387 145b 01       		.byte	0x1
 5388 145c 3E       		.byte	0x3e
 5389 145d 1E090000 		.4byte	0x91e
ARM GAS  /var/folders/28/j9jfyj_n4wz3qtvnym210h2c0000gn/T//cc7mox5M.s 			page 96


 5390 1461 03       		.uleb128 0x3
 5391 1462 91       		.byte	0x91
 5392 1463 BC7F     		.sleb128 -68
 5393 1465 23       		.uleb128 0x23
 5394 1466 A8000000 		.4byte	.LASF243
 5395 146a 01       		.byte	0x1
 5396 146b 3F       		.byte	0x3f
 5397 146c 29080000 		.4byte	0x829
 5398 1470 03       		.uleb128 0x3
 5399 1471 91       		.byte	0x91
 5400 1472 A07F     		.sleb128 -96
 5401 1474 25       		.uleb128 0x25
 5402 1475 52070000 		.4byte	.LVL135
 5403 1479 531A0000 		.4byte	0x1a53
 5404 147d 94140000 		.4byte	0x1494
 5405 1481 26       		.uleb128 0x26
 5406 1482 01       		.uleb128 0x1
 5407 1483 52       		.byte	0x52
 5408 1484 03       		.uleb128 0x3
 5409 1485 0A       		.byte	0xa
 5410 1486 0206     		.2byte	0x602
 5411 1488 26       		.uleb128 0x26
 5412 1489 01       		.uleb128 0x1
 5413 148a 51       		.byte	0x51
 5414 148b 01       		.uleb128 0x1
 5415 148c 34       		.byte	0x34
 5416 148d 26       		.uleb128 0x26
 5417 148e 01       		.uleb128 0x1
 5418 148f 50       		.byte	0x50
 5419 1490 02       		.uleb128 0x2
 5420 1491 74       		.byte	0x74
 5421 1492 00       		.sleb128 0
 5422 1493 00       		.byte	0
 5423 1494 25       		.uleb128 0x25
 5424 1495 66070000 		.4byte	.LVL136
 5425 1499 531A0000 		.4byte	0x1a53
 5426 149d B4140000 		.4byte	0x14b4
 5427 14a1 26       		.uleb128 0x26
 5428 14a2 01       		.uleb128 0x1
 5429 14a3 52       		.byte	0x52
 5430 14a4 03       		.uleb128 0x3
 5431 14a5 0A       		.byte	0xa
 5432 14a6 0206     		.2byte	0x602
 5433 14a8 26       		.uleb128 0x26
 5434 14a9 01       		.uleb128 0x1
 5435 14aa 51       		.byte	0x51
 5436 14ab 01       		.uleb128 0x1
 5437 14ac 31       		.byte	0x31
 5438 14ad 26       		.uleb128 0x26
 5439 14ae 01       		.uleb128 0x1
 5440 14af 50       		.byte	0x50
 5441 14b0 02       		.uleb128 0x2
 5442 14b1 74       		.byte	0x74
 5443 14b2 00       		.sleb128 0
 5444 14b3 00       		.byte	0
 5445 14b4 25       		.uleb128 0x25
 5446 14b5 7A070000 		.4byte	.LVL137
ARM GAS  /var/folders/28/j9jfyj_n4wz3qtvnym210h2c0000gn/T//cc7mox5M.s 			page 97


 5447 14b9 531A0000 		.4byte	0x1a53
 5448 14bd D4140000 		.4byte	0x14d4
 5449 14c1 26       		.uleb128 0x26
 5450 14c2 01       		.uleb128 0x1
 5451 14c3 52       		.byte	0x52
 5452 14c4 03       		.uleb128 0x3
 5453 14c5 0A       		.byte	0xa
 5454 14c6 0206     		.2byte	0x602
 5455 14c8 26       		.uleb128 0x26
 5456 14c9 01       		.uleb128 0x1
 5457 14ca 51       		.byte	0x51
 5458 14cb 01       		.uleb128 0x1
 5459 14cc 38       		.byte	0x38
 5460 14cd 26       		.uleb128 0x26
 5461 14ce 01       		.uleb128 0x1
 5462 14cf 50       		.byte	0x50
 5463 14d0 02       		.uleb128 0x2
 5464 14d1 74       		.byte	0x74
 5465 14d2 00       		.sleb128 0
 5466 14d3 00       		.byte	0
 5467 14d4 25       		.uleb128 0x25
 5468 14d5 90070000 		.4byte	.LVL138
 5469 14d9 531A0000 		.4byte	0x1a53
 5470 14dd F6140000 		.4byte	0x14f6
 5471 14e1 26       		.uleb128 0x26
 5472 14e2 01       		.uleb128 0x1
 5473 14e3 52       		.byte	0x52
 5474 14e4 03       		.uleb128 0x3
 5475 14e5 0A       		.byte	0xa
 5476 14e6 0206     		.2byte	0x602
 5477 14e8 26       		.uleb128 0x26
 5478 14e9 01       		.uleb128 0x1
 5479 14ea 51       		.byte	0x51
 5480 14eb 03       		.uleb128 0x3
 5481 14ec 0A       		.byte	0xa
 5482 14ed 0008     		.2byte	0x800
 5483 14ef 26       		.uleb128 0x26
 5484 14f0 01       		.uleb128 0x1
 5485 14f1 50       		.byte	0x50
 5486 14f2 02       		.uleb128 0x2
 5487 14f3 76       		.byte	0x76
 5488 14f4 00       		.sleb128 0
 5489 14f5 00       		.byte	0
 5490 14f6 25       		.uleb128 0x25
 5491 14f7 A6070000 		.4byte	.LVL139
 5492 14fb 531A0000 		.4byte	0x1a53
 5493 14ff 18150000 		.4byte	0x1518
 5494 1503 26       		.uleb128 0x26
 5495 1504 01       		.uleb128 0x1
 5496 1505 52       		.byte	0x52
 5497 1506 03       		.uleb128 0x3
 5498 1507 0A       		.byte	0xa
 5499 1508 0206     		.2byte	0x602
 5500 150a 26       		.uleb128 0x26
 5501 150b 01       		.uleb128 0x1
 5502 150c 51       		.byte	0x51
 5503 150d 03       		.uleb128 0x3
ARM GAS  /var/folders/28/j9jfyj_n4wz3qtvnym210h2c0000gn/T//cc7mox5M.s 			page 98


 5504 150e 0A       		.byte	0xa
 5505 150f 0080     		.2byte	0x8000
 5506 1511 26       		.uleb128 0x26
 5507 1512 01       		.uleb128 0x1
 5508 1513 50       		.byte	0x50
 5509 1514 02       		.uleb128 0x2
 5510 1515 75       		.byte	0x75
 5511 1516 00       		.sleb128 0
 5512 1517 00       		.byte	0
 5513 1518 25       		.uleb128 0x25
 5514 1519 BC070000 		.4byte	.LVL140
 5515 151d 531A0000 		.4byte	0x1a53
 5516 1521 3A150000 		.4byte	0x153a
 5517 1525 26       		.uleb128 0x26
 5518 1526 01       		.uleb128 0x1
 5519 1527 52       		.byte	0x52
 5520 1528 03       		.uleb128 0x3
 5521 1529 0A       		.byte	0xa
 5522 152a 0206     		.2byte	0x602
 5523 152c 26       		.uleb128 0x26
 5524 152d 01       		.uleb128 0x1
 5525 152e 51       		.byte	0x51
 5526 152f 03       		.uleb128 0x3
 5527 1530 0A       		.byte	0xa
 5528 1531 0001     		.2byte	0x100
 5529 1533 26       		.uleb128 0x26
 5530 1534 01       		.uleb128 0x1
 5531 1535 50       		.byte	0x50
 5532 1536 02       		.uleb128 0x2
 5533 1537 75       		.byte	0x75
 5534 1538 00       		.sleb128 0
 5535 1539 00       		.byte	0
 5536 153a 25       		.uleb128 0x25
 5537 153b 16080000 		.4byte	.LVL141
 5538 153f D4130000 		.4byte	0x13d4
 5539 1543 4F150000 		.4byte	0x154f
 5540 1547 26       		.uleb128 0x26
 5541 1548 01       		.uleb128 0x1
 5542 1549 50       		.byte	0x50
 5543 154a 03       		.uleb128 0x3
 5544 154b 91       		.byte	0x91
 5545 154c BC7F     		.sleb128 -68
 5546 154e 00       		.byte	0
 5547 154f 35       		.uleb128 0x35
 5548 1550 1A080000 		.4byte	.LVL142
 5549 1554 8E0C0000 		.4byte	0xc8e
 5550 1558 00       		.byte	0
 5551 1559 41       		.uleb128 0x41
 5552 155a 770B0000 		.4byte	0xb77
 5553 155e 30080000 		.4byte	.LFB181
 5554 1562 04000000 		.4byte	.LFE181-.LFB181
 5555 1566 01       		.uleb128 0x1
 5556 1567 9C       		.byte	0x9c
 5557 1568 76150000 		.4byte	0x1576
 5558 156c 42       		.uleb128 0x42
 5559 156d 34080000 		.4byte	.LVL143
 5560 1571 41140000 		.4byte	0x1441
ARM GAS  /var/folders/28/j9jfyj_n4wz3qtvnym210h2c0000gn/T//cc7mox5M.s 			page 99


 5561 1575 00       		.byte	0
 5562 1576 37       		.uleb128 0x37
 5563 1577 8A000000 		.4byte	.LASF244
 5564 157b 02       		.byte	0x2
 5565 157c 9B03     		.2byte	0x39b
 5566 157e 40080000 		.4byte	.LFB203
 5567 1582 36000000 		.4byte	.LFE203-.LFB203
 5568 1586 01       		.uleb128 0x1
 5569 1587 9C       		.byte	0x9c
 5570 1588 9B150000 		.4byte	0x159b
 5571 158c 3E       		.uleb128 0x3e
 5572 158d EA060000 		.4byte	.LASF236
 5573 1591 02       		.byte	0x2
 5574 1592 9B03     		.2byte	0x39b
 5575 1594 3B140000 		.4byte	0x143b
 5576 1598 01       		.uleb128 0x1
 5577 1599 50       		.byte	0x50
 5578 159a 00       		.byte	0
 5579 159b 41       		.uleb128 0x41
 5580 159c 0B0B0000 		.4byte	0xb0b
 5581 15a0 80080000 		.4byte	.LFB204
 5582 15a4 20000000 		.4byte	.LFE204-.LFB204
 5583 15a8 01       		.uleb128 0x1
 5584 15a9 9C       		.byte	0x9c
 5585 15aa BF150000 		.4byte	0x15bf
 5586 15ae 31       		.uleb128 0x31
 5587 15af 180B0000 		.4byte	0xb18
 5588 15b3 01       		.uleb128 0x1
 5589 15b4 50       		.byte	0x50
 5590 15b5 30       		.uleb128 0x30
 5591 15b6 240B0000 		.4byte	0xb24
 5592 15ba 64070000 		.4byte	.LLST44
 5593 15be 00       		.byte	0
 5594 15bf 3F       		.uleb128 0x3f
 5595 15c0 25080000 		.4byte	.LASF246
 5596 15c4 02       		.byte	0x2
 5597 15c5 D303     		.2byte	0x3d3
 5598 15c7 CE000000 		.4byte	0xce
 5599 15cb A0080000 		.4byte	.LFB205
 5600 15cf 1C000000 		.4byte	.LFE205-.LFB205
 5601 15d3 01       		.uleb128 0x1
 5602 15d4 9C       		.byte	0x9c
 5603 15d5 FA150000 		.4byte	0x15fa
 5604 15d9 38       		.uleb128 0x38
 5605 15da D30E0000 		.4byte	.LASF193
 5606 15de 02       		.byte	0x2
 5607 15df D303     		.2byte	0x3d3
 5608 15e1 CE000000 		.4byte	0xce
 5609 15e5 83070000 		.4byte	.LLST45
 5610 15e9 2B       		.uleb128 0x2b
 5611 15ea E1040000 		.4byte	.LASF247
 5612 15ee 02       		.byte	0x2
 5613 15ef D503     		.2byte	0x3d5
 5614 15f1 CE000000 		.4byte	0xce
 5615 15f5 BD070000 		.4byte	.LLST46
 5616 15f9 00       		.byte	0
 5617 15fa 41       		.uleb128 0x41
ARM GAS  /var/folders/28/j9jfyj_n4wz3qtvnym210h2c0000gn/T//cc7mox5M.s 			page 100


 5618 15fb 370B0000 		.4byte	0xb37
 5619 15ff C0080000 		.4byte	.LFB206
 5620 1603 10000000 		.4byte	.LFE206-.LFB206
 5621 1607 01       		.uleb128 0x1
 5622 1608 9C       		.byte	0x9c
 5623 1609 17160000 		.4byte	0x1617
 5624 160d 43       		.uleb128 0x43
 5625 160e 440B0000 		.4byte	0xb44
 5626 1612 F3070000 		.4byte	.LLST47
 5627 1616 00       		.byte	0
 5628 1617 37       		.uleb128 0x37
 5629 1618 3B070000 		.4byte	.LASF248
 5630 161c 02       		.byte	0x2
 5631 161d FB03     		.2byte	0x3fb
 5632 161f D0080000 		.4byte	.LFB207
 5633 1623 10000000 		.4byte	.LFE207-.LFB207
 5634 1627 01       		.uleb128 0x1
 5635 1628 9C       		.byte	0x9c
 5636 1629 3E160000 		.4byte	0x163e
 5637 162d 38       		.uleb128 0x38
 5638 162e 47020000 		.4byte	.LASF249
 5639 1632 02       		.byte	0x2
 5640 1633 FB03     		.2byte	0x3fb
 5641 1635 CE000000 		.4byte	0xce
 5642 1639 14080000 		.4byte	.LLST48
 5643 163d 00       		.byte	0
 5644 163e 41       		.uleb128 0x41
 5645 163f 510B0000 		.4byte	0xb51
 5646 1643 E0080000 		.4byte	.LFB208
 5647 1647 26000000 		.4byte	.LFE208-.LFB208
 5648 164b 01       		.uleb128 0x1
 5649 164c 9C       		.byte	0x9c
 5650 164d 62160000 		.4byte	0x1662
 5651 1651 43       		.uleb128 0x43
 5652 1652 5E0B0000 		.4byte	0xb5e
 5653 1656 35080000 		.4byte	.LLST49
 5654 165a 31       		.uleb128 0x31
 5655 165b 6A0B0000 		.4byte	0xb6a
 5656 165f 01       		.uleb128 0x1
 5657 1660 51       		.byte	0x51
 5658 1661 00       		.byte	0
 5659 1662 37       		.uleb128 0x37
 5660 1663 CE0B0000 		.4byte	.LASF250
 5661 1667 02       		.byte	0x2
 5662 1668 3F04     		.2byte	0x43f
 5663 166a 10090000 		.4byte	.LFB209
 5664 166e 8C000000 		.4byte	.LFE209-.LFB209
 5665 1672 01       		.uleb128 0x1
 5666 1673 9C       		.byte	0x9c
 5667 1674 A7160000 		.4byte	0x16a7
 5668 1678 3E       		.uleb128 0x3e
 5669 1679 B4010000 		.4byte	.LASF94
 5670 167d 02       		.byte	0x2
 5671 167e 3F04     		.2byte	0x43f
 5672 1680 CE000000 		.4byte	0xce
 5673 1684 01       		.uleb128 0x1
 5674 1685 50       		.byte	0x50
ARM GAS  /var/folders/28/j9jfyj_n4wz3qtvnym210h2c0000gn/T//cc7mox5M.s 			page 101


 5675 1686 38       		.uleb128 0x38
 5676 1687 89030000 		.4byte	.LASF251
 5677 168b 02       		.byte	0x2
 5678 168c 3F04     		.2byte	0x43f
 5679 168e CE000000 		.4byte	0xce
 5680 1692 56080000 		.4byte	.LLST50
 5681 1696 38       		.uleb128 0x38
 5682 1697 EE050000 		.4byte	.LASF194
 5683 169b 02       		.byte	0x2
 5684 169c 3F04     		.2byte	0x43f
 5685 169e 63010000 		.4byte	0x163
 5686 16a2 26090000 		.4byte	.LLST51
 5687 16a6 00       		.byte	0
 5688 16a7 41       		.uleb128 0x41
 5689 16a8 C90A0000 		.4byte	0xac9
 5690 16ac A0090000 		.4byte	.LFB210
 5691 16b0 44000000 		.4byte	.LFE210-.LFB210
 5692 16b4 01       		.uleb128 0x1
 5693 16b5 9C       		.byte	0x9c
 5694 16b6 DD160000 		.4byte	0x16dd
 5695 16ba 43       		.uleb128 0x43
 5696 16bb DA0A0000 		.4byte	0xada
 5697 16bf F6090000 		.4byte	.LLST52
 5698 16c3 31       		.uleb128 0x31
 5699 16c4 E60A0000 		.4byte	0xae6
 5700 16c8 01       		.uleb128 0x1
 5701 16c9 51       		.byte	0x51
 5702 16ca 30       		.uleb128 0x30
 5703 16cb F20A0000 		.4byte	0xaf2
 5704 16cf 220A0000 		.4byte	.LLST53
 5705 16d3 30       		.uleb128 0x30
 5706 16d4 FE0A0000 		.4byte	0xafe
 5707 16d8 550A0000 		.4byte	.LLST54
 5708 16dc 00       		.byte	0
 5709 16dd 37       		.uleb128 0x37
 5710 16de 6B050000 		.4byte	.LASF252
 5711 16e2 02       		.byte	0x2
 5712 16e3 C404     		.2byte	0x4c4
 5713 16e5 F0090000 		.4byte	.LFB211
 5714 16e9 50000000 		.4byte	.LFE211-.LFB211
 5715 16ed 01       		.uleb128 0x1
 5716 16ee 9C       		.byte	0x9c
 5717 16ef 12170000 		.4byte	0x1712
 5718 16f3 3E       		.uleb128 0x3e
 5719 16f4 B4010000 		.4byte	.LASF94
 5720 16f8 02       		.byte	0x2
 5721 16f9 C404     		.2byte	0x4c4
 5722 16fb CE000000 		.4byte	0xce
 5723 16ff 01       		.uleb128 0x1
 5724 1700 50       		.byte	0x50
 5725 1701 38       		.uleb128 0x38
 5726 1702 7E010000 		.4byte	.LASF184
 5727 1706 02       		.byte	0x2
 5728 1707 C404     		.2byte	0x4c4
 5729 1709 CE000000 		.4byte	0xce
 5730 170d A20A0000 		.4byte	.LLST55
 5731 1711 00       		.byte	0
ARM GAS  /var/folders/28/j9jfyj_n4wz3qtvnym210h2c0000gn/T//cc7mox5M.s 			page 102


 5732 1712 3F       		.uleb128 0x3f
 5733 1713 BE0A0000 		.4byte	.LASF253
 5734 1717 02       		.byte	0x2
 5735 1718 EF04     		.2byte	0x4ef
 5736 171a 41010000 		.4byte	0x141
 5737 171e 400A0000 		.4byte	.LFB212
 5738 1722 64000000 		.4byte	.LFE212-.LFB212
 5739 1726 01       		.uleb128 0x1
 5740 1727 9C       		.byte	0x9c
 5741 1728 98170000 		.4byte	0x1798
 5742 172c 38       		.uleb128 0x38
 5743 172d B4010000 		.4byte	.LASF94
 5744 1731 02       		.byte	0x2
 5745 1732 EF04     		.2byte	0x4ef
 5746 1734 CE000000 		.4byte	0xce
 5747 1738 0E0B0000 		.4byte	.LLST56
 5748 173c 3E       		.uleb128 0x3e
 5749 173d 89030000 		.4byte	.LASF251
 5750 1741 02       		.byte	0x2
 5751 1742 EF04     		.2byte	0x4ef
 5752 1744 CE000000 		.4byte	0xce
 5753 1748 01       		.uleb128 0x1
 5754 1749 51       		.byte	0x51
 5755 174a 44       		.uleb128 0x44
 5756 174b DA0F0000 		.4byte	.LASF185
 5757 174f 02       		.byte	0x2
 5758 1750 F104     		.2byte	0x4f1
 5759 1752 41010000 		.4byte	0x141
 5760 1756 00       		.byte	0
 5761 1757 2B       		.uleb128 0x2b
 5762 1758 D4050000 		.4byte	.LASF186
 5763 175c 02       		.byte	0x2
 5764 175d F204     		.2byte	0x4f2
 5765 175f CE000000 		.4byte	0xce
 5766 1763 6C0B0000 		.4byte	.LLST57
 5767 1767 2B       		.uleb128 0x2b
 5768 1768 37080000 		.4byte	.LASF254
 5769 176c 02       		.byte	0x2
 5770 176d F304     		.2byte	0x4f3
 5771 176f CE000000 		.4byte	0xce
 5772 1773 D00B0000 		.4byte	.LLST58
 5773 1777 2B       		.uleb128 0x2b
 5774 1778 9D030000 		.4byte	.LASF255
 5775 177c 02       		.byte	0x2
 5776 177d F404     		.2byte	0x4f4
 5777 177f CE000000 		.4byte	0xce
 5778 1783 130C0000 		.4byte	.LLST59
 5779 1787 2B       		.uleb128 0x2b
 5780 1788 38010000 		.4byte	.LASF256
 5781 178c 02       		.byte	0x2
 5782 178d F504     		.2byte	0x4f5
 5783 178f CE000000 		.4byte	0xce
 5784 1793 6C0C0000 		.4byte	.LLST60
 5785 1797 00       		.byte	0
 5786 1798 37       		.uleb128 0x37
 5787 1799 60100000 		.4byte	.LASF257
 5788 179d 02       		.byte	0x2
ARM GAS  /var/folders/28/j9jfyj_n4wz3qtvnym210h2c0000gn/T//cc7mox5M.s 			page 103


 5789 179e 3705     		.2byte	0x537
 5790 17a0 B00A0000 		.4byte	.LFB213
 5791 17a4 50000000 		.4byte	.LFE213-.LFB213
 5792 17a8 01       		.uleb128 0x1
 5793 17a9 9C       		.byte	0x9c
 5794 17aa CD170000 		.4byte	0x17cd
 5795 17ae 3E       		.uleb128 0x3e
 5796 17af B4010000 		.4byte	.LASF94
 5797 17b3 02       		.byte	0x2
 5798 17b4 3705     		.2byte	0x537
 5799 17b6 CE000000 		.4byte	0xce
 5800 17ba 01       		.uleb128 0x1
 5801 17bb 50       		.byte	0x50
 5802 17bc 38       		.uleb128 0x38
 5803 17bd 89030000 		.4byte	.LASF251
 5804 17c1 02       		.byte	0x2
 5805 17c2 3705     		.2byte	0x537
 5806 17c4 CE000000 		.4byte	0xce
 5807 17c8 C50C0000 		.4byte	.LLST61
 5808 17cc 00       		.byte	0
 5809 17cd 45       		.uleb128 0x45
 5810 17ce A90F0000 		.4byte	.LASF258
 5811 17d2 03       		.byte	0x3
 5812 17d3 53       		.byte	0x53
 5813 17d4 9B000000 		.4byte	0x9b
 5814 17d8 00000000 		.4byte	.LFB214
 5815 17dc E0000000 		.4byte	.LFE214-.LFB214
 5816 17e0 01       		.uleb128 0x1
 5817 17e1 9C       		.byte	0x9c
 5818 17e2 53190000 		.4byte	0x1953
 5819 17e6 2D       		.uleb128 0x2d
 5820 17e7 770B0000 		.4byte	0xb77
 5821 17eb 80000000 		.4byte	.LBB74
 5822 17ef 04000000 		.4byte	.LBE74-.LBB74
 5823 17f3 03       		.byte	0x3
 5824 17f4 8D       		.byte	0x8d
 5825 17f5 03180000 		.4byte	0x1803
 5826 17f9 35       		.uleb128 0x35
 5827 17fa 84000000 		.4byte	.LVL240
 5828 17fe 41140000 		.4byte	0x1441
 5829 1802 00       		.byte	0
 5830 1803 25       		.uleb128 0x25
 5831 1804 10000000 		.4byte	.LVL221
 5832 1808 6F1A0000 		.4byte	0x1a6f
 5833 180c 24180000 		.4byte	0x1824
 5834 1810 26       		.uleb128 0x26
 5835 1811 01       		.uleb128 0x1
 5836 1812 52       		.byte	0x52
 5837 1813 03       		.uleb128 0x3
 5838 1814 0A       		.byte	0xa
 5839 1815 0002     		.2byte	0x200
 5840 1817 26       		.uleb128 0x26
 5841 1818 01       		.uleb128 0x1
 5842 1819 51       		.byte	0x51
 5843 181a 01       		.uleb128 0x1
 5844 181b 30       		.byte	0x30
 5845 181c 26       		.uleb128 0x26
ARM GAS  /var/folders/28/j9jfyj_n4wz3qtvnym210h2c0000gn/T//cc7mox5M.s 			page 104


 5846 181d 01       		.uleb128 0x1
 5847 181e 50       		.byte	0x50
 5848 181f 03       		.uleb128 0x3
 5849 1820 40       		.byte	0x40
 5850 1821 49       		.byte	0x49
 5851 1822 24       		.byte	0x24
 5852 1823 00       		.byte	0
 5853 1824 35       		.uleb128 0x35
 5854 1825 22000000 		.4byte	.LVL222
 5855 1829 931A0000 		.4byte	0x1a93
 5856 182d 35       		.uleb128 0x35
 5857 182e 26000000 		.4byte	.LVL223
 5858 1832 9A1A0000 		.4byte	0x1a9a
 5859 1836 35       		.uleb128 0x35
 5860 1837 2A000000 		.4byte	.LVL224
 5861 183b A11A0000 		.4byte	0x1aa1
 5862 183f 35       		.uleb128 0x35
 5863 1840 2E000000 		.4byte	.LVL225
 5864 1844 A81A0000 		.4byte	0x1aa8
 5865 1848 35       		.uleb128 0x35
 5866 1849 32000000 		.4byte	.LVL226
 5867 184d AF1A0000 		.4byte	0x1aaf
 5868 1851 35       		.uleb128 0x35
 5869 1852 36000000 		.4byte	.LVL227
 5870 1856 B61A0000 		.4byte	0x1ab6
 5871 185a 35       		.uleb128 0x35
 5872 185b 3A000000 		.4byte	.LVL228
 5873 185f BD1A0000 		.4byte	0x1abd
 5874 1863 25       		.uleb128 0x25
 5875 1864 44000000 		.4byte	.LVL229
 5876 1868 531A0000 		.4byte	0x1a53
 5877 186c 81180000 		.4byte	0x1881
 5878 1870 26       		.uleb128 0x26
 5879 1871 01       		.uleb128 0x1
 5880 1872 52       		.byte	0x52
 5881 1873 01       		.uleb128 0x1
 5882 1874 31       		.byte	0x31
 5883 1875 26       		.uleb128 0x26
 5884 1876 01       		.uleb128 0x1
 5885 1877 51       		.byte	0x51
 5886 1878 01       		.uleb128 0x1
 5887 1879 32       		.byte	0x32
 5888 187a 26       		.uleb128 0x26
 5889 187b 01       		.uleb128 0x1
 5890 187c 50       		.byte	0x50
 5891 187d 02       		.uleb128 0x2
 5892 187e 75       		.byte	0x75
 5893 187f 00       		.sleb128 0
 5894 1880 00       		.byte	0
 5895 1881 25       		.uleb128 0x25
 5896 1882 4E000000 		.4byte	.LVL230
 5897 1886 411A0000 		.4byte	0x1a41
 5898 188a 94180000 		.4byte	0x1894
 5899 188e 26       		.uleb128 0x26
 5900 188f 01       		.uleb128 0x1
 5901 1890 50       		.byte	0x50
 5902 1891 01       		.uleb128 0x1
ARM GAS  /var/folders/28/j9jfyj_n4wz3qtvnym210h2c0000gn/T//cc7mox5M.s 			page 105


 5903 1892 3A       		.byte	0x3a
 5904 1893 00       		.byte	0
 5905 1894 25       		.uleb128 0x25
 5906 1895 5A000000 		.4byte	.LVL231
 5907 1899 531A0000 		.4byte	0x1a53
 5908 189d B5180000 		.4byte	0x18b5
 5909 18a1 26       		.uleb128 0x26
 5910 18a2 01       		.uleb128 0x1
 5911 18a3 52       		.byte	0x52
 5912 18a4 02       		.uleb128 0x2
 5913 18a5 08       		.byte	0x8
 5914 18a6 40       		.byte	0x40
 5915 18a7 26       		.uleb128 0x26
 5916 18a8 01       		.uleb128 0x1
 5917 18a9 51       		.byte	0x51
 5918 18aa 03       		.uleb128 0x3
 5919 18ab 0A       		.byte	0xa
 5920 18ac 0004     		.2byte	0x400
 5921 18ae 26       		.uleb128 0x26
 5922 18af 01       		.uleb128 0x1
 5923 18b0 50       		.byte	0x50
 5924 18b1 02       		.uleb128 0x2
 5925 18b2 74       		.byte	0x74
 5926 18b3 00       		.sleb128 0
 5927 18b4 00       		.byte	0
 5928 18b5 35       		.uleb128 0x35
 5929 18b6 5E000000 		.4byte	.LVL232
 5930 18ba C41A0000 		.4byte	0x1ac4
 5931 18be 35       		.uleb128 0x35
 5932 18bf 62000000 		.4byte	.LVL233
 5933 18c3 CB1A0000 		.4byte	0x1acb
 5934 18c7 35       		.uleb128 0x35
 5935 18c8 66000000 		.4byte	.LVL234
 5936 18cc D21A0000 		.4byte	0x1ad2
 5937 18d0 35       		.uleb128 0x35
 5938 18d1 6A000000 		.4byte	.LVL235
 5939 18d5 D91A0000 		.4byte	0x1ad9
 5940 18d9 35       		.uleb128 0x35
 5941 18da 6E000000 		.4byte	.LVL236
 5942 18de E01A0000 		.4byte	0x1ae0
 5943 18e2 35       		.uleb128 0x35
 5944 18e3 72000000 		.4byte	.LVL237
 5945 18e7 E71A0000 		.4byte	0x1ae7
 5946 18eb 35       		.uleb128 0x35
 5947 18ec 7C000000 		.4byte	.LVL238
 5948 18f0 EE1A0000 		.4byte	0x1aee
 5949 18f4 35       		.uleb128 0x35
 5950 18f5 80000000 		.4byte	.LVL239
 5951 18f9 F51A0000 		.4byte	0x1af5
 5952 18fd 35       		.uleb128 0x35
 5953 18fe 88000000 		.4byte	.LVL241
 5954 1902 FC1A0000 		.4byte	0x1afc
 5955 1906 35       		.uleb128 0x35
 5956 1907 8C000000 		.4byte	.LVL242
 5957 190b 031B0000 		.4byte	0x1b03
 5958 190f 25       		.uleb128 0x25
 5959 1910 96000000 		.4byte	.LVL243
ARM GAS  /var/folders/28/j9jfyj_n4wz3qtvnym210h2c0000gn/T//cc7mox5M.s 			page 106


 5960 1914 411A0000 		.4byte	0x1a41
 5961 1918 24190000 		.4byte	0x1924
 5962 191c 26       		.uleb128 0x26
 5963 191d 01       		.uleb128 0x1
 5964 191e 50       		.byte	0x50
 5965 191f 03       		.uleb128 0x3
 5966 1920 0A       		.byte	0xa
 5967 1921 E803     		.2byte	0x3e8
 5968 1923 00       		.byte	0
 5969 1924 25       		.uleb128 0x25
 5970 1925 9E000000 		.4byte	.LVL244
 5971 1929 411A0000 		.4byte	0x1a41
 5972 192d 37190000 		.4byte	0x1937
 5973 1931 26       		.uleb128 0x26
 5974 1932 01       		.uleb128 0x1
 5975 1933 50       		.byte	0x50
 5976 1934 01       		.uleb128 0x1
 5977 1935 31       		.byte	0x31
 5978 1936 00       		.byte	0
 5979 1937 35       		.uleb128 0x35
 5980 1938 A4000000 		.4byte	.LVL245
 5981 193c 0E1B0000 		.4byte	0x1b0e
 5982 1940 35       		.uleb128 0x35
 5983 1941 B6000000 		.4byte	.LVL246
 5984 1945 151B0000 		.4byte	0x1b15
 5985 1949 35       		.uleb128 0x35
 5986 194a CA000000 		.4byte	.LVL247
 5987 194e 1C1B0000 		.4byte	0x1b1c
 5988 1952 00       		.byte	0
 5989 1953 1D       		.uleb128 0x1d
 5990 1954 DB030000 		.4byte	.LASF259
 5991 1958 03       		.byte	0x3
 5992 1959 AD       		.byte	0xad
 5993 195a 000B0000 		.4byte	.LFB215
 5994 195e 1C000000 		.4byte	.LFE215-.LFB215
 5995 1962 01       		.uleb128 0x1
 5996 1963 9C       		.byte	0x9c
 5997 1964 A4190000 		.4byte	0x19a4
 5998 1968 46       		.uleb128 0x46
 5999 1969 6E00     		.ascii	"n\000"
 6000 196b 03       		.byte	0x3
 6001 196c AD       		.byte	0xad
 6002 196d 2C000000 		.4byte	0x2c
 6003 1971 180D0000 		.4byte	.LLST62
 6004 1975 36       		.uleb128 0x36
 6005 1976 180B0000 		.4byte	.LVL250
 6006 197a 411A0000 		.4byte	0x1a41
 6007 197e 26       		.uleb128 0x26
 6008 197f 01       		.uleb128 0x1
 6009 1980 50       		.byte	0x50
 6010 1981 20       		.uleb128 0x20
 6011 1982 F3       		.byte	0xf3
 6012 1983 01       		.uleb128 0x1
 6013 1984 50       		.byte	0x50
 6014 1985 0A       		.byte	0xa
 6015 1986 E803     		.2byte	0x3e8
 6016 1988 1E       		.byte	0x1e
ARM GAS  /var/folders/28/j9jfyj_n4wz3qtvnym210h2c0000gn/T//cc7mox5M.s 			page 107


 6017 1989 31       		.byte	0x31
 6018 198a 1C       		.byte	0x1c
 6019 198b F7       		.byte	0xf7
 6020 198c 2C       		.uleb128 0x2c
 6021 198d F7       		.byte	0xf7
 6022 198e 25       		.uleb128 0x25
 6023 198f 0C       		.byte	0xc
 6024 1990 D34D6210 		.4byte	0x10624dd3
 6025 1994 F7       		.byte	0xf7
 6026 1995 25       		.uleb128 0x25
 6027 1996 1E       		.byte	0x1e
 6028 1997 08       		.byte	0x8
 6029 1998 20       		.byte	0x20
 6030 1999 F7       		.byte	0xf7
 6031 199a 25       		.uleb128 0x25
 6032 199b 25       		.byte	0x25
 6033 199c F7       		.byte	0xf7
 6034 199d 2C       		.uleb128 0x2c
 6035 199e 36       		.byte	0x36
 6036 199f 25       		.byte	0x25
 6037 19a0 23       		.byte	0x23
 6038 19a1 01       		.uleb128 0x1
 6039 19a2 00       		.byte	0
 6040 19a3 00       		.byte	0
 6041 19a4 47       		.uleb128 0x47
 6042 19a5 1D0A0000 		.4byte	.LASF261
 6043 19a9 03       		.byte	0x3
 6044 19aa B1       		.byte	0xb1
 6045 19ab 200B0000 		.4byte	.LFB216
 6046 19af 02000000 		.4byte	.LFE216-.LFB216
 6047 19b3 01       		.uleb128 0x1
 6048 19b4 9C       		.byte	0x9c
 6049 19b5 48       		.uleb128 0x48
 6050 19b6 A20A0000 		.4byte	.LASF262
 6051 19ba 0C       		.byte	0xc
 6052 19bb DF07     		.2byte	0x7df
 6053 19bd 15010000 		.4byte	0x115
 6054 19c1 49       		.uleb128 0x49
 6055 19c2 9D0C0000 		.4byte	.LASF263
 6056 19c6 0D       		.byte	0xd
 6057 19c7 20       		.byte	0x20
 6058 19c8 2A090000 		.4byte	0x92a
 6059 19cc 49       		.uleb128 0x49
 6060 19cd B4060000 		.4byte	.LASF264
 6061 19d1 0A       		.byte	0xa
 6062 19d2 50       		.byte	0x50
 6063 19d3 D7190000 		.4byte	0x19d7
 6064 19d7 07       		.uleb128 0x7
 6065 19d8 6C0A0000 		.4byte	0xa6c
 6066 19dc 05       		.uleb128 0x5
 6067 19dd C3000000 		.4byte	0xc3
 6068 19e1 ED190000 		.4byte	0x19ed
 6069 19e5 4A       		.uleb128 0x4a
 6070 19e6 D9000000 		.4byte	0xd9
 6071 19ea 0010     		.2byte	0x1000
 6072 19ec 00       		.byte	0
 6073 19ed 49       		.uleb128 0x49
ARM GAS  /var/folders/28/j9jfyj_n4wz3qtvnym210h2c0000gn/T//cc7mox5M.s 			page 108


 6074 19ee E3060000 		.4byte	.LASF265
 6075 19f2 0E       		.byte	0xe
 6076 19f3 26       		.byte	0x26
 6077 19f4 DC190000 		.4byte	0x19dc
 6078 19f8 05       		.uleb128 0x5
 6079 19f9 AD000000 		.4byte	0xad
 6080 19fd 091A0000 		.4byte	0x1a09
 6081 1a01 4A       		.uleb128 0x4a
 6082 1a02 D9000000 		.4byte	0xd9
 6083 1a06 0004     		.2byte	0x400
 6084 1a08 00       		.byte	0
 6085 1a09 49       		.uleb128 0x49
 6086 1a0a 98070000 		.4byte	.LASF266
 6087 1a0e 0E       		.byte	0xe
 6088 1a0f 28       		.byte	0x28
 6089 1a10 F8190000 		.4byte	0x19f8
 6090 1a14 05       		.uleb128 0x5
 6091 1a15 CE000000 		.4byte	0xce
 6092 1a19 251A0000 		.4byte	0x1a25
 6093 1a1d 4A       		.uleb128 0x4a
 6094 1a1e D9000000 		.4byte	0xd9
 6095 1a22 0001     		.2byte	0x100
 6096 1a24 00       		.byte	0
 6097 1a25 49       		.uleb128 0x49
 6098 1a26 260D0000 		.4byte	.LASF267
 6099 1a2a 0E       		.byte	0xe
 6100 1a2b 2A       		.byte	0x2a
 6101 1a2c 141A0000 		.4byte	0x1a14
 6102 1a30 4B       		.uleb128 0x4b
 6103 1a31 40060000 		.4byte	.LASF268
 6104 1a35 0B       		.byte	0xb
 6105 1a36 2E       		.byte	0x2e
 6106 1a37 411A0000 		.4byte	0x1a41
 6107 1a3b 4C       		.uleb128 0x4c
 6108 1a3c BE0A0000 		.4byte	0xabe
 6109 1a40 00       		.byte	0
 6110 1a41 4D       		.uleb128 0x4d
 6111 1a42 3A0D0000 		.4byte	.LASF269
 6112 1a46 0F       		.byte	0xf
 6113 1a47 7501     		.2byte	0x175
 6114 1a49 531A0000 		.4byte	0x1a53
 6115 1a4d 4C       		.uleb128 0x4c
 6116 1a4e 3C090000 		.4byte	0x93c
 6117 1a52 00       		.byte	0
 6118 1a53 4D       		.uleb128 0x4d
 6119 1a54 0F0F0000 		.4byte	.LASF270
 6120 1a58 09       		.byte	0x9
 6121 1a59 C201     		.2byte	0x1c2
 6122 1a5b 6F1A0000 		.4byte	0x1a6f
 6123 1a5f 4C       		.uleb128 0x4c
 6124 1a60 330A0000 		.4byte	0xa33
 6125 1a64 4C       		.uleb128 0x4c
 6126 1a65 1D0A0000 		.4byte	0xa1d
 6127 1a69 4C       		.uleb128 0x4c
 6128 1a6a 280A0000 		.4byte	0xa28
 6129 1a6e 00       		.byte	0
 6130 1a6f 4E       		.uleb128 0x4e
ARM GAS  /var/folders/28/j9jfyj_n4wz3qtvnym210h2c0000gn/T//cc7mox5M.s 			page 109


 6131 1a70 A20F0000 		.4byte	.LASF271
 6132 1a74 47090000 		.4byte	0x947
 6133 1a78 8C1A0000 		.4byte	0x1a8c
 6134 1a7c 4C       		.uleb128 0x4c
 6135 1a7d 47090000 		.4byte	0x947
 6136 1a81 4C       		.uleb128 0x4c
 6137 1a82 8C1A0000 		.4byte	0x1a8c
 6138 1a86 4C       		.uleb128 0x4c
 6139 1a87 D9000000 		.4byte	0xd9
 6140 1a8b 00       		.byte	0
 6141 1a8c 12       		.uleb128 0x12
 6142 1a8d 04       		.byte	0x4
 6143 1a8e 921A0000 		.4byte	0x1a92
 6144 1a92 4F       		.uleb128 0x4f
 6145 1a93 50       		.uleb128 0x50
 6146 1a94 38000000 		.4byte	.LASF273
 6147 1a98 10       		.byte	0x10
 6148 1a99 D0       		.byte	0xd0
 6149 1a9a 50       		.uleb128 0x50
 6150 1a9b 69060000 		.4byte	.LASF274
 6151 1a9f 11       		.byte	0x11
 6152 1aa0 F6       		.byte	0xf6
 6153 1aa1 50       		.uleb128 0x50
 6154 1aa2 8C070000 		.4byte	.LASF275
 6155 1aa6 0D       		.byte	0xd
 6156 1aa7 17       		.byte	0x17
 6157 1aa8 50       		.uleb128 0x50
 6158 1aa9 1A0B0000 		.4byte	.LASF276
 6159 1aad 0B       		.byte	0xb
 6160 1aae 16       		.byte	0x16
 6161 1aaf 50       		.uleb128 0x50
 6162 1ab0 C4080000 		.4byte	.LASF277
 6163 1ab4 12       		.byte	0x12
 6164 1ab5 16       		.byte	0x16
 6165 1ab6 50       		.uleb128 0x50
 6166 1ab7 56090000 		.4byte	.LASF278
 6167 1abb 0A       		.byte	0xa
 6168 1abc 56       		.byte	0x56
 6169 1abd 50       		.uleb128 0x50
 6170 1abe 84100000 		.4byte	.LASF279
 6171 1ac2 13       		.byte	0x13
 6172 1ac3 18       		.byte	0x18
 6173 1ac4 50       		.uleb128 0x50
 6174 1ac5 EF040000 		.4byte	.LASF280
 6175 1ac9 14       		.byte	0x14
 6176 1aca 1C       		.byte	0x1c
 6177 1acb 50       		.uleb128 0x50
 6178 1acc 04080000 		.4byte	.LASF281
 6179 1ad0 14       		.byte	0x14
 6180 1ad1 1D       		.byte	0x1d
 6181 1ad2 50       		.uleb128 0x50
 6182 1ad3 F2070000 		.4byte	.LASF282
 6183 1ad7 0E       		.byte	0xe
 6184 1ad8 3B       		.byte	0x3b
 6185 1ad9 50       		.uleb128 0x50
 6186 1ada 050F0000 		.4byte	.LASF283
 6187 1ade 15       		.byte	0x15
ARM GAS  /var/folders/28/j9jfyj_n4wz3qtvnym210h2c0000gn/T//cc7mox5M.s 			page 110


 6188 1adf 70       		.byte	0x70
 6189 1ae0 50       		.uleb128 0x50
 6190 1ae1 41010000 		.4byte	.LASF284
 6191 1ae5 0A       		.byte	0xa
 6192 1ae6 5A       		.byte	0x5a
 6193 1ae7 50       		.uleb128 0x50
 6194 1ae8 7E030000 		.4byte	.LASF285
 6195 1aec 16       		.byte	0x16
 6196 1aed 1E       		.byte	0x1e
 6197 1aee 50       		.uleb128 0x50
 6198 1aef B60D0000 		.4byte	.LASF286
 6199 1af3 17       		.byte	0x17
 6200 1af4 1F       		.byte	0x1f
 6201 1af5 50       		.uleb128 0x50
 6202 1af6 73060000 		.4byte	.LASF287
 6203 1afa 18       		.byte	0x18
 6204 1afb 17       		.byte	0x17
 6205 1afc 50       		.uleb128 0x50
 6206 1afd 0F100000 		.4byte	.LASF288
 6207 1b01 03       		.byte	0x3
 6208 1b02 41       		.byte	0x41
 6209 1b03 51       		.uleb128 0x51
 6210 1b04 E60C0000 		.4byte	.LASF297
 6211 1b08 12       		.byte	0x12
 6212 1b09 17       		.byte	0x17
 6213 1b0a 9B000000 		.4byte	0x9b
 6214 1b0e 50       		.uleb128 0x50
 6215 1b0f FA0B0000 		.4byte	.LASF289
 6216 1b13 0D       		.byte	0xd
 6217 1b14 19       		.byte	0x19
 6218 1b15 50       		.uleb128 0x50
 6219 1b16 52010000 		.4byte	.LASF290
 6220 1b1a 0A       		.byte	0xa
 6221 1b1b 64       		.byte	0x64
 6222 1b1c 50       		.uleb128 0x50
 6223 1b1d 6B0D0000 		.4byte	.LASF291
 6224 1b21 0A       		.byte	0xa
 6225 1b22 65       		.byte	0x65
 6226 1b23 00       		.byte	0
 6227              		.section	.debug_abbrev,"",%progbits
 6228              	.Ldebug_abbrev0:
 6229 0000 01       		.uleb128 0x1
 6230 0001 11       		.uleb128 0x11
 6231 0002 01       		.byte	0x1
 6232 0003 25       		.uleb128 0x25
 6233 0004 0E       		.uleb128 0xe
 6234 0005 13       		.uleb128 0x13
 6235 0006 0B       		.uleb128 0xb
 6236 0007 03       		.uleb128 0x3
 6237 0008 0E       		.uleb128 0xe
 6238 0009 1B       		.uleb128 0x1b
 6239 000a 0E       		.uleb128 0xe
 6240 000b 55       		.uleb128 0x55
 6241 000c 17       		.uleb128 0x17
 6242 000d 11       		.uleb128 0x11
 6243 000e 01       		.uleb128 0x1
 6244 000f 10       		.uleb128 0x10
ARM GAS  /var/folders/28/j9jfyj_n4wz3qtvnym210h2c0000gn/T//cc7mox5M.s 			page 111


 6245 0010 17       		.uleb128 0x17
 6246 0011 00       		.byte	0
 6247 0012 00       		.byte	0
 6248 0013 02       		.uleb128 0x2
 6249 0014 24       		.uleb128 0x24
 6250 0015 00       		.byte	0
 6251 0016 0B       		.uleb128 0xb
 6252 0017 0B       		.uleb128 0xb
 6253 0018 3E       		.uleb128 0x3e
 6254 0019 0B       		.uleb128 0xb
 6255 001a 03       		.uleb128 0x3
 6256 001b 0E       		.uleb128 0xe
 6257 001c 00       		.byte	0
 6258 001d 00       		.byte	0
 6259 001e 03       		.uleb128 0x3
 6260 001f 16       		.uleb128 0x16
 6261 0020 00       		.byte	0
 6262 0021 03       		.uleb128 0x3
 6263 0022 0E       		.uleb128 0xe
 6264 0023 3A       		.uleb128 0x3a
 6265 0024 0B       		.uleb128 0xb
 6266 0025 3B       		.uleb128 0x3b
 6267 0026 0B       		.uleb128 0xb
 6268 0027 49       		.uleb128 0x49
 6269 0028 13       		.uleb128 0x13
 6270 0029 00       		.byte	0
 6271 002a 00       		.byte	0
 6272 002b 04       		.uleb128 0x4
 6273 002c 24       		.uleb128 0x24
 6274 002d 00       		.byte	0
 6275 002e 0B       		.uleb128 0xb
 6276 002f 0B       		.uleb128 0xb
 6277 0030 3E       		.uleb128 0x3e
 6278 0031 0B       		.uleb128 0xb
 6279 0032 03       		.uleb128 0x3
 6280 0033 08       		.uleb128 0x8
 6281 0034 00       		.byte	0
 6282 0035 00       		.byte	0
 6283 0036 05       		.uleb128 0x5
 6284 0037 01       		.uleb128 0x1
 6285 0038 01       		.byte	0x1
 6286 0039 49       		.uleb128 0x49
 6287 003a 13       		.uleb128 0x13
 6288 003b 01       		.uleb128 0x1
 6289 003c 13       		.uleb128 0x13
 6290 003d 00       		.byte	0
 6291 003e 00       		.byte	0
 6292 003f 06       		.uleb128 0x6
 6293 0040 21       		.uleb128 0x21
 6294 0041 00       		.byte	0
 6295 0042 49       		.uleb128 0x49
 6296 0043 13       		.uleb128 0x13
 6297 0044 2F       		.uleb128 0x2f
 6298 0045 0B       		.uleb128 0xb
 6299 0046 00       		.byte	0
 6300 0047 00       		.byte	0
 6301 0048 07       		.uleb128 0x7
ARM GAS  /var/folders/28/j9jfyj_n4wz3qtvnym210h2c0000gn/T//cc7mox5M.s 			page 112


 6302 0049 35       		.uleb128 0x35
 6303 004a 00       		.byte	0
 6304 004b 49       		.uleb128 0x49
 6305 004c 13       		.uleb128 0x13
 6306 004d 00       		.byte	0
 6307 004e 00       		.byte	0
 6308 004f 08       		.uleb128 0x8
 6309 0050 26       		.uleb128 0x26
 6310 0051 00       		.byte	0
 6311 0052 49       		.uleb128 0x49
 6312 0053 13       		.uleb128 0x13
 6313 0054 00       		.byte	0
 6314 0055 00       		.byte	0
 6315 0056 09       		.uleb128 0x9
 6316 0057 04       		.uleb128 0x4
 6317 0058 01       		.byte	0x1
 6318 0059 0B       		.uleb128 0xb
 6319 005a 0B       		.uleb128 0xb
 6320 005b 3A       		.uleb128 0x3a
 6321 005c 0B       		.uleb128 0xb
 6322 005d 3B       		.uleb128 0x3b
 6323 005e 05       		.uleb128 0x5
 6324 005f 01       		.uleb128 0x1
 6325 0060 13       		.uleb128 0x13
 6326 0061 00       		.byte	0
 6327 0062 00       		.byte	0
 6328 0063 0A       		.uleb128 0xa
 6329 0064 28       		.uleb128 0x28
 6330 0065 00       		.byte	0
 6331 0066 03       		.uleb128 0x3
 6332 0067 0E       		.uleb128 0xe
 6333 0068 1C       		.uleb128 0x1c
 6334 0069 0D       		.uleb128 0xd
 6335 006a 00       		.byte	0
 6336 006b 00       		.byte	0
 6337 006c 0B       		.uleb128 0xb
 6338 006d 28       		.uleb128 0x28
 6339 006e 00       		.byte	0
 6340 006f 03       		.uleb128 0x3
 6341 0070 08       		.uleb128 0x8
 6342 0071 1C       		.uleb128 0x1c
 6343 0072 0D       		.uleb128 0xd
 6344 0073 00       		.byte	0
 6345 0074 00       		.byte	0
 6346 0075 0C       		.uleb128 0xc
 6347 0076 16       		.uleb128 0x16
 6348 0077 00       		.byte	0
 6349 0078 03       		.uleb128 0x3
 6350 0079 0E       		.uleb128 0xe
 6351 007a 3A       		.uleb128 0x3a
 6352 007b 0B       		.uleb128 0xb
 6353 007c 3B       		.uleb128 0x3b
 6354 007d 05       		.uleb128 0x5
 6355 007e 49       		.uleb128 0x49
 6356 007f 13       		.uleb128 0x13
 6357 0080 00       		.byte	0
 6358 0081 00       		.byte	0
ARM GAS  /var/folders/28/j9jfyj_n4wz3qtvnym210h2c0000gn/T//cc7mox5M.s 			page 113


 6359 0082 0D       		.uleb128 0xd
 6360 0083 13       		.uleb128 0x13
 6361 0084 01       		.byte	0x1
 6362 0085 0B       		.uleb128 0xb
 6363 0086 0B       		.uleb128 0xb
 6364 0087 3A       		.uleb128 0x3a
 6365 0088 0B       		.uleb128 0xb
 6366 0089 3B       		.uleb128 0x3b
 6367 008a 05       		.uleb128 0x5
 6368 008b 01       		.uleb128 0x1
 6369 008c 13       		.uleb128 0x13
 6370 008d 00       		.byte	0
 6371 008e 00       		.byte	0
 6372 008f 0E       		.uleb128 0xe
 6373 0090 0D       		.uleb128 0xd
 6374 0091 00       		.byte	0
 6375 0092 03       		.uleb128 0x3
 6376 0093 0E       		.uleb128 0xe
 6377 0094 3A       		.uleb128 0x3a
 6378 0095 0B       		.uleb128 0xb
 6379 0096 3B       		.uleb128 0x3b
 6380 0097 05       		.uleb128 0x5
 6381 0098 49       		.uleb128 0x49
 6382 0099 13       		.uleb128 0x13
 6383 009a 38       		.uleb128 0x38
 6384 009b 0B       		.uleb128 0xb
 6385 009c 00       		.byte	0
 6386 009d 00       		.byte	0
 6387 009e 0F       		.uleb128 0xf
 6388 009f 0D       		.uleb128 0xd
 6389 00a0 00       		.byte	0
 6390 00a1 03       		.uleb128 0x3
 6391 00a2 08       		.uleb128 0x8
 6392 00a3 3A       		.uleb128 0x3a
 6393 00a4 0B       		.uleb128 0xb
 6394 00a5 3B       		.uleb128 0x3b
 6395 00a6 05       		.uleb128 0x5
 6396 00a7 49       		.uleb128 0x49
 6397 00a8 13       		.uleb128 0x13
 6398 00a9 38       		.uleb128 0x38
 6399 00aa 0B       		.uleb128 0xb
 6400 00ab 00       		.byte	0
 6401 00ac 00       		.byte	0
 6402 00ad 10       		.uleb128 0x10
 6403 00ae 13       		.uleb128 0x13
 6404 00af 01       		.byte	0x1
 6405 00b0 0B       		.uleb128 0xb
 6406 00b1 0B       		.uleb128 0xb
 6407 00b2 3A       		.uleb128 0x3a
 6408 00b3 0B       		.uleb128 0xb
 6409 00b4 3B       		.uleb128 0x3b
 6410 00b5 0B       		.uleb128 0xb
 6411 00b6 01       		.uleb128 0x1
 6412 00b7 13       		.uleb128 0x13
 6413 00b8 00       		.byte	0
 6414 00b9 00       		.byte	0
 6415 00ba 11       		.uleb128 0x11
ARM GAS  /var/folders/28/j9jfyj_n4wz3qtvnym210h2c0000gn/T//cc7mox5M.s 			page 114


 6416 00bb 0D       		.uleb128 0xd
 6417 00bc 00       		.byte	0
 6418 00bd 03       		.uleb128 0x3
 6419 00be 0E       		.uleb128 0xe
 6420 00bf 3A       		.uleb128 0x3a
 6421 00c0 0B       		.uleb128 0xb
 6422 00c1 3B       		.uleb128 0x3b
 6423 00c2 0B       		.uleb128 0xb
 6424 00c3 49       		.uleb128 0x49
 6425 00c4 13       		.uleb128 0x13
 6426 00c5 38       		.uleb128 0x38
 6427 00c6 0B       		.uleb128 0xb
 6428 00c7 00       		.byte	0
 6429 00c8 00       		.byte	0
 6430 00c9 12       		.uleb128 0x12
 6431 00ca 0F       		.uleb128 0xf
 6432 00cb 00       		.byte	0
 6433 00cc 0B       		.uleb128 0xb
 6434 00cd 0B       		.uleb128 0xb
 6435 00ce 49       		.uleb128 0x49
 6436 00cf 13       		.uleb128 0x13
 6437 00d0 00       		.byte	0
 6438 00d1 00       		.byte	0
 6439 00d2 13       		.uleb128 0x13
 6440 00d3 0F       		.uleb128 0xf
 6441 00d4 00       		.byte	0
 6442 00d5 0B       		.uleb128 0xb
 6443 00d6 0B       		.uleb128 0xb
 6444 00d7 00       		.byte	0
 6445 00d8 00       		.byte	0
 6446 00d9 14       		.uleb128 0x14
 6447 00da 0D       		.uleb128 0xd
 6448 00db 00       		.byte	0
 6449 00dc 03       		.uleb128 0x3
 6450 00dd 08       		.uleb128 0x8
 6451 00de 3A       		.uleb128 0x3a
 6452 00df 0B       		.uleb128 0xb
 6453 00e0 3B       		.uleb128 0x3b
 6454 00e1 0B       		.uleb128 0xb
 6455 00e2 49       		.uleb128 0x49
 6456 00e3 13       		.uleb128 0x13
 6457 00e4 38       		.uleb128 0x38
 6458 00e5 0B       		.uleb128 0xb
 6459 00e6 00       		.byte	0
 6460 00e7 00       		.byte	0
 6461 00e8 15       		.uleb128 0x15
 6462 00e9 17       		.uleb128 0x17
 6463 00ea 01       		.byte	0x1
 6464 00eb 0B       		.uleb128 0xb
 6465 00ec 0B       		.uleb128 0xb
 6466 00ed 3A       		.uleb128 0x3a
 6467 00ee 0B       		.uleb128 0xb
 6468 00ef 3B       		.uleb128 0x3b
 6469 00f0 0B       		.uleb128 0xb
 6470 00f1 01       		.uleb128 0x1
 6471 00f2 13       		.uleb128 0x13
 6472 00f3 00       		.byte	0
ARM GAS  /var/folders/28/j9jfyj_n4wz3qtvnym210h2c0000gn/T//cc7mox5M.s 			page 115


 6473 00f4 00       		.byte	0
 6474 00f5 16       		.uleb128 0x16
 6475 00f6 0D       		.uleb128 0xd
 6476 00f7 00       		.byte	0
 6477 00f8 03       		.uleb128 0x3
 6478 00f9 08       		.uleb128 0x8
 6479 00fa 3A       		.uleb128 0x3a
 6480 00fb 0B       		.uleb128 0xb
 6481 00fc 3B       		.uleb128 0x3b
 6482 00fd 0B       		.uleb128 0xb
 6483 00fe 49       		.uleb128 0x49
 6484 00ff 13       		.uleb128 0x13
 6485 0100 00       		.byte	0
 6486 0101 00       		.byte	0
 6487 0102 17       		.uleb128 0x17
 6488 0103 04       		.uleb128 0x4
 6489 0104 01       		.byte	0x1
 6490 0105 0B       		.uleb128 0xb
 6491 0106 0B       		.uleb128 0xb
 6492 0107 3A       		.uleb128 0x3a
 6493 0108 0B       		.uleb128 0xb
 6494 0109 3B       		.uleb128 0x3b
 6495 010a 0B       		.uleb128 0xb
 6496 010b 01       		.uleb128 0x1
 6497 010c 13       		.uleb128 0x13
 6498 010d 00       		.byte	0
 6499 010e 00       		.byte	0
 6500 010f 18       		.uleb128 0x18
 6501 0110 2E       		.uleb128 0x2e
 6502 0111 01       		.byte	0x1
 6503 0112 3F       		.uleb128 0x3f
 6504 0113 19       		.uleb128 0x19
 6505 0114 03       		.uleb128 0x3
 6506 0115 0E       		.uleb128 0xe
 6507 0116 3A       		.uleb128 0x3a
 6508 0117 0B       		.uleb128 0xb
 6509 0118 3B       		.uleb128 0x3b
 6510 0119 05       		.uleb128 0x5
 6511 011a 27       		.uleb128 0x27
 6512 011b 19       		.uleb128 0x19
 6513 011c 49       		.uleb128 0x49
 6514 011d 13       		.uleb128 0x13
 6515 011e 20       		.uleb128 0x20
 6516 011f 0B       		.uleb128 0xb
 6517 0120 01       		.uleb128 0x1
 6518 0121 13       		.uleb128 0x13
 6519 0122 00       		.byte	0
 6520 0123 00       		.byte	0
 6521 0124 19       		.uleb128 0x19
 6522 0125 05       		.uleb128 0x5
 6523 0126 00       		.byte	0
 6524 0127 03       		.uleb128 0x3
 6525 0128 0E       		.uleb128 0xe
 6526 0129 3A       		.uleb128 0x3a
 6527 012a 0B       		.uleb128 0xb
 6528 012b 3B       		.uleb128 0x3b
 6529 012c 05       		.uleb128 0x5
ARM GAS  /var/folders/28/j9jfyj_n4wz3qtvnym210h2c0000gn/T//cc7mox5M.s 			page 116


 6530 012d 49       		.uleb128 0x49
 6531 012e 13       		.uleb128 0x13
 6532 012f 00       		.byte	0
 6533 0130 00       		.byte	0
 6534 0131 1A       		.uleb128 0x1a
 6535 0132 34       		.uleb128 0x34
 6536 0133 00       		.byte	0
 6537 0134 03       		.uleb128 0x3
 6538 0135 0E       		.uleb128 0xe
 6539 0136 3A       		.uleb128 0x3a
 6540 0137 0B       		.uleb128 0xb
 6541 0138 3B       		.uleb128 0x3b
 6542 0139 05       		.uleb128 0x5
 6543 013a 49       		.uleb128 0x49
 6544 013b 13       		.uleb128 0x13
 6545 013c 00       		.byte	0
 6546 013d 00       		.byte	0
 6547 013e 1B       		.uleb128 0x1b
 6548 013f 2E       		.uleb128 0x2e
 6549 0140 01       		.byte	0x1
 6550 0141 3F       		.uleb128 0x3f
 6551 0142 19       		.uleb128 0x19
 6552 0143 03       		.uleb128 0x3
 6553 0144 0E       		.uleb128 0xe
 6554 0145 3A       		.uleb128 0x3a
 6555 0146 0B       		.uleb128 0xb
 6556 0147 3B       		.uleb128 0x3b
 6557 0148 05       		.uleb128 0x5
 6558 0149 27       		.uleb128 0x27
 6559 014a 19       		.uleb128 0x19
 6560 014b 20       		.uleb128 0x20
 6561 014c 0B       		.uleb128 0xb
 6562 014d 01       		.uleb128 0x1
 6563 014e 13       		.uleb128 0x13
 6564 014f 00       		.byte	0
 6565 0150 00       		.byte	0
 6566 0151 1C       		.uleb128 0x1c
 6567 0152 2E       		.uleb128 0x2e
 6568 0153 00       		.byte	0
 6569 0154 3F       		.uleb128 0x3f
 6570 0155 19       		.uleb128 0x19
 6571 0156 03       		.uleb128 0x3
 6572 0157 0E       		.uleb128 0xe
 6573 0158 3A       		.uleb128 0x3a
 6574 0159 0B       		.uleb128 0xb
 6575 015a 3B       		.uleb128 0x3b
 6576 015b 0B       		.uleb128 0xb
 6577 015c 27       		.uleb128 0x27
 6578 015d 19       		.uleb128 0x19
 6579 015e 20       		.uleb128 0x20
 6580 015f 0B       		.uleb128 0xb
 6581 0160 00       		.byte	0
 6582 0161 00       		.byte	0
 6583 0162 1D       		.uleb128 0x1d
 6584 0163 2E       		.uleb128 0x2e
 6585 0164 01       		.byte	0x1
 6586 0165 3F       		.uleb128 0x3f
ARM GAS  /var/folders/28/j9jfyj_n4wz3qtvnym210h2c0000gn/T//cc7mox5M.s 			page 117


 6587 0166 19       		.uleb128 0x19
 6588 0167 03       		.uleb128 0x3
 6589 0168 0E       		.uleb128 0xe
 6590 0169 3A       		.uleb128 0x3a
 6591 016a 0B       		.uleb128 0xb
 6592 016b 3B       		.uleb128 0x3b
 6593 016c 0B       		.uleb128 0xb
 6594 016d 27       		.uleb128 0x27
 6595 016e 19       		.uleb128 0x19
 6596 016f 11       		.uleb128 0x11
 6597 0170 01       		.uleb128 0x1
 6598 0171 12       		.uleb128 0x12
 6599 0172 06       		.uleb128 0x6
 6600 0173 40       		.uleb128 0x40
 6601 0174 18       		.uleb128 0x18
 6602 0175 9742     		.uleb128 0x2117
 6603 0177 19       		.uleb128 0x19
 6604 0178 01       		.uleb128 0x1
 6605 0179 13       		.uleb128 0x13
 6606 017a 00       		.byte	0
 6607 017b 00       		.byte	0
 6608 017c 1E       		.uleb128 0x1e
 6609 017d 34       		.uleb128 0x34
 6610 017e 00       		.byte	0
 6611 017f 03       		.uleb128 0x3
 6612 0180 0E       		.uleb128 0xe
 6613 0181 3A       		.uleb128 0x3a
 6614 0182 0B       		.uleb128 0xb
 6615 0183 3B       		.uleb128 0x3b
 6616 0184 0B       		.uleb128 0xb
 6617 0185 49       		.uleb128 0x49
 6618 0186 13       		.uleb128 0x13
 6619 0187 1C       		.uleb128 0x1c
 6620 0188 06       		.uleb128 0x6
 6621 0189 00       		.byte	0
 6622 018a 00       		.byte	0
 6623 018b 1F       		.uleb128 0x1f
 6624 018c 34       		.uleb128 0x34
 6625 018d 00       		.byte	0
 6626 018e 03       		.uleb128 0x3
 6627 018f 0E       		.uleb128 0xe
 6628 0190 3A       		.uleb128 0x3a
 6629 0191 0B       		.uleb128 0xb
 6630 0192 3B       		.uleb128 0x3b
 6631 0193 0B       		.uleb128 0xb
 6632 0194 49       		.uleb128 0x49
 6633 0195 13       		.uleb128 0x13
 6634 0196 1C       		.uleb128 0x1c
 6635 0197 0D       		.uleb128 0xd
 6636 0198 00       		.byte	0
 6637 0199 00       		.byte	0
 6638 019a 20       		.uleb128 0x20
 6639 019b 34       		.uleb128 0x34
 6640 019c 00       		.byte	0
 6641 019d 03       		.uleb128 0x3
 6642 019e 08       		.uleb128 0x8
 6643 019f 3A       		.uleb128 0x3a
ARM GAS  /var/folders/28/j9jfyj_n4wz3qtvnym210h2c0000gn/T//cc7mox5M.s 			page 118


 6644 01a0 0B       		.uleb128 0xb
 6645 01a1 3B       		.uleb128 0x3b
 6646 01a2 0B       		.uleb128 0xb
 6647 01a3 49       		.uleb128 0x49
 6648 01a4 13       		.uleb128 0x13
 6649 01a5 02       		.uleb128 0x2
 6650 01a6 17       		.uleb128 0x17
 6651 01a7 00       		.byte	0
 6652 01a8 00       		.byte	0
 6653 01a9 21       		.uleb128 0x21
 6654 01aa 34       		.uleb128 0x34
 6655 01ab 00       		.byte	0
 6656 01ac 03       		.uleb128 0x3
 6657 01ad 08       		.uleb128 0x8
 6658 01ae 3A       		.uleb128 0x3a
 6659 01af 0B       		.uleb128 0xb
 6660 01b0 3B       		.uleb128 0x3b
 6661 01b1 0B       		.uleb128 0xb
 6662 01b2 49       		.uleb128 0x49
 6663 01b3 13       		.uleb128 0x13
 6664 01b4 1C       		.uleb128 0x1c
 6665 01b5 06       		.uleb128 0x6
 6666 01b6 00       		.byte	0
 6667 01b7 00       		.byte	0
 6668 01b8 22       		.uleb128 0x22
 6669 01b9 34       		.uleb128 0x34
 6670 01ba 00       		.byte	0
 6671 01bb 03       		.uleb128 0x3
 6672 01bc 08       		.uleb128 0x8
 6673 01bd 3A       		.uleb128 0x3a
 6674 01be 0B       		.uleb128 0xb
 6675 01bf 3B       		.uleb128 0x3b
 6676 01c0 0B       		.uleb128 0xb
 6677 01c1 49       		.uleb128 0x49
 6678 01c2 13       		.uleb128 0x13
 6679 01c3 1C       		.uleb128 0x1c
 6680 01c4 0B       		.uleb128 0xb
 6681 01c5 00       		.byte	0
 6682 01c6 00       		.byte	0
 6683 01c7 23       		.uleb128 0x23
 6684 01c8 34       		.uleb128 0x34
 6685 01c9 00       		.byte	0
 6686 01ca 03       		.uleb128 0x3
 6687 01cb 0E       		.uleb128 0xe
 6688 01cc 3A       		.uleb128 0x3a
 6689 01cd 0B       		.uleb128 0xb
 6690 01ce 3B       		.uleb128 0x3b
 6691 01cf 0B       		.uleb128 0xb
 6692 01d0 49       		.uleb128 0x49
 6693 01d1 13       		.uleb128 0x13
 6694 01d2 02       		.uleb128 0x2
 6695 01d3 18       		.uleb128 0x18
 6696 01d4 00       		.byte	0
 6697 01d5 00       		.byte	0
 6698 01d6 24       		.uleb128 0x24
 6699 01d7 0B       		.uleb128 0xb
 6700 01d8 01       		.byte	0x1
ARM GAS  /var/folders/28/j9jfyj_n4wz3qtvnym210h2c0000gn/T//cc7mox5M.s 			page 119


 6701 01d9 11       		.uleb128 0x11
 6702 01da 01       		.uleb128 0x1
 6703 01db 12       		.uleb128 0x12
 6704 01dc 06       		.uleb128 0x6
 6705 01dd 01       		.uleb128 0x1
 6706 01de 13       		.uleb128 0x13
 6707 01df 00       		.byte	0
 6708 01e0 00       		.byte	0
 6709 01e1 25       		.uleb128 0x25
 6710 01e2 898201   		.uleb128 0x4109
 6711 01e5 01       		.byte	0x1
 6712 01e6 11       		.uleb128 0x11
 6713 01e7 01       		.uleb128 0x1
 6714 01e8 31       		.uleb128 0x31
 6715 01e9 13       		.uleb128 0x13
 6716 01ea 01       		.uleb128 0x1
 6717 01eb 13       		.uleb128 0x13
 6718 01ec 00       		.byte	0
 6719 01ed 00       		.byte	0
 6720 01ee 26       		.uleb128 0x26
 6721 01ef 8A8201   		.uleb128 0x410a
 6722 01f2 00       		.byte	0
 6723 01f3 02       		.uleb128 0x2
 6724 01f4 18       		.uleb128 0x18
 6725 01f5 9142     		.uleb128 0x2111
 6726 01f7 18       		.uleb128 0x18
 6727 01f8 00       		.byte	0
 6728 01f9 00       		.byte	0
 6729 01fa 27       		.uleb128 0x27
 6730 01fb 898201   		.uleb128 0x4109
 6731 01fe 01       		.byte	0x1
 6732 01ff 11       		.uleb128 0x11
 6733 0200 01       		.uleb128 0x1
 6734 0201 31       		.uleb128 0x31
 6735 0202 13       		.uleb128 0x13
 6736 0203 00       		.byte	0
 6737 0204 00       		.byte	0
 6738 0205 28       		.uleb128 0x28
 6739 0206 0B       		.uleb128 0xb
 6740 0207 01       		.byte	0x1
 6741 0208 11       		.uleb128 0x11
 6742 0209 01       		.uleb128 0x1
 6743 020a 12       		.uleb128 0x12
 6744 020b 06       		.uleb128 0x6
 6745 020c 00       		.byte	0
 6746 020d 00       		.byte	0
 6747 020e 29       		.uleb128 0x29
 6748 020f 34       		.uleb128 0x34
 6749 0210 00       		.byte	0
 6750 0211 03       		.uleb128 0x3
 6751 0212 0E       		.uleb128 0xe
 6752 0213 3A       		.uleb128 0x3a
 6753 0214 0B       		.uleb128 0xb
 6754 0215 3B       		.uleb128 0x3b
 6755 0216 0B       		.uleb128 0xb
 6756 0217 49       		.uleb128 0x49
 6757 0218 13       		.uleb128 0x13
ARM GAS  /var/folders/28/j9jfyj_n4wz3qtvnym210h2c0000gn/T//cc7mox5M.s 			page 120


 6758 0219 02       		.uleb128 0x2
 6759 021a 17       		.uleb128 0x17
 6760 021b 00       		.byte	0
 6761 021c 00       		.byte	0
 6762 021d 2A       		.uleb128 0x2a
 6763 021e 2E       		.uleb128 0x2e
 6764 021f 01       		.byte	0x1
 6765 0220 03       		.uleb128 0x3
 6766 0221 0E       		.uleb128 0xe
 6767 0222 3A       		.uleb128 0x3a
 6768 0223 0B       		.uleb128 0xb
 6769 0224 3B       		.uleb128 0x3b
 6770 0225 05       		.uleb128 0x5
 6771 0226 11       		.uleb128 0x11
 6772 0227 01       		.uleb128 0x1
 6773 0228 12       		.uleb128 0x12
 6774 0229 06       		.uleb128 0x6
 6775 022a 40       		.uleb128 0x40
 6776 022b 18       		.uleb128 0x18
 6777 022c 9742     		.uleb128 0x2117
 6778 022e 19       		.uleb128 0x19
 6779 022f 01       		.uleb128 0x1
 6780 0230 13       		.uleb128 0x13
 6781 0231 00       		.byte	0
 6782 0232 00       		.byte	0
 6783 0233 2B       		.uleb128 0x2b
 6784 0234 34       		.uleb128 0x34
 6785 0235 00       		.byte	0
 6786 0236 03       		.uleb128 0x3
 6787 0237 0E       		.uleb128 0xe
 6788 0238 3A       		.uleb128 0x3a
 6789 0239 0B       		.uleb128 0xb
 6790 023a 3B       		.uleb128 0x3b
 6791 023b 05       		.uleb128 0x5
 6792 023c 49       		.uleb128 0x49
 6793 023d 13       		.uleb128 0x13
 6794 023e 02       		.uleb128 0x2
 6795 023f 17       		.uleb128 0x17
 6796 0240 00       		.byte	0
 6797 0241 00       		.byte	0
 6798 0242 2C       		.uleb128 0x2c
 6799 0243 34       		.uleb128 0x34
 6800 0244 00       		.byte	0
 6801 0245 03       		.uleb128 0x3
 6802 0246 0E       		.uleb128 0xe
 6803 0247 3A       		.uleb128 0x3a
 6804 0248 0B       		.uleb128 0xb
 6805 0249 3B       		.uleb128 0x3b
 6806 024a 05       		.uleb128 0x5
 6807 024b 49       		.uleb128 0x49
 6808 024c 13       		.uleb128 0x13
 6809 024d 02       		.uleb128 0x2
 6810 024e 18       		.uleb128 0x18
 6811 024f 00       		.byte	0
 6812 0250 00       		.byte	0
 6813 0251 2D       		.uleb128 0x2d
 6814 0252 1D       		.uleb128 0x1d
ARM GAS  /var/folders/28/j9jfyj_n4wz3qtvnym210h2c0000gn/T//cc7mox5M.s 			page 121


 6815 0253 01       		.byte	0x1
 6816 0254 31       		.uleb128 0x31
 6817 0255 13       		.uleb128 0x13
 6818 0256 11       		.uleb128 0x11
 6819 0257 01       		.uleb128 0x1
 6820 0258 12       		.uleb128 0x12
 6821 0259 06       		.uleb128 0x6
 6822 025a 58       		.uleb128 0x58
 6823 025b 0B       		.uleb128 0xb
 6824 025c 59       		.uleb128 0x59
 6825 025d 0B       		.uleb128 0xb
 6826 025e 01       		.uleb128 0x1
 6827 025f 13       		.uleb128 0x13
 6828 0260 00       		.byte	0
 6829 0261 00       		.byte	0
 6830 0262 2E       		.uleb128 0x2e
 6831 0263 05       		.uleb128 0x5
 6832 0264 00       		.byte	0
 6833 0265 31       		.uleb128 0x31
 6834 0266 13       		.uleb128 0x13
 6835 0267 1C       		.uleb128 0x1c
 6836 0268 0B       		.uleb128 0xb
 6837 0269 00       		.byte	0
 6838 026a 00       		.byte	0
 6839 026b 2F       		.uleb128 0x2f
 6840 026c 34       		.uleb128 0x34
 6841 026d 00       		.byte	0
 6842 026e 31       		.uleb128 0x31
 6843 026f 13       		.uleb128 0x13
 6844 0270 1C       		.uleb128 0x1c
 6845 0271 0B       		.uleb128 0xb
 6846 0272 00       		.byte	0
 6847 0273 00       		.byte	0
 6848 0274 30       		.uleb128 0x30
 6849 0275 34       		.uleb128 0x34
 6850 0276 00       		.byte	0
 6851 0277 31       		.uleb128 0x31
 6852 0278 13       		.uleb128 0x13
 6853 0279 02       		.uleb128 0x2
 6854 027a 17       		.uleb128 0x17
 6855 027b 00       		.byte	0
 6856 027c 00       		.byte	0
 6857 027d 31       		.uleb128 0x31
 6858 027e 05       		.uleb128 0x5
 6859 027f 00       		.byte	0
 6860 0280 31       		.uleb128 0x31
 6861 0281 13       		.uleb128 0x13
 6862 0282 02       		.uleb128 0x2
 6863 0283 18       		.uleb128 0x18
 6864 0284 00       		.byte	0
 6865 0285 00       		.byte	0
 6866 0286 32       		.uleb128 0x32
 6867 0287 1D       		.uleb128 0x1d
 6868 0288 01       		.byte	0x1
 6869 0289 31       		.uleb128 0x31
 6870 028a 13       		.uleb128 0x13
 6871 028b 11       		.uleb128 0x11
ARM GAS  /var/folders/28/j9jfyj_n4wz3qtvnym210h2c0000gn/T//cc7mox5M.s 			page 122


 6872 028c 01       		.uleb128 0x1
 6873 028d 12       		.uleb128 0x12
 6874 028e 06       		.uleb128 0x6
 6875 028f 58       		.uleb128 0x58
 6876 0290 0B       		.uleb128 0xb
 6877 0291 59       		.uleb128 0x59
 6878 0292 05       		.uleb128 0x5
 6879 0293 01       		.uleb128 0x1
 6880 0294 13       		.uleb128 0x13
 6881 0295 00       		.byte	0
 6882 0296 00       		.byte	0
 6883 0297 33       		.uleb128 0x33
 6884 0298 34       		.uleb128 0x34
 6885 0299 00       		.byte	0
 6886 029a 31       		.uleb128 0x31
 6887 029b 13       		.uleb128 0x13
 6888 029c 1C       		.uleb128 0x1c
 6889 029d 06       		.uleb128 0x6
 6890 029e 00       		.byte	0
 6891 029f 00       		.byte	0
 6892 02a0 34       		.uleb128 0x34
 6893 02a1 05       		.uleb128 0x5
 6894 02a2 00       		.byte	0
 6895 02a3 31       		.uleb128 0x31
 6896 02a4 13       		.uleb128 0x13
 6897 02a5 1C       		.uleb128 0x1c
 6898 02a6 05       		.uleb128 0x5
 6899 02a7 00       		.byte	0
 6900 02a8 00       		.byte	0
 6901 02a9 35       		.uleb128 0x35
 6902 02aa 898201   		.uleb128 0x4109
 6903 02ad 00       		.byte	0
 6904 02ae 11       		.uleb128 0x11
 6905 02af 01       		.uleb128 0x1
 6906 02b0 31       		.uleb128 0x31
 6907 02b1 13       		.uleb128 0x13
 6908 02b2 00       		.byte	0
 6909 02b3 00       		.byte	0
 6910 02b4 36       		.uleb128 0x36
 6911 02b5 898201   		.uleb128 0x4109
 6912 02b8 01       		.byte	0x1
 6913 02b9 11       		.uleb128 0x11
 6914 02ba 01       		.uleb128 0x1
 6915 02bb 9542     		.uleb128 0x2115
 6916 02bd 19       		.uleb128 0x19
 6917 02be 31       		.uleb128 0x31
 6918 02bf 13       		.uleb128 0x13
 6919 02c0 00       		.byte	0
 6920 02c1 00       		.byte	0
 6921 02c2 37       		.uleb128 0x37
 6922 02c3 2E       		.uleb128 0x2e
 6923 02c4 01       		.byte	0x1
 6924 02c5 3F       		.uleb128 0x3f
 6925 02c6 19       		.uleb128 0x19
 6926 02c7 03       		.uleb128 0x3
 6927 02c8 0E       		.uleb128 0xe
 6928 02c9 3A       		.uleb128 0x3a
ARM GAS  /var/folders/28/j9jfyj_n4wz3qtvnym210h2c0000gn/T//cc7mox5M.s 			page 123


 6929 02ca 0B       		.uleb128 0xb
 6930 02cb 3B       		.uleb128 0x3b
 6931 02cc 05       		.uleb128 0x5
 6932 02cd 27       		.uleb128 0x27
 6933 02ce 19       		.uleb128 0x19
 6934 02cf 11       		.uleb128 0x11
 6935 02d0 01       		.uleb128 0x1
 6936 02d1 12       		.uleb128 0x12
 6937 02d2 06       		.uleb128 0x6
 6938 02d3 40       		.uleb128 0x40
 6939 02d4 18       		.uleb128 0x18
 6940 02d5 9742     		.uleb128 0x2117
 6941 02d7 19       		.uleb128 0x19
 6942 02d8 01       		.uleb128 0x1
 6943 02d9 13       		.uleb128 0x13
 6944 02da 00       		.byte	0
 6945 02db 00       		.byte	0
 6946 02dc 38       		.uleb128 0x38
 6947 02dd 05       		.uleb128 0x5
 6948 02de 00       		.byte	0
 6949 02df 03       		.uleb128 0x3
 6950 02e0 0E       		.uleb128 0xe
 6951 02e1 3A       		.uleb128 0x3a
 6952 02e2 0B       		.uleb128 0xb
 6953 02e3 3B       		.uleb128 0x3b
 6954 02e4 05       		.uleb128 0x5
 6955 02e5 49       		.uleb128 0x49
 6956 02e6 13       		.uleb128 0x13
 6957 02e7 02       		.uleb128 0x2
 6958 02e8 17       		.uleb128 0x17
 6959 02e9 00       		.byte	0
 6960 02ea 00       		.byte	0
 6961 02eb 39       		.uleb128 0x39
 6962 02ec 1D       		.uleb128 0x1d
 6963 02ed 01       		.byte	0x1
 6964 02ee 31       		.uleb128 0x31
 6965 02ef 13       		.uleb128 0x13
 6966 02f0 52       		.uleb128 0x52
 6967 02f1 01       		.uleb128 0x1
 6968 02f2 55       		.uleb128 0x55
 6969 02f3 17       		.uleb128 0x17
 6970 02f4 58       		.uleb128 0x58
 6971 02f5 0B       		.uleb128 0xb
 6972 02f6 59       		.uleb128 0x59
 6973 02f7 05       		.uleb128 0x5
 6974 02f8 01       		.uleb128 0x1
 6975 02f9 13       		.uleb128 0x13
 6976 02fa 00       		.byte	0
 6977 02fb 00       		.byte	0
 6978 02fc 3A       		.uleb128 0x3a
 6979 02fd 1D       		.uleb128 0x1d
 6980 02fe 01       		.byte	0x1
 6981 02ff 31       		.uleb128 0x31
 6982 0300 13       		.uleb128 0x13
 6983 0301 11       		.uleb128 0x11
 6984 0302 01       		.uleb128 0x1
 6985 0303 12       		.uleb128 0x12
ARM GAS  /var/folders/28/j9jfyj_n4wz3qtvnym210h2c0000gn/T//cc7mox5M.s 			page 124


 6986 0304 06       		.uleb128 0x6
 6987 0305 58       		.uleb128 0x58
 6988 0306 0B       		.uleb128 0xb
 6989 0307 59       		.uleb128 0x59
 6990 0308 05       		.uleb128 0x5
 6991 0309 00       		.byte	0
 6992 030a 00       		.byte	0
 6993 030b 3B       		.uleb128 0x3b
 6994 030c 1D       		.uleb128 0x1d
 6995 030d 01       		.byte	0x1
 6996 030e 31       		.uleb128 0x31
 6997 030f 13       		.uleb128 0x13
 6998 0310 52       		.uleb128 0x52
 6999 0311 01       		.uleb128 0x1
 7000 0312 55       		.uleb128 0x55
 7001 0313 17       		.uleb128 0x17
 7002 0314 58       		.uleb128 0x58
 7003 0315 0B       		.uleb128 0xb
 7004 0316 59       		.uleb128 0x59
 7005 0317 05       		.uleb128 0x5
 7006 0318 00       		.byte	0
 7007 0319 00       		.byte	0
 7008 031a 3C       		.uleb128 0x3c
 7009 031b 0B       		.uleb128 0xb
 7010 031c 01       		.byte	0x1
 7011 031d 55       		.uleb128 0x55
 7012 031e 17       		.uleb128 0x17
 7013 031f 00       		.byte	0
 7014 0320 00       		.byte	0
 7015 0321 3D       		.uleb128 0x3d
 7016 0322 05       		.uleb128 0x5
 7017 0323 00       		.byte	0
 7018 0324 03       		.uleb128 0x3
 7019 0325 0E       		.uleb128 0xe
 7020 0326 3A       		.uleb128 0x3a
 7021 0327 0B       		.uleb128 0xb
 7022 0328 3B       		.uleb128 0x3b
 7023 0329 0B       		.uleb128 0xb
 7024 032a 49       		.uleb128 0x49
 7025 032b 13       		.uleb128 0x13
 7026 032c 02       		.uleb128 0x2
 7027 032d 17       		.uleb128 0x17
 7028 032e 00       		.byte	0
 7029 032f 00       		.byte	0
 7030 0330 3E       		.uleb128 0x3e
 7031 0331 05       		.uleb128 0x5
 7032 0332 00       		.byte	0
 7033 0333 03       		.uleb128 0x3
 7034 0334 0E       		.uleb128 0xe
 7035 0335 3A       		.uleb128 0x3a
 7036 0336 0B       		.uleb128 0xb
 7037 0337 3B       		.uleb128 0x3b
 7038 0338 05       		.uleb128 0x5
 7039 0339 49       		.uleb128 0x49
 7040 033a 13       		.uleb128 0x13
 7041 033b 02       		.uleb128 0x2
 7042 033c 18       		.uleb128 0x18
ARM GAS  /var/folders/28/j9jfyj_n4wz3qtvnym210h2c0000gn/T//cc7mox5M.s 			page 125


 7043 033d 00       		.byte	0
 7044 033e 00       		.byte	0
 7045 033f 3F       		.uleb128 0x3f
 7046 0340 2E       		.uleb128 0x2e
 7047 0341 01       		.byte	0x1
 7048 0342 3F       		.uleb128 0x3f
 7049 0343 19       		.uleb128 0x19
 7050 0344 03       		.uleb128 0x3
 7051 0345 0E       		.uleb128 0xe
 7052 0346 3A       		.uleb128 0x3a
 7053 0347 0B       		.uleb128 0xb
 7054 0348 3B       		.uleb128 0x3b
 7055 0349 05       		.uleb128 0x5
 7056 034a 27       		.uleb128 0x27
 7057 034b 19       		.uleb128 0x19
 7058 034c 49       		.uleb128 0x49
 7059 034d 13       		.uleb128 0x13
 7060 034e 11       		.uleb128 0x11
 7061 034f 01       		.uleb128 0x1
 7062 0350 12       		.uleb128 0x12
 7063 0351 06       		.uleb128 0x6
 7064 0352 40       		.uleb128 0x40
 7065 0353 18       		.uleb128 0x18
 7066 0354 9742     		.uleb128 0x2117
 7067 0356 19       		.uleb128 0x19
 7068 0357 01       		.uleb128 0x1
 7069 0358 13       		.uleb128 0x13
 7070 0359 00       		.byte	0
 7071 035a 00       		.byte	0
 7072 035b 40       		.uleb128 0x40
 7073 035c 2E       		.uleb128 0x2e
 7074 035d 00       		.byte	0
 7075 035e 3F       		.uleb128 0x3f
 7076 035f 19       		.uleb128 0x19
 7077 0360 03       		.uleb128 0x3
 7078 0361 0E       		.uleb128 0xe
 7079 0362 3A       		.uleb128 0x3a
 7080 0363 0B       		.uleb128 0xb
 7081 0364 3B       		.uleb128 0x3b
 7082 0365 05       		.uleb128 0x5
 7083 0366 27       		.uleb128 0x27
 7084 0367 19       		.uleb128 0x19
 7085 0368 11       		.uleb128 0x11
 7086 0369 01       		.uleb128 0x1
 7087 036a 12       		.uleb128 0x12
 7088 036b 06       		.uleb128 0x6
 7089 036c 40       		.uleb128 0x40
 7090 036d 18       		.uleb128 0x18
 7091 036e 9742     		.uleb128 0x2117
 7092 0370 19       		.uleb128 0x19
 7093 0371 00       		.byte	0
 7094 0372 00       		.byte	0
 7095 0373 41       		.uleb128 0x41
 7096 0374 2E       		.uleb128 0x2e
 7097 0375 01       		.byte	0x1
 7098 0376 31       		.uleb128 0x31
 7099 0377 13       		.uleb128 0x13
ARM GAS  /var/folders/28/j9jfyj_n4wz3qtvnym210h2c0000gn/T//cc7mox5M.s 			page 126


 7100 0378 11       		.uleb128 0x11
 7101 0379 01       		.uleb128 0x1
 7102 037a 12       		.uleb128 0x12
 7103 037b 06       		.uleb128 0x6
 7104 037c 40       		.uleb128 0x40
 7105 037d 18       		.uleb128 0x18
 7106 037e 9742     		.uleb128 0x2117
 7107 0380 19       		.uleb128 0x19
 7108 0381 01       		.uleb128 0x1
 7109 0382 13       		.uleb128 0x13
 7110 0383 00       		.byte	0
 7111 0384 00       		.byte	0
 7112 0385 42       		.uleb128 0x42
 7113 0386 898201   		.uleb128 0x4109
 7114 0389 00       		.byte	0
 7115 038a 11       		.uleb128 0x11
 7116 038b 01       		.uleb128 0x1
 7117 038c 9542     		.uleb128 0x2115
 7118 038e 19       		.uleb128 0x19
 7119 038f 31       		.uleb128 0x31
 7120 0390 13       		.uleb128 0x13
 7121 0391 00       		.byte	0
 7122 0392 00       		.byte	0
 7123 0393 43       		.uleb128 0x43
 7124 0394 05       		.uleb128 0x5
 7125 0395 00       		.byte	0
 7126 0396 31       		.uleb128 0x31
 7127 0397 13       		.uleb128 0x13
 7128 0398 02       		.uleb128 0x2
 7129 0399 17       		.uleb128 0x17
 7130 039a 00       		.byte	0
 7131 039b 00       		.byte	0
 7132 039c 44       		.uleb128 0x44
 7133 039d 34       		.uleb128 0x34
 7134 039e 00       		.byte	0
 7135 039f 03       		.uleb128 0x3
 7136 03a0 0E       		.uleb128 0xe
 7137 03a1 3A       		.uleb128 0x3a
 7138 03a2 0B       		.uleb128 0xb
 7139 03a3 3B       		.uleb128 0x3b
 7140 03a4 05       		.uleb128 0x5
 7141 03a5 49       		.uleb128 0x49
 7142 03a6 13       		.uleb128 0x13
 7143 03a7 1C       		.uleb128 0x1c
 7144 03a8 0B       		.uleb128 0xb
 7145 03a9 00       		.byte	0
 7146 03aa 00       		.byte	0
 7147 03ab 45       		.uleb128 0x45
 7148 03ac 2E       		.uleb128 0x2e
 7149 03ad 01       		.byte	0x1
 7150 03ae 3F       		.uleb128 0x3f
 7151 03af 19       		.uleb128 0x19
 7152 03b0 03       		.uleb128 0x3
 7153 03b1 0E       		.uleb128 0xe
 7154 03b2 3A       		.uleb128 0x3a
 7155 03b3 0B       		.uleb128 0xb
 7156 03b4 3B       		.uleb128 0x3b
ARM GAS  /var/folders/28/j9jfyj_n4wz3qtvnym210h2c0000gn/T//cc7mox5M.s 			page 127


 7157 03b5 0B       		.uleb128 0xb
 7158 03b6 27       		.uleb128 0x27
 7159 03b7 19       		.uleb128 0x19
 7160 03b8 49       		.uleb128 0x49
 7161 03b9 13       		.uleb128 0x13
 7162 03ba 11       		.uleb128 0x11
 7163 03bb 01       		.uleb128 0x1
 7164 03bc 12       		.uleb128 0x12
 7165 03bd 06       		.uleb128 0x6
 7166 03be 40       		.uleb128 0x40
 7167 03bf 18       		.uleb128 0x18
 7168 03c0 9742     		.uleb128 0x2117
 7169 03c2 19       		.uleb128 0x19
 7170 03c3 01       		.uleb128 0x1
 7171 03c4 13       		.uleb128 0x13
 7172 03c5 00       		.byte	0
 7173 03c6 00       		.byte	0
 7174 03c7 46       		.uleb128 0x46
 7175 03c8 05       		.uleb128 0x5
 7176 03c9 00       		.byte	0
 7177 03ca 03       		.uleb128 0x3
 7178 03cb 08       		.uleb128 0x8
 7179 03cc 3A       		.uleb128 0x3a
 7180 03cd 0B       		.uleb128 0xb
 7181 03ce 3B       		.uleb128 0x3b
 7182 03cf 0B       		.uleb128 0xb
 7183 03d0 49       		.uleb128 0x49
 7184 03d1 13       		.uleb128 0x13
 7185 03d2 02       		.uleb128 0x2
 7186 03d3 17       		.uleb128 0x17
 7187 03d4 00       		.byte	0
 7188 03d5 00       		.byte	0
 7189 03d6 47       		.uleb128 0x47
 7190 03d7 2E       		.uleb128 0x2e
 7191 03d8 00       		.byte	0
 7192 03d9 3F       		.uleb128 0x3f
 7193 03da 19       		.uleb128 0x19
 7194 03db 03       		.uleb128 0x3
 7195 03dc 0E       		.uleb128 0xe
 7196 03dd 3A       		.uleb128 0x3a
 7197 03de 0B       		.uleb128 0xb
 7198 03df 3B       		.uleb128 0x3b
 7199 03e0 0B       		.uleb128 0xb
 7200 03e1 27       		.uleb128 0x27
 7201 03e2 19       		.uleb128 0x19
 7202 03e3 11       		.uleb128 0x11
 7203 03e4 01       		.uleb128 0x1
 7204 03e5 12       		.uleb128 0x12
 7205 03e6 06       		.uleb128 0x6
 7206 03e7 40       		.uleb128 0x40
 7207 03e8 18       		.uleb128 0x18
 7208 03e9 9742     		.uleb128 0x2117
 7209 03eb 19       		.uleb128 0x19
 7210 03ec 00       		.byte	0
 7211 03ed 00       		.byte	0
 7212 03ee 48       		.uleb128 0x48
 7213 03ef 34       		.uleb128 0x34
ARM GAS  /var/folders/28/j9jfyj_n4wz3qtvnym210h2c0000gn/T//cc7mox5M.s 			page 128


 7214 03f0 00       		.byte	0
 7215 03f1 03       		.uleb128 0x3
 7216 03f2 0E       		.uleb128 0xe
 7217 03f3 3A       		.uleb128 0x3a
 7218 03f4 0B       		.uleb128 0xb
 7219 03f5 3B       		.uleb128 0x3b
 7220 03f6 05       		.uleb128 0x5
 7221 03f7 49       		.uleb128 0x49
 7222 03f8 13       		.uleb128 0x13
 7223 03f9 3F       		.uleb128 0x3f
 7224 03fa 19       		.uleb128 0x19
 7225 03fb 3C       		.uleb128 0x3c
 7226 03fc 19       		.uleb128 0x19
 7227 03fd 00       		.byte	0
 7228 03fe 00       		.byte	0
 7229 03ff 49       		.uleb128 0x49
 7230 0400 34       		.uleb128 0x34
 7231 0401 00       		.byte	0
 7232 0402 03       		.uleb128 0x3
 7233 0403 0E       		.uleb128 0xe
 7234 0404 3A       		.uleb128 0x3a
 7235 0405 0B       		.uleb128 0xb
 7236 0406 3B       		.uleb128 0x3b
 7237 0407 0B       		.uleb128 0xb
 7238 0408 49       		.uleb128 0x49
 7239 0409 13       		.uleb128 0x13
 7240 040a 3F       		.uleb128 0x3f
 7241 040b 19       		.uleb128 0x19
 7242 040c 3C       		.uleb128 0x3c
 7243 040d 19       		.uleb128 0x19
 7244 040e 00       		.byte	0
 7245 040f 00       		.byte	0
 7246 0410 4A       		.uleb128 0x4a
 7247 0411 21       		.uleb128 0x21
 7248 0412 00       		.byte	0
 7249 0413 49       		.uleb128 0x49
 7250 0414 13       		.uleb128 0x13
 7251 0415 2F       		.uleb128 0x2f
 7252 0416 05       		.uleb128 0x5
 7253 0417 00       		.byte	0
 7254 0418 00       		.byte	0
 7255 0419 4B       		.uleb128 0x4b
 7256 041a 2E       		.uleb128 0x2e
 7257 041b 01       		.byte	0x1
 7258 041c 3F       		.uleb128 0x3f
 7259 041d 19       		.uleb128 0x19
 7260 041e 03       		.uleb128 0x3
 7261 041f 0E       		.uleb128 0xe
 7262 0420 3A       		.uleb128 0x3a
 7263 0421 0B       		.uleb128 0xb
 7264 0422 3B       		.uleb128 0x3b
 7265 0423 0B       		.uleb128 0xb
 7266 0424 27       		.uleb128 0x27
 7267 0425 19       		.uleb128 0x19
 7268 0426 3C       		.uleb128 0x3c
 7269 0427 19       		.uleb128 0x19
 7270 0428 01       		.uleb128 0x1
ARM GAS  /var/folders/28/j9jfyj_n4wz3qtvnym210h2c0000gn/T//cc7mox5M.s 			page 129


 7271 0429 13       		.uleb128 0x13
 7272 042a 00       		.byte	0
 7273 042b 00       		.byte	0
 7274 042c 4C       		.uleb128 0x4c
 7275 042d 05       		.uleb128 0x5
 7276 042e 00       		.byte	0
 7277 042f 49       		.uleb128 0x49
 7278 0430 13       		.uleb128 0x13
 7279 0431 00       		.byte	0
 7280 0432 00       		.byte	0
 7281 0433 4D       		.uleb128 0x4d
 7282 0434 2E       		.uleb128 0x2e
 7283 0435 01       		.byte	0x1
 7284 0436 3F       		.uleb128 0x3f
 7285 0437 19       		.uleb128 0x19
 7286 0438 03       		.uleb128 0x3
 7287 0439 0E       		.uleb128 0xe
 7288 043a 3A       		.uleb128 0x3a
 7289 043b 0B       		.uleb128 0xb
 7290 043c 3B       		.uleb128 0x3b
 7291 043d 05       		.uleb128 0x5
 7292 043e 27       		.uleb128 0x27
 7293 043f 19       		.uleb128 0x19
 7294 0440 3C       		.uleb128 0x3c
 7295 0441 19       		.uleb128 0x19
 7296 0442 01       		.uleb128 0x1
 7297 0443 13       		.uleb128 0x13
 7298 0444 00       		.byte	0
 7299 0445 00       		.byte	0
 7300 0446 4E       		.uleb128 0x4e
 7301 0447 2E       		.uleb128 0x2e
 7302 0448 01       		.byte	0x1
 7303 0449 3F       		.uleb128 0x3f
 7304 044a 19       		.uleb128 0x19
 7305 044b 03       		.uleb128 0x3
 7306 044c 0E       		.uleb128 0xe
 7307 044d 27       		.uleb128 0x27
 7308 044e 19       		.uleb128 0x19
 7309 044f 49       		.uleb128 0x49
 7310 0450 13       		.uleb128 0x13
 7311 0451 34       		.uleb128 0x34
 7312 0452 19       		.uleb128 0x19
 7313 0453 3C       		.uleb128 0x3c
 7314 0454 19       		.uleb128 0x19
 7315 0455 01       		.uleb128 0x1
 7316 0456 13       		.uleb128 0x13
 7317 0457 00       		.byte	0
 7318 0458 00       		.byte	0
 7319 0459 4F       		.uleb128 0x4f
 7320 045a 26       		.uleb128 0x26
 7321 045b 00       		.byte	0
 7322 045c 00       		.byte	0
 7323 045d 00       		.byte	0
 7324 045e 50       		.uleb128 0x50
 7325 045f 2E       		.uleb128 0x2e
 7326 0460 00       		.byte	0
 7327 0461 3F       		.uleb128 0x3f
ARM GAS  /var/folders/28/j9jfyj_n4wz3qtvnym210h2c0000gn/T//cc7mox5M.s 			page 130


 7328 0462 19       		.uleb128 0x19
 7329 0463 03       		.uleb128 0x3
 7330 0464 0E       		.uleb128 0xe
 7331 0465 3A       		.uleb128 0x3a
 7332 0466 0B       		.uleb128 0xb
 7333 0467 3B       		.uleb128 0x3b
 7334 0468 0B       		.uleb128 0xb
 7335 0469 27       		.uleb128 0x27
 7336 046a 19       		.uleb128 0x19
 7337 046b 3C       		.uleb128 0x3c
 7338 046c 19       		.uleb128 0x19
 7339 046d 00       		.byte	0
 7340 046e 00       		.byte	0
 7341 046f 51       		.uleb128 0x51
 7342 0470 2E       		.uleb128 0x2e
 7343 0471 00       		.byte	0
 7344 0472 3F       		.uleb128 0x3f
 7345 0473 19       		.uleb128 0x19
 7346 0474 03       		.uleb128 0x3
 7347 0475 0E       		.uleb128 0xe
 7348 0476 3A       		.uleb128 0x3a
 7349 0477 0B       		.uleb128 0xb
 7350 0478 3B       		.uleb128 0x3b
 7351 0479 0B       		.uleb128 0xb
 7352 047a 27       		.uleb128 0x27
 7353 047b 19       		.uleb128 0x19
 7354 047c 49       		.uleb128 0x49
 7355 047d 13       		.uleb128 0x13
 7356 047e 3C       		.uleb128 0x3c
 7357 047f 19       		.uleb128 0x19
 7358 0480 00       		.byte	0
 7359 0481 00       		.byte	0
 7360 0482 00       		.byte	0
 7361              		.section	.debug_loc,"",%progbits
 7362              	.Ldebug_loc0:
 7363              	.LLST4:
 7364 0000 5C000000 		.4byte	.LVL13
 7365 0004 60000000 		.4byte	.LVL14
 7366 0008 0200     		.2byte	0x2
 7367 000a 30       		.byte	0x30
 7368 000b 9F       		.byte	0x9f
 7369 000c 72000000 		.4byte	.LVL17
 7370 0010 78000000 		.4byte	.LVL18
 7371 0014 0200     		.2byte	0x2
 7372 0016 30       		.byte	0x30
 7373 0017 9F       		.byte	0x9f
 7374 0018 BA000000 		.4byte	.LVL27
 7375 001c BC000000 		.4byte	.LVL28
 7376 0020 0200     		.2byte	0x2
 7377 0022 30       		.byte	0x30
 7378 0023 9F       		.byte	0x9f
 7379 0024 BC000000 		.4byte	.LVL28
 7380 0028 D8000000 		.4byte	.LVL32
 7381 002c 0100     		.2byte	0x1
 7382 002e 52       		.byte	0x52
 7383 002f D8000000 		.4byte	.LVL32
 7384 0033 DC000000 		.4byte	.LVL33
ARM GAS  /var/folders/28/j9jfyj_n4wz3qtvnym210h2c0000gn/T//cc7mox5M.s 			page 131


 7385 0037 0200     		.2byte	0x2
 7386 0039 30       		.byte	0x30
 7387 003a 9F       		.byte	0x9f
 7388 003b DC000000 		.4byte	.LVL33
 7389 003f E2000000 		.4byte	.LVL34
 7390 0043 0300     		.2byte	0x3
 7391 0045 72       		.byte	0x72
 7392 0046 7F       		.sleb128 -1
 7393 0047 9F       		.byte	0x9f
 7394 0048 E2000000 		.4byte	.LVL34
 7395 004c FA000000 		.4byte	.LVL37
 7396 0050 0100     		.2byte	0x1
 7397 0052 52       		.byte	0x52
 7398 0053 FA000000 		.4byte	.LVL37
 7399 0057 01010000 		.4byte	.LVL38-1
 7400 005b 0300     		.2byte	0x3
 7401 005d 72       		.byte	0x72
 7402 005e 7F       		.sleb128 -1
 7403 005f 9F       		.byte	0x9f
 7404 0060 0A010000 		.4byte	.LVL40
 7405 0064 12010000 		.4byte	.LVL42
 7406 0068 0300     		.2byte	0x3
 7407 006a 72       		.byte	0x72
 7408 006b 7F       		.sleb128 -1
 7409 006c 9F       		.byte	0x9f
 7410 006d 00000000 		.4byte	0
 7411 0071 00000000 		.4byte	0
 7412              	.LLST5:
 7413 0075 4E000000 		.4byte	.LVL11
 7414 0079 5A000000 		.4byte	.LVL12
 7415 007d 0300     		.2byte	0x3
 7416 007f 09       		.byte	0x9
 7417 0080 FF       		.byte	0xff
 7418 0081 9F       		.byte	0x9f
 7419 0082 78000000 		.4byte	.LVL18
 7420 0086 7E000000 		.4byte	.LVL19
 7421 008a 0100     		.2byte	0x1
 7422 008c 50       		.byte	0x50
 7423 008d 84000000 		.4byte	.LVL21
 7424 0091 90000000 		.4byte	.LVL22
 7425 0095 0100     		.2byte	0x1
 7426 0097 50       		.byte	0x50
 7427 0098 9C000000 		.4byte	.LVL25
 7428 009c AA000000 		.4byte	.LVL26
 7429 00a0 0100     		.2byte	0x1
 7430 00a2 50       		.byte	0x50
 7431 00a3 00000000 		.4byte	0
 7432 00a7 00000000 		.4byte	0
 7433              	.LLST6:
 7434 00ab 5C000000 		.4byte	.LVL13
 7435 00af 64000000 		.4byte	.LVL15
 7436 00b3 0100     		.2byte	0x1
 7437 00b5 53       		.byte	0x53
 7438 00b6 66000000 		.4byte	.LVL16
 7439 00ba 72000000 		.4byte	.LVL17
 7440 00be 0100     		.2byte	0x1
 7441 00c0 53       		.byte	0x53
ARM GAS  /var/folders/28/j9jfyj_n4wz3qtvnym210h2c0000gn/T//cc7mox5M.s 			page 132


 7442 00c1 72000000 		.4byte	.LVL17
 7443 00c5 82000000 		.4byte	.LVL20
 7444 00c9 0100     		.2byte	0x1
 7445 00cb 50       		.byte	0x50
 7446 00cc 82000000 		.4byte	.LVL20
 7447 00d0 84000000 		.4byte	.LVL21
 7448 00d4 0300     		.2byte	0x3
 7449 00d6 72       		.byte	0x72
 7450 00d7 01       		.sleb128 1
 7451 00d8 9F       		.byte	0x9f
 7452 00d9 84000000 		.4byte	.LVL21
 7453 00dd 90000000 		.4byte	.LVL22
 7454 00e1 0100     		.2byte	0x1
 7455 00e3 50       		.byte	0x50
 7456 00e4 9C000000 		.4byte	.LVL25
 7457 00e8 AA000000 		.4byte	.LVL26
 7458 00ec 0100     		.2byte	0x1
 7459 00ee 50       		.byte	0x50
 7460 00ef 00000000 		.4byte	0
 7461 00f3 00000000 		.4byte	0
 7462              	.LLST7:
 7463 00f7 BA000000 		.4byte	.LVL27
 7464 00fb C0000000 		.4byte	.LVL29
 7465 00ff 0100     		.2byte	0x1
 7466 0101 53       		.byte	0x53
 7467 0102 C2000000 		.4byte	.LVL30
 7468 0106 E6000000 		.4byte	.LVL35
 7469 010a 0100     		.2byte	0x1
 7470 010c 53       		.byte	0x53
 7471 010d E8000000 		.4byte	.LVL36
 7472 0111 01010000 		.4byte	.LVL38-1
 7473 0115 0100     		.2byte	0x1
 7474 0117 53       		.byte	0x53
 7475 0118 0A010000 		.4byte	.LVL40
 7476 011c 0C010000 		.4byte	.LVL41
 7477 0120 0100     		.2byte	0x1
 7478 0122 53       		.byte	0x53
 7479 0123 00000000 		.4byte	0
 7480 0127 00000000 		.4byte	0
 7481              	.LLST8:
 7482 012b 20010000 		.4byte	.LVL43
 7483 012f 36010000 		.4byte	.LVL48
 7484 0133 1000     		.2byte	0x10
 7485 0135 31       		.byte	0x31
 7486 0136 9F       		.byte	0x9f
 7487 0137 93       		.byte	0x93
 7488 0138 04       		.uleb128 0x4
 7489 0139 40       		.byte	0x40
 7490 013a 9F       		.byte	0x9f
 7491 013b 93       		.byte	0x93
 7492 013c 04       		.uleb128 0x4
 7493 013d 31       		.byte	0x31
 7494 013e 9F       		.byte	0x9f
 7495 013f 93       		.byte	0x93
 7496 0140 04       		.uleb128 0x4
 7497 0141 30       		.byte	0x30
 7498 0142 9F       		.byte	0x9f
ARM GAS  /var/folders/28/j9jfyj_n4wz3qtvnym210h2c0000gn/T//cc7mox5M.s 			page 133


 7499 0143 93       		.byte	0x93
 7500 0144 04       		.uleb128 0x4
 7501 0145 36010000 		.4byte	.LVL48
 7502 0149 42010000 		.4byte	.LVL52
 7503 014d 1000     		.2byte	0x10
 7504 014f 32       		.byte	0x32
 7505 0150 9F       		.byte	0x9f
 7506 0151 93       		.byte	0x93
 7507 0152 04       		.uleb128 0x4
 7508 0153 40       		.byte	0x40
 7509 0154 9F       		.byte	0x9f
 7510 0155 93       		.byte	0x93
 7511 0156 04       		.uleb128 0x4
 7512 0157 31       		.byte	0x31
 7513 0158 9F       		.byte	0x9f
 7514 0159 93       		.byte	0x93
 7515 015a 04       		.uleb128 0x4
 7516 015b 30       		.byte	0x30
 7517 015c 9F       		.byte	0x9f
 7518 015d 93       		.byte	0x93
 7519 015e 04       		.uleb128 0x4
 7520 015f 42010000 		.4byte	.LVL52
 7521 0163 5E010000 		.4byte	.LVL59
 7522 0167 1000     		.2byte	0x10
 7523 0169 33       		.byte	0x33
 7524 016a 9F       		.byte	0x9f
 7525 016b 93       		.byte	0x93
 7526 016c 04       		.uleb128 0x4
 7527 016d 40       		.byte	0x40
 7528 016e 9F       		.byte	0x9f
 7529 016f 93       		.byte	0x93
 7530 0170 04       		.uleb128 0x4
 7531 0171 34       		.byte	0x34
 7532 0172 9F       		.byte	0x9f
 7533 0173 93       		.byte	0x93
 7534 0174 04       		.uleb128 0x4
 7535 0175 30       		.byte	0x30
 7536 0176 9F       		.byte	0x9f
 7537 0177 93       		.byte	0x93
 7538 0178 04       		.uleb128 0x4
 7539 0179 5E010000 		.4byte	.LVL59
 7540 017d A0010000 		.4byte	.LFE183
 7541 0181 1200     		.2byte	0x12
 7542 0183 34       		.byte	0x34
 7543 0184 9F       		.byte	0x9f
 7544 0185 93       		.byte	0x93
 7545 0186 04       		.uleb128 0x4
 7546 0187 40       		.byte	0x40
 7547 0188 9F       		.byte	0x9f
 7548 0189 93       		.byte	0x93
 7549 018a 04       		.uleb128 0x4
 7550 018b 31       		.byte	0x31
 7551 018c 9F       		.byte	0x9f
 7552 018d 93       		.byte	0x93
 7553 018e 04       		.uleb128 0x4
 7554 018f 0A       		.byte	0xa
 7555 0190 2102     		.2byte	0x221
ARM GAS  /var/folders/28/j9jfyj_n4wz3qtvnym210h2c0000gn/T//cc7mox5M.s 			page 134


 7556 0192 9F       		.byte	0x9f
 7557 0193 93       		.byte	0x93
 7558 0194 04       		.uleb128 0x4
 7559 0195 00000000 		.4byte	0
 7560 0199 00000000 		.4byte	0
 7561              	.LLST9:
 7562 019d 20010000 		.4byte	.LVL43
 7563 01a1 5E010000 		.4byte	.LVL59
 7564 01a5 0200     		.2byte	0x2
 7565 01a7 30       		.byte	0x30
 7566 01a8 9F       		.byte	0x9f
 7567 01a9 5E010000 		.4byte	.LVL59
 7568 01ad A0010000 		.4byte	.LFE183
 7569 01b1 0400     		.2byte	0x4
 7570 01b3 0A       		.byte	0xa
 7571 01b4 2102     		.2byte	0x221
 7572 01b6 9F       		.byte	0x9f
 7573 01b7 00000000 		.4byte	0
 7574 01bb 00000000 		.4byte	0
 7575              	.LLST0:
 7576 01bf 0C000000 		.4byte	.LVL0
 7577 01c3 0E000000 		.4byte	.LVL1
 7578 01c7 0100     		.2byte	0x1
 7579 01c9 53       		.byte	0x53
 7580 01ca 0E000000 		.4byte	.LVL1
 7581 01ce 28000000 		.4byte	.LVL9
 7582 01d2 0200     		.2byte	0x2
 7583 01d4 7D       		.byte	0x7d
 7584 01d5 14       		.sleb128 20
 7585 01d6 28000000 		.4byte	.LVL9
 7586 01da 34000000 		.4byte	.LFE184
 7587 01de 0200     		.2byte	0x2
 7588 01e0 91       		.byte	0x91
 7589 01e1 74       		.sleb128 -12
 7590 01e2 00000000 		.4byte	0
 7591 01e6 00000000 		.4byte	0
 7592              	.LLST1:
 7593 01ea 12000000 		.4byte	.LVL2
 7594 01ee 14000000 		.4byte	.LVL3
 7595 01f2 0100     		.2byte	0x1
 7596 01f4 53       		.byte	0x53
 7597 01f5 14000000 		.4byte	.LVL3
 7598 01f9 28000000 		.4byte	.LVL9
 7599 01fd 0200     		.2byte	0x2
 7600 01ff 7D       		.byte	0x7d
 7601 0200 10       		.sleb128 16
 7602 0201 28000000 		.4byte	.LVL9
 7603 0205 34000000 		.4byte	.LFE184
 7604 0209 0200     		.2byte	0x2
 7605 020b 91       		.byte	0x91
 7606 020c 70       		.sleb128 -16
 7607 020d 00000000 		.4byte	0
 7608 0211 00000000 		.4byte	0
 7609              	.LLST2:
 7610 0215 18000000 		.4byte	.LVL4
 7611 0219 1A000000 		.4byte	.LVL5
 7612 021d 0100     		.2byte	0x1
ARM GAS  /var/folders/28/j9jfyj_n4wz3qtvnym210h2c0000gn/T//cc7mox5M.s 			page 135


 7613 021f 53       		.byte	0x53
 7614 0220 1A000000 		.4byte	.LVL5
 7615 0224 28000000 		.4byte	.LVL9
 7616 0228 0200     		.2byte	0x2
 7617 022a 7D       		.byte	0x7d
 7618 022b 0C       		.sleb128 12
 7619 022c 28000000 		.4byte	.LVL9
 7620 0230 34000000 		.4byte	.LFE184
 7621 0234 0200     		.2byte	0x2
 7622 0236 91       		.byte	0x91
 7623 0237 6C       		.sleb128 -20
 7624 0238 00000000 		.4byte	0
 7625 023c 00000000 		.4byte	0
 7626              	.LLST3:
 7627 0240 1E000000 		.4byte	.LVL6
 7628 0244 20000000 		.4byte	.LVL7
 7629 0248 0100     		.2byte	0x1
 7630 024a 53       		.byte	0x53
 7631 024b 20000000 		.4byte	.LVL7
 7632 024f 28000000 		.4byte	.LVL9
 7633 0253 0200     		.2byte	0x2
 7634 0255 7D       		.byte	0x7d
 7635 0256 08       		.sleb128 8
 7636 0257 28000000 		.4byte	.LVL9
 7637 025b 34000000 		.4byte	.LFE184
 7638 025f 0200     		.2byte	0x2
 7639 0261 91       		.byte	0x91
 7640 0262 68       		.sleb128 -24
 7641 0263 00000000 		.4byte	0
 7642 0267 00000000 		.4byte	0
 7643              	.LLST10:
 7644 026b 24010000 		.4byte	.LVL44
 7645 026f 26010000 		.4byte	.LVL45
 7646 0273 0200     		.2byte	0x2
 7647 0275 30       		.byte	0x30
 7648 0276 9F       		.byte	0x9f
 7649 0277 26010000 		.4byte	.LVL45
 7650 027b 2E010000 		.4byte	.LVL47
 7651 027f 0100     		.2byte	0x1
 7652 0281 53       		.byte	0x53
 7653 0282 00000000 		.4byte	0
 7654 0286 00000000 		.4byte	0
 7655              	.LLST11:
 7656 028a 36010000 		.4byte	.LVL48
 7657 028e 38010000 		.4byte	.LVL49
 7658 0292 0200     		.2byte	0x2
 7659 0294 30       		.byte	0x30
 7660 0295 9F       		.byte	0x9f
 7661 0296 38010000 		.4byte	.LVL49
 7662 029a 3C010000 		.4byte	.LVL50
 7663 029e 0100     		.2byte	0x1
 7664 02a0 52       		.byte	0x52
 7665 02a1 00000000 		.4byte	0
 7666 02a5 00000000 		.4byte	0
 7667              	.LLST12:
 7668 02a9 44010000 		.4byte	.LVL53
 7669 02ad 46010000 		.4byte	.LVL54
ARM GAS  /var/folders/28/j9jfyj_n4wz3qtvnym210h2c0000gn/T//cc7mox5M.s 			page 136


 7670 02b1 0200     		.2byte	0x2
 7671 02b3 30       		.byte	0x30
 7672 02b4 9F       		.byte	0x9f
 7673 02b5 46010000 		.4byte	.LVL54
 7674 02b9 52010000 		.4byte	.LVL56
 7675 02bd 0100     		.2byte	0x1
 7676 02bf 51       		.byte	0x51
 7677 02c0 00000000 		.4byte	0
 7678 02c4 00000000 		.4byte	0
 7679              	.LLST13:
 7680 02c8 52010000 		.4byte	.LVL56
 7681 02cc 54010000 		.4byte	.LVL57
 7682 02d0 0200     		.2byte	0x2
 7683 02d2 30       		.byte	0x30
 7684 02d3 9F       		.byte	0x9f
 7685 02d4 54010000 		.4byte	.LVL57
 7686 02d8 60010000 		.4byte	.LVL60
 7687 02dc 0100     		.2byte	0x1
 7688 02de 51       		.byte	0x51
 7689 02df 00000000 		.4byte	0
 7690 02e3 00000000 		.4byte	0
 7691              	.LLST14:
 7692 02e7 60010000 		.4byte	.LVL60
 7693 02eb 62010000 		.4byte	.LVL61
 7694 02ef 0200     		.2byte	0x2
 7695 02f1 30       		.byte	0x30
 7696 02f2 9F       		.byte	0x9f
 7697 02f3 62010000 		.4byte	.LVL61
 7698 02f7 66010000 		.4byte	.LVL62
 7699 02fb 0100     		.2byte	0x1
 7700 02fd 51       		.byte	0x51
 7701 02fe 00000000 		.4byte	0
 7702 0302 00000000 		.4byte	0
 7703              	.LLST15:
 7704 0306 78010000 		.4byte	.LVL65
 7705 030a 7A010000 		.4byte	.LVL66
 7706 030e 0200     		.2byte	0x2
 7707 0310 30       		.byte	0x30
 7708 0311 9F       		.byte	0x9f
 7709 0312 7A010000 		.4byte	.LVL66
 7710 0316 7E010000 		.4byte	.LVL67
 7711 031a 0100     		.2byte	0x1
 7712 031c 52       		.byte	0x52
 7713 031d 00000000 		.4byte	0
 7714 0321 00000000 		.4byte	0
 7715              	.LLST16:
 7716 0325 A0010000 		.4byte	.LVL71
 7717 0329 C4010000 		.4byte	.LVL79
 7718 032d 0100     		.2byte	0x1
 7719 032f 50       		.byte	0x50
 7720 0330 C4010000 		.4byte	.LVL79
 7721 0334 E0010000 		.4byte	.LFE185
 7722 0338 0100     		.2byte	0x1
 7723 033a 50       		.byte	0x50
 7724 033b 00000000 		.4byte	0
 7725 033f 00000000 		.4byte	0
 7726              	.LLST17:
ARM GAS  /var/folders/28/j9jfyj_n4wz3qtvnym210h2c0000gn/T//cc7mox5M.s 			page 137


 7727 0343 A0010000 		.4byte	.LVL71
 7728 0347 AE010000 		.4byte	.LVL73
 7729 034b 0100     		.2byte	0x1
 7730 034d 51       		.byte	0x51
 7731 034e AE010000 		.4byte	.LVL73
 7732 0352 B2010000 		.4byte	.LVL74
 7733 0356 0200     		.2byte	0x2
 7734 0358 91       		.byte	0x91
 7735 0359 74       		.sleb128 -12
 7736 035a B2010000 		.4byte	.LVL74
 7737 035e E0010000 		.4byte	.LFE185
 7738 0362 0400     		.2byte	0x4
 7739 0364 F3       		.byte	0xf3
 7740 0365 01       		.uleb128 0x1
 7741 0366 51       		.byte	0x51
 7742 0367 9F       		.byte	0x9f
 7743 0368 00000000 		.4byte	0
 7744 036c 00000000 		.4byte	0
 7745              	.LLST18:
 7746 0370 A0010000 		.4byte	.LVL71
 7747 0374 BE010000 		.4byte	.LVL78
 7748 0378 0100     		.2byte	0x1
 7749 037a 52       		.byte	0x52
 7750 037b BE010000 		.4byte	.LVL78
 7751 037f CC010000 		.4byte	.LVL80
 7752 0383 0300     		.2byte	0x3
 7753 0385 72       		.byte	0x72
 7754 0386 7F       		.sleb128 -1
 7755 0387 9F       		.byte	0x9f
 7756 0388 CC010000 		.4byte	.LVL80
 7757 038c E0010000 		.4byte	.LFE185
 7758 0390 0100     		.2byte	0x1
 7759 0392 52       		.byte	0x52
 7760 0393 00000000 		.4byte	0
 7761 0397 00000000 		.4byte	0
 7762              	.LLST19:
 7763 039b B4010000 		.4byte	.LVL75
 7764 039f B6010000 		.4byte	.LVL76
 7765 03a3 0200     		.2byte	0x2
 7766 03a5 30       		.byte	0x30
 7767 03a6 9F       		.byte	0x9f
 7768 03a7 B6010000 		.4byte	.LVL76
 7769 03ab B8010000 		.4byte	.LVL77
 7770 03af 0100     		.2byte	0x1
 7771 03b1 53       		.byte	0x53
 7772 03b2 00000000 		.4byte	0
 7773 03b6 00000000 		.4byte	0
 7774              	.LLST20:
 7775 03ba E0010000 		.4byte	.LVL81
 7776 03be 00020000 		.4byte	.LVL87
 7777 03c2 0100     		.2byte	0x1
 7778 03c4 50       		.byte	0x50
 7779 03c5 00020000 		.4byte	.LVL87
 7780 03c9 14020000 		.4byte	.LFE186
 7781 03cd 0100     		.2byte	0x1
 7782 03cf 50       		.byte	0x50
 7783 03d0 00000000 		.4byte	0
ARM GAS  /var/folders/28/j9jfyj_n4wz3qtvnym210h2c0000gn/T//cc7mox5M.s 			page 138


 7784 03d4 00000000 		.4byte	0
 7785              	.LLST21:
 7786 03d8 E0010000 		.4byte	.LVL81
 7787 03dc F0010000 		.4byte	.LVL85
 7788 03e0 0100     		.2byte	0x1
 7789 03e2 51       		.byte	0x51
 7790 03e3 F0010000 		.4byte	.LVL85
 7791 03e7 14020000 		.4byte	.LFE186
 7792 03eb 0400     		.2byte	0x4
 7793 03ed F3       		.byte	0xf3
 7794 03ee 01       		.uleb128 0x1
 7795 03ef 51       		.byte	0x51
 7796 03f0 9F       		.byte	0x9f
 7797 03f1 00000000 		.4byte	0
 7798 03f5 00000000 		.4byte	0
 7799              	.LLST22:
 7800 03f9 E0010000 		.4byte	.LVL81
 7801 03fd F0010000 		.4byte	.LVL85
 7802 0401 0100     		.2byte	0x1
 7803 0403 52       		.byte	0x52
 7804 0404 F0010000 		.4byte	.LVL85
 7805 0408 F8010000 		.4byte	.LVL86
 7806 040c 0300     		.2byte	0x3
 7807 040e 72       		.byte	0x72
 7808 040f 7F       		.sleb128 -1
 7809 0410 9F       		.byte	0x9f
 7810 0411 F8010000 		.4byte	.LVL86
 7811 0415 14020000 		.4byte	.LFE186
 7812 0419 0100     		.2byte	0x1
 7813 041b 52       		.byte	0x52
 7814 041c 00000000 		.4byte	0
 7815 0420 00000000 		.4byte	0
 7816              	.LLST23:
 7817 0424 E8010000 		.4byte	.LVL82
 7818 0428 EA010000 		.4byte	.LVL83
 7819 042c 0200     		.2byte	0x2
 7820 042e 30       		.byte	0x30
 7821 042f 9F       		.byte	0x9f
 7822 0430 EA010000 		.4byte	.LVL83
 7823 0434 EC010000 		.4byte	.LVL84
 7824 0438 0100     		.2byte	0x1
 7825 043a 53       		.byte	0x53
 7826 043b 00000000 		.4byte	0
 7827 043f 00000000 		.4byte	0
 7828              	.LLST24:
 7829 0443 20020000 		.4byte	.LVL88
 7830 0447 30020000 		.4byte	.LVL89
 7831 044b 0100     		.2byte	0x1
 7832 044d 50       		.byte	0x50
 7833 044e 30020000 		.4byte	.LVL89
 7834 0452 40020000 		.4byte	.LVL90
 7835 0456 0400     		.2byte	0x4
 7836 0458 F3       		.byte	0xf3
 7837 0459 01       		.uleb128 0x1
 7838 045a 50       		.byte	0x50
 7839 045b 9F       		.byte	0x9f
 7840 045c 40020000 		.4byte	.LVL90
ARM GAS  /var/folders/28/j9jfyj_n4wz3qtvnym210h2c0000gn/T//cc7mox5M.s 			page 139


 7841 0460 48020000 		.4byte	.LFE187
 7842 0464 0100     		.2byte	0x1
 7843 0466 50       		.byte	0x50
 7844 0467 00000000 		.4byte	0
 7845 046b 00000000 		.4byte	0
 7846              	.LLST25:
 7847 046f 50020000 		.4byte	.LVL91
 7848 0473 1E030000 		.4byte	.LVL97
 7849 0477 0100     		.2byte	0x1
 7850 0479 50       		.byte	0x50
 7851 047a 1E030000 		.4byte	.LVL97
 7852 047e 46030000 		.4byte	.LFE188
 7853 0482 0400     		.2byte	0x4
 7854 0484 F3       		.byte	0xf3
 7855 0485 01       		.uleb128 0x1
 7856 0486 50       		.byte	0x50
 7857 0487 9F       		.byte	0x9f
 7858 0488 00000000 		.4byte	0
 7859 048c 00000000 		.4byte	0
 7860              	.LLST26:
 7861 0490 50020000 		.4byte	.LVL91
 7862 0494 AE020000 		.4byte	.LVL92
 7863 0498 0200     		.2byte	0x2
 7864 049a 30       		.byte	0x30
 7865 049b 9F       		.byte	0x9f
 7866 049c E4020000 		.4byte	.LVL93
 7867 04a0 FC020000 		.4byte	.LVL94
 7868 04a4 0200     		.2byte	0x2
 7869 04a6 30       		.byte	0x30
 7870 04a7 9F       		.byte	0x9f
 7871 04a8 FC020000 		.4byte	.LVL94
 7872 04ac 12030000 		.4byte	.LVL95
 7873 04b0 0900     		.2byte	0x9
 7874 04b2 72       		.byte	0x72
 7875 04b3 00       		.sleb128 0
 7876 04b4 11       		.byte	0x11
 7877 04b5 FFFFBF78 		.sleb128 -15728641
 7878 04b9 1A       		.byte	0x1a
 7879 04ba 9F       		.byte	0x9f
 7880 04bb 12030000 		.4byte	.LVL95
 7881 04bf 18030000 		.4byte	.LVL96
 7882 04c3 0100     		.2byte	0x1
 7883 04c5 52       		.byte	0x52
 7884 04c6 00000000 		.4byte	0
 7885 04ca 00000000 		.4byte	0
 7886              	.LLST27:
 7887 04ce B0030000 		.4byte	.LVL99
 7888 04d2 B2030000 		.4byte	.LVL100
 7889 04d6 0100     		.2byte	0x1
 7890 04d8 50       		.byte	0x50
 7891 04d9 B2030000 		.4byte	.LVL100
 7892 04dd D0030000 		.4byte	.LFE190
 7893 04e1 0400     		.2byte	0x4
 7894 04e3 F3       		.byte	0xf3
 7895 04e4 01       		.uleb128 0x1
 7896 04e5 50       		.byte	0x50
 7897 04e6 9F       		.byte	0x9f
ARM GAS  /var/folders/28/j9jfyj_n4wz3qtvnym210h2c0000gn/T//cc7mox5M.s 			page 140


 7898 04e7 00000000 		.4byte	0
 7899 04eb 00000000 		.4byte	0
 7900              	.LLST28:
 7901 04ef D0030000 		.4byte	.LVL101
 7902 04f3 DE030000 		.4byte	.LVL102
 7903 04f7 0100     		.2byte	0x1
 7904 04f9 50       		.byte	0x50
 7905 04fa DE030000 		.4byte	.LVL102
 7906 04fe F4030000 		.4byte	.LFE191
 7907 0502 0400     		.2byte	0x4
 7908 0504 F3       		.byte	0xf3
 7909 0505 01       		.uleb128 0x1
 7910 0506 50       		.byte	0x50
 7911 0507 9F       		.byte	0x9f
 7912 0508 00000000 		.4byte	0
 7913 050c 00000000 		.4byte	0
 7914              	.LLST29:
 7915 0510 00040000 		.4byte	.LVL103
 7916 0514 40040000 		.4byte	.LVL104
 7917 0518 0100     		.2byte	0x1
 7918 051a 50       		.byte	0x50
 7919 051b 40040000 		.4byte	.LVL104
 7920 051f 80040000 		.4byte	.LFE192
 7921 0523 0400     		.2byte	0x4
 7922 0525 F3       		.byte	0xf3
 7923 0526 01       		.uleb128 0x1
 7924 0527 50       		.byte	0x50
 7925 0528 9F       		.byte	0x9f
 7926 0529 00000000 		.4byte	0
 7927 052d 00000000 		.4byte	0
 7928              	.LLST30:
 7929 0531 00040000 		.4byte	.LVL103
 7930 0535 66040000 		.4byte	.LVL105
 7931 0539 0200     		.2byte	0x2
 7932 053b 30       		.byte	0x30
 7933 053c 9F       		.byte	0x9f
 7934 053d 66040000 		.4byte	.LVL105
 7935 0541 76040000 		.4byte	.LVL107
 7936 0545 0100     		.2byte	0x1
 7937 0547 56       		.byte	0x56
 7938 0548 00000000 		.4byte	0
 7939 054c 00000000 		.4byte	0
 7940              	.LLST31:
 7941 0550 00040000 		.4byte	.LVL103
 7942 0554 6A040000 		.4byte	.LVL106
 7943 0558 0200     		.2byte	0x2
 7944 055a 30       		.byte	0x30
 7945 055b 9F       		.byte	0x9f
 7946 055c 6A040000 		.4byte	.LVL106
 7947 0560 80040000 		.4byte	.LFE192
 7948 0564 0100     		.2byte	0x1
 7949 0566 51       		.byte	0x51
 7950 0567 00000000 		.4byte	0
 7951 056b 00000000 		.4byte	0
 7952              	.LLST32:
 7953 056f 00040000 		.4byte	.LVL103
 7954 0573 6A040000 		.4byte	.LVL106
ARM GAS  /var/folders/28/j9jfyj_n4wz3qtvnym210h2c0000gn/T//cc7mox5M.s 			page 141


 7955 0577 0200     		.2byte	0x2
 7956 0579 30       		.byte	0x30
 7957 057a 9F       		.byte	0x9f
 7958 057b 6A040000 		.4byte	.LVL106
 7959 057f 76040000 		.4byte	.LVL107
 7960 0583 0100     		.2byte	0x1
 7961 0585 55       		.byte	0x55
 7962 0586 76040000 		.4byte	.LVL107
 7963 058a 80040000 		.4byte	.LFE192
 7964 058e 0200     		.2byte	0x2
 7965 0590 73       		.byte	0x73
 7966 0591 0C       		.sleb128 12
 7967 0592 00000000 		.4byte	0
 7968 0596 00000000 		.4byte	0
 7969              	.LLST33:
 7970 059a B0040000 		.4byte	.LVL109
 7971 059e D0040000 		.4byte	.LVL110
 7972 05a2 0100     		.2byte	0x1
 7973 05a4 51       		.byte	0x51
 7974 05a5 D0040000 		.4byte	.LVL110
 7975 05a9 E4040000 		.4byte	.LFE194
 7976 05ad 0400     		.2byte	0x4
 7977 05af F3       		.byte	0xf3
 7978 05b0 01       		.uleb128 0x1
 7979 05b1 51       		.byte	0x51
 7980 05b2 9F       		.byte	0x9f
 7981 05b3 00000000 		.4byte	0
 7982 05b7 00000000 		.4byte	0
 7983              	.LLST34:
 7984 05bb F0040000 		.4byte	.LVL111
 7985 05bf 10050000 		.4byte	.LVL112
 7986 05c3 0100     		.2byte	0x1
 7987 05c5 51       		.byte	0x51
 7988 05c6 10050000 		.4byte	.LVL112
 7989 05ca 24050000 		.4byte	.LFE195
 7990 05ce 0400     		.2byte	0x4
 7991 05d0 F3       		.byte	0xf3
 7992 05d1 01       		.uleb128 0x1
 7993 05d2 51       		.byte	0x51
 7994 05d3 9F       		.byte	0x9f
 7995 05d4 00000000 		.4byte	0
 7996 05d8 00000000 		.4byte	0
 7997              	.LLST35:
 7998 05dc 30050000 		.4byte	.LVL113
 7999 05e0 3A050000 		.4byte	.LVL114
 8000 05e4 0100     		.2byte	0x1
 8001 05e6 50       		.byte	0x50
 8002 05e7 3A050000 		.4byte	.LVL114
 8003 05eb 44050000 		.4byte	.LFE196
 8004 05ef 0400     		.2byte	0x4
 8005 05f1 F3       		.byte	0xf3
 8006 05f2 01       		.uleb128 0x1
 8007 05f3 50       		.byte	0x50
 8008 05f4 9F       		.byte	0x9f
 8009 05f5 00000000 		.4byte	0
 8010 05f9 00000000 		.4byte	0
 8011              	.LLST36:
ARM GAS  /var/folders/28/j9jfyj_n4wz3qtvnym210h2c0000gn/T//cc7mox5M.s 			page 142


 8012 05fd 30050000 		.4byte	.LVL113
 8013 0601 3A050000 		.4byte	.LVL114
 8014 0605 0200     		.2byte	0x2
 8015 0607 30       		.byte	0x30
 8016 0608 9F       		.byte	0x9f
 8017 0609 3A050000 		.4byte	.LVL114
 8018 060d 44050000 		.4byte	.LFE196
 8019 0611 0100     		.2byte	0x1
 8020 0613 50       		.byte	0x50
 8021 0614 00000000 		.4byte	0
 8022 0618 00000000 		.4byte	0
 8023              	.LLST37:
 8024 061c 70050000 		.4byte	.LVL115
 8025 0620 88050000 		.4byte	.LVL116
 8026 0624 0100     		.2byte	0x1
 8027 0626 50       		.byte	0x50
 8028 0627 88050000 		.4byte	.LVL116
 8029 062b D8050000 		.4byte	.LFE198
 8030 062f 0400     		.2byte	0x4
 8031 0631 F3       		.byte	0xf3
 8032 0632 01       		.uleb128 0x1
 8033 0633 50       		.byte	0x50
 8034 0634 9F       		.byte	0x9f
 8035 0635 00000000 		.4byte	0
 8036 0639 00000000 		.4byte	0
 8037              	.LLST38:
 8038 063d 30060000 		.4byte	.LVL119
 8039 0641 34060000 		.4byte	.LVL120
 8040 0645 0100     		.2byte	0x1
 8041 0647 50       		.byte	0x50
 8042 0648 34060000 		.4byte	.LVL120
 8043 064c 5C060000 		.4byte	.LFE201
 8044 0650 0400     		.2byte	0x4
 8045 0652 F3       		.byte	0xf3
 8046 0653 01       		.uleb128 0x1
 8047 0654 50       		.byte	0x50
 8048 0655 9F       		.byte	0x9f
 8049 0656 00000000 		.4byte	0
 8050 065a 00000000 		.4byte	0
 8051              	.LLST39:
 8052 065e 60060000 		.4byte	.LVL121
 8053 0662 A2060000 		.4byte	.LVL123
 8054 0666 0100     		.2byte	0x1
 8055 0668 50       		.byte	0x50
 8056 0669 A2060000 		.4byte	.LVL123
 8057 066d D6060000 		.4byte	.LVL127
 8058 0671 0400     		.2byte	0x4
 8059 0673 F3       		.byte	0xf3
 8060 0674 01       		.uleb128 0x1
 8061 0675 50       		.byte	0x50
 8062 0676 9F       		.byte	0x9f
 8063 0677 D6060000 		.4byte	.LVL127
 8064 067b F2060000 		.4byte	.LVL131
 8065 067f 0100     		.2byte	0x1
 8066 0681 50       		.byte	0x50
 8067 0682 F2060000 		.4byte	.LVL131
 8068 0686 28070000 		.4byte	.LFE202
ARM GAS  /var/folders/28/j9jfyj_n4wz3qtvnym210h2c0000gn/T//cc7mox5M.s 			page 143


 8069 068a 0400     		.2byte	0x4
 8070 068c F3       		.byte	0xf3
 8071 068d 01       		.uleb128 0x1
 8072 068e 50       		.byte	0x50
 8073 068f 9F       		.byte	0x9f
 8074 0690 00000000 		.4byte	0
 8075 0694 00000000 		.4byte	0
 8076              	.LLST40:
 8077 0698 60060000 		.4byte	.LVL121
 8078 069c 92060000 		.4byte	.LVL122
 8079 06a0 0200     		.2byte	0x2
 8080 06a2 30       		.byte	0x30
 8081 06a3 9F       		.byte	0x9f
 8082 06a4 92060000 		.4byte	.LVL122
 8083 06a8 A6060000 		.4byte	.LVL124
 8084 06ac 0100     		.2byte	0x1
 8085 06ae 53       		.byte	0x53
 8086 06af A6060000 		.4byte	.LVL124
 8087 06b3 CE060000 		.4byte	.LVL126
 8088 06b7 0200     		.2byte	0x2
 8089 06b9 76       		.byte	0x76
 8090 06ba 00       		.sleb128 0
 8091 06bb D6060000 		.4byte	.LVL127
 8092 06bf EC060000 		.4byte	.LVL129
 8093 06c3 0100     		.2byte	0x1
 8094 06c5 53       		.byte	0x53
 8095 06c6 EC060000 		.4byte	.LVL129
 8096 06ca 06070000 		.4byte	.LVL132
 8097 06ce 0700     		.2byte	0x7
 8098 06d0 72       		.byte	0x72
 8099 06d1 00       		.sleb128 0
 8100 06d2 32       		.byte	0x32
 8101 06d3 24       		.byte	0x24
 8102 06d4 75       		.byte	0x75
 8103 06d5 00       		.sleb128 0
 8104 06d6 22       		.byte	0x22
 8105 06d7 06070000 		.4byte	.LVL132
 8106 06db 16070000 		.4byte	.LVL134
 8107 06df 0700     		.2byte	0x7
 8108 06e1 72       		.byte	0x72
 8109 06e2 7E       		.sleb128 -2
 8110 06e3 32       		.byte	0x32
 8111 06e4 24       		.byte	0x24
 8112 06e5 75       		.byte	0x75
 8113 06e6 00       		.sleb128 0
 8114 06e7 22       		.byte	0x22
 8115 06e8 00000000 		.4byte	0
 8116 06ec 00000000 		.4byte	0
 8117              	.LLST41:
 8118 06f0 60060000 		.4byte	.LVL121
 8119 06f4 CC060000 		.4byte	.LVL125
 8120 06f8 0200     		.2byte	0x2
 8121 06fa 30       		.byte	0x30
 8122 06fb 9F       		.byte	0x9f
 8123 06fc CC060000 		.4byte	.LVL125
 8124 0700 D6060000 		.4byte	.LVL127
 8125 0704 0100     		.2byte	0x1
ARM GAS  /var/folders/28/j9jfyj_n4wz3qtvnym210h2c0000gn/T//cc7mox5M.s 			page 144


 8126 0706 53       		.byte	0x53
 8127 0707 D6060000 		.4byte	.LVL127
 8128 070b 14070000 		.4byte	.LVL133
 8129 070f 0200     		.2byte	0x2
 8130 0711 30       		.byte	0x30
 8131 0712 9F       		.byte	0x9f
 8132 0713 14070000 		.4byte	.LVL133
 8133 0717 28070000 		.4byte	.LFE202
 8134 071b 0100     		.2byte	0x1
 8135 071d 53       		.byte	0x53
 8136 071e 00000000 		.4byte	0
 8137 0722 00000000 		.4byte	0
 8138              	.LLST42:
 8139 0726 60060000 		.4byte	.LVL121
 8140 072a E0060000 		.4byte	.LVL128
 8141 072e 0200     		.2byte	0x2
 8142 0730 30       		.byte	0x30
 8143 0731 9F       		.byte	0x9f
 8144 0732 E0060000 		.4byte	.LVL128
 8145 0736 F0060000 		.4byte	.LVL130
 8146 073a 0100     		.2byte	0x1
 8147 073c 51       		.byte	0x51
 8148 073d 00000000 		.4byte	0
 8149 0741 00000000 		.4byte	0
 8150              	.LLST43:
 8151 0745 60060000 		.4byte	.LVL121
 8152 0749 14070000 		.4byte	.LVL133
 8153 074d 0200     		.2byte	0x2
 8154 074f 30       		.byte	0x30
 8155 0750 9F       		.byte	0x9f
 8156 0751 14070000 		.4byte	.LVL133
 8157 0755 28070000 		.4byte	.LFE202
 8158 0759 0100     		.2byte	0x1
 8159 075b 50       		.byte	0x50
 8160 075c 00000000 		.4byte	0
 8161 0760 00000000 		.4byte	0
 8162              	.LLST44:
 8163 0764 80080000 		.4byte	.LVL145
 8164 0768 96080000 		.4byte	.LVL146
 8165 076c 0200     		.2byte	0x2
 8166 076e 30       		.byte	0x30
 8167 076f 9F       		.byte	0x9f
 8168 0770 96080000 		.4byte	.LVL146
 8169 0774 A0080000 		.4byte	.LFE204
 8170 0778 0100     		.2byte	0x1
 8171 077a 53       		.byte	0x53
 8172 077b 00000000 		.4byte	0
 8173 077f 00000000 		.4byte	0
 8174              	.LLST45:
 8175 0783 A0080000 		.4byte	.LVL147
 8176 0787 A6080000 		.4byte	.LVL148
 8177 078b 0100     		.2byte	0x1
 8178 078d 50       		.byte	0x50
 8179 078e A6080000 		.4byte	.LVL148
 8180 0792 AE080000 		.4byte	.LVL150
 8181 0796 0400     		.2byte	0x4
 8182 0798 F3       		.byte	0xf3
ARM GAS  /var/folders/28/j9jfyj_n4wz3qtvnym210h2c0000gn/T//cc7mox5M.s 			page 145


 8183 0799 01       		.uleb128 0x1
 8184 079a 50       		.byte	0x50
 8185 079b 9F       		.byte	0x9f
 8186 079c AE080000 		.4byte	.LVL150
 8187 07a0 B0080000 		.4byte	.LVL151
 8188 07a4 0100     		.2byte	0x1
 8189 07a6 50       		.byte	0x50
 8190 07a7 B0080000 		.4byte	.LVL151
 8191 07ab BC080000 		.4byte	.LFE205
 8192 07af 0400     		.2byte	0x4
 8193 07b1 F3       		.byte	0xf3
 8194 07b2 01       		.uleb128 0x1
 8195 07b3 50       		.byte	0x50
 8196 07b4 9F       		.byte	0x9f
 8197 07b5 00000000 		.4byte	0
 8198 07b9 00000000 		.4byte	0
 8199              	.LLST46:
 8200 07bd A0080000 		.4byte	.LVL147
 8201 07c1 AC080000 		.4byte	.LVL149
 8202 07c5 0200     		.2byte	0x2
 8203 07c7 30       		.byte	0x30
 8204 07c8 9F       		.byte	0x9f
 8205 07c9 AC080000 		.4byte	.LVL149
 8206 07cd AE080000 		.4byte	.LVL150
 8207 07d1 0100     		.2byte	0x1
 8208 07d3 50       		.byte	0x50
 8209 07d4 AE080000 		.4byte	.LVL150
 8210 07d8 B4080000 		.4byte	.LVL152
 8211 07dc 0200     		.2byte	0x2
 8212 07de 30       		.byte	0x30
 8213 07df 9F       		.byte	0x9f
 8214 07e0 B4080000 		.4byte	.LVL152
 8215 07e4 BC080000 		.4byte	.LFE205
 8216 07e8 0100     		.2byte	0x1
 8217 07ea 50       		.byte	0x50
 8218 07eb 00000000 		.4byte	0
 8219 07ef 00000000 		.4byte	0
 8220              	.LLST47:
 8221 07f3 C0080000 		.4byte	.LVL153
 8222 07f7 C8080000 		.4byte	.LVL154
 8223 07fb 0100     		.2byte	0x1
 8224 07fd 50       		.byte	0x50
 8225 07fe C8080000 		.4byte	.LVL154
 8226 0802 D0080000 		.4byte	.LFE206
 8227 0806 0400     		.2byte	0x4
 8228 0808 F3       		.byte	0xf3
 8229 0809 01       		.uleb128 0x1
 8230 080a 50       		.byte	0x50
 8231 080b 9F       		.byte	0x9f
 8232 080c 00000000 		.4byte	0
 8233 0810 00000000 		.4byte	0
 8234              	.LLST48:
 8235 0814 D0080000 		.4byte	.LVL155
 8236 0818 D8080000 		.4byte	.LVL156
 8237 081c 0100     		.2byte	0x1
 8238 081e 50       		.byte	0x50
 8239 081f D8080000 		.4byte	.LVL156
ARM GAS  /var/folders/28/j9jfyj_n4wz3qtvnym210h2c0000gn/T//cc7mox5M.s 			page 146


 8240 0823 E0080000 		.4byte	.LFE207
 8241 0827 0400     		.2byte	0x4
 8242 0829 F3       		.byte	0xf3
 8243 082a 01       		.uleb128 0x1
 8244 082b 50       		.byte	0x50
 8245 082c 9F       		.byte	0x9f
 8246 082d 00000000 		.4byte	0
 8247 0831 00000000 		.4byte	0
 8248              	.LLST49:
 8249 0835 E0080000 		.4byte	.LVL157
 8250 0839 E2080000 		.4byte	.LVL158
 8251 083d 0100     		.2byte	0x1
 8252 083f 50       		.byte	0x50
 8253 0840 E2080000 		.4byte	.LVL158
 8254 0844 06090000 		.4byte	.LFE208
 8255 0848 0400     		.2byte	0x4
 8256 084a F3       		.byte	0xf3
 8257 084b 01       		.uleb128 0x1
 8258 084c 50       		.byte	0x50
 8259 084d 9F       		.byte	0x9f
 8260 084e 00000000 		.4byte	0
 8261 0852 00000000 		.4byte	0
 8262              	.LLST50:
 8263 0856 10090000 		.4byte	.LVL159
 8264 085a 28090000 		.4byte	.LVL161
 8265 085e 0100     		.2byte	0x1
 8266 0860 51       		.byte	0x51
 8267 0861 28090000 		.4byte	.LVL161
 8268 0865 2C090000 		.4byte	.LVL162
 8269 0869 0400     		.2byte	0x4
 8270 086b F3       		.byte	0xf3
 8271 086c 01       		.uleb128 0x1
 8272 086d 51       		.byte	0x51
 8273 086e 9F       		.byte	0x9f
 8274 086f 2C090000 		.4byte	.LVL162
 8275 0873 44090000 		.4byte	.LVL164
 8276 0877 0100     		.2byte	0x1
 8277 0879 51       		.byte	0x51
 8278 087a 44090000 		.4byte	.LVL164
 8279 087e 48090000 		.4byte	.LVL165
 8280 0882 0400     		.2byte	0x4
 8281 0884 F3       		.byte	0xf3
 8282 0885 01       		.uleb128 0x1
 8283 0886 51       		.byte	0x51
 8284 0887 9F       		.byte	0x9f
 8285 0888 48090000 		.4byte	.LVL165
 8286 088c 50090000 		.4byte	.LVL167
 8287 0890 0100     		.2byte	0x1
 8288 0892 51       		.byte	0x51
 8289 0893 50090000 		.4byte	.LVL167
 8290 0897 54090000 		.4byte	.LVL168
 8291 089b 0400     		.2byte	0x4
 8292 089d F3       		.byte	0xf3
 8293 089e 01       		.uleb128 0x1
 8294 089f 51       		.byte	0x51
 8295 08a0 9F       		.byte	0x9f
 8296 08a1 54090000 		.4byte	.LVL168
ARM GAS  /var/folders/28/j9jfyj_n4wz3qtvnym210h2c0000gn/T//cc7mox5M.s 			page 147


 8297 08a5 5A090000 		.4byte	.LVL170
 8298 08a9 0100     		.2byte	0x1
 8299 08ab 51       		.byte	0x51
 8300 08ac 5A090000 		.4byte	.LVL170
 8301 08b0 5E090000 		.4byte	.LVL171
 8302 08b4 0400     		.2byte	0x4
 8303 08b6 F3       		.byte	0xf3
 8304 08b7 01       		.uleb128 0x1
 8305 08b8 51       		.byte	0x51
 8306 08b9 9F       		.byte	0x9f
 8307 08ba 5E090000 		.4byte	.LVL171
 8308 08be 64090000 		.4byte	.LVL173
 8309 08c2 0100     		.2byte	0x1
 8310 08c4 51       		.byte	0x51
 8311 08c5 64090000 		.4byte	.LVL173
 8312 08c9 68090000 		.4byte	.LVL174
 8313 08cd 0400     		.2byte	0x4
 8314 08cf F3       		.byte	0xf3
 8315 08d0 01       		.uleb128 0x1
 8316 08d1 51       		.byte	0x51
 8317 08d2 9F       		.byte	0x9f
 8318 08d3 68090000 		.4byte	.LVL174
 8319 08d7 70090000 		.4byte	.LVL176
 8320 08db 0100     		.2byte	0x1
 8321 08dd 51       		.byte	0x51
 8322 08de 70090000 		.4byte	.LVL176
 8323 08e2 74090000 		.4byte	.LVL177
 8324 08e6 0400     		.2byte	0x4
 8325 08e8 F3       		.byte	0xf3
 8326 08e9 01       		.uleb128 0x1
 8327 08ea 51       		.byte	0x51
 8328 08eb 9F       		.byte	0x9f
 8329 08ec 74090000 		.4byte	.LVL177
 8330 08f0 7A090000 		.4byte	.LVL179
 8331 08f4 0100     		.2byte	0x1
 8332 08f6 51       		.byte	0x51
 8333 08f7 7A090000 		.4byte	.LVL179
 8334 08fb 7E090000 		.4byte	.LVL180
 8335 08ff 0400     		.2byte	0x4
 8336 0901 F3       		.byte	0xf3
 8337 0902 01       		.uleb128 0x1
 8338 0903 51       		.byte	0x51
 8339 0904 9F       		.byte	0x9f
 8340 0905 7E090000 		.4byte	.LVL180
 8341 0909 86090000 		.4byte	.LVL182
 8342 090d 0100     		.2byte	0x1
 8343 090f 51       		.byte	0x51
 8344 0910 86090000 		.4byte	.LVL182
 8345 0914 9C090000 		.4byte	.LFE209
 8346 0918 0400     		.2byte	0x4
 8347 091a F3       		.byte	0xf3
 8348 091b 01       		.uleb128 0x1
 8349 091c 51       		.byte	0x51
 8350 091d 9F       		.byte	0x9f
 8351 091e 00000000 		.4byte	0
 8352 0922 00000000 		.4byte	0
 8353              	.LLST51:
ARM GAS  /var/folders/28/j9jfyj_n4wz3qtvnym210h2c0000gn/T//cc7mox5M.s 			page 148


 8354 0926 10090000 		.4byte	.LVL159
 8355 092a 24090000 		.4byte	.LVL160
 8356 092e 0100     		.2byte	0x1
 8357 0930 52       		.byte	0x52
 8358 0931 24090000 		.4byte	.LVL160
 8359 0935 2C090000 		.4byte	.LVL162
 8360 0939 0400     		.2byte	0x4
 8361 093b F3       		.byte	0xf3
 8362 093c 01       		.uleb128 0x1
 8363 093d 52       		.byte	0x52
 8364 093e 9F       		.byte	0x9f
 8365 093f 2C090000 		.4byte	.LVL162
 8366 0943 3E090000 		.4byte	.LVL163
 8367 0947 0100     		.2byte	0x1
 8368 0949 52       		.byte	0x52
 8369 094a 3E090000 		.4byte	.LVL163
 8370 094e 48090000 		.4byte	.LVL165
 8371 0952 0400     		.2byte	0x4
 8372 0954 F3       		.byte	0xf3
 8373 0955 01       		.uleb128 0x1
 8374 0956 52       		.byte	0x52
 8375 0957 9F       		.byte	0x9f
 8376 0958 48090000 		.4byte	.LVL165
 8377 095c 4A090000 		.4byte	.LVL166
 8378 0960 0100     		.2byte	0x1
 8379 0962 52       		.byte	0x52
 8380 0963 4A090000 		.4byte	.LVL166
 8381 0967 54090000 		.4byte	.LVL168
 8382 096b 0400     		.2byte	0x4
 8383 096d F3       		.byte	0xf3
 8384 096e 01       		.uleb128 0x1
 8385 096f 52       		.byte	0x52
 8386 0970 9F       		.byte	0x9f
 8387 0971 54090000 		.4byte	.LVL168
 8388 0975 56090000 		.4byte	.LVL169
 8389 0979 0100     		.2byte	0x1
 8390 097b 52       		.byte	0x52
 8391 097c 56090000 		.4byte	.LVL169
 8392 0980 5E090000 		.4byte	.LVL171
 8393 0984 0400     		.2byte	0x4
 8394 0986 F3       		.byte	0xf3
 8395 0987 01       		.uleb128 0x1
 8396 0988 52       		.byte	0x52
 8397 0989 9F       		.byte	0x9f
 8398 098a 5E090000 		.4byte	.LVL171
 8399 098e 60090000 		.4byte	.LVL172
 8400 0992 0100     		.2byte	0x1
 8401 0994 52       		.byte	0x52
 8402 0995 60090000 		.4byte	.LVL172
 8403 0999 68090000 		.4byte	.LVL174
 8404 099d 0400     		.2byte	0x4
 8405 099f F3       		.byte	0xf3
 8406 09a0 01       		.uleb128 0x1
 8407 09a1 52       		.byte	0x52
 8408 09a2 9F       		.byte	0x9f
 8409 09a3 68090000 		.4byte	.LVL174
 8410 09a7 6A090000 		.4byte	.LVL175
ARM GAS  /var/folders/28/j9jfyj_n4wz3qtvnym210h2c0000gn/T//cc7mox5M.s 			page 149


 8411 09ab 0100     		.2byte	0x1
 8412 09ad 52       		.byte	0x52
 8413 09ae 6A090000 		.4byte	.LVL175
 8414 09b2 74090000 		.4byte	.LVL177
 8415 09b6 0400     		.2byte	0x4
 8416 09b8 F3       		.byte	0xf3
 8417 09b9 01       		.uleb128 0x1
 8418 09ba 52       		.byte	0x52
 8419 09bb 9F       		.byte	0x9f
 8420 09bc 74090000 		.4byte	.LVL177
 8421 09c0 76090000 		.4byte	.LVL178
 8422 09c4 0100     		.2byte	0x1
 8423 09c6 52       		.byte	0x52
 8424 09c7 76090000 		.4byte	.LVL178
 8425 09cb 7E090000 		.4byte	.LVL180
 8426 09cf 0400     		.2byte	0x4
 8427 09d1 F3       		.byte	0xf3
 8428 09d2 01       		.uleb128 0x1
 8429 09d3 52       		.byte	0x52
 8430 09d4 9F       		.byte	0x9f
 8431 09d5 7E090000 		.4byte	.LVL180
 8432 09d9 80090000 		.4byte	.LVL181
 8433 09dd 0100     		.2byte	0x1
 8434 09df 52       		.byte	0x52
 8435 09e0 80090000 		.4byte	.LVL181
 8436 09e4 9C090000 		.4byte	.LFE209
 8437 09e8 0400     		.2byte	0x4
 8438 09ea F3       		.byte	0xf3
 8439 09eb 01       		.uleb128 0x1
 8440 09ec 52       		.byte	0x52
 8441 09ed 9F       		.byte	0x9f
 8442 09ee 00000000 		.4byte	0
 8443 09f2 00000000 		.4byte	0
 8444              	.LLST52:
 8445 09f6 A0090000 		.4byte	.LVL183
 8446 09fa BC090000 		.4byte	.LVL186
 8447 09fe 0100     		.2byte	0x1
 8448 0a00 50       		.byte	0x50
 8449 0a01 BC090000 		.4byte	.LVL186
 8450 0a05 C6090000 		.4byte	.LVL187
 8451 0a09 0400     		.2byte	0x4
 8452 0a0b F3       		.byte	0xf3
 8453 0a0c 01       		.uleb128 0x1
 8454 0a0d 50       		.byte	0x50
 8455 0a0e 9F       		.byte	0x9f
 8456 0a0f C6090000 		.4byte	.LVL187
 8457 0a13 E4090000 		.4byte	.LFE210
 8458 0a17 0100     		.2byte	0x1
 8459 0a19 50       		.byte	0x50
 8460 0a1a 00000000 		.4byte	0
 8461 0a1e 00000000 		.4byte	0
 8462              	.LLST53:
 8463 0a22 A0090000 		.4byte	.LVL183
 8464 0a26 B8090000 		.4byte	.LVL185
 8465 0a2a 0200     		.2byte	0x2
 8466 0a2c 30       		.byte	0x30
 8467 0a2d 9F       		.byte	0x9f
ARM GAS  /var/folders/28/j9jfyj_n4wz3qtvnym210h2c0000gn/T//cc7mox5M.s 			page 150


 8468 0a2e B8090000 		.4byte	.LVL185
 8469 0a32 C6090000 		.4byte	.LVL187
 8470 0a36 0900     		.2byte	0x9
 8471 0a38 71       		.byte	0x71
 8472 0a39 00       		.sleb128 0
 8473 0a3a 73       		.byte	0x73
 8474 0a3b 00       		.sleb128 0
 8475 0a3c 71       		.byte	0x71
 8476 0a3d 00       		.sleb128 0
 8477 0a3e 1A       		.byte	0x1a
 8478 0a3f 29       		.byte	0x29
 8479 0a40 9F       		.byte	0x9f
 8480 0a41 C6090000 		.4byte	.LVL187
 8481 0a45 E4090000 		.4byte	.LFE210
 8482 0a49 0200     		.2byte	0x2
 8483 0a4b 30       		.byte	0x30
 8484 0a4c 9F       		.byte	0x9f
 8485 0a4d 00000000 		.4byte	0
 8486 0a51 00000000 		.4byte	0
 8487              	.LLST54:
 8488 0a55 A0090000 		.4byte	.LVL183
 8489 0a59 B6090000 		.4byte	.LVL184
 8490 0a5d 0200     		.2byte	0x2
 8491 0a5f 30       		.byte	0x30
 8492 0a60 9F       		.byte	0x9f
 8493 0a61 B8090000 		.4byte	.LVL185
 8494 0a65 C6090000 		.4byte	.LVL187
 8495 0a69 0100     		.2byte	0x1
 8496 0a6b 53       		.byte	0x53
 8497 0a6c C6090000 		.4byte	.LVL187
 8498 0a70 CA090000 		.4byte	.LVL188
 8499 0a74 0200     		.2byte	0x2
 8500 0a76 30       		.byte	0x30
 8501 0a77 9F       		.byte	0x9f
 8502 0a78 CA090000 		.4byte	.LVL188
 8503 0a7c CC090000 		.4byte	.LVL189
 8504 0a80 0100     		.2byte	0x1
 8505 0a82 53       		.byte	0x53
 8506 0a83 CC090000 		.4byte	.LVL189
 8507 0a87 D0090000 		.4byte	.LVL190
 8508 0a8b 0200     		.2byte	0x2
 8509 0a8d 30       		.byte	0x30
 8510 0a8e 9F       		.byte	0x9f
 8511 0a8f D0090000 		.4byte	.LVL190
 8512 0a93 E4090000 		.4byte	.LFE210
 8513 0a97 0100     		.2byte	0x1
 8514 0a99 53       		.byte	0x53
 8515 0a9a 00000000 		.4byte	0
 8516 0a9e 00000000 		.4byte	0
 8517              	.LLST55:
 8518 0aa2 F0090000 		.4byte	.LVL191
 8519 0aa6 080A0000 		.4byte	.LVL192
 8520 0aaa 0100     		.2byte	0x1
 8521 0aac 51       		.byte	0x51
 8522 0aad 080A0000 		.4byte	.LVL192
 8523 0ab1 0C0A0000 		.4byte	.LVL193
 8524 0ab5 0400     		.2byte	0x4
ARM GAS  /var/folders/28/j9jfyj_n4wz3qtvnym210h2c0000gn/T//cc7mox5M.s 			page 151


 8525 0ab7 F3       		.byte	0xf3
 8526 0ab8 01       		.uleb128 0x1
 8527 0ab9 51       		.byte	0x51
 8528 0aba 9F       		.byte	0x9f
 8529 0abb 0C0A0000 		.4byte	.LVL193
 8530 0abf 140A0000 		.4byte	.LVL194
 8531 0ac3 0100     		.2byte	0x1
 8532 0ac5 51       		.byte	0x51
 8533 0ac6 140A0000 		.4byte	.LVL194
 8534 0aca 180A0000 		.4byte	.LVL195
 8535 0ace 0400     		.2byte	0x4
 8536 0ad0 F3       		.byte	0xf3
 8537 0ad1 01       		.uleb128 0x1
 8538 0ad2 51       		.byte	0x51
 8539 0ad3 9F       		.byte	0x9f
 8540 0ad4 180A0000 		.4byte	.LVL195
 8541 0ad8 200A0000 		.4byte	.LVL196
 8542 0adc 0100     		.2byte	0x1
 8543 0ade 51       		.byte	0x51
 8544 0adf 200A0000 		.4byte	.LVL196
 8545 0ae3 240A0000 		.4byte	.LVL197
 8546 0ae7 0400     		.2byte	0x4
 8547 0ae9 F3       		.byte	0xf3
 8548 0aea 01       		.uleb128 0x1
 8549 0aeb 51       		.byte	0x51
 8550 0aec 9F       		.byte	0x9f
 8551 0aed 240A0000 		.4byte	.LVL197
 8552 0af1 2C0A0000 		.4byte	.LVL198
 8553 0af5 0100     		.2byte	0x1
 8554 0af7 51       		.byte	0x51
 8555 0af8 2C0A0000 		.4byte	.LVL198
 8556 0afc 400A0000 		.4byte	.LFE211
 8557 0b00 0400     		.2byte	0x4
 8558 0b02 F3       		.byte	0xf3
 8559 0b03 01       		.uleb128 0x1
 8560 0b04 51       		.byte	0x51
 8561 0b05 9F       		.byte	0x9f
 8562 0b06 00000000 		.4byte	0
 8563 0b0a 00000000 		.4byte	0
 8564              	.LLST56:
 8565 0b0e 400A0000 		.4byte	.LVL199
 8566 0b12 640A0000 		.4byte	.LVL203
 8567 0b16 0100     		.2byte	0x1
 8568 0b18 50       		.byte	0x50
 8569 0b19 640A0000 		.4byte	.LVL203
 8570 0b1d 720A0000 		.4byte	.LVL205
 8571 0b21 0400     		.2byte	0x4
 8572 0b23 F3       		.byte	0xf3
 8573 0b24 01       		.uleb128 0x1
 8574 0b25 50       		.byte	0x50
 8575 0b26 9F       		.byte	0x9f
 8576 0b27 720A0000 		.4byte	.LVL205
 8577 0b2b 7E0A0000 		.4byte	.LVL208
 8578 0b2f 0100     		.2byte	0x1
 8579 0b31 50       		.byte	0x50
 8580 0b32 7E0A0000 		.4byte	.LVL208
 8581 0b36 800A0000 		.4byte	.LVL209
ARM GAS  /var/folders/28/j9jfyj_n4wz3qtvnym210h2c0000gn/T//cc7mox5M.s 			page 152


 8582 0b3a 0400     		.2byte	0x4
 8583 0b3c F3       		.byte	0xf3
 8584 0b3d 01       		.uleb128 0x1
 8585 0b3e 50       		.byte	0x50
 8586 0b3f 9F       		.byte	0x9f
 8587 0b40 800A0000 		.4byte	.LVL209
 8588 0b44 8C0A0000 		.4byte	.LVL212
 8589 0b48 0100     		.2byte	0x1
 8590 0b4a 50       		.byte	0x50
 8591 0b4b 8C0A0000 		.4byte	.LVL212
 8592 0b4f 8E0A0000 		.4byte	.LVL213
 8593 0b53 0400     		.2byte	0x4
 8594 0b55 F3       		.byte	0xf3
 8595 0b56 01       		.uleb128 0x1
 8596 0b57 50       		.byte	0x50
 8597 0b58 9F       		.byte	0x9f
 8598 0b59 8E0A0000 		.4byte	.LVL213
 8599 0b5d A40A0000 		.4byte	.LFE212
 8600 0b61 0100     		.2byte	0x1
 8601 0b63 50       		.byte	0x50
 8602 0b64 00000000 		.4byte	0
 8603 0b68 00000000 		.4byte	0
 8604              	.LLST57:
 8605 0b6c 400A0000 		.4byte	.LVL199
 8606 0b70 560A0000 		.4byte	.LVL200
 8607 0b74 0200     		.2byte	0x2
 8608 0b76 30       		.byte	0x30
 8609 0b77 9F       		.byte	0x9f
 8610 0b78 560A0000 		.4byte	.LVL200
 8611 0b7c 720A0000 		.4byte	.LVL205
 8612 0b80 0100     		.2byte	0x1
 8613 0b82 53       		.byte	0x53
 8614 0b83 720A0000 		.4byte	.LVL205
 8615 0b87 760A0000 		.4byte	.LVL206
 8616 0b8b 0200     		.2byte	0x2
 8617 0b8d 30       		.byte	0x30
 8618 0b8e 9F       		.byte	0x9f
 8619 0b8f 760A0000 		.4byte	.LVL206
 8620 0b93 800A0000 		.4byte	.LVL209
 8621 0b97 0100     		.2byte	0x1
 8622 0b99 53       		.byte	0x53
 8623 0b9a 800A0000 		.4byte	.LVL209
 8624 0b9e 840A0000 		.4byte	.LVL210
 8625 0ba2 0200     		.2byte	0x2
 8626 0ba4 30       		.byte	0x30
 8627 0ba5 9F       		.byte	0x9f
 8628 0ba6 840A0000 		.4byte	.LVL210
 8629 0baa 8E0A0000 		.4byte	.LVL213
 8630 0bae 0100     		.2byte	0x1
 8631 0bb0 53       		.byte	0x53
 8632 0bb1 8E0A0000 		.4byte	.LVL213
 8633 0bb5 920A0000 		.4byte	.LVL214
 8634 0bb9 0200     		.2byte	0x2
 8635 0bbb 30       		.byte	0x30
 8636 0bbc 9F       		.byte	0x9f
 8637 0bbd 920A0000 		.4byte	.LVL214
 8638 0bc1 A40A0000 		.4byte	.LFE212
ARM GAS  /var/folders/28/j9jfyj_n4wz3qtvnym210h2c0000gn/T//cc7mox5M.s 			page 153


 8639 0bc5 0100     		.2byte	0x1
 8640 0bc7 53       		.byte	0x53
 8641 0bc8 00000000 		.4byte	0
 8642 0bcc 00000000 		.4byte	0
 8643              	.LLST58:
 8644 0bd0 400A0000 		.4byte	.LVL199
 8645 0bd4 580A0000 		.4byte	.LVL201
 8646 0bd8 0200     		.2byte	0x2
 8647 0bda 30       		.byte	0x30
 8648 0bdb 9F       		.byte	0x9f
 8649 0bdc 580A0000 		.4byte	.LVL201
 8650 0be0 640A0000 		.4byte	.LVL203
 8651 0be4 0100     		.2byte	0x1
 8652 0be6 54       		.byte	0x54
 8653 0be7 720A0000 		.4byte	.LVL205
 8654 0beb 7A0A0000 		.4byte	.LVL207
 8655 0bef 0200     		.2byte	0x2
 8656 0bf1 30       		.byte	0x30
 8657 0bf2 9F       		.byte	0x9f
 8658 0bf3 800A0000 		.4byte	.LVL209
 8659 0bf7 880A0000 		.4byte	.LVL211
 8660 0bfb 0200     		.2byte	0x2
 8661 0bfd 30       		.byte	0x30
 8662 0bfe 9F       		.byte	0x9f
 8663 0bff 8E0A0000 		.4byte	.LVL213
 8664 0c03 A40A0000 		.4byte	.LFE212
 8665 0c07 0200     		.2byte	0x2
 8666 0c09 30       		.byte	0x30
 8667 0c0a 9F       		.byte	0x9f
 8668 0c0b 00000000 		.4byte	0
 8669 0c0f 00000000 		.4byte	0
 8670              	.LLST59:
 8671 0c13 400A0000 		.4byte	.LVL199
 8672 0c17 640A0000 		.4byte	.LVL203
 8673 0c1b 0200     		.2byte	0x2
 8674 0c1d 30       		.byte	0x30
 8675 0c1e 9F       		.byte	0x9f
 8676 0c1f 640A0000 		.4byte	.LVL203
 8677 0c23 680A0000 		.4byte	.LVL204
 8678 0c27 0100     		.2byte	0x1
 8679 0c29 50       		.byte	0x50
 8680 0c2a 720A0000 		.4byte	.LVL205
 8681 0c2e 7E0A0000 		.4byte	.LVL208
 8682 0c32 0200     		.2byte	0x2
 8683 0c34 30       		.byte	0x30
 8684 0c35 9F       		.byte	0x9f
 8685 0c36 7E0A0000 		.4byte	.LVL208
 8686 0c3a 800A0000 		.4byte	.LVL209
 8687 0c3e 0100     		.2byte	0x1
 8688 0c40 50       		.byte	0x50
 8689 0c41 800A0000 		.4byte	.LVL209
 8690 0c45 8C0A0000 		.4byte	.LVL212
 8691 0c49 0200     		.2byte	0x2
 8692 0c4b 30       		.byte	0x30
 8693 0c4c 9F       		.byte	0x9f
 8694 0c4d 8C0A0000 		.4byte	.LVL212
 8695 0c51 8E0A0000 		.4byte	.LVL213
ARM GAS  /var/folders/28/j9jfyj_n4wz3qtvnym210h2c0000gn/T//cc7mox5M.s 			page 154


 8696 0c55 0100     		.2byte	0x1
 8697 0c57 50       		.byte	0x50
 8698 0c58 8E0A0000 		.4byte	.LVL213
 8699 0c5c A40A0000 		.4byte	.LFE212
 8700 0c60 0200     		.2byte	0x2
 8701 0c62 30       		.byte	0x30
 8702 0c63 9F       		.byte	0x9f
 8703 0c64 00000000 		.4byte	0
 8704 0c68 00000000 		.4byte	0
 8705              	.LLST60:
 8706 0c6c 400A0000 		.4byte	.LVL199
 8707 0c70 5E0A0000 		.4byte	.LVL202
 8708 0c74 0200     		.2byte	0x2
 8709 0c76 30       		.byte	0x30
 8710 0c77 9F       		.byte	0x9f
 8711 0c78 5E0A0000 		.4byte	.LVL202
 8712 0c7c 720A0000 		.4byte	.LVL205
 8713 0c80 0100     		.2byte	0x1
 8714 0c82 52       		.byte	0x52
 8715 0c83 720A0000 		.4byte	.LVL205
 8716 0c87 7A0A0000 		.4byte	.LVL207
 8717 0c8b 0200     		.2byte	0x2
 8718 0c8d 30       		.byte	0x30
 8719 0c8e 9F       		.byte	0x9f
 8720 0c8f 7A0A0000 		.4byte	.LVL207
 8721 0c93 800A0000 		.4byte	.LVL209
 8722 0c97 0100     		.2byte	0x1
 8723 0c99 52       		.byte	0x52
 8724 0c9a 800A0000 		.4byte	.LVL209
 8725 0c9e 880A0000 		.4byte	.LVL211
 8726 0ca2 0200     		.2byte	0x2
 8727 0ca4 30       		.byte	0x30
 8728 0ca5 9F       		.byte	0x9f
 8729 0ca6 880A0000 		.4byte	.LVL211
 8730 0caa 8E0A0000 		.4byte	.LVL213
 8731 0cae 0100     		.2byte	0x1
 8732 0cb0 52       		.byte	0x52
 8733 0cb1 8E0A0000 		.4byte	.LVL213
 8734 0cb5 A40A0000 		.4byte	.LFE212
 8735 0cb9 0200     		.2byte	0x2
 8736 0cbb 30       		.byte	0x30
 8737 0cbc 9F       		.byte	0x9f
 8738 0cbd 00000000 		.4byte	0
 8739 0cc1 00000000 		.4byte	0
 8740              	.LLST61:
 8741 0cc5 B00A0000 		.4byte	.LVL215
 8742 0cc9 D40A0000 		.4byte	.LVL216
 8743 0ccd 0100     		.2byte	0x1
 8744 0ccf 51       		.byte	0x51
 8745 0cd0 D40A0000 		.4byte	.LVL216
 8746 0cd4 D80A0000 		.4byte	.LVL217
 8747 0cd8 0400     		.2byte	0x4
 8748 0cda F3       		.byte	0xf3
 8749 0cdb 01       		.uleb128 0x1
 8750 0cdc 51       		.byte	0x51
 8751 0cdd 9F       		.byte	0x9f
 8752 0cde D80A0000 		.4byte	.LVL217
ARM GAS  /var/folders/28/j9jfyj_n4wz3qtvnym210h2c0000gn/T//cc7mox5M.s 			page 155


 8753 0ce2 E00A0000 		.4byte	.LVL218
 8754 0ce6 0100     		.2byte	0x1
 8755 0ce8 51       		.byte	0x51
 8756 0ce9 E00A0000 		.4byte	.LVL218
 8757 0ced E40A0000 		.4byte	.LVL219
 8758 0cf1 0400     		.2byte	0x4
 8759 0cf3 F3       		.byte	0xf3
 8760 0cf4 01       		.uleb128 0x1
 8761 0cf5 51       		.byte	0x51
 8762 0cf6 9F       		.byte	0x9f
 8763 0cf7 E40A0000 		.4byte	.LVL219
 8764 0cfb EC0A0000 		.4byte	.LVL220
 8765 0cff 0100     		.2byte	0x1
 8766 0d01 51       		.byte	0x51
 8767 0d02 EC0A0000 		.4byte	.LVL220
 8768 0d06 000B0000 		.4byte	.LFE213
 8769 0d0a 0400     		.2byte	0x4
 8770 0d0c F3       		.byte	0xf3
 8771 0d0d 01       		.uleb128 0x1
 8772 0d0e 51       		.byte	0x51
 8773 0d0f 9F       		.byte	0x9f
 8774 0d10 00000000 		.4byte	0
 8775 0d14 00000000 		.4byte	0
 8776              	.LLST62:
 8777 0d18 000B0000 		.4byte	.LVL248
 8778 0d1c 080B0000 		.4byte	.LVL249
 8779 0d20 0100     		.2byte	0x1
 8780 0d22 50       		.byte	0x50
 8781 0d23 080B0000 		.4byte	.LVL249
 8782 0d27 1C0B0000 		.4byte	.LFE215
 8783 0d2b 0400     		.2byte	0x4
 8784 0d2d F3       		.byte	0xf3
 8785 0d2e 01       		.uleb128 0x1
 8786 0d2f 50       		.byte	0x50
 8787 0d30 9F       		.byte	0x9f
 8788 0d31 00000000 		.4byte	0
 8789 0d35 00000000 		.4byte	0
 8790              		.section	.debug_aranges,"",%progbits
 8791 0000 24000000 		.4byte	0x24
 8792 0004 0200     		.2byte	0x2
 8793 0006 00000000 		.4byte	.Ldebug_info0
 8794 000a 04       		.byte	0x4
 8795 000b 00       		.byte	0
 8796 000c 0000     		.2byte	0
 8797 000e 0000     		.2byte	0
 8798 0010 00000000 		.4byte	.Ltext0
 8799 0014 220B0000 		.4byte	.Letext0-.Ltext0
 8800 0018 00000000 		.4byte	.LFB214
 8801 001c E0000000 		.4byte	.LFE214-.LFB214
 8802 0020 00000000 		.4byte	0
 8803 0024 00000000 		.4byte	0
 8804              		.section	.debug_ranges,"",%progbits
 8805              	.Ldebug_ranges0:
 8806 0000 A4010000 		.4byte	.LBB64
 8807 0004 A6010000 		.4byte	.LBE64
 8808 0008 A8010000 		.4byte	.LBB67
 8809 000c B2010000 		.4byte	.LBE67
ARM GAS  /var/folders/28/j9jfyj_n4wz3qtvnym210h2c0000gn/T//cc7mox5M.s 			page 156


 8810 0010 00000000 		.4byte	0
 8811 0014 00000000 		.4byte	0
 8812 0018 E4010000 		.4byte	.LBB70
 8813 001c E6010000 		.4byte	.LBE70
 8814 0020 E8010000 		.4byte	.LBB73
 8815 0024 EE010000 		.4byte	.LBE73
 8816 0028 00000000 		.4byte	0
 8817 002c 00000000 		.4byte	0
 8818 0030 00000000 		.4byte	.Ltext0
 8819 0034 220B0000 		.4byte	.Letext0
 8820 0038 00000000 		.4byte	.LFB214
 8821 003c E0000000 		.4byte	.LFE214
 8822 0040 00000000 		.4byte	0
 8823 0044 00000000 		.4byte	0
 8824              		.section	.debug_line,"",%progbits
 8825              	.Ldebug_line0:
 8826 0000 D7080000 		.section	.debug_str,"MS",%progbits,1
 8826      02008703 
 8826      00000201 
 8826      FB0E0D00 
 8826      01010101 
 8827              	.LASF122:
 8828 0000 464D435F 		.ascii	"FMC_AttributeSpaceTimingStruct\000"
 8828      41747472 
 8828      69627574 
 8828      65537061 
 8828      63655469 
 8829              	.LASF79:
 8830 001f 42444352 		.ascii	"BDCR\000"
 8830      00
 8831              	.LASF83:
 8832 0024 504C4C53 		.ascii	"PLLSAICFGR\000"
 8832      41494346 
 8832      475200
 8833              	.LASF54:
 8834 002f 52455345 		.ascii	"RESERVED\000"
 8834      52564544 
 8834      00
 8835              	.LASF273:
 8836 0038 68616C49 		.ascii	"halInit\000"
 8836      6E697400 
 8837              	.LASF84:
 8838 0040 44434B43 		.ascii	"DCKCFGR\000"
 8838      46475200 
 8839              	.LASF218:
 8840 0048 464D435F 		.ascii	"FMC_NORSRAMStructInit\000"
 8840      4E4F5253 
 8840      52414D53 
 8840      74727563 
 8840      74496E69 
 8841              	.LASF69:
 8842 005e 41504231 		.ascii	"APB1ENR\000"
 8842      454E5200 
 8843              	.LASF47:
 8844 0066 53445452 		.ascii	"SDTR\000"
 8844      00
 8845              	.LASF293:
ARM GAS  /var/folders/28/j9jfyj_n4wz3qtvnym210h2c0000gn/T//cc7mox5M.s 			page 157


 8846 006b 6D61696E 		.ascii	"main.c\000"
 8846      2E6300
 8847              	.LASF159:
 8848 0072 42535252 		.ascii	"BSRR\000"
 8848      00
 8849              	.LASF201:
 8850 0077 53445241 		.ascii	"SDRAM_InitSequence\000"
 8850      4D5F496E 
 8850      69745365 
 8850      7175656E 
 8850      636500
 8851              	.LASF244:
 8852 008a 464D435F 		.ascii	"FMC_SDRAMStructInit\000"
 8852      53445241 
 8852      4D537472 
 8852      75637449 
 8852      6E697400 
 8853              	.LASF77:
 8854 009e 41504232 		.ascii	"APB2LPENR\000"
 8854      4C50454E 
 8854      5200
 8855              	.LASF243:
 8856 00a8 464D435F 		.ascii	"FMC_SDRAMTimingInitStructure\000"
 8856      53445241 
 8856      4D54696D 
 8856      696E6749 
 8856      6E697453 
 8857              	.LASF63:
 8858 00c5 41504232 		.ascii	"APB2RSTR\000"
 8858      52535452 
 8858      00
 8859              	.LASF152:
 8860 00ce 73797374 		.ascii	"systime_t\000"
 8860      696D655F 
 8860      7400
 8861              	.LASF178:
 8862 00d8 4552524F 		.ascii	"ERROR_UNDERVOLT_50\000"
 8862      525F554E 
 8862      44455256 
 8862      4F4C545F 
 8862      353000
 8863              	.LASF121:
 8864 00eb 464D435F 		.ascii	"FMC_CommonSpaceTimingStruct\000"
 8864      436F6D6D 
 8864      6F6E5370 
 8864      61636554 
 8864      696D696E 
 8865              	.LASF1:
 8866 0107 756E7369 		.ascii	"unsigned int\000"
 8866      676E6564 
 8866      20696E74 
 8866      00
 8867              	.LASF188:
 8868 0114 746D7072 		.ascii	"tmpr\000"
 8868      00
 8869              	.LASF25:
 8870 0119 46756E63 		.ascii	"FunctionalState\000"
ARM GAS  /var/folders/28/j9jfyj_n4wz3qtvnym210h2c0000gn/T//cc7mox5M.s 			page 158


 8870      74696F6E 
 8870      616C5374 
 8870      61746500 
 8871              	.LASF210:
 8872 0129 75775772 		.ascii	"uwWriteAddress\000"
 8872      69746541 
 8872      64647265 
 8872      737300
 8873              	.LASF256:
 8874 0138 6974656E 		.ascii	"itenable\000"
 8874      61626C65 
 8874      00
 8875              	.LASF284:
 8876 0141 73746172 		.ascii	"start_dsp_thread\000"
 8876      745F6473 
 8876      705F7468 
 8876      72656164 
 8876      00
 8877              	.LASF290:
 8878 0152 4C6F6164 		.ascii	"LoadPatchStartSD\000"
 8878      50617463 
 8878      68537461 
 8878      72745344 
 8878      00
 8879              	.LASF9:
 8880 0163 5F5F696E 		.ascii	"__int32_t\000"
 8880      7433325F 
 8880      7400
 8881              	.LASF296:
 8882 016d 74657374 		.ascii	"test\000"
 8882      00
 8883              	.LASF85:
 8884 0172 5243435F 		.ascii	"RCC_TypeDef\000"
 8884      54797065 
 8884      44656600 
 8885              	.LASF184:
 8886 017e 464D435F 		.ascii	"FMC_FLAG\000"
 8886      464C4147 
 8886      00
 8887              	.LASF209:
 8888 0187 70427566 		.ascii	"pBuffer\000"
 8888      66657200 
 8889              	.LASF89:
 8890 018f 464D435F 		.ascii	"FMC_BusTurnAroundDuration\000"
 8890      42757354 
 8890      75726E41 
 8890      726F756E 
 8890      64447572 
 8891              	.LASF21:
 8892 01a9 466C6167 		.ascii	"FlagStatus\000"
 8892      53746174 
 8892      757300
 8893              	.LASF94:
 8894 01b4 464D435F 		.ascii	"FMC_Bank\000"
 8894      42616E6B 
 8894      00
 8895              	.LASF116:
ARM GAS  /var/folders/28/j9jfyj_n4wz3qtvnym210h2c0000gn/T//cc7mox5M.s 			page 159


 8896 01bd 464D435F 		.ascii	"FMC_Waitfeature\000"
 8896      57616974 
 8896      66656174 
 8896      75726500 
 8897              	.LASF143:
 8898 01cd 464D435F 		.ascii	"FMC_CASLatency\000"
 8898      4341534C 
 8898      6174656E 
 8898      637900
 8899              	.LASF73:
 8900 01dc 41484232 		.ascii	"AHB2LPENR\000"
 8900      4C50454E 
 8900      5200
 8901              	.LASF110:
 8902 01e6 464D435F 		.ascii	"FMC_NORSRAMInitTypeDef\000"
 8902      4E4F5253 
 8902      52414D49 
 8902      6E697454 
 8902      79706544 
 8903              	.LASF127:
 8904 01fd 464D435F 		.ascii	"FMC_ExitSelfRefreshDelay\000"
 8904      45786974 
 8904      53656C66 
 8904      52656672 
 8904      65736844 
 8905              	.LASF111:
 8906 0216 464D435F 		.ascii	"FMC_SetupTime\000"
 8906      53657475 
 8906      7054696D 
 8906      6500
 8907              	.LASF52:
 8908 0224 4D454D52 		.ascii	"MEMRMP\000"
 8908      4D5000
 8909              	.LASF45:
 8910 022b 464D435F 		.ascii	"FMC_Bank4_TypeDef\000"
 8910      42616E6B 
 8910      345F5479 
 8910      70654465 
 8910      6600
 8911              	.LASF72:
 8912 023d 41484231 		.ascii	"AHB1LPENR\000"
 8912      4C50454E 
 8912      5200
 8913              	.LASF249:
 8914 0247 464D435F 		.ascii	"FMC_Number\000"
 8914      4E756D62 
 8914      657200
 8915              	.LASF141:
 8916 0252 464D435F 		.ascii	"FMC_SDMemoryDataWidth\000"
 8916      53444D65 
 8916      6D6F7279 
 8916      44617461 
 8916      57696474 
 8917              	.LASF145:
 8918 0268 464D435F 		.ascii	"FMC_SDClockPeriod\000"
 8918      5344436C 
 8918      6F636B50 
ARM GAS  /var/folders/28/j9jfyj_n4wz3qtvnym210h2c0000gn/T//cc7mox5M.s 			page 160


 8918      6572696F 
 8918      6400
 8919              	.LASF147:
 8920 027a 464D435F 		.ascii	"FMC_ReadPipeDelay\000"
 8920      52656164 
 8920      50697065 
 8920      44656C61 
 8920      7900
 8921              	.LASF18:
 8922 028c 75696E74 		.ascii	"uint32_t\000"
 8922      33325F74 
 8922      00
 8923              	.LASF105:
 8924 0295 464D435F 		.ascii	"FMC_AsynchronousWait\000"
 8924      4173796E 
 8924      6368726F 
 8924      6E6F7573 
 8924      57616974 
 8925              	.LASF177:
 8926 02aa 4552524F 		.ascii	"ERROR_OVERVOLT_33\000"
 8926      525F4F56 
 8926      4552564F 
 8926      4C545F33 
 8926      3300
 8927              	.LASF109:
 8928 02bc 464D435F 		.ascii	"FMC_WriteTimingStruct\000"
 8928      57726974 
 8928      6554696D 
 8928      696E6753 
 8928      74727563 
 8929              	.LASF0:
 8930 02d2 6C6F6E67 		.ascii	"long long unsigned int\000"
 8930      206C6F6E 
 8930      6720756E 
 8930      7369676E 
 8930      65642069 
 8931              	.LASF167:
 8932 02e9 666C6F61 		.ascii	"float\000"
 8932      7400
 8933              	.LASF128:
 8934 02ef 464D435F 		.ascii	"FMC_SelfRefreshTime\000"
 8934      53656C66 
 8934      52656672 
 8934      65736854 
 8934      696D6500 
 8935              	.LASF175:
 8936 0303 4552524F 		.ascii	"ERROR_USBH_OVERCURRENT\000"
 8936      525F5553 
 8936      42485F4F 
 8936      56455243 
 8936      55525245 
 8937              	.LASF126:
 8938 031a 464D435F 		.ascii	"FMC_LoadToActiveDelay\000"
 8938      4C6F6164 
 8938      546F4163 
 8938      74697665 
 8938      44656C61 
ARM GAS  /var/folders/28/j9jfyj_n4wz3qtvnym210h2c0000gn/T//cc7mox5M.s 			page 161


 8939              	.LASF65:
 8940 0330 41484231 		.ascii	"AHB1ENR\000"
 8940      454E5200 
 8941              	.LASF196:
 8942 0338 62617365 		.ascii	"base\000"
 8942      00
 8943              	.LASF81:
 8944 033d 53534347 		.ascii	"SSCGR\000"
 8944      5200
 8945              	.LASF146:
 8946 0343 464D435F 		.ascii	"FMC_ReadBurst\000"
 8946      52656164 
 8946      42757273 
 8946      7400
 8947              	.LASF190:
 8948 0351 464D435F 		.ascii	"FMC_SetRefreshCount\000"
 8948      53657452 
 8948      65667265 
 8948      7368436F 
 8948      756E7400 
 8949              	.LASF207:
 8950 0365 4750494F 		.ascii	"GPIOG_AFRH\000"
 8950      475F4146 
 8950      524800
 8951              	.LASF15:
 8952 0370 696E7431 		.ascii	"int16_t\000"
 8952      365F7400 
 8953              	.LASF55:
 8954 0378 434D5043 		.ascii	"CMPCR\000"
 8954      5200
 8955              	.LASF285:
 8956 037e 636F6465 		.ascii	"codec_init\000"
 8956      635F696E 
 8956      697400
 8957              	.LASF251:
 8958 0389 464D435F 		.ascii	"FMC_IT\000"
 8958      495400
 8959              	.LASF183:
 8960 0390 6572726F 		.ascii	"error_flag_t\000"
 8960      725F666C 
 8960      61675F74 
 8960      00
 8961              	.LASF255:
 8962 039d 69747374 		.ascii	"itstatus\000"
 8962      61747573 
 8962      00
 8963              	.LASF238:
 8964 03a6 746D7072 		.ascii	"tmpr2\000"
 8964      3200
 8965              	.LASF239:
 8966 03ac 746D7072 		.ascii	"tmpr3\000"
 8966      3300
 8967              	.LASF240:
 8968 03b2 746D7072 		.ascii	"tmpr4\000"
 8968      3400
 8969              	.LASF124:
 8970 03b8 464D435F 		.ascii	"FMC_IOSpaceTimingStruct\000"
ARM GAS  /var/folders/28/j9jfyj_n4wz3qtvnym210h2c0000gn/T//cc7mox5M.s 			page 162


 8970      494F5370 
 8970      61636554 
 8970      696D696E 
 8970      67537472 
 8971              	.LASF7:
 8972 03d0 5F5F7569 		.ascii	"__uint16_t\000"
 8972      6E743136 
 8972      5F7400
 8973              	.LASF259:
 8974 03db 48414C5F 		.ascii	"HAL_Delay\000"
 8974      44656C61 
 8974      7900
 8975              	.LASF155:
 8976 03e5 4D4F4445 		.ascii	"MODER\000"
 8976      5200
 8977              	.LASF214:
 8978 03eb 75775265 		.ascii	"uwReadAddress\000"
 8978      61644164 
 8978      64726573 
 8978      7300
 8979              	.LASF162:
 8980 03f9 41465248 		.ascii	"AFRH\000"
 8980      00
 8981              	.LASF215:
 8982 03fe 464D435F 		.ascii	"FMC_NORSRAMDeInit\000"
 8982      4E4F5253 
 8982      52414D44 
 8982      65496E69 
 8982      7400
 8983              	.LASF161:
 8984 0410 4146524C 		.ascii	"AFRL\000"
 8984      00
 8985              	.LASF61:
 8986 0415 41484233 		.ascii	"AHB3RSTR\000"
 8986      52535452 
 8986      00
 8987              	.LASF154:
 8988 041e 636C6561 		.ascii	"clear\000"
 8988      7200
 8989              	.LASF232:
 8990 0424 464D435F 		.ascii	"FMC_PCCARDStructInit\000"
 8990      50434341 
 8990      52445374 
 8990      72756374 
 8990      496E6974 
 8991              	.LASF222:
 8992 0439 464D435F 		.ascii	"FMC_NANDInitStruct\000"
 8992      4E414E44 
 8992      496E6974 
 8992      53747275 
 8992      637400
 8993              	.LASF206:
 8994 044c 4750494F 		.ascii	"GPIOG_PUPDR\000"
 8994      475F5055 
 8994      50445200 
 8995              	.LASF219:
 8996 0458 464D435F 		.ascii	"FMC_NORSRAMCmd\000"
ARM GAS  /var/folders/28/j9jfyj_n4wz3qtvnym210h2c0000gn/T//cc7mox5M.s 			page 163


 8996      4E4F5253 
 8996      52414D43 
 8996      6D6400
 8997              	.LASF26:
 8998 0467 464D435F 		.ascii	"FMC_Bank1_TypeDef\000"
 8998      42616E6B 
 8998      315F5479 
 8998      70654465 
 8998      6600
 8999              	.LASF182:
 9000 0479 4552524F 		.ascii	"ERROR_CODEC_I2C\000"
 9000      525F434F 
 9000      4445435F 
 9000      49324300 
 9001              	.LASF148:
 9002 0489 464D435F 		.ascii	"FMC_SDRAMTimingStruct\000"
 9002      53445241 
 9002      4D54696D 
 9002      696E6753 
 9002      74727563 
 9003              	.LASF204:
 9004 049f 4750494F 		.ascii	"GPIOG_OTYPER\000"
 9004      475F4F54 
 9004      59504552 
 9004      00
 9005              	.LASF90:
 9006 04ac 464D435F 		.ascii	"FMC_CLKDivision\000"
 9006      434C4B44 
 9006      69766973 
 9006      696F6E00 
 9007              	.LASF176:
 9008 04bc 4552524F 		.ascii	"ERROR_OVERVOLT_50\000"
 9008      525F4F56 
 9008      4552564F 
 9008      4C545F35 
 9008      3000
 9009              	.LASF171:
 9010 04ce 53544152 		.ascii	"STARTFAILED\000"
 9010      54464149 
 9010      4C454400 
 9011              	.LASF150:
 9012 04da 626F6F6C 		.ascii	"bool_t\000"
 9012      5F7400
 9013              	.LASF247:
 9014 04e1 746D7072 		.ascii	"tmpreg\000"
 9014      656700
 9015              	.LASF173:
 9016 04e8 646F7562 		.ascii	"double\000"
 9016      6C6500
 9017              	.LASF280:
 9018 04ef 61786F6C 		.ascii	"axoloti_board_init\000"
 9018      6F74695F 
 9018      626F6172 
 9018      645F696E 
 9018      697400
 9019              	.LASF151:
 9020 0502 5F426F6F 		.ascii	"_Bool\000"
ARM GAS  /var/folders/28/j9jfyj_n4wz3qtvnym210h2c0000gn/T//cc7mox5M.s 			page 164


 9020      6C00
 9021              	.LASF112:
 9022 0508 464D435F 		.ascii	"FMC_WaitSetupTime\000"
 9022      57616974 
 9022      53657475 
 9022      7054696D 
 9022      6500
 9023              	.LASF29:
 9024 051a 464D435F 		.ascii	"FMC_Bank1E_TypeDef\000"
 9024      42616E6B 
 9024      31455F54 
 9024      79706544 
 9024      656600
 9025              	.LASF22:
 9026 052d 49545374 		.ascii	"ITStatus\000"
 9026      61747573 
 9026      00
 9027              	.LASF220:
 9028 0536 464D435F 		.ascii	"FMC_NANDDeInit\000"
 9028      4E414E44 
 9028      4465496E 
 9028      697400
 9029              	.LASF115:
 9030 0545 464D435F 		.ascii	"FMC_NAND_PCCARDTimingInitTypeDef\000"
 9030      4E414E44 
 9030      5F504343 
 9030      41524454 
 9030      696D696E 
 9031              	.LASF30:
 9032 0566 50435232 		.ascii	"PCR2\000"
 9032      00
 9033              	.LASF252:
 9034 056b 464D435F 		.ascii	"FMC_ClearFlag\000"
 9034      436C6561 
 9034      72466C61 
 9034      6700
 9035              	.LASF191:
 9036 0579 464D435F 		.ascii	"FMC_Count\000"
 9036      436F756E 
 9036      7400
 9037              	.LASF134:
 9038 0583 464D435F 		.ascii	"FMC_CommandMode\000"
 9038      436F6D6D 
 9038      616E644D 
 9038      6F646500 
 9039              	.LASF99:
 9040 0593 464D435F 		.ascii	"FMC_WaitSignalPolarity\000"
 9040      57616974 
 9040      5369676E 
 9040      616C506F 
 9040      6C617269 
 9041              	.LASF49:
 9042 05aa 53445254 		.ascii	"SDRTR\000"
 9042      5200
 9043              	.LASF67:
 9044 05b0 41484233 		.ascii	"AHB3ENR\000"
 9044      454E5200 
ARM GAS  /var/folders/28/j9jfyj_n4wz3qtvnym210h2c0000gn/T//cc7mox5M.s 			page 165


 9045              	.LASF166:
 9046 05b8 696F706F 		.ascii	"ioportid_t\000"
 9046      72746964 
 9046      5F7400
 9047              	.LASF114:
 9048 05c3 464D435F 		.ascii	"FMC_HiZSetupTime\000"
 9048      48695A53 
 9048      65747570 
 9048      54696D65 
 9048      00
 9049              	.LASF186:
 9050 05d4 746D7073 		.ascii	"tmpsr\000"
 9050      7200
 9051              	.LASF97:
 9052 05da 464D435F 		.ascii	"FMC_MemoryDataWidth\000"
 9052      4D656D6F 
 9052      72794461 
 9052      74615769 
 9052      64746800 
 9053              	.LASF194:
 9054 05ee 4E657753 		.ascii	"NewState\000"
 9054      74617465 
 9054      00
 9055              	.LASF158:
 9056 05f7 50555044 		.ascii	"PUPDR\000"
 9056      5200
 9057              	.LASF93:
 9058 05fd 464D435F 		.ascii	"FMC_NORSRAMTimingInitTypeDef\000"
 9058      4E4F5253 
 9058      52414D54 
 9058      696D696E 
 9058      67496E69 
 9059              	.LASF242:
 9060 061a 464D435F 		.ascii	"FMC_SDRAMInitStructure\000"
 9060      53445241 
 9060      4D496E69 
 9060      74537472 
 9060      75637475 
 9061              	.LASF62:
 9062 0631 41504231 		.ascii	"APB1RSTR\000"
 9062      52535452 
 9062      00
 9063              	.LASF237:
 9064 063a 746D7072 		.ascii	"tmpr1\000"
 9064      3100
 9065              	.LASF268:
 9066 0640 73657445 		.ascii	"setErrorFlag\000"
 9066      72726F72 
 9066      466C6167 
 9066      00
 9067              	.LASF142:
 9068 064d 464D435F 		.ascii	"FMC_InternalBankNumber\000"
 9068      496E7465 
 9068      726E616C 
 9068      42616E6B 
 9068      4E756D62 
 9069              	.LASF153:
ARM GAS  /var/folders/28/j9jfyj_n4wz3qtvnym210h2c0000gn/T//cc7mox5M.s 			page 166


 9070 0664 63686172 		.ascii	"char\000"
 9070      00
 9071              	.LASF274:
 9072 0669 63685379 		.ascii	"chSysInit\000"
 9072      73496E69 
 9072      7400
 9073              	.LASF287:
 9074 0673 75695F69 		.ascii	"ui_init\000"
 9074      6E697400 
 9075              	.LASF23:
 9076 067b 44495341 		.ascii	"DISABLE\000"
 9076      424C4500 
 9077              	.LASF223:
 9078 0683 746D7070 		.ascii	"tmppcr\000"
 9078      637200
 9079              	.LASF14:
 9080 068a 75696E74 		.ascii	"uint8_t\000"
 9080      385F7400 
 9081              	.LASF217:
 9082 0692 464D435F 		.ascii	"FMC_NORSRAMInitStruct\000"
 9082      4E4F5253 
 9082      52414D49 
 9082      6E697453 
 9082      74727563 
 9083              	.LASF227:
 9084 06a8 464D435F 		.ascii	"FMC_NANDCmd\000"
 9084      4E414E44 
 9084      436D6400 
 9085              	.LASF264:
 9086 06b4 70617463 		.ascii	"patchStatus\000"
 9086      68537461 
 9086      74757300 
 9087              	.LASF234:
 9088 06c0 464D435F 		.ascii	"FMC_SDRAMDeInit\000"
 9088      53445241 
 9088      4D446549 
 9088      6E697400 
 9089              	.LASF27:
 9090 06d0 42544352 		.ascii	"BTCR\000"
 9090      00
 9091              	.LASF13:
 9092 06d5 6C6F6E67 		.ascii	"long long int\000"
 9092      206C6F6E 
 9092      6720696E 
 9092      7400
 9093              	.LASF265:
 9094 06e3 73696E65 		.ascii	"sine2t\000"
 9094      327400
 9095              	.LASF236:
 9096 06ea 464D435F 		.ascii	"FMC_SDRAMInitStruct\000"
 9096      53445241 
 9096      4D496E69 
 9096      74537472 
 9096      75637400 
 9097              	.LASF221:
 9098 06fe 464D435F 		.ascii	"FMC_NANDInit\000"
 9098      4E414E44 
ARM GAS  /var/folders/28/j9jfyj_n4wz3qtvnym210h2c0000gn/T//cc7mox5M.s 			page 167


 9098      496E6974 
 9098      00
 9099              	.LASF213:
 9100 070b 53445241 		.ascii	"SDRAM_ReadBuffer\000"
 9100      4D5F5265 
 9100      61644275 
 9100      66666572 
 9100      00
 9101              	.LASF53:
 9102 071c 45585449 		.ascii	"EXTICR\000"
 9102      435200
 9103              	.LASF43:
 9104 0723 50415454 		.ascii	"PATT4\000"
 9104      3400
 9105              	.LASF119:
 9106 0729 464D435F 		.ascii	"FMC_TCLRSetupTime\000"
 9106      54434C52 
 9106      53657475 
 9106      7054696D 
 9106      6500
 9107              	.LASF248:
 9108 073b 464D435F 		.ascii	"FMC_SetAutoRefresh_Number\000"
 9108      53657441 
 9108      75746F52 
 9108      65667265 
 9108      73685F4E 
 9109              	.LASF195:
 9110 0755 6D656D53 		.ascii	"memSize\000"
 9110      697A6500 
 9111              	.LASF108:
 9112 075d 464D435F 		.ascii	"FMC_ReadWriteTimingStruct\000"
 9112      52656164 
 9112      57726974 
 9112      6554696D 
 9112      696E6753 
 9113              	.LASF101:
 9114 0777 464D435F 		.ascii	"FMC_WaitSignalActive\000"
 9114      57616974 
 9114      5369676E 
 9114      616C4163 
 9114      74697665 
 9115              	.LASF275:
 9116 078c 73646361 		.ascii	"sdcard_init\000"
 9116      72645F69 
 9116      6E697400 
 9117              	.LASF266:
 9118 0798 77696E64 		.ascii	"windowt\000"
 9118      6F777400 
 9119              	.LASF149:
 9120 07a0 464D435F 		.ascii	"FMC_SDRAMInitTypeDef\000"
 9120      53445241 
 9120      4D496E69 
 9120      74547970 
 9120      65446566 
 9121              	.LASF229:
 9122 07b5 65636376 		.ascii	"eccval\000"
 9122      616C00
ARM GAS  /var/folders/28/j9jfyj_n4wz3qtvnym210h2c0000gn/T//cc7mox5M.s 			page 168


 9123              	.LASF129:
 9124 07bc 464D435F 		.ascii	"FMC_RowCycleDelay\000"
 9124      526F7743 
 9124      79636C65 
 9124      44656C61 
 9124      7900
 9125              	.LASF76:
 9126 07ce 41504231 		.ascii	"APB1LPENR\000"
 9126      4C50454E 
 9126      5200
 9127              	.LASF202:
 9128 07d8 464D435F 		.ascii	"FMC_SDRAMCommandStructure\000"
 9128      53445241 
 9128      4D436F6D 
 9128      6D616E64 
 9128      53747275 
 9129              	.LASF282:
 9130 07f2 61786F6C 		.ascii	"axoloti_math_init\000"
 9130      6F74695F 
 9130      6D617468 
 9130      5F696E69 
 9130      7400
 9131              	.LASF281:
 9132 0804 6164635F 		.ascii	"adc_init\000"
 9132      696E6974 
 9132      00
 9133              	.LASF233:
 9134 080d 464D435F 		.ascii	"FMC_PCCARDCmd\000"
 9134      50434341 
 9134      5244436D 
 9134      6400
 9135              	.LASF5:
 9136 081b 5F5F696E 		.ascii	"__int16_t\000"
 9136      7431365F 
 9136      7400
 9137              	.LASF246:
 9138 0825 464D435F 		.ascii	"FMC_GetModeStatus\000"
 9138      4765744D 
 9138      6F646553 
 9138      74617475 
 9138      7300
 9139              	.LASF254:
 9140 0837 746D7073 		.ascii	"tmpsr2\000"
 9140      723200
 9141              	.LASF164:
 9142 083e 696F706F 		.ascii	"ioportmask_t\000"
 9142      72746D61 
 9142      736B5F74 
 9142      00
 9143              	.LASF172:
 9144 084b 70617463 		.ascii	"patchStatus_t\000"
 9144      68537461 
 9144      7475735F 
 9144      7400
 9145              	.LASF144:
 9146 0859 464D435F 		.ascii	"FMC_WriteProtection\000"
 9146      57726974 
ARM GAS  /var/folders/28/j9jfyj_n4wz3qtvnym210h2c0000gn/T//cc7mox5M.s 			page 169


 9146      6550726F 
 9146      74656374 
 9146      696F6E00 
 9147              	.LASF235:
 9148 086d 464D435F 		.ascii	"FMC_SDRAMInit\000"
 9148      53445241 
 9148      4D496E69 
 9148      7400
 9149              	.LASF86:
 9150 087b 464D435F 		.ascii	"FMC_AddressSetupTime\000"
 9150      41646472 
 9150      65737353 
 9150      65747570 
 9150      54696D65 
 9151              	.LASF181:
 9152 0890 4552524F 		.ascii	"ERROR_SDCARD\000"
 9152      525F5344 
 9152      43415244 
 9152      00
 9153              	.LASF225:
 9154 089d 746D7070 		.ascii	"tmppatt\000"
 9154      61747400 
 9155              	.LASF100:
 9156 08a5 464D435F 		.ascii	"FMC_WrapMode\000"
 9156      57726170 
 9156      4D6F6465 
 9156      00
 9157              	.LASF140:
 9158 08b2 464D435F 		.ascii	"FMC_RowBitsNumber\000"
 9158      526F7742 
 9158      6974734E 
 9158      756D6265 
 9158      7200
 9159              	.LASF277:
 9160 08c4 65786365 		.ascii	"exception_init\000"
 9160      7074696F 
 9160      6E5F696E 
 9160      697400
 9161              	.LASF34:
 9162 08d3 45434352 		.ascii	"ECCR2\000"
 9162      3200
 9163              	.LASF39:
 9164 08d9 45434352 		.ascii	"ECCR3\000"
 9164      3300
 9165              	.LASF117:
 9166 08df 464D435F 		.ascii	"FMC_ECC\000"
 9166      45434300 
 9167              	.LASF228:
 9168 08e7 464D435F 		.ascii	"FMC_NANDECCCmd\000"
 9168      4E414E44 
 9168      45434343 
 9168      6D6400
 9169              	.LASF113:
 9170 08f6 464D435F 		.ascii	"FMC_HoldSetupTime\000"
 9170      486F6C64 
 9170      53657475 
 9170      7054696D 
ARM GAS  /var/folders/28/j9jfyj_n4wz3qtvnym210h2c0000gn/T//cc7mox5M.s 			page 170


 9170      6500
 9171              	.LASF208:
 9172 0908 53445241 		.ascii	"SDRAM_WriteBuffer\000"
 9172      4D5F5772 
 9172      69746542 
 9172      75666665 
 9172      7200
 9173              	.LASF70:
 9174 091a 41504232 		.ascii	"APB2ENR\000"
 9174      454E5200 
 9175              	.LASF35:
 9176 0922 464D435F 		.ascii	"FMC_Bank2_TypeDef\000"
 9176      42616E6B 
 9176      325F5479 
 9176      70654465 
 9176      6600
 9177              	.LASF168:
 9178 0934 52554E4E 		.ascii	"RUNNING\000"
 9178      494E4700 
 9179              	.LASF203:
 9180 093c 4750494F 		.ascii	"GPIOG_MODER\000"
 9180      475F4D4F 
 9180      44455200 
 9181              	.LASF212:
 9182 0948 77726974 		.ascii	"write_pointer\000"
 9182      655F706F 
 9182      696E7465 
 9182      7200
 9183              	.LASF278:
 9184 0956 496E6974 		.ascii	"InitPatch0\000"
 9184      50617463 
 9184      683000
 9185              	.LASF157:
 9186 0961 4F535045 		.ascii	"OSPEEDR\000"
 9186      45445200 
 9187              	.LASF88:
 9188 0969 464D435F 		.ascii	"FMC_DataSetupTime\000"
 9188      44617461 
 9188      53657475 
 9188      7054696D 
 9188      6500
 9189              	.LASF8:
 9190 097b 73686F72 		.ascii	"short unsigned int\000"
 9190      7420756E 
 9190      7369676E 
 9190      65642069 
 9190      6E7400
 9191              	.LASF169:
 9192 098e 53544F50 		.ascii	"STOPPED\000"
 9192      50454400 
 9193              	.LASF192:
 9194 0996 464D435F 		.ascii	"FMC_SDRAMWriteProtectionConfig\000"
 9194      53445241 
 9194      4D577269 
 9194      74655072 
 9194      6F746563 
 9195              	.LASF174:
ARM GAS  /var/folders/28/j9jfyj_n4wz3qtvnym210h2c0000gn/T//cc7mox5M.s 			page 171


 9196 09b5 6C6F6E67 		.ascii	"long double\000"
 9196      20646F75 
 9196      626C6500 
 9197              	.LASF123:
 9198 09c1 464D435F 		.ascii	"FMC_NANDInitTypeDef\000"
 9198      4E414E44 
 9198      496E6974 
 9198      54797065 
 9198      44656600 
 9199              	.LASF16:
 9200 09d5 75696E74 		.ascii	"uint16_t\000"
 9200      31365F74 
 9200      00
 9201              	.LASF104:
 9202 09de 464D435F 		.ascii	"FMC_ExtendedMode\000"
 9202      45787465 
 9202      6E646564 
 9202      4D6F6465 
 9202      00
 9203              	.LASF120:
 9204 09ef 464D435F 		.ascii	"FMC_TARSetupTime\000"
 9204      54415253 
 9204      65747570 
 9204      54696D65 
 9204      00
 9205              	.LASF60:
 9206 0a00 41484232 		.ascii	"AHB2RSTR\000"
 9206      52535452 
 9206      00
 9207              	.LASF98:
 9208 0a09 464D435F 		.ascii	"FMC_BurstAccessMode\000"
 9208      42757273 
 9208      74416363 
 9208      6573734D 
 9208      6F646500 
 9209              	.LASF261:
 9210 0a1d 5F736272 		.ascii	"_sbrk\000"
 9210      6B00
 9211              	.LASF200:
 9212 0a23 6D656D54 		.ascii	"memTest\000"
 9212      65737400 
 9213              	.LASF33:
 9214 0a2b 52455345 		.ascii	"RESERVED0\000"
 9214      52564544 
 9214      3000
 9215              	.LASF64:
 9216 0a35 52455345 		.ascii	"RESERVED1\000"
 9216      52564544 
 9216      3100
 9217              	.LASF68:
 9218 0a3f 52455345 		.ascii	"RESERVED2\000"
 9218      52564544 
 9218      3200
 9219              	.LASF71:
 9220 0a49 52455345 		.ascii	"RESERVED3\000"
 9220      52564544 
 9220      3300
ARM GAS  /var/folders/28/j9jfyj_n4wz3qtvnym210h2c0000gn/T//cc7mox5M.s 			page 172


 9221              	.LASF75:
 9222 0a53 52455345 		.ascii	"RESERVED4\000"
 9222      52564544 
 9222      3400
 9223              	.LASF78:
 9224 0a5d 52455345 		.ascii	"RESERVED5\000"
 9224      52564544 
 9224      3500
 9225              	.LASF80:
 9226 0a67 52455345 		.ascii	"RESERVED6\000"
 9226      52564544 
 9226      3600
 9227              	.LASF6:
 9228 0a71 73686F72 		.ascii	"short int\000"
 9228      7420696E 
 9228      7400
 9229              	.LASF96:
 9230 0a7b 464D435F 		.ascii	"FMC_MemoryType\000"
 9230      4D656D6F 
 9230      72795479 
 9230      706500
 9231              	.LASF10:
 9232 0a8a 6C6F6E67 		.ascii	"long int\000"
 9232      20696E74 
 9232      00
 9233              	.LASF103:
 9234 0a93 464D435F 		.ascii	"FMC_WaitSignal\000"
 9234      57616974 
 9234      5369676E 
 9234      616C00
 9235              	.LASF262:
 9236 0aa2 49544D5F 		.ascii	"ITM_RxBuffer\000"
 9236      52784275 
 9236      66666572 
 9236      00
 9237              	.LASF230:
 9238 0aaf 464D435F 		.ascii	"FMC_PCCARDInit\000"
 9238      50434341 
 9238      5244496E 
 9238      697400
 9239              	.LASF253:
 9240 0abe 464D435F 		.ascii	"FMC_GetITStatus\000"
 9240      47657449 
 9240      54537461 
 9240      74757300 
 9241              	.LASF231:
 9242 0ace 464D435F 		.ascii	"FMC_PCCARDInitStruct\000"
 9242      50434341 
 9242      5244496E 
 9242      69745374 
 9242      72756374 
 9243              	.LASF156:
 9244 0ae3 4F545950 		.ascii	"OTYPER\000"
 9244      455200
 9245              	.LASF20:
 9246 0aea 52455345 		.ascii	"RESET\000"
 9246      5400
ARM GAS  /var/folders/28/j9jfyj_n4wz3qtvnym210h2c0000gn/T//cc7mox5M.s 			page 173


 9247              	.LASF87:
 9248 0af0 464D435F 		.ascii	"FMC_AddressHoldTime\000"
 9248      41646472 
 9248      65737348 
 9248      6F6C6454 
 9248      696D6500 
 9249              	.LASF136:
 9250 0b04 464D435F 		.ascii	"FMC_AutoRefreshNumber\000"
 9250      4175746F 
 9250      52656672 
 9250      6573684E 
 9250      756D6265 
 9251              	.LASF276:
 9252 0b1a 7379736D 		.ascii	"sysmon_init\000"
 9252      6F6E5F69 
 9252      6E697400 
 9253              	.LASF36:
 9254 0b26 50435233 		.ascii	"PCR3\000"
 9254      00
 9255              	.LASF41:
 9256 0b2b 50435234 		.ascii	"PCR4\000"
 9256      00
 9257              	.LASF205:
 9258 0b30 4750494F 		.ascii	"GPIOG_OSPEEDR\000"
 9258      475F4F53 
 9258      50454544 
 9258      5200
 9259              	.LASF294:
 9260 0b3e 2F557365 		.ascii	"/Users/ryanmcgill/Documents/VONGON/ECHO/code/axolot"
 9260      72732F72 
 9260      79616E6D 
 9260      6367696C 
 9260      6C2F446F 
 9261 0b71 692D6563 		.ascii	"i-echo/firmware\000"
 9261      686F2F66 
 9261      69726D77 
 9261      61726500 
 9262              	.LASF135:
 9263 0b81 464D435F 		.ascii	"FMC_CommandTarget\000"
 9263      436F6D6D 
 9263      616E6454 
 9263      61726765 
 9263      7400
 9264              	.LASF170:
 9265 0b93 53544F50 		.ascii	"STOPPING\000"
 9265      50494E47 
 9265      00
 9266              	.LASF224:
 9267 0b9c 746D7070 		.ascii	"tmppmem\000"
 9267      6D656D00 
 9268              	.LASF28:
 9269 0ba4 42575452 		.ascii	"BWTR\000"
 9269      00
 9270              	.LASF4:
 9271 0ba9 5F5F7569 		.ascii	"__uint8_t\000"
 9271      6E74385F 
 9271      7400
ARM GAS  /var/folders/28/j9jfyj_n4wz3qtvnym210h2c0000gn/T//cc7mox5M.s 			page 174


 9272              	.LASF137:
 9273 0bb3 464D435F 		.ascii	"FMC_ModeRegisterDefinition\000"
 9273      4D6F6465 
 9273      52656769 
 9273      73746572 
 9273      44656669 
 9274              	.LASF250:
 9275 0bce 464D435F 		.ascii	"FMC_ITConfig\000"
 9275      4954436F 
 9275      6E666967 
 9275      00
 9276              	.LASF241:
 9277 0bdb 53445241 		.ascii	"SDRAM_Init\000"
 9277      4D5F496E 
 9277      697400
 9278              	.LASF131:
 9279 0be6 464D435F 		.ascii	"FMC_RPDelay\000"
 9279      52504465 
 9279      6C617900 
 9280              	.LASF57:
 9281 0bf2 504C4C43 		.ascii	"PLLCFGR\000"
 9281      46475200 
 9282              	.LASF289:
 9283 0bfa 73646361 		.ascii	"sdcard_attemptMountIfUnmounted\000"
 9283      72645F61 
 9283      7474656D 
 9283      70744D6F 
 9283      756E7449 
 9284              	.LASF91:
 9285 0c19 464D435F 		.ascii	"FMC_DataLatency\000"
 9285      44617461 
 9285      4C617465 
 9285      6E637900 
 9286              	.LASF163:
 9287 0c29 4750494F 		.ascii	"GPIO_TypeDef\000"
 9287      5F547970 
 9287      65446566 
 9287      00
 9288              	.LASF187:
 9289 0c36 464D435F 		.ascii	"FMC_SDRAMCommandStruct\000"
 9289      53445241 
 9289      4D436F6D 
 9289      6D616E64 
 9289      53747275 
 9290              	.LASF133:
 9291 0c4d 464D435F 		.ascii	"FMC_SDRAMTimingInitTypeDef\000"
 9291      53445241 
 9291      4D54696D 
 9291      696E6749 
 9291      6E697454 
 9292              	.LASF216:
 9293 0c68 464D435F 		.ascii	"FMC_NORSRAMInit\000"
 9293      4E4F5253 
 9293      52414D49 
 9293      6E697400 
 9294              	.LASF44:
 9295 0c78 50494F34 		.ascii	"PIO4\000"
ARM GAS  /var/folders/28/j9jfyj_n4wz3qtvnym210h2c0000gn/T//cc7mox5M.s 			page 175


 9295      00
 9296              	.LASF48:
 9297 0c7d 5344434D 		.ascii	"SDCMR\000"
 9297      5200
 9298              	.LASF24:
 9299 0c83 454E4142 		.ascii	"ENABLE\000"
 9299      4C4500
 9300              	.LASF74:
 9301 0c8a 41484233 		.ascii	"AHB3LPENR\000"
 9301      4C50454E 
 9301      5200
 9302              	.LASF19:
 9303 0c94 73697A65 		.ascii	"sizetype\000"
 9303      74797065 
 9303      00
 9304              	.LASF263:
 9305 0c9d 66735F72 		.ascii	"fs_ready\000"
 9305      65616479 
 9305      00
 9306              	.LASF260:
 9307 0ca6 464D435F 		.ascii	"FMC_PCCARDDeInit\000"
 9307      50434341 
 9307      52444465 
 9307      496E6974 
 9307      00
 9308              	.LASF12:
 9309 0cb7 6C6F6E67 		.ascii	"long unsigned int\000"
 9309      20756E73 
 9309      69676E65 
 9309      6420696E 
 9309      7400
 9310              	.LASF211:
 9311 0cc9 75774275 		.ascii	"uwBufferSize\000"
 9311      66666572 
 9311      53697A65 
 9311      00
 9312              	.LASF66:
 9313 0cd6 41484232 		.ascii	"AHB2ENR\000"
 9313      454E5200 
 9314              	.LASF17:
 9315 0cde 696E7433 		.ascii	"int32_t\000"
 9315      325F7400 
 9316              	.LASF297:
 9317 0ce6 65786365 		.ascii	"exception_check\000"
 9317      7074696F 
 9317      6E5F6368 
 9317      65636B00 
 9318              	.LASF82:
 9319 0cf6 504C4C49 		.ascii	"PLLI2SCFGR\000"
 9319      32534346 
 9319      475200
 9320              	.LASF272:
 9321 0d01 636F6E66 		.ascii	"configSDRAM\000"
 9321      69675344 
 9321      52414D00 
 9322              	.LASF3:
 9323 0d0d 756E7369 		.ascii	"unsigned char\000"
ARM GAS  /var/folders/28/j9jfyj_n4wz3qtvnym210h2c0000gn/T//cc7mox5M.s 			page 176


 9323      676E6564 
 9323      20636861 
 9323      7200
 9324              	.LASF11:
 9325 0d1b 5F5F7569 		.ascii	"__uint32_t\000"
 9325      6E743332 
 9325      5F7400
 9326              	.LASF267:
 9327 0d26 70697463 		.ascii	"pitcht\000"
 9327      687400
 9328              	.LASF132:
 9329 0d2d 464D435F 		.ascii	"FMC_RCDDelay\000"
 9329      52434444 
 9329      656C6179 
 9329      00
 9330              	.LASF269:
 9331 0d3a 63685468 		.ascii	"chThdSleep\000"
 9331      64536C65 
 9331      657000
 9332              	.LASF102:
 9333 0d45 464D435F 		.ascii	"FMC_WriteOperation\000"
 9333      57726974 
 9333      654F7065 
 9333      72617469 
 9333      6F6E00
 9334              	.LASF226:
 9335 0d58 464D435F 		.ascii	"FMC_NANDStructInit\000"
 9335      4E414E44 
 9335      53747275 
 9335      6374496E 
 9335      697400
 9336              	.LASF291:
 9337 0d6b 4C6F6164 		.ascii	"LoadPatchStartFlash\000"
 9337      50617463 
 9337      68537461 
 9337      7274466C 
 9337      61736800 
 9338              	.LASF245:
 9339 0d7f 464D435F 		.ascii	"FMC_GetECC\000"
 9339      47657445 
 9339      434300
 9340              	.LASF51:
 9341 0d8a 464D435F 		.ascii	"FMC_Bank5_6_TypeDef\000"
 9341      42616E6B 
 9341      355F365F 
 9341      54797065 
 9341      44656600 
 9342              	.LASF58:
 9343 0d9e 43464752 		.ascii	"CFGR\000"
 9343      00
 9344              	.LASF107:
 9345 0da3 464D435F 		.ascii	"FMC_ContinousClock\000"
 9345      436F6E74 
 9345      696E6F75 
 9345      73436C6F 
 9345      636B00
 9346              	.LASF286:
ARM GAS  /var/folders/28/j9jfyj_n4wz3qtvnym210h2c0000gn/T//cc7mox5M.s 			page 177


 9347 0db6 61786F6C 		.ascii	"axoloti_control_init\000"
 9347      6F74695F 
 9347      636F6E74 
 9347      726F6C5F 
 9347      696E6974 
 9348              	.LASF292:
 9349 0dcb 474E5520 		.ascii	"GNU C 4.9.3 20150529 (release) [ARM/embedded-4_9-br"
 9349      4320342E 
 9349      392E3320 
 9349      32303135 
 9349      30353239 
 9350 0dfe 616E6368 		.ascii	"anch revision 224288] -mcpu=cortex-m4 -mfloat-abi=h"
 9350      20726576 
 9350      6973696F 
 9350      6E203232 
 9350      34323838 
 9351 0e31 61726420 		.ascii	"ard -mfpu=fpv4-sp-d16 -mno-thumb-interwork -mthumb "
 9351      2D6D6670 
 9351      753D6670 
 9351      76342D73 
 9351      702D6431 
 9352 0e64 2D676764 		.ascii	"-ggdb -O2 -fomit-frame-pointer -falign-functions=16"
 9352      62202D4F 
 9352      32202D66 
 9352      6F6D6974 
 9352      2D667261 
 9353 0e97 202D666E 		.ascii	" -fno-math-errno -fsingle-precision-constant\000"
 9353      6F2D6D61 
 9353      74682D65 
 9353      72726E6F 
 9353      202D6673 
 9354              	.LASF106:
 9355 0ec4 464D435F 		.ascii	"FMC_WriteBurst\000"
 9355      57726974 
 9355      65427572 
 9355      737400
 9356              	.LASF193:
 9357 0ed3 53445241 		.ascii	"SDRAM_Bank\000"
 9357      4D5F4261 
 9357      6E6B00
 9358              	.LASF40:
 9359 0ede 464D435F 		.ascii	"FMC_Bank3_TypeDef\000"
 9359      42616E6B 
 9359      335F5479 
 9359      70654465 
 9359      6600
 9360              	.LASF139:
 9361 0ef0 464D435F 		.ascii	"FMC_ColumnBitsNumber\000"
 9361      436F6C75 
 9361      6D6E4269 
 9361      74734E75 
 9361      6D626572 
 9362              	.LASF283:
 9363 0f05 6D696469 		.ascii	"midi_init\000"
 9363      5F696E69 
 9363      7400
 9364              	.LASF270:
ARM GAS  /var/folders/28/j9jfyj_n4wz3qtvnym210h2c0000gn/T//cc7mox5M.s 			page 178


 9365 0f0f 5F70616C 		.ascii	"_pal_lld_setgroupmode\000"
 9365      5F6C6C64 
 9365      5F736574 
 9365      67726F75 
 9365      706D6F64 
 9366              	.LASF165:
 9367 0f25 696F6D6F 		.ascii	"iomode_t\000"
 9367      64655F74 
 9367      00
 9368              	.LASF197:
 9369 0f2e 69746572 		.ascii	"iter\000"
 9369      00
 9370              	.LASF130:
 9371 0f33 464D435F 		.ascii	"FMC_WriteRecoveryTime\000"
 9371      57726974 
 9371      65526563 
 9371      6F766572 
 9371      7954696D 
 9372              	.LASF46:
 9373 0f49 53444352 		.ascii	"SDCR\000"
 9373      00
 9374              	.LASF295:
 9375 0f4e 464D435F 		.ascii	"FMC_GetFlagStatus\000"
 9375      47657446 
 9375      6C616753 
 9375      74617475 
 9375      7300
 9376              	.LASF2:
 9377 0f60 7369676E 		.ascii	"signed char\000"
 9377      65642063 
 9377      68617200 
 9378              	.LASF138:
 9379 0f6c 464D435F 		.ascii	"FMC_SDRAMCommandTypeDef\000"
 9379      53445241 
 9379      4D436F6D 
 9379      6D616E64 
 9379      54797065 
 9380              	.LASF56:
 9381 0f84 53595343 		.ascii	"SYSCFG_TypeDef\000"
 9381      46475F54 
 9381      79706544 
 9381      656600
 9382              	.LASF92:
 9383 0f93 464D435F 		.ascii	"FMC_AccessMode\000"
 9383      41636365 
 9383      73734D6F 
 9383      646500
 9384              	.LASF271:
 9385 0fa2 6D656D63 		.ascii	"memcpy\000"
 9385      707900
 9386              	.LASF258:
 9387 0fa9 6D61696E 		.ascii	"main\000"
 9387      00
 9388              	.LASF179:
 9389 0fae 4552524F 		.ascii	"ERROR_UNDERVOLT_33\000"
 9389      525F554E 
 9389      44455256 
ARM GAS  /var/folders/28/j9jfyj_n4wz3qtvnym210h2c0000gn/T//cc7mox5M.s 			page 179


 9389      4F4C545F 
 9389      333300
 9390              	.LASF198:
 9391 0fc1 6E697465 		.ascii	"niter\000"
 9391      7200
 9392              	.LASF95:
 9393 0fc7 464D435F 		.ascii	"FMC_DataAddressMux\000"
 9393      44617461 
 9393      41646472 
 9393      6573734D 
 9393      757800
 9394              	.LASF185:
 9395 0fda 62697473 		.ascii	"bitstatus\000"
 9395      74617475 
 9395      7300
 9396              	.LASF189:
 9397 0fe4 464D435F 		.ascii	"FMC_SDRAMCmdConfig\000"
 9397      53445241 
 9397      4D436D64 
 9397      436F6E66 
 9397      696700
 9398              	.LASF50:
 9399 0ff7 53445352 		.ascii	"SDSR\000"
 9399      00
 9400              	.LASF199:
 9401 0ffc 6E697465 		.ascii	"niter2\000"
 9401      723200
 9402              	.LASF32:
 9403 1003 50415454 		.ascii	"PATT2\000"
 9403      3200
 9404              	.LASF38:
 9405 1009 50415454 		.ascii	"PATT3\000"
 9405      3300
 9406              	.LASF288:
 9407 100f 4D595F55 		.ascii	"MY_USBH_Init\000"
 9407      5342485F 
 9407      496E6974 
 9407      00
 9408              	.LASF31:
 9409 101c 504D454D 		.ascii	"PMEM2\000"
 9409      3200
 9410              	.LASF37:
 9411 1022 504D454D 		.ascii	"PMEM3\000"
 9411      3300
 9412              	.LASF42:
 9413 1028 504D454D 		.ascii	"PMEM4\000"
 9413      3400
 9414              	.LASF118:
 9415 102e 464D435F 		.ascii	"FMC_ECCPageSize\000"
 9415      45434350 
 9415      61676553 
 9415      697A6500 
 9416              	.LASF125:
 9417 103e 464D435F 		.ascii	"FMC_PCCARDInitTypeDef\000"
 9417      50434341 
 9417      5244496E 
 9417      69745479 
ARM GAS  /var/folders/28/j9jfyj_n4wz3qtvnym210h2c0000gn/T//cc7mox5M.s 			page 180


 9417      70654465 
 9418              	.LASF180:
 9419 1054 4552524F 		.ascii	"ERROR_SDRAM\000"
 9419      525F5344 
 9419      52414D00 
 9420              	.LASF257:
 9421 1060 464D435F 		.ascii	"FMC_ClearITPendingBit\000"
 9421      436C6561 
 9421      72495450 
 9421      656E6469 
 9421      6E674269 
 9422              	.LASF59:
 9423 1076 41484231 		.ascii	"AHB1RSTR\000"
 9423      52535452 
 9423      00
 9424              	.LASF160:
 9425 107f 4C434B52 		.ascii	"LCKR\000"
 9425      00
 9426              	.LASF279:
 9427 1084 496E6974 		.ascii	"InitPConnection\000"
 9427      50436F6E 
 9427      6E656374 
 9427      696F6E00 
 9428              		.ident	"GCC: (GNU Tools for ARM Embedded Processors) 4.9.3 20150529 (release) [ARM/embedded-4_9-br
ARM GAS  /var/folders/28/j9jfyj_n4wz3qtvnym210h2c0000gn/T//cc7mox5M.s 			page 181


DEFINED SYMBOLS
                            *ABS*:0000000000000000 main.c
/var/folders/28/j9jfyj_n4wz3qtvnym210h2c0000gn/T//cc7mox5M.s:20     .text:0000000000000000 $t
/var/folders/28/j9jfyj_n4wz3qtvnym210h2c0000gn/T//cc7mox5M.s:25     .text:0000000000000000 test.12402
/var/folders/28/j9jfyj_n4wz3qtvnym210h2c0000gn/T//cc7mox5M.s:83     .text:0000000000000030 $d
/var/folders/28/j9jfyj_n4wz3qtvnym210h2c0000gn/T//cc7mox5M.s:87     .text:0000000000000034 $t
/var/folders/28/j9jfyj_n4wz3qtvnym210h2c0000gn/T//cc7mox5M.s:93     .text:0000000000000040 memTest
/var/folders/28/j9jfyj_n4wz3qtvnym210h2c0000gn/T//cc7mox5M.s:288    .text:000000000000011c $d
/var/folders/28/j9jfyj_n4wz3qtvnym210h2c0000gn/T//cc7mox5M.s:292    .text:0000000000000120 $t
/var/folders/28/j9jfyj_n4wz3qtvnym210h2c0000gn/T//cc7mox5M.s:298    .text:0000000000000120 SDRAM_InitSequence
/var/folders/28/j9jfyj_n4wz3qtvnym210h2c0000gn/T//cc7mox5M.s:481    .text:0000000000000198 $d
/var/folders/28/j9jfyj_n4wz3qtvnym210h2c0000gn/T//cc7mox5M.s:486    .text:00000000000001a0 $t
/var/folders/28/j9jfyj_n4wz3qtvnym210h2c0000gn/T//cc7mox5M.s:492    .text:00000000000001a0 SDRAM_WriteBuffer
/var/folders/28/j9jfyj_n4wz3qtvnym210h2c0000gn/T//cc7mox5M.s:575    .text:00000000000001dc $d
/var/folders/28/j9jfyj_n4wz3qtvnym210h2c0000gn/T//cc7mox5M.s:579    .text:00000000000001e0 $t
/var/folders/28/j9jfyj_n4wz3qtvnym210h2c0000gn/T//cc7mox5M.s:585    .text:00000000000001e0 SDRAM_ReadBuffer
/var/folders/28/j9jfyj_n4wz3qtvnym210h2c0000gn/T//cc7mox5M.s:653    .text:0000000000000210 $d
/var/folders/28/j9jfyj_n4wz3qtvnym210h2c0000gn/T//cc7mox5M.s:657    .text:0000000000000214 $t
/var/folders/28/j9jfyj_n4wz3qtvnym210h2c0000gn/T//cc7mox5M.s:663    .text:0000000000000220 FMC_NORSRAMDeInit
/var/folders/28/j9jfyj_n4wz3qtvnym210h2c0000gn/T//cc7mox5M.s:703    .text:0000000000000250 FMC_NORSRAMInit
/var/folders/28/j9jfyj_n4wz3qtvnym210h2c0000gn/T//cc7mox5M.s:896    .text:0000000000000350 FMC_NORSRAMStructInit
/var/folders/28/j9jfyj_n4wz3qtvnym210h2c0000gn/T//cc7mox5M.s:993    .text:00000000000003b0 FMC_NORSRAMCmd
/var/folders/28/j9jfyj_n4wz3qtvnym210h2c0000gn/T//cc7mox5M.s:1021   .text:00000000000003cc $d
/var/folders/28/j9jfyj_n4wz3qtvnym210h2c0000gn/T//cc7mox5M.s:1025   .text:00000000000003d0 $t
/var/folders/28/j9jfyj_n4wz3qtvnym210h2c0000gn/T//cc7mox5M.s:1031   .text:00000000000003d0 FMC_NANDDeInit
/var/folders/28/j9jfyj_n4wz3qtvnym210h2c0000gn/T//cc7mox5M.s:1065   .text:00000000000003ec $d
/var/folders/28/j9jfyj_n4wz3qtvnym210h2c0000gn/T//cc7mox5M.s:1070   .text:00000000000003f4 $t
/var/folders/28/j9jfyj_n4wz3qtvnym210h2c0000gn/T//cc7mox5M.s:1076   .text:0000000000000400 FMC_NANDInit
/var/folders/28/j9jfyj_n4wz3qtvnym210h2c0000gn/T//cc7mox5M.s:1175   .text:0000000000000478 $d
/var/folders/28/j9jfyj_n4wz3qtvnym210h2c0000gn/T//cc7mox5M.s:1180   .text:0000000000000480 $t
/var/folders/28/j9jfyj_n4wz3qtvnym210h2c0000gn/T//cc7mox5M.s:1186   .text:0000000000000480 FMC_NANDStructInit
/var/folders/28/j9jfyj_n4wz3qtvnym210h2c0000gn/T//cc7mox5M.s:1251   .text:00000000000004b0 FMC_NANDCmd
/var/folders/28/j9jfyj_n4wz3qtvnym210h2c0000gn/T//cc7mox5M.s:1289   .text:00000000000004d8 $d
/var/folders/28/j9jfyj_n4wz3qtvnym210h2c0000gn/T//cc7mox5M.s:1295   .text:00000000000004e4 $t
/var/folders/28/j9jfyj_n4wz3qtvnym210h2c0000gn/T//cc7mox5M.s:1301   .text:00000000000004f0 FMC_NANDECCCmd
/var/folders/28/j9jfyj_n4wz3qtvnym210h2c0000gn/T//cc7mox5M.s:1339   .text:0000000000000518 $d
/var/folders/28/j9jfyj_n4wz3qtvnym210h2c0000gn/T//cc7mox5M.s:1345   .text:0000000000000524 $t
/var/folders/28/j9jfyj_n4wz3qtvnym210h2c0000gn/T//cc7mox5M.s:1351   .text:0000000000000530 FMC_GetECC
/var/folders/28/j9jfyj_n4wz3qtvnym210h2c0000gn/T//cc7mox5M.s:1373   .text:000000000000053c $d
/var/folders/28/j9jfyj_n4wz3qtvnym210h2c0000gn/T//cc7mox5M.s:1378   .text:0000000000000544 $t
/var/folders/28/j9jfyj_n4wz3qtvnym210h2c0000gn/T//cc7mox5M.s:1384   .text:0000000000000550 FMC_PCCARDDeInit
/var/folders/28/j9jfyj_n4wz3qtvnym210h2c0000gn/T//cc7mox5M.s:1413   .text:0000000000000568 $d
/var/folders/28/j9jfyj_n4wz3qtvnym210h2c0000gn/T//cc7mox5M.s:1417   .text:000000000000056c $t
/var/folders/28/j9jfyj_n4wz3qtvnym210h2c0000gn/T//cc7mox5M.s:1423   .text:0000000000000570 FMC_PCCARDInit
/var/folders/28/j9jfyj_n4wz3qtvnym210h2c0000gn/T//cc7mox5M.s:1511   .text:00000000000005d4 $d
/var/folders/28/j9jfyj_n4wz3qtvnym210h2c0000gn/T//cc7mox5M.s:1515   .text:00000000000005d8 $t
/var/folders/28/j9jfyj_n4wz3qtvnym210h2c0000gn/T//cc7mox5M.s:1521   .text:00000000000005e0 FMC_PCCARDStructInit
/var/folders/28/j9jfyj_n4wz3qtvnym210h2c0000gn/T//cc7mox5M.s:1588   .text:0000000000000610 FMC_PCCARDCmd
/var/folders/28/j9jfyj_n4wz3qtvnym210h2c0000gn/T//cc7mox5M.s:1615   .text:0000000000000628 $d
/var/folders/28/j9jfyj_n4wz3qtvnym210h2c0000gn/T//cc7mox5M.s:1620   .text:0000000000000630 $t
/var/folders/28/j9jfyj_n4wz3qtvnym210h2c0000gn/T//cc7mox5M.s:1626   .text:0000000000000630 FMC_SDRAMDeInit
/var/folders/28/j9jfyj_n4wz3qtvnym210h2c0000gn/T//cc7mox5M.s:1668   .text:0000000000000658 $d
/var/folders/28/j9jfyj_n4wz3qtvnym210h2c0000gn/T//cc7mox5M.s:1672   .text:000000000000065c $t
/var/folders/28/j9jfyj_n4wz3qtvnym210h2c0000gn/T//cc7mox5M.s:1678   .text:0000000000000660 FMC_SDRAMInit
/var/folders/28/j9jfyj_n4wz3qtvnym210h2c0000gn/T//cc7mox5M.s:1860   .text:0000000000000724 $d
/var/folders/28/j9jfyj_n4wz3qtvnym210h2c0000gn/T//cc7mox5M.s:1864   .text:0000000000000728 $t
/var/folders/28/j9jfyj_n4wz3qtvnym210h2c0000gn/T//cc7mox5M.s:1870   .text:0000000000000730 SDRAM_Init
ARM GAS  /var/folders/28/j9jfyj_n4wz3qtvnym210h2c0000gn/T//cc7mox5M.s 			page 182


/var/folders/28/j9jfyj_n4wz3qtvnym210h2c0000gn/T//cc7mox5M.s:2033   .text:0000000000000820 $d
/var/folders/28/j9jfyj_n4wz3qtvnym210h2c0000gn/T//cc7mox5M.s:2040   .text:0000000000000830 $t
/var/folders/28/j9jfyj_n4wz3qtvnym210h2c0000gn/T//cc7mox5M.s:2046   .text:0000000000000830 configSDRAM
/var/folders/28/j9jfyj_n4wz3qtvnym210h2c0000gn/T//cc7mox5M.s:2065   .text:0000000000000840 FMC_SDRAMStructInit
/var/folders/28/j9jfyj_n4wz3qtvnym210h2c0000gn/T//cc7mox5M.s:2138   .text:0000000000000880 FMC_SDRAMCmdConfig
/var/folders/28/j9jfyj_n4wz3qtvnym210h2c0000gn/T//cc7mox5M.s:2176   .text:000000000000089c $d
/var/folders/28/j9jfyj_n4wz3qtvnym210h2c0000gn/T//cc7mox5M.s:2180   .text:00000000000008a0 $t
/var/folders/28/j9jfyj_n4wz3qtvnym210h2c0000gn/T//cc7mox5M.s:2186   .text:00000000000008a0 FMC_GetModeStatus
/var/folders/28/j9jfyj_n4wz3qtvnym210h2c0000gn/T//cc7mox5M.s:2217   .text:00000000000008b8 $d
/var/folders/28/j9jfyj_n4wz3qtvnym210h2c0000gn/T//cc7mox5M.s:2221   .text:00000000000008bc $t
/var/folders/28/j9jfyj_n4wz3qtvnym210h2c0000gn/T//cc7mox5M.s:2227   .text:00000000000008c0 FMC_SetRefreshCount
/var/folders/28/j9jfyj_n4wz3qtvnym210h2c0000gn/T//cc7mox5M.s:2245   .text:00000000000008cc $d
/var/folders/28/j9jfyj_n4wz3qtvnym210h2c0000gn/T//cc7mox5M.s:2249   .text:00000000000008d0 $t
/var/folders/28/j9jfyj_n4wz3qtvnym210h2c0000gn/T//cc7mox5M.s:2255   .text:00000000000008d0 FMC_SetAutoRefresh_Number
/var/folders/28/j9jfyj_n4wz3qtvnym210h2c0000gn/T//cc7mox5M.s:2273   .text:00000000000008dc $d
/var/folders/28/j9jfyj_n4wz3qtvnym210h2c0000gn/T//cc7mox5M.s:2277   .text:00000000000008e0 $t
/var/folders/28/j9jfyj_n4wz3qtvnym210h2c0000gn/T//cc7mox5M.s:2283   .text:00000000000008e0 FMC_SDRAMWriteProtectionConfig
/var/folders/28/j9jfyj_n4wz3qtvnym210h2c0000gn/T//cc7mox5M.s:2317   .text:0000000000000910 FMC_ITConfig
/var/folders/28/j9jfyj_n4wz3qtvnym210h2c0000gn/T//cc7mox5M.s:2426   .text:000000000000098c $d
/var/folders/28/j9jfyj_n4wz3qtvnym210h2c0000gn/T//cc7mox5M.s:2433   .text:000000000000099c $t
/var/folders/28/j9jfyj_n4wz3qtvnym210h2c0000gn/T//cc7mox5M.s:2439   .text:00000000000009a0 FMC_GetFlagStatus
/var/folders/28/j9jfyj_n4wz3qtvnym210h2c0000gn/T//cc7mox5M.s:2492   .text:00000000000009d4 $d
/var/folders/28/j9jfyj_n4wz3qtvnym210h2c0000gn/T//cc7mox5M.s:2499   .text:00000000000009e4 $t
/var/folders/28/j9jfyj_n4wz3qtvnym210h2c0000gn/T//cc7mox5M.s:2505   .text:00000000000009f0 FMC_ClearFlag
/var/folders/28/j9jfyj_n4wz3qtvnym210h2c0000gn/T//cc7mox5M.s:2559   .text:0000000000000a30 $d
/var/folders/28/j9jfyj_n4wz3qtvnym210h2c0000gn/T//cc7mox5M.s:2566   .text:0000000000000a40 $t
/var/folders/28/j9jfyj_n4wz3qtvnym210h2c0000gn/T//cc7mox5M.s:2572   .text:0000000000000a40 FMC_GetITStatus
/var/folders/28/j9jfyj_n4wz3qtvnym210h2c0000gn/T//cc7mox5M.s:2665   .text:0000000000000a94 $d
/var/folders/28/j9jfyj_n4wz3qtvnym210h2c0000gn/T//cc7mox5M.s:2672   .text:0000000000000aa4 $t
/var/folders/28/j9jfyj_n4wz3qtvnym210h2c0000gn/T//cc7mox5M.s:2678   .text:0000000000000ab0 FMC_ClearITPendingBit
/var/folders/28/j9jfyj_n4wz3qtvnym210h2c0000gn/T//cc7mox5M.s:2730   .text:0000000000000af0 $d
/var/folders/28/j9jfyj_n4wz3qtvnym210h2c0000gn/T//cc7mox5M.s:2738   .text.startup:0000000000000000 $t
/var/folders/28/j9jfyj_n4wz3qtvnym210h2c0000gn/T//cc7mox5M.s:2744   .text.startup:0000000000000000 main
/var/folders/28/j9jfyj_n4wz3qtvnym210h2c0000gn/T//cc7mox5M.s:2903   .text.startup:00000000000000cc $d
/var/folders/28/j9jfyj_n4wz3qtvnym210h2c0000gn/T//cc7mox5M.s:2912   .text:0000000000000b00 $t
/var/folders/28/j9jfyj_n4wz3qtvnym210h2c0000gn/T//cc7mox5M.s:2918   .text:0000000000000b00 HAL_Delay
/var/folders/28/j9jfyj_n4wz3qtvnym210h2c0000gn/T//cc7mox5M.s:2940   .text:0000000000000b18 $d
/var/folders/28/j9jfyj_n4wz3qtvnym210h2c0000gn/T//cc7mox5M.s:2944   .text:0000000000000b1c $t
/var/folders/28/j9jfyj_n4wz3qtvnym210h2c0000gn/T//cc7mox5M.s:2950   .text:0000000000000b20 _sbrk
                     .debug_frame:0000000000000010 $d

UNDEFINED SYMBOLS
setErrorFlag
chThdSleep
_pal_lld_setgroupmode
memcpy
halInit
chSysInit
sdcard_init
sysmon_init
exception_init
InitPatch0
InitPConnection
axoloti_board_init
adc_init
axoloti_math_init
midi_init
ARM GAS  /var/folders/28/j9jfyj_n4wz3qtvnym210h2c0000gn/T//cc7mox5M.s 			page 183


start_dsp_thread
codec_init
axoloti_control_init
ui_init
MY_USBH_Init
exception_check
sdcard_attemptMountIfUnmounted
LoadPatchStartSD
LoadPatchStartFlash
fs_ready
patchStatus
