ARM GAS  /var/folders/28/j9jfyj_n4wz3qtvnym210h2c0000gn/T//ccoKeYRm.s 			page 1


   1              		.syntax unified
   2              		.cpu cortex-m4
   3              		.eabi_attribute 27, 1
   4              		.eabi_attribute 28, 1
   5              		.fpu fpv4-sp-d16
   6              		.eabi_attribute 20, 1
   7              		.eabi_attribute 21, 1
   8              		.eabi_attribute 23, 3
   9              		.eabi_attribute 24, 1
  10              		.eabi_attribute 25, 1
  11              		.eabi_attribute 26, 1
  12              		.eabi_attribute 30, 2
  13              		.eabi_attribute 34, 1
  14              		.eabi_attribute 18, 4
  15              		.thumb
  16              		.file	"main.c"
  17              		.text
  18              	.Ltext0:
  19              		.cfi_sections	.debug_frame
  20              		.align	2
  21              		.p2align 4
  22              		.thumb
  23              		.thumb_func
  24              		.type	test.12401, %function
  25              	test.12401:
  26              	.LFB184:
  27              		.file 1 "sdram.c"
  28              		.loc 1 327 0
  29              		.cfi_startproc
  30              		@ args = 0, pretend = 0, frame = 24
  31              		@ frame_needed = 1, uses_anonymous_args = 0
  32              		@ link register save eliminated.
  33 0000 80B4     		push	{r7}
  34              		.cfi_def_cfa_offset 4
  35              		.cfi_offset 7, -4
  36 0002 87B0     		sub	sp, sp, #28
  37              		.cfi_def_cfa_offset 32
  38 0004 00AF     		add	r7, sp, #0
  39              		.cfi_def_cfa_register 7
  40              		.loc 1 328 0
  41 0006 0A4B     		ldr	r3, .L2
  42 0008 1B68     		ldr	r3, [r3]
  43 000a 7B61     		str	r3, [r7, #20]
  44              	.LVL0:
  45              		.loc 1 329 0
  46 000c 084B     		ldr	r3, .L2
  47              	.LVL1:
  48 000e 5B68     		ldr	r3, [r3, #4]
  49 0010 3B61     		str	r3, [r7, #16]
  50              	.LVL2:
  51              		.loc 1 330 0
  52 0012 074B     		ldr	r3, .L2
  53              	.LVL3:
  54 0014 9B68     		ldr	r3, [r3, #8]
  55 0016 FB60     		str	r3, [r7, #12]
  56              	.LVL4:
  57              		.loc 1 331 0
ARM GAS  /var/folders/28/j9jfyj_n4wz3qtvnym210h2c0000gn/T//ccoKeYRm.s 			page 2


  58 0018 054B     		ldr	r3, .L2
  59              	.LVL5:
  60 001a DB68     		ldr	r3, [r3, #12]
  61 001c BB60     		str	r3, [r7, #8]
  62              	.LVL6:
  63              		.loc 1 332 0
  64 001e 044B     		ldr	r3, .L2
  65              	.LVL7:
  66 0020 5B6A     		ldr	r3, [r3, #36]
  67 0022 7B60     		str	r3, [r7, #4]
  68              	.LVL8:
  69              		.loc 1 333 0
  70 0024 1C37     		adds	r7, r7, #28
  71              		.cfi_def_cfa_offset 4
  72 0026 BD46     		mov	sp, r7
  73              		.cfi_def_cfa_register 13
  74              	.LVL9:
  75              		@ sp needed
  76 0028 5DF8047B 		ldr	r7, [sp], #4
  77              		.cfi_restore 7
  78              		.cfi_def_cfa_offset 0
  79 002c 7047     		bx	lr
  80              	.L3:
  81 002e 00BF     		.align	2
  82              	.L2:
  83 0030 00180240 		.word	1073879040
  84              		.cfi_endproc
  85              	.LFE184:
  86              		.size	test.12401, .-test.12401
  87              		.align	2
  88 0034 AFF30080 		.p2align 4,,15
  88      AFF30080 
  88      AFF30080 
  89              		.global	memTest
  90              		.thumb
  91              		.thumb_func
  92              		.type	memTest, %function
  93              	memTest:
  94              	.LFB182:
  95              		.loc 1 164 0
  96              		.cfi_startproc
  97              		@ args = 0, pretend = 0, frame = 16
  98              		@ frame_needed = 0, uses_anonymous_args = 0
  99              	.LVL10:
 100 0040 10B5     		push	{r4, lr}
 101              		.cfi_def_cfa_offset 8
 102              		.cfi_offset 4, -8
 103              		.cfi_offset 14, -4
 104 0042 84B0     		sub	sp, sp, #16
 105              		.cfi_def_cfa_offset 24
 106              		.loc 1 174 0
 107 0044 0023     		movs	r3, #0
 108              		.loc 1 175 0
 109 0046 1022     		movs	r2, #16
 110              		.loc 1 174 0
 111 0048 0193     		str	r3, [sp, #4]
 112              		.loc 1 175 0
ARM GAS  /var/folders/28/j9jfyj_n4wz3qtvnym210h2c0000gn/T//ccoKeYRm.s 			page 3


 113 004a 0292     		str	r2, [sp, #8]
 114              		.loc 1 176 0
 115 004c 0392     		str	r2, [sp, #12]
 116              	.LVL11:
 117              		.loc 1 184 0
 118 004e 0193     		str	r3, [sp, #4]
 119 0050 019B     		ldr	r3, [sp, #4]
 120 0052 029A     		ldr	r2, [sp, #8]
 121 0054 9A42     		cmp	r2, r3
 122 0056 28DD     		ble	.L12
 123              	.LBB36:
 124              		.loc 1 188 0
 125 0058 3049     		ldr	r1, .L29
 126              	.LVL12:
 127              	.L18:
 128              		.loc 1 185 0
 129 005a 019B     		ldr	r3, [sp, #4]
 130              	.LVL13:
 131 005c 4FF04042 		mov	r2, #-1073741824
 132              	.LVL14:
 133              	.L8:
 134              		.loc 1 188 0 discriminator 3
 135 0060 01FB03F3 		mul	r3, r1, r3
 136              	.LVL15:
 137 0064 0133     		adds	r3, r3, #1
 138              	.LVL16:
 139              		.loc 1 190 0 discriminator 3
 140 0066 42F8043B 		str	r3, [r2], #4
 141              		.loc 1 187 0 discriminator 3
 142 006a 12F17E5F 		cmn	r2, #1065353216
 143 006e F7D1     		bne	.L8
 144              		.loc 1 193 0
 145 0070 0198     		ldr	r0, [sp, #4]
 146              	.LVL17:
 147 0072 4FF04043 		mov	r3, #-1073741824
 148 0076 02E0     		b	.L11
 149              	.LVL18:
 150              	.L9:
 151              		.loc 1 194 0 discriminator 2
 152 0078 13F17E5F 		cmn	r3, #1065353216
 153 007c 0ED0     		beq	.L27
 154              	.LVL19:
 155              	.L11:
 156              		.loc 1 195 0
 157 007e 01FB00F2 		mul	r2, r1, r0
 158              	.LVL20:
 159              		.loc 1 196 0
 160 0082 1868     		ldr	r0, [r3]
 161              	.LVL21:
 162              		.loc 1 195 0
 163 0084 0132     		adds	r2, r2, #1
 164              		.loc 1 197 0
 165 0086 9042     		cmp	r0, r2
 166 0088 03F10403 		add	r3, r3, #4
 167 008c F4D0     		beq	.L9
 168              		.loc 1 198 0
 169 008e 0520     		movs	r0, #5
ARM GAS  /var/folders/28/j9jfyj_n4wz3qtvnym210h2c0000gn/T//ccoKeYRm.s 			page 4


 170              	.LVL22:
 171 0090 FFF7FEFF 		bl	setErrorFlag
 172              	.LVL23:
 173              	.L10:
 174              		.loc 1 200 0 discriminator 1
 175 0094 6420     		movs	r0, #100
 176 0096 FFF7FEFF 		bl	chThdSleep
 177              	.LVL24:
 178              		.loc 1 201 0 discriminator 1
 179 009a FBE7     		b	.L10
 180              	.LVL25:
 181              	.L27:
 182              	.LBE36:
 183              		.loc 1 184 0 discriminator 2
 184 009c 019B     		ldr	r3, [sp, #4]
 185 009e 0133     		adds	r3, r3, #1
 186 00a0 0193     		str	r3, [sp, #4]
 187 00a2 019A     		ldr	r2, [sp, #4]
 188 00a4 029B     		ldr	r3, [sp, #8]
 189 00a6 9A42     		cmp	r2, r3
 190 00a8 D7DB     		blt	.L18
 191              	.LVL26:
 192              	.L12:
 193              		.loc 1 214 0
 194 00aa 0023     		movs	r3, #0
 195 00ac 0193     		str	r3, [sp, #4]
 196 00ae 019B     		ldr	r3, [sp, #4]
 197 00b0 039A     		ldr	r2, [sp, #12]
 198 00b2 9A42     		cmp	r2, r3
 199 00b4 30DD     		ble	.L4
 200              	.LBB37:
 201              		.loc 1 218 0
 202 00b6 194C     		ldr	r4, .L29
 203              	.L17:
 204              		.loc 1 215 0
 205 00b8 019B     		ldr	r3, [sp, #4]
 206              	.LVL27:
 207              		.loc 1 217 0
 208 00ba 0022     		movs	r2, #0
 209              	.LVL28:
 210              	.L13:
 211              		.loc 1 218 0 discriminator 3
 212 00bc 04FB03F3 		mul	r3, r4, r3
 213              	.LVL29:
 214 00c0 0133     		adds	r3, r3, #1
 215              	.LVL30:
 216              		.loc 1 219 0 discriminator 3
 217 00c2 C3F31601 		ubfx	r1, r3, #0, #23
 218 00c6 D0B2     		uxtb	r0, r2
 219 00c8 01F14041 		add	r1, r1, #-1073741824
 220              		.loc 1 217 0 discriminator 3
 221 00cc 0132     		adds	r2, r2, #1
 222              	.LVL31:
 223 00ce B2F5801F 		cmp	r2, #1048576
 224              		.loc 1 219 0 discriminator 3
 225 00d2 0870     		strb	r0, [r1]
 226              		.loc 1 217 0 discriminator 3
ARM GAS  /var/folders/28/j9jfyj_n4wz3qtvnym210h2c0000gn/T//ccoKeYRm.s 			page 5


 227 00d4 F2D1     		bne	.L13
 228              		.loc 1 222 0
 229 00d6 019B     		ldr	r3, [sp, #4]
 230              	.LVL32:
 231              		.loc 1 223 0
 232 00d8 0022     		movs	r2, #0
 233 00da 02E0     		b	.L16
 234              	.LVL33:
 235              	.L14:
 236              		.loc 1 223 0 is_stmt 0 discriminator 2
 237 00dc B2F5801F 		cmp	r2, #1048576
 238 00e0 13D0     		beq	.L28
 239              	.LVL34:
 240              	.L16:
 241              		.loc 1 224 0 is_stmt 1
 242 00e2 04FB03F3 		mul	r3, r4, r3
 243              	.LVL35:
 244 00e6 0133     		adds	r3, r3, #1
 245              	.LVL36:
 246              		.loc 1 225 0
 247 00e8 C3F31600 		ubfx	r0, r3, #0, #23
 248 00ec 00F14040 		add	r0, r0, #-1073741824
 249 00f0 D1B2     		uxtb	r1, r2
 250 00f2 0078     		ldrb	r0, [r0]	@ zero_extendqisi2
 251 00f4 8842     		cmp	r0, r1
 252 00f6 02F10102 		add	r2, r2, #1
 253              	.LVL37:
 254 00fa EFD0     		beq	.L14
 255              		.loc 1 226 0
 256 00fc 0520     		movs	r0, #5
 257 00fe FFF7FEFF 		bl	setErrorFlag
 258              	.LVL38:
 259              	.L15:
 260              		.loc 1 228 0 discriminator 1
 261 0102 6420     		movs	r0, #100
 262 0104 FFF7FEFF 		bl	chThdSleep
 263              	.LVL39:
 264              		.loc 1 229 0 discriminator 1
 265 0108 FBE7     		b	.L15
 266              	.LVL40:
 267              	.L28:
 268              	.LBE37:
 269              		.loc 1 214 0 discriminator 2
 270 010a 019B     		ldr	r3, [sp, #4]
 271              	.LVL41:
 272 010c 0133     		adds	r3, r3, #1
 273 010e 0193     		str	r3, [sp, #4]
 274 0110 019A     		ldr	r2, [sp, #4]
 275              	.LVL42:
 276 0112 039B     		ldr	r3, [sp, #12]
 277 0114 9A42     		cmp	r2, r3
 278 0116 CFDB     		blt	.L17
 279              	.L4:
 280              		.loc 1 234 0
 281 0118 04B0     		add	sp, sp, #16
 282              		.cfi_def_cfa_offset 8
 283              		@ sp needed
ARM GAS  /var/folders/28/j9jfyj_n4wz3qtvnym210h2c0000gn/T//ccoKeYRm.s 			page 6


 284 011a 10BD     		pop	{r4, pc}
 285              	.L30:
 286              		.align	2
 287              	.L29:
 288 011c 354E5A01 		.word	22695477
 289              		.cfi_endproc
 290              	.LFE182:
 291              		.size	memTest, .-memTest
 292              		.align	2
 293              		.p2align 4,,15
 294              		.global	SDRAM_InitSequence
 295              		.thumb
 296              		.thumb_func
 297              		.type	SDRAM_InitSequence, %function
 298              	SDRAM_InitSequence:
 299              	.LFB183:
 300              		.loc 1 241 0
 301              		.cfi_startproc
 302              		@ args = 0, pretend = 0, frame = 0
 303              		@ frame_needed = 0, uses_anonymous_args = 0
 304              	.LVL43:
 305 0120 10B5     		push	{r4, lr}
 306              		.cfi_def_cfa_offset 8
 307              		.cfi_offset 4, -8
 308              		.cfi_offset 14, -4
 309              	.LBB38:
 310              	.LBB39:
 311              		.file 2 "stm32f4xx_fmc.c"
 312              		.loc 2 1187 0
 313 0122 1D4A     		ldr	r2, .L51
 314              	.L33:
 315              	.LVL44:
 316              		.loc 2 1187 0 is_stmt 0 discriminator 1
 317 0124 9369     		ldr	r3, [r2, #24]
 318              	.LVL45:
 319 0126 1C4C     		ldr	r4, .L51
 320              		.loc 2 1191 0 is_stmt 1 discriminator 1
 321 0128 9906     		lsls	r1, r3, #26
 322 012a FBD4     		bmi	.L33
 323              	.LVL46:
 324              	.LBE39:
 325              	.LBE38:
 326              	.LBB40:
 327              	.LBB41:
 328              		.loc 2 968 0
 329 012c 1123     		movs	r3, #17
 330              	.LVL47:
 331 012e 2361     		str	r3, [r4, #16]
 332              	.LBE41:
 333              	.LBE40:
 334              		.loc 1 263 0
 335 0130 6420     		movs	r0, #100
 336 0132 FFF7FEFF 		bl	chThdSleep
 337              	.LVL48:
 338              	.L35:
 339              	.LBB42:
 340              	.LBB43:
ARM GAS  /var/folders/28/j9jfyj_n4wz3qtvnym210h2c0000gn/T//ccoKeYRm.s 			page 7


 341              		.loc 2 1187 0 discriminator 1
 342 0136 A269     		ldr	r2, [r4, #24]
 343              	.LVL49:
 344 0138 174B     		ldr	r3, .L51
 345              		.loc 2 1191 0 discriminator 1
 346 013a 9206     		lsls	r2, r2, #26
 347              	.LVL50:
 348 013c FBD4     		bmi	.L35
 349              	.LVL51:
 350              	.LBE43:
 351              	.LBE42:
 352              	.LBB44:
 353              	.LBB45:
 354              		.loc 2 968 0
 355 013e 1222     		movs	r2, #18
 356 0140 1A61     		str	r2, [r3, #16]
 357              	.LVL52:
 358              	.LBE45:
 359              	.LBE44:
 360              	.LBB46:
 361              	.LBB47:
 362              		.loc 2 1187 0
 363 0142 1A46     		mov	r2, r3
 364              	.L37:
 365              	.LVL53:
 366              		.loc 2 1187 0 is_stmt 0 discriminator 1
 367 0144 9169     		ldr	r1, [r2, #24]
 368              	.LVL54:
 369 0146 144B     		ldr	r3, .L51
 370              		.loc 2 1191 0 is_stmt 1 discriminator 1
 371 0148 8C06     		lsls	r4, r1, #26
 372 014a FBD4     		bmi	.L37
 373              	.LVL55:
 374              	.LBE47:
 375              	.LBE46:
 376              	.LBB48:
 377              	.LBB49:
 378              		.loc 2 968 0
 379 014c 7322     		movs	r2, #115
 380 014e 1A61     		str	r2, [r3, #16]
 381              	.LBE49:
 382              	.LBE48:
 383              	.LBB50:
 384              	.LBB51:
 385              		.loc 2 1187 0
 386 0150 1A46     		mov	r2, r3
 387              	.LVL56:
 388              	.L39:
 389              		.loc 2 1187 0 is_stmt 0 discriminator 1
 390 0152 9169     		ldr	r1, [r2, #24]
 391              	.LVL57:
 392 0154 104B     		ldr	r3, .L51
 393              		.loc 2 1191 0 is_stmt 1 discriminator 1
 394 0156 8806     		lsls	r0, r1, #26
 395 0158 FBD4     		bmi	.L39
 396              	.LVL58:
 397              	.LBE51:
ARM GAS  /var/folders/28/j9jfyj_n4wz3qtvnym210h2c0000gn/T//ccoKeYRm.s 			page 8


 398              	.LBE50:
 399              	.LBB52:
 400              	.LBB53:
 401              		.loc 2 968 0
 402 015a 7322     		movs	r2, #115
 403 015c 1A61     		str	r2, [r3, #16]
 404              	.LVL59:
 405              	.LBE53:
 406              	.LBE52:
 407              	.LBB54:
 408              	.LBB55:
 409              		.loc 2 1187 0
 410 015e 1A46     		mov	r2, r3
 411              	.LVL60:
 412              	.L41:
 413              		.loc 2 1187 0 is_stmt 0 discriminator 1
 414 0160 9169     		ldr	r1, [r2, #24]
 415              	.LVL61:
 416 0162 0D4B     		ldr	r3, .L51
 417              		.loc 2 1191 0 is_stmt 1 discriminator 1
 418 0164 8906     		lsls	r1, r1, #26
 419              	.LVL62:
 420 0166 FBD4     		bmi	.L41
 421              	.LVL63:
 422              	.LBE55:
 423              	.LBE54:
 424              	.LBB56:
 425              	.LBB57:
 426              		.loc 2 968 0
 427 0168 0C4A     		ldr	r2, .L51+4
 428 016a 1A61     		str	r2, [r3, #16]
 429              	.LVL64:
 430              	.LBE57:
 431              	.LBE56:
 432              	.LBB58:
 433              	.LBB59:
 434              		.loc 2 1010 0
 435 016c 5A69     		ldr	r2, [r3, #20]
 436 016e 42F4AA62 		orr	r2, r2, #1360
 437 0172 42F00602 		orr	r2, r2, #6
 438 0176 5A61     		str	r2, [r3, #20]
 439              	.L43:
 440              	.LVL65:
 441              	.LBE59:
 442              	.LBE58:
 443              	.LBB60:
 444              	.LBB61:
 445              		.loc 2 1187 0 discriminator 1
 446 0178 9A69     		ldr	r2, [r3, #24]
 447              	.LVL66:
 448 017a 0749     		ldr	r1, .L51
 449              		.loc 2 1191 0 discriminator 1
 450 017c 9206     		lsls	r2, r2, #26
 451              	.LVL67:
 452 017e FBD4     		bmi	.L43
 453              	.LVL68:
 454              	.LBE61:
ARM GAS  /var/folders/28/j9jfyj_n4wz3qtvnym210h2c0000gn/T//ccoKeYRm.s 			page 9


 455              	.LBE60:
 456              	.LBB62:
 457              	.LBB63:
 458              		.loc 2 1047 0
 459 0180 0A68     		ldr	r2, [r1]
 460 0182 47F6FF53 		movw	r3, #32255
 461 0186 1340     		ands	r3, r3, r2
 462 0188 0B60     		str	r3, [r1]
 463              	.LBE63:
 464              	.LBE62:
 465              		.loc 1 334 0
 466 018a FFF739FF 		bl	test.12401
 467              	.LVL69:
 468              		.loc 1 335 0
 469 018e 0120     		movs	r0, #1
 470              		.loc 1 336 0
 471 0190 BDE81040 		pop	{r4, lr}
 472              		.cfi_restore 14
 473              		.cfi_restore 4
 474              		.cfi_def_cfa_offset 0
 475              		.loc 1 335 0
 476 0194 FFF7FEBF 		b	chThdSleep
 477              	.LVL70:
 478              	.L52:
 479              		.align	2
 480              	.L51:
 481 0198 400100A0 		.word	-1610612416
 482 019c 14420400 		.word	279060
 483              		.cfi_endproc
 484              	.LFE183:
 485              		.size	SDRAM_InitSequence, .-SDRAM_InitSequence
 486              		.align	2
 487              		.p2align 4,,15
 488              		.global	SDRAM_WriteBuffer
 489              		.thumb
 490              		.thumb_func
 491              		.type	SDRAM_WriteBuffer, %function
 492              	SDRAM_WriteBuffer:
 493              	.LFB185:
 494              		.loc 1 347 0
 495              		.cfi_startproc
 496              		@ args = 0, pretend = 0, frame = 8
 497              		@ frame_needed = 0, uses_anonymous_args = 0
 498              		@ link register save eliminated.
 499              	.LVL71:
 500 01a0 10B4     		push	{r4}
 501              		.cfi_def_cfa_offset 4
 502              		.cfi_offset 4, -4
 503 01a2 83B0     		sub	sp, sp, #12
 504              		.cfi_def_cfa_offset 16
 505              	.LBB64:
 506              	.LBB65:
 507              		.loc 2 1047 0
 508 01a4 0D4B     		ldr	r3, .L62
 509              	.LBE65:
 510              	.LBE64:
 511              		.loc 1 349 0
ARM GAS  /var/folders/28/j9jfyj_n4wz3qtvnym210h2c0000gn/T//ccoKeYRm.s 			page 10


 512 01a6 0191     		str	r1, [sp, #4]
 513              	.LVL72:
 514              	.LBB67:
 515              	.LBB66:
 516              		.loc 2 1047 0
 517 01a8 1C68     		ldr	r4, [r3]
 518 01aa 47F6FF51 		movw	r1, #32255
 519              	.LVL73:
 520 01ae 2140     		ands	r1, r1, r4
 521 01b0 1960     		str	r1, [r3]
 522              	.LVL74:
 523              	.LBE66:
 524              	.LBE67:
 525              	.LBB68:
 526              	.LBB69:
 527              		.loc 2 1187 0
 528 01b2 1946     		mov	r1, r3
 529              	.L54:
 530              	.LVL75:
 531              		.loc 2 1187 0 is_stmt 0 discriminator 1
 532 01b4 8B69     		ldr	r3, [r1, #24]
 533              	.LVL76:
 534              		.loc 2 1191 0 is_stmt 1 discriminator 1
 535 01b6 9B06     		lsls	r3, r3, #26
 536              	.LVL77:
 537 01b8 FCD4     		bmi	.L54
 538              	.LBE69:
 539              	.LBE68:
 540              		.loc 1 359 0 discriminator 1
 541 01ba 52B1     		cbz	r2, .L53
 542              	.L56:
 543              		.loc 1 361 0 discriminator 2
 544 01bc 0199     		ldr	r1, [sp, #4]
 545              	.LVL78:
 546              		.loc 1 364 0 discriminator 2
 547 01be 019B     		ldr	r3, [sp, #4]
 548              		.loc 1 361 0 discriminator 2
 549 01c0 50F8044B 		ldr	r4, [r0], #4
 550              	.LVL79:
 551 01c4 01F14041 		add	r1, r1, #-1073741824
 552              		.loc 1 364 0 discriminator 2
 553 01c8 0433     		adds	r3, r3, #4
 554              		.loc 1 359 0 discriminator 2
 555 01ca 013A     		subs	r2, r2, #1
 556              	.LVL80:
 557              		.loc 1 361 0 discriminator 2
 558 01cc 0C60     		str	r4, [r1]
 559              		.loc 1 364 0 discriminator 2
 560 01ce 0193     		str	r3, [sp, #4]
 561              		.loc 1 359 0 discriminator 2
 562 01d0 F4D1     		bne	.L56
 563              	.L53:
 564              		.loc 1 367 0
 565 01d2 03B0     		add	sp, sp, #12
 566              		.cfi_def_cfa_offset 4
 567              		@ sp needed
 568 01d4 5DF8044B 		ldr	r4, [sp], #4
ARM GAS  /var/folders/28/j9jfyj_n4wz3qtvnym210h2c0000gn/T//ccoKeYRm.s 			page 11


 569              		.cfi_restore 4
 570              		.cfi_def_cfa_offset 0
 571 01d8 7047     		bx	lr
 572              	.L63:
 573 01da 00BF     		.align	2
 574              	.L62:
 575 01dc 400100A0 		.word	-1610612416
 576              		.cfi_endproc
 577              	.LFE185:
 578              		.size	SDRAM_WriteBuffer, .-SDRAM_WriteBuffer
 579              		.align	2
 580              		.p2align 4,,15
 581              		.global	SDRAM_ReadBuffer
 582              		.thumb
 583              		.thumb_func
 584              		.type	SDRAM_ReadBuffer, %function
 585              	SDRAM_ReadBuffer:
 586              	.LFB186:
 587              		.loc 1 378 0
 588              		.cfi_startproc
 589              		@ args = 0, pretend = 0, frame = 8
 590              		@ frame_needed = 0, uses_anonymous_args = 0
 591              		@ link register save eliminated.
 592              	.LVL81:
 593 01e0 10B4     		push	{r4}
 594              		.cfi_def_cfa_offset 4
 595              		.cfi_offset 4, -4
 596 01e2 83B0     		sub	sp, sp, #12
 597              		.cfi_def_cfa_offset 16
 598              	.LBB70:
 599              	.LBB71:
 600              		.loc 2 1187 0
 601 01e4 0A4C     		ldr	r4, .L73
 602              	.LBE71:
 603              	.LBE70:
 604              		.loc 1 380 0
 605 01e6 0191     		str	r1, [sp, #4]
 606              	.L65:
 607              	.LVL82:
 608              	.LBB73:
 609              	.LBB72:
 610              		.loc 2 1187 0 discriminator 1
 611 01e8 A369     		ldr	r3, [r4, #24]
 612              	.LVL83:
 613              		.loc 2 1191 0 discriminator 1
 614 01ea 9B06     		lsls	r3, r3, #26
 615              	.LVL84:
 616 01ec FCD4     		bmi	.L65
 617              	.LBE72:
 618              	.LBE73:
 619              		.loc 1 387 0 discriminator 1
 620 01ee 5AB1     		cbz	r2, .L64
 621              	.LVL85:
 622              	.L67:
 623              		.loc 1 388 0 discriminator 2
 624 01f0 019B     		ldr	r3, [sp, #4]
 625 01f2 03F14043 		add	r3, r3, #-1073741824
ARM GAS  /var/folders/28/j9jfyj_n4wz3qtvnym210h2c0000gn/T//ccoKeYRm.s 			page 12


 626              		.loc 1 387 0 discriminator 2
 627 01f6 013A     		subs	r2, r2, #1
 628              	.LVL86:
 629              		.loc 1 388 0 discriminator 2
 630 01f8 1968     		ldr	r1, [r3]
 631              		.loc 1 391 0 discriminator 2
 632 01fa 019B     		ldr	r3, [sp, #4]
 633              		.loc 1 388 0 discriminator 2
 634 01fc 40F8041B 		str	r1, [r0], #4
 635              	.LVL87:
 636              		.loc 1 391 0 discriminator 2
 637 0200 03F10403 		add	r3, r3, #4
 638 0204 0193     		str	r3, [sp, #4]
 639              		.loc 1 387 0 discriminator 2
 640 0206 F3D1     		bne	.L67
 641              	.L64:
 642              		.loc 1 393 0
 643 0208 03B0     		add	sp, sp, #12
 644              		.cfi_def_cfa_offset 4
 645              		@ sp needed
 646 020a 5DF8044B 		ldr	r4, [sp], #4
 647              		.cfi_restore 4
 648              		.cfi_def_cfa_offset 0
 649 020e 7047     		bx	lr
 650              	.L74:
 651              		.align	2
 652              	.L73:
 653 0210 400100A0 		.word	-1610612416
 654              		.cfi_endproc
 655              	.LFE186:
 656              		.size	SDRAM_ReadBuffer, .-SDRAM_ReadBuffer
 657              		.align	2
 658 0214 AFF30080 		.p2align 4,,15
 658      AFF30080 
 658      AFF30080 
 659              		.global	FMC_NORSRAMDeInit
 660              		.thumb
 661              		.thumb_func
 662              		.type	FMC_NORSRAMDeInit, %function
 663              	FMC_NORSRAMDeInit:
 664              	.LFB187:
 665              		.loc 2 134 0
 666              		.cfi_startproc
 667              		@ args = 0, pretend = 0, frame = 0
 668              		@ frame_needed = 0, uses_anonymous_args = 0
 669              		@ link register save eliminated.
 670              	.LVL88:
 671              		.loc 2 141 0
 672 0220 4FF02043 		mov	r3, #-1610612736
 673              		.loc 2 139 0
 674 0224 60B1     		cbz	r0, .L78
 675              		.loc 2 146 0
 676 0226 43F2D202 		movw	r2, #12498
 677 022a 43F82020 		str	r2, [r3, r0, lsl #2]
 678              	.L77:
 679 022e 8000     		lsls	r0, r0, #2
 680              	.LVL89:
ARM GAS  /var/folders/28/j9jfyj_n4wz3qtvnym210h2c0000gn/T//ccoKeYRm.s 			page 13


 681 0230 00F12040 		add	r0, r0, #-1610612736
 682              		.loc 2 148 0
 683 0234 6FF07043 		mvn	r3, #-268435456
 684 0238 4360     		str	r3, [r0, #4]
 685              		.loc 2 149 0
 686 023a C0F80431 		str	r3, [r0, #260]
 687 023e 7047     		bx	lr
 688              	.LVL90:
 689              	.L78:
 690              		.loc 2 141 0
 691 0240 43F2DB02 		movw	r2, #12507
 692 0244 1A60     		str	r2, [r3]
 693 0246 F2E7     		b	.L77
 694              		.cfi_endproc
 695              	.LFE187:
 696              		.size	FMC_NORSRAMDeInit, .-FMC_NORSRAMDeInit
 697              		.align	2
 698 0248 AFF30080 		.p2align 4,,15
 698      AFF30080 
 699              		.global	FMC_NORSRAMInit
 700              		.thumb
 701              		.thumb_func
 702              		.type	FMC_NORSRAMInit, %function
 703              	FMC_NORSRAMInit:
 704              	.LFB188:
 705              		.loc 2 161 0
 706              		.cfi_startproc
 707              		@ args = 0, pretend = 0, frame = 8
 708              		@ frame_needed = 0, uses_anonymous_args = 0
 709              	.LVL91:
 710 0250 2DE9F042 		push	{r4, r5, r6, r7, r9, lr}
 711              		.cfi_def_cfa_offset 24
 712              		.cfi_offset 4, -24
 713              		.cfi_offset 5, -20
 714              		.cfi_offset 6, -16
 715              		.cfi_offset 7, -12
 716              		.cfi_offset 9, -8
 717              		.cfi_offset 14, -4
 718 0254 82B0     		sub	sp, sp, #8
 719              		.cfi_def_cfa_offset 32
 720              		.loc 2 194 0
 721 0256 C169     		ldr	r1, [r0, #28]
 722              		.loc 2 167 0
 723 0258 8368     		ldr	r3, [r0, #8]
 724              		.loc 2 194 0
 725 025a 0191     		str	r1, [sp, #4]
 726              		.loc 2 189 0
 727 025c 4168     		ldr	r1, [r0, #4]
 728              		.loc 2 190 0
 729 025e C768     		ldr	r7, [r0, #12]
 730              		.loc 2 191 0
 731 0260 0669     		ldr	r6, [r0, #16]
 732              		.loc 2 192 0
 733 0262 4569     		ldr	r5, [r0, #20]
 734              		.loc 2 193 0
 735 0264 8469     		ldr	r4, [r0, #24]
 736              		.loc 2 175 0
ARM GAS  /var/folders/28/j9jfyj_n4wz3qtvnym210h2c0000gn/T//ccoKeYRm.s 			page 14


 737 0266 D0F828E0 		ldr	lr, [r0, #40]
 738              		.loc 2 165 0
 739 026a 0268     		ldr	r2, [r0]
 740              		.loc 2 189 0
 741 026c 43EA0109 		orr	r9, r3, r1
 742              		.loc 2 190 0
 743 0270 49EA0707 		orr	r7, r9, r7
 744              		.loc 2 191 0
 745 0274 3E43     		orrs	r6, r6, r7
 746              		.loc 2 192 0
 747 0276 3543     		orrs	r5, r5, r6
 748              		.loc 2 194 0
 749 0278 0199     		ldr	r1, [sp, #4]
 750              		.loc 2 178 0
 751 027a 476B     		ldr	r7, [r0, #52]
 752              		.loc 2 193 0
 753 027c 2C43     		orrs	r4, r4, r5
 754              		.loc 2 194 0
 755 027e 0C43     		orrs	r4, r4, r1
 756              		.loc 2 195 0
 757 0280 016A     		ldr	r1, [r0, #32]
 758              		.loc 2 185 0
 759 0282 856B     		ldr	r5, [r0, #56]
 760              		.loc 2 195 0
 761 0284 0C43     		orrs	r4, r4, r1
 762              		.loc 2 196 0
 763 0286 416A     		ldr	r1, [r0, #36]
 764 0288 0C43     		orrs	r4, r4, r1
 765              		.loc 2 198 0
 766 028a C16A     		ldr	r1, [r0, #44]
 767              		.loc 2 197 0
 768 028c 44EA0E04 		orr	r4, r4, lr
 769              		.loc 2 198 0
 770 0290 0C43     		orrs	r4, r4, r1
 771              		.loc 2 199 0
 772 0292 016B     		ldr	r1, [r0, #48]
 773 0294 9600     		lsls	r6, r2, #2
 774 0296 0C43     		orrs	r4, r4, r1
 775 0298 06F12046 		add	r6, r6, #-1610612736
 776              		.loc 2 200 0
 777 029c 3C43     		orrs	r4, r4, r7
 778              		.loc 2 204 0
 779 029e 082B     		cmp	r3, #8
 780              		.loc 2 185 0
 781 02a0 A969     		ldr	r1, [r5, #24]
 782              		.loc 2 188 0
 783 02a2 3460     		str	r4, [r6]
 784              		.loc 2 204 0
 785 02a4 1ED0     		beq	.L88
 786              		.loc 2 210 0
 787 02a6 B7F5801F 		cmp	r7, #1048576
 788 02aa 22D0     		beq	.L89
 789              	.L87:
 790 02ac 2F69     		ldr	r7, [r5, #16]
 791              	.LVL92:
 792              	.L82:
 793              		.loc 2 223 0
ARM GAS  /var/folders/28/j9jfyj_n4wz3qtvnym210h2c0000gn/T//ccoKeYRm.s 			page 15


 794 02ae AA68     		ldr	r2, [r5, #8]
 795              		.loc 2 224 0
 796 02b0 EB68     		ldr	r3, [r5, #12]
 797              		.loc 2 222 0
 798 02b2 95E81010 		ldmia	r5, {r4, ip}
 799 02b6 2143     		orrs	r1, r1, r4
 800 02b8 41EA0C11 		orr	r1, r1, ip, lsl #4
 801              		.loc 2 226 0
 802 02bc 6D69     		ldr	r5, [r5, #20]
 803 02be 41EA0222 		orr	r2, r1, r2, lsl #8
 804 02c2 42EA0342 		orr	r2, r2, r3, lsl #16
 805 02c6 42EA0563 		orr	r3, r2, r5, lsl #24
 806 02ca 43EA0753 		orr	r3, r3, r7, lsl #20
 807              		.loc 2 230 0
 808 02ce BEF5804F 		cmp	lr, #16384
 809              		.loc 2 220 0
 810 02d2 7360     		str	r3, [r6, #4]
 811              		.loc 2 230 0
 812 02d4 22D0     		beq	.L90
 813              		.loc 2 249 0
 814 02d6 6FF07043 		mvn	r3, #-268435456
 815 02da C6F80431 		str	r3, [r6, #260]
 816              		.loc 2 252 0
 817 02de 02B0     		add	sp, sp, #8
 818              		.cfi_remember_state
 819              		.cfi_def_cfa_offset 24
 820              		@ sp needed
 821 02e0 BDE8F082 		pop	{r4, r5, r6, r7, r9, pc}
 822              	.LVL93:
 823              	.L88:
 824              		.cfi_restore_state
 825              		.loc 2 206 0
 826 02e4 3368     		ldr	r3, [r6]
 827              		.loc 2 210 0
 828 02e6 B7F5801F 		cmp	r7, #1048576
 829              		.loc 2 206 0
 830 02ea 43F04003 		orr	r3, r3, #64
 831 02ee 3360     		str	r3, [r6]
 832              		.loc 2 210 0
 833 02f0 DCD1     		bne	.L87
 834              	.L89:
 835              		.loc 2 210 0 is_stmt 0 discriminator 1
 836 02f2 002A     		cmp	r2, #0
 837 02f4 DAD0     		beq	.L87
 838              		.loc 2 212 0 is_stmt 1
 839 02f6 4FF02043 		mov	r3, #-1610612736
 840 02fa 5A68     		ldr	r2, [r3, #4]
 841              	.LVL94:
 842              		.loc 2 214 0
 843 02fc 1C68     		ldr	r4, [r3]
 844 02fe 44F48014 		orr	r4, r4, #1048576
 845 0302 1C60     		str	r4, [r3]
 846              		.loc 2 215 0
 847 0304 1C68     		ldr	r4, [r3]
 848 0306 44F48074 		orr	r4, r4, #256
 849 030a 1C60     		str	r4, [r3]
 850              		.loc 2 216 0
ARM GAS  /var/folders/28/j9jfyj_n4wz3qtvnym210h2c0000gn/T//ccoKeYRm.s 			page 16


 851 030c 2F69     		ldr	r7, [r5, #16]
 852              		.loc 2 212 0
 853 030e 22F47002 		bic	r2, r2, #15728640
 854              	.LVL95:
 855              		.loc 2 216 0
 856 0312 7C1E     		subs	r4, r7, #1
 857 0314 42EA0452 		orr	r2, r2, r4, lsl #20
 858              	.LVL96:
 859 0318 5A60     		str	r2, [r3, #4]
 860 031a C8E7     		b	.L82
 861              	.L90:
 862              		.loc 2 237 0
 863 031c C06B     		ldr	r0, [r0, #60]
 864              	.LVL97:
 865 031e 0568     		ldr	r5, [r0]
 866 0320 8169     		ldr	r1, [r0, #24]
 867              		.loc 2 241 0
 868 0322 4268     		ldr	r2, [r0, #4]
 869              		.loc 2 242 0
 870 0324 8368     		ldr	r3, [r0, #8]
 871              		.loc 2 243 0
 872 0326 0469     		ldr	r4, [r0, #16]
 873              		.loc 2 244 0
 874 0328 4069     		ldr	r0, [r0, #20]
 875 032a 2943     		orrs	r1, r1, r5
 876 032c 41EA0212 		orr	r2, r1, r2, lsl #4
 877 0330 42EA0322 		orr	r2, r2, r3, lsl #8
 878 0334 42EA0453 		orr	r3, r2, r4, lsl #20
 879 0338 43EA0063 		orr	r3, r3, r0, lsl #24
 880              		.loc 2 239 0
 881 033c C6F80431 		str	r3, [r6, #260]
 882              		.loc 2 252 0
 883 0340 02B0     		add	sp, sp, #8
 884              		.cfi_def_cfa_offset 24
 885              		@ sp needed
 886 0342 BDE8F082 		pop	{r4, r5, r6, r7, r9, pc}
 887              		.cfi_endproc
 888              	.LFE188:
 889              		.size	FMC_NORSRAMInit, .-FMC_NORSRAMInit
 890 0346 00BF     		.align	2
 891 0348 AFF30080 		.p2align 4,,15
 891      AFF30080 
 892              		.global	FMC_NORSRAMStructInit
 893              		.thumb
 894              		.thumb_func
 895              		.type	FMC_NORSRAMStructInit, %function
 896              	FMC_NORSRAMStructInit:
 897              	.LFB189:
 898              		.loc 2 261 0
 899              		.cfi_startproc
 900              		@ args = 0, pretend = 0, frame = 0
 901              		@ frame_needed = 0, uses_anonymous_args = 0
 902              	.LVL98:
 903 0350 F0B5     		push	{r4, r5, r6, r7, lr}
 904              		.cfi_def_cfa_offset 20
 905              		.cfi_offset 4, -20
 906              		.cfi_offset 5, -16
ARM GAS  /var/folders/28/j9jfyj_n4wz3qtvnym210h2c0000gn/T//ccoKeYRm.s 			page 17


 907              		.cfi_offset 6, -12
 908              		.cfi_offset 7, -8
 909              		.cfi_offset 14, -4
 910              		.loc 2 285 0
 911 0352 C16B     		ldr	r1, [r0, #60]
 912              		.loc 2 278 0
 913 0354 846B     		ldr	r4, [r0, #56]
 914              		.loc 2 264 0
 915 0356 0223     		movs	r3, #2
 916 0358 4360     		str	r3, [r0, #4]
 917              		.loc 2 278 0
 918 035a 0F22     		movs	r2, #15
 919              		.loc 2 263 0
 920 035c 0023     		movs	r3, #0
 921              		.loc 2 280 0
 922 035e FF25     		movs	r5, #255
 923              		.loc 2 266 0
 924 0360 4FF0100E 		mov	lr, #16
 925              		.loc 2 272 0
 926 0364 4FF48057 		mov	r7, #4096
 927              		.loc 2 273 0
 928 0368 4FF40056 		mov	r6, #8192
 929              		.loc 2 266 0
 930 036c C0F80CE0 		str	lr, [r0, #12]
 931              		.loc 2 272 0
 932 0370 0762     		str	r7, [r0, #32]
 933              		.loc 2 273 0
 934 0372 4662     		str	r6, [r0, #36]
 935              		.loc 2 263 0
 936 0374 0360     		str	r3, [r0]
 937              		.loc 2 265 0
 938 0376 8360     		str	r3, [r0, #8]
 939              		.loc 2 267 0
 940 0378 0361     		str	r3, [r0, #16]
 941              		.loc 2 268 0
 942 037a C362     		str	r3, [r0, #44]
 943              		.loc 2 269 0
 944 037c 4361     		str	r3, [r0, #20]
 945              		.loc 2 270 0
 946 037e 8361     		str	r3, [r0, #24]
 947              		.loc 2 271 0
 948 0380 C361     		str	r3, [r0, #28]
 949              		.loc 2 274 0
 950 0382 8362     		str	r3, [r0, #40]
 951              		.loc 2 275 0
 952 0384 0363     		str	r3, [r0, #48]
 953              		.loc 2 276 0
 954 0386 4363     		str	r3, [r0, #52]
 955              		.loc 2 284 0
 956 0388 A361     		str	r3, [r4, #24]
 957              		.loc 2 278 0
 958 038a 2260     		str	r2, [r4]
 959              		.loc 2 279 0
 960 038c 6260     		str	r2, [r4, #4]
 961              		.loc 2 281 0
 962 038e E260     		str	r2, [r4, #12]
 963              		.loc 2 282 0
ARM GAS  /var/folders/28/j9jfyj_n4wz3qtvnym210h2c0000gn/T//ccoKeYRm.s 			page 18


 964 0390 2261     		str	r2, [r4, #16]
 965              		.loc 2 283 0
 966 0392 6261     		str	r2, [r4, #20]
 967              		.loc 2 280 0
 968 0394 A560     		str	r5, [r4, #8]
 969              		.loc 2 285 0
 970 0396 0A60     		str	r2, [r1]
 971              		.loc 2 286 0
 972 0398 4A60     		str	r2, [r1, #4]
 973              		.loc 2 287 0
 974 039a 8D60     		str	r5, [r1, #8]
 975              		.loc 2 288 0
 976 039c CA60     		str	r2, [r1, #12]
 977              		.loc 2 289 0
 978 039e 0A61     		str	r2, [r1, #16]
 979              		.loc 2 290 0
 980 03a0 4A61     		str	r2, [r1, #20]
 981              		.loc 2 291 0
 982 03a2 8B61     		str	r3, [r1, #24]
 983 03a4 F0BD     		pop	{r4, r5, r6, r7, pc}
 984              		.cfi_endproc
 985              	.LFE189:
 986              		.size	FMC_NORSRAMStructInit, .-FMC_NORSRAMStructInit
 987 03a6 00BF     		.align	2
 988 03a8 AFF30080 		.p2align 4,,15
 988      AFF30080 
 989              		.global	FMC_NORSRAMCmd
 990              		.thumb
 991              		.thumb_func
 992              		.type	FMC_NORSRAMCmd, %function
 993              	FMC_NORSRAMCmd:
 994              	.LFB190:
 995              		.loc 2 306 0
 996              		.cfi_startproc
 997              		@ args = 0, pretend = 0, frame = 0
 998              		@ frame_needed = 0, uses_anonymous_args = 0
 999              		@ link register save eliminated.
 1000              	.LVL99:
 1001 03b0 8000     		lsls	r0, r0, #2
 1002              	.LVL100:
 1003 03b2 00F12040 		add	r0, r0, #-1610612736
 1004              		.loc 2 310 0
 1005 03b6 21B9     		cbnz	r1, .L96
 1006              		.loc 2 318 0
 1007 03b8 0268     		ldr	r2, [r0]
 1008 03ba 044B     		ldr	r3, .L97
 1009 03bc 1340     		ands	r3, r3, r2
 1010 03be 0360     		str	r3, [r0]
 1011 03c0 7047     		bx	lr
 1012              	.L96:
 1013              		.loc 2 313 0
 1014 03c2 0368     		ldr	r3, [r0]
 1015 03c4 43F00103 		orr	r3, r3, #1
 1016 03c8 0360     		str	r3, [r0]
 1017 03ca 7047     		bx	lr
 1018              	.L98:
 1019              		.align	2
ARM GAS  /var/folders/28/j9jfyj_n4wz3qtvnym210h2c0000gn/T//ccoKeYRm.s 			page 19


 1020              	.L97:
 1021 03cc FEFF0F00 		.word	1048574
 1022              		.cfi_endproc
 1023              	.LFE190:
 1024              		.size	FMC_NORSRAMCmd, .-FMC_NORSRAMCmd
 1025              		.align	2
 1026              		.p2align 4,,15
 1027              		.global	FMC_NANDDeInit
 1028              		.thumb
 1029              		.thumb_func
 1030              		.type	FMC_NANDDeInit, %function
 1031              	FMC_NANDDeInit:
 1032              	.LFB191:
 1033              		.loc 2 379 0
 1034              		.cfi_startproc
 1035              		@ args = 0, pretend = 0, frame = 0
 1036              		@ frame_needed = 0, uses_anonymous_args = 0
 1037              		@ link register save eliminated.
 1038              	.LVL101:
 1039              		.loc 2 383 0
 1040 03d0 1028     		cmp	r0, #16
 1041              		.loc 2 386 0
 1042 03d2 0CBF     		ite	eq
 1043 03d4 054B     		ldreq	r3, .L103
 1044              		.loc 2 395 0
 1045 03d6 064B     		ldrne	r3, .L103+4
 1046              		.loc 2 397 0
 1047 03d8 4FF0FC32 		mov	r2, #-50529028
 1048              		.loc 2 395 0
 1049 03dc 1820     		movs	r0, #24
 1050              	.LVL102:
 1051              		.loc 2 396 0
 1052 03de 4021     		movs	r1, #64
 1053              		.loc 2 395 0
 1054 03e0 1860     		str	r0, [r3]
 1055              		.loc 2 396 0
 1056 03e2 5960     		str	r1, [r3, #4]
 1057              		.loc 2 397 0
 1058 03e4 9A60     		str	r2, [r3, #8]
 1059              		.loc 2 398 0
 1060 03e6 DA60     		str	r2, [r3, #12]
 1061 03e8 7047     		bx	lr
 1062              	.L104:
 1063 03ea 00BF     		.align	2
 1064              	.L103:
 1065 03ec 600000A0 		.word	-1610612640
 1066 03f0 800000A0 		.word	-1610612608
 1067              		.cfi_endproc
 1068              	.LFE191:
 1069              		.size	FMC_NANDDeInit, .-FMC_NANDDeInit
 1070              		.align	2
 1071 03f4 AFF30080 		.p2align 4,,15
 1071      AFF30080 
 1071      AFF30080 
 1072              		.global	FMC_NANDInit
 1073              		.thumb
 1074              		.thumb_func
ARM GAS  /var/folders/28/j9jfyj_n4wz3qtvnym210h2c0000gn/T//ccoKeYRm.s 			page 20


 1075              		.type	FMC_NANDInit, %function
 1076              	FMC_NANDInit:
 1077              	.LFB192:
 1078              		.loc 2 410 0
 1079              		.cfi_startproc
 1080              		@ args = 0, pretend = 0, frame = 8
 1081              		@ frame_needed = 0, uses_anonymous_args = 0
 1082              	.LVL103:
 1083 0400 2DE9F04E 		push	{r4, r5, r6, r7, r9, r10, fp, lr}
 1084              		.cfi_def_cfa_offset 32
 1085              		.cfi_offset 4, -32
 1086              		.cfi_offset 5, -28
 1087              		.cfi_offset 6, -24
 1088              		.cfi_offset 7, -20
 1089              		.cfi_offset 9, -16
 1090              		.cfi_offset 10, -12
 1091              		.cfi_offset 11, -8
 1092              		.cfi_offset 14, -4
 1093 0404 82B0     		sub	sp, sp, #8
 1094              		.cfi_def_cfa_offset 40
 1095 0406 0669     		ldr	r6, [r0, #16]
 1096              		.loc 2 432 0
 1097 0408 8468     		ldr	r4, [r0, #8]
 1098 040a 0196     		str	r6, [sp, #4]
 1099 040c 4668     		ldr	r6, [r0, #4]
 1100              		.loc 2 446 0
 1101 040e 036A     		ldr	r3, [r0, #32]
 1102              		.loc 2 440 0
 1103 0410 C569     		ldr	r5, [r0, #28]
 1104              		.loc 2 448 0
 1105 0412 9A68     		ldr	r2, [r3, #8]
 1106              		.loc 2 442 0
 1107 0414 A968     		ldr	r1, [r5, #8]
 1108              		.loc 2 447 0
 1109 0416 D3F804A0 		ldr	r10, [r3, #4]
 1110              		.loc 2 441 0
 1111 041a D5F804B0 		ldr	fp, [r5, #4]
 1112              		.loc 2 436 0
 1113 041e D0F81490 		ldr	r9, [r0, #20]
 1114              		.loc 2 441 0
 1115 0422 D5F800E0 		ldr	lr, [r5]
 1116              		.loc 2 443 0
 1117 0426 EF68     		ldr	r7, [r5, #12]
 1118              		.loc 2 447 0
 1119 0428 1D68     		ldr	r5, [r3]
 1120              		.loc 2 449 0
 1121 042a DB68     		ldr	r3, [r3, #12]
 1122              		.loc 2 432 0
 1123 042c 3443     		orrs	r4, r4, r6
 1124 042e C668     		ldr	r6, [r0, #12]
 1125 0430 44F00804 		orr	r4, r4, #8
 1126 0434 3443     		orrs	r4, r4, r6
 1127 0436 019E     		ldr	r6, [sp, #4]
 1128              		.loc 2 448 0
 1129 0438 1204     		lsls	r2, r2, #16
 1130 043a 2643     		orrs	r6, r6, r4
 1131              		.loc 2 437 0
ARM GAS  /var/folders/28/j9jfyj_n4wz3qtvnym210h2c0000gn/T//ccoKeYRm.s 			page 21


 1132 043c 8469     		ldr	r4, [r0, #24]
 1133              		.loc 2 451 0
 1134 043e 0068     		ldr	r0, [r0]
 1135              	.LVL104:
 1136 0440 42EA0A2A 		orr	r10, r2, r10, lsl #8
 1137              		.loc 2 442 0
 1138 0444 0904     		lsls	r1, r1, #16
 1139 0446 41EA0B21 		orr	r1, r1, fp, lsl #8
 1140              		.loc 2 451 0
 1141 044a 1028     		cmp	r0, #16
 1142              		.loc 2 447 0
 1143 044c 4AEA0505 		orr	r5, r10, r5
 1144              		.loc 2 446 0
 1145 0450 45EA0365 		orr	r5, r5, r3, lsl #24
 1146 0454 46EA4929 		orr	r9, r6, r9, lsl #9
 1147              		.loc 2 454 0
 1148 0458 0CBF     		ite	eq
 1149 045a 074B     		ldreq	r3, .L109
 1150              		.loc 2 461 0
 1151 045c 074B     		ldrne	r3, .L109+4
 1152              		.loc 2 441 0
 1153 045e 41EA0E0E 		orr	lr, r1, lr
 1154              		.loc 2 431 0
 1155 0462 49EA4436 		orr	r6, r9, r4, lsl #13
 1156              	.LVL105:
 1157              		.loc 2 440 0
 1158 0466 4EEA0761 		orr	r1, lr, r7, lsl #24
 1159              	.LVL106:
 1160              		.loc 2 461 0
 1161 046a 1E60     		str	r6, [r3]
 1162              		.loc 2 462 0
 1163 046c 9960     		str	r1, [r3, #8]
 1164              		.loc 2 463 0
 1165 046e DD60     		str	r5, [r3, #12]
 1166              		.loc 2 465 0
 1167 0470 02B0     		add	sp, sp, #8
 1168              		.cfi_def_cfa_offset 32
 1169              		@ sp needed
 1170 0472 BDE8F08E 		pop	{r4, r5, r6, r7, r9, r10, fp, pc}
 1171              	.LVL107:
 1172              	.L110:
 1173 0476 00BF     		.align	2
 1174              	.L109:
 1175 0478 600000A0 		.word	-1610612640
 1176 047c 800000A0 		.word	-1610612608
 1177              		.cfi_endproc
 1178              	.LFE192:
 1179              		.size	FMC_NANDInit, .-FMC_NANDInit
 1180              		.align	2
 1181              		.p2align 4,,15
 1182              		.global	FMC_NANDStructInit
 1183              		.thumb
 1184              		.thumb_func
 1185              		.type	FMC_NANDStructInit, %function
 1186              	FMC_NANDStructInit:
 1187              	.LFB193:
 1188              		.loc 2 475 0
ARM GAS  /var/folders/28/j9jfyj_n4wz3qtvnym210h2c0000gn/T//ccoKeYRm.s 			page 22


 1189              		.cfi_startproc
 1190              		@ args = 0, pretend = 0, frame = 0
 1191              		@ frame_needed = 0, uses_anonymous_args = 0
 1192              		@ link register save eliminated.
 1193              	.LVL108:
 1194 0480 30B4     		push	{r4, r5}
 1195              		.cfi_def_cfa_offset 8
 1196              		.cfi_offset 4, -8
 1197              		.cfi_offset 5, -4
 1198              		.loc 2 488 0
 1199 0482 016A     		ldr	r1, [r0, #32]
 1200              		.loc 2 484 0
 1201 0484 C469     		ldr	r4, [r0, #28]
 1202 0486 FC23     		movs	r3, #252
 1203              		.loc 2 478 0
 1204 0488 0022     		movs	r2, #0
 1205              		.loc 2 477 0
 1206 048a 1025     		movs	r5, #16
 1207 048c 0560     		str	r5, [r0]
 1208              		.loc 2 479 0
 1209 048e 8560     		str	r5, [r0, #8]
 1210              		.loc 2 478 0
 1211 0490 4260     		str	r2, [r0, #4]
 1212              		.loc 2 480 0
 1213 0492 C260     		str	r2, [r0, #12]
 1214              		.loc 2 481 0
 1215 0494 0261     		str	r2, [r0, #16]
 1216              		.loc 2 482 0
 1217 0496 4261     		str	r2, [r0, #20]
 1218              		.loc 2 483 0
 1219 0498 8261     		str	r2, [r0, #24]
 1220              		.loc 2 484 0
 1221 049a 2360     		str	r3, [r4]
 1222              		.loc 2 485 0
 1223 049c 6360     		str	r3, [r4, #4]
 1224              		.loc 2 486 0
 1225 049e A360     		str	r3, [r4, #8]
 1226              		.loc 2 487 0
 1227 04a0 E360     		str	r3, [r4, #12]
 1228              		.loc 2 488 0
 1229 04a2 0B60     		str	r3, [r1]
 1230              		.loc 2 489 0
 1231 04a4 4B60     		str	r3, [r1, #4]
 1232              		.loc 2 490 0
 1233 04a6 8B60     		str	r3, [r1, #8]
 1234              		.loc 2 491 0
 1235 04a8 CB60     		str	r3, [r1, #12]
 1236              		.loc 2 492 0
 1237 04aa 30BC     		pop	{r4, r5}
 1238              		.cfi_restore 5
 1239              		.cfi_restore 4
 1240              		.cfi_def_cfa_offset 0
 1241 04ac 7047     		bx	lr
 1242              		.cfi_endproc
 1243              	.LFE193:
 1244              		.size	FMC_NANDStructInit, .-FMC_NANDStructInit
 1245 04ae 00BF     		.align	2
ARM GAS  /var/folders/28/j9jfyj_n4wz3qtvnym210h2c0000gn/T//ccoKeYRm.s 			page 23


 1246              		.p2align 4,,15
 1247              		.global	FMC_NANDCmd
 1248              		.thumb
 1249              		.thumb_func
 1250              		.type	FMC_NANDCmd, %function
 1251              	FMC_NANDCmd:
 1252              	.LFB194:
 1253              		.loc 2 504 0
 1254              		.cfi_startproc
 1255              		@ args = 0, pretend = 0, frame = 0
 1256              		@ frame_needed = 0, uses_anonymous_args = 0
 1257              		@ link register save eliminated.
 1258              	.LVL109:
 1259              		.loc 2 508 0
 1260 04b0 41B1     		cbz	r1, .L114
 1261              		.loc 2 511 0
 1262 04b2 1028     		cmp	r0, #16
 1263              		.loc 2 513 0
 1264 04b4 0CBF     		ite	eq
 1265 04b6 084A     		ldreq	r2, .L118
 1266              		.loc 2 517 0
 1267 04b8 084A     		ldrne	r2, .L118+4
 1268 04ba 1368     		ldr	r3, [r2]
 1269 04bc 43F00403 		orr	r3, r3, #4
 1270 04c0 1360     		str	r3, [r2]
 1271 04c2 7047     		bx	lr
 1272              	.L114:
 1273              		.loc 2 523 0
 1274 04c4 1028     		cmp	r0, #16
 1275              		.loc 2 525 0
 1276 04c6 0CBF     		ite	eq
 1277 04c8 034A     		ldreq	r2, .L118
 1278              		.loc 2 529 0
 1279 04ca 044A     		ldrne	r2, .L118+4
 1280 04cc 044B     		ldr	r3, .L118+8
 1281 04ce 1168     		ldr	r1, [r2]
 1282              	.LVL110:
 1283 04d0 0B40     		ands	r3, r3, r1
 1284 04d2 1360     		str	r3, [r2]
 1285 04d4 7047     		bx	lr
 1286              	.L119:
 1287 04d6 00BF     		.align	2
 1288              	.L118:
 1289 04d8 600000A0 		.word	-1610612640
 1290 04dc 800000A0 		.word	-1610612608
 1291 04e0 FBFF0F00 		.word	1048571
 1292              		.cfi_endproc
 1293              	.LFE194:
 1294              		.size	FMC_NANDCmd, .-FMC_NANDCmd
 1295              		.align	2
 1296 04e4 AFF30080 		.p2align 4,,15
 1296      AFF30080 
 1296      AFF30080 
 1297              		.global	FMC_NANDECCCmd
 1298              		.thumb
 1299              		.thumb_func
 1300              		.type	FMC_NANDECCCmd, %function
ARM GAS  /var/folders/28/j9jfyj_n4wz3qtvnym210h2c0000gn/T//ccoKeYRm.s 			page 24


 1301              	FMC_NANDECCCmd:
 1302              	.LFB195:
 1303              		.loc 2 544 0
 1304              		.cfi_startproc
 1305              		@ args = 0, pretend = 0, frame = 0
 1306              		@ frame_needed = 0, uses_anonymous_args = 0
 1307              		@ link register save eliminated.
 1308              	.LVL111:
 1309              		.loc 2 548 0
 1310 04f0 41B1     		cbz	r1, .L121
 1311              		.loc 2 551 0
 1312 04f2 1028     		cmp	r0, #16
 1313              		.loc 2 553 0
 1314 04f4 0CBF     		ite	eq
 1315 04f6 084A     		ldreq	r2, .L125
 1316              		.loc 2 557 0
 1317 04f8 084A     		ldrne	r2, .L125+4
 1318 04fa 1368     		ldr	r3, [r2]
 1319 04fc 43F04003 		orr	r3, r3, #64
 1320 0500 1360     		str	r3, [r2]
 1321 0502 7047     		bx	lr
 1322              	.L121:
 1323              		.loc 2 563 0
 1324 0504 1028     		cmp	r0, #16
 1325              		.loc 2 565 0
 1326 0506 0CBF     		ite	eq
 1327 0508 034A     		ldreq	r2, .L125
 1328              		.loc 2 569 0
 1329 050a 044A     		ldrne	r2, .L125+4
 1330 050c 044B     		ldr	r3, .L125+8
 1331 050e 1168     		ldr	r1, [r2]
 1332              	.LVL112:
 1333 0510 0B40     		ands	r3, r3, r1
 1334 0512 1360     		str	r3, [r2]
 1335 0514 7047     		bx	lr
 1336              	.L126:
 1337 0516 00BF     		.align	2
 1338              	.L125:
 1339 0518 600000A0 		.word	-1610612640
 1340 051c 800000A0 		.word	-1610612608
 1341 0520 BFFF0F00 		.word	1048511
 1342              		.cfi_endproc
 1343              	.LFE195:
 1344              		.size	FMC_NANDECCCmd, .-FMC_NANDECCCmd
 1345              		.align	2
 1346 0524 AFF30080 		.p2align 4,,15
 1346      AFF30080 
 1346      AFF30080 
 1347              		.global	FMC_GetECC
 1348              		.thumb
 1349              		.thumb_func
 1350              		.type	FMC_GetECC, %function
 1351              	FMC_GetECC:
 1352              	.LFB196:
 1353              		.loc 2 583 0
 1354              		.cfi_startproc
 1355              		@ args = 0, pretend = 0, frame = 0
ARM GAS  /var/folders/28/j9jfyj_n4wz3qtvnym210h2c0000gn/T//ccoKeYRm.s 			page 25


 1356              		@ frame_needed = 0, uses_anonymous_args = 0
 1357              		@ link register save eliminated.
 1358              	.LVL113:
 1359              		.loc 2 586 0
 1360 0530 1028     		cmp	r0, #16
 1361              		.loc 2 589 0
 1362 0532 0CBF     		ite	eq
 1363 0534 014B     		ldreq	r3, .L130
 1364              		.loc 2 594 0
 1365 0536 024B     		ldrne	r3, .L130+4
 1366 0538 5869     		ldr	r0, [r3, #20]
 1367              	.LVL114:
 1368              		.loc 2 598 0
 1369 053a 7047     		bx	lr
 1370              	.L131:
 1371              		.align	2
 1372              	.L130:
 1373 053c 600000A0 		.word	-1610612640
 1374 0540 800000A0 		.word	-1610612608
 1375              		.cfi_endproc
 1376              	.LFE196:
 1377              		.size	FMC_GetECC, .-FMC_GetECC
 1378              		.align	2
 1379 0544 AFF30080 		.p2align 4,,15
 1379      AFF30080 
 1379      AFF30080 
 1380              		.global	FMC_PCCARDDeInit
 1381              		.thumb
 1382              		.thumb_func
 1383              		.type	FMC_PCCARDDeInit, %function
 1384              	FMC_PCCARDDeInit:
 1385              	.LFB197:
 1386              		.loc 2 647 0
 1387              		.cfi_startproc
 1388              		@ args = 0, pretend = 0, frame = 0
 1389              		@ frame_needed = 0, uses_anonymous_args = 0
 1390              		@ link register save eliminated.
 1391              		.loc 2 649 0
 1392 0550 054B     		ldr	r3, .L133
 1393              		.loc 2 651 0
 1394 0552 4FF0FC32 		mov	r2, #-50529028
 1395              		.loc 2 649 0
 1396 0556 1820     		movs	r0, #24
 1397              		.loc 2 650 0
 1398 0558 0021     		movs	r1, #0
 1399              		.loc 2 649 0
 1400 055a 1860     		str	r0, [r3]
 1401              		.loc 2 650 0
 1402 055c 5960     		str	r1, [r3, #4]
 1403              		.loc 2 651 0
 1404 055e 9A60     		str	r2, [r3, #8]
 1405              		.loc 2 652 0
 1406 0560 DA60     		str	r2, [r3, #12]
 1407              		.loc 2 653 0
 1408 0562 1A61     		str	r2, [r3, #16]
 1409 0564 7047     		bx	lr
 1410              	.L134:
ARM GAS  /var/folders/28/j9jfyj_n4wz3qtvnym210h2c0000gn/T//ccoKeYRm.s 			page 26


 1411 0566 00BF     		.align	2
 1412              	.L133:
 1413 0568 A00000A0 		.word	-1610612576
 1414              		.cfi_endproc
 1415              	.LFE197:
 1416              		.size	FMC_PCCARDDeInit, .-FMC_PCCARDDeInit
 1417              		.align	2
 1418 056c AFF30080 		.p2align 4,,15
 1419              		.global	FMC_PCCARDInit
 1420              		.thumb
 1421              		.thumb_func
 1422              		.type	FMC_PCCARDInit, %function
 1423              	FMC_PCCARDInit:
 1424              	.LFB198:
 1425              		.loc 2 664 0
 1426              		.cfi_startproc
 1427              		@ args = 0, pretend = 0, frame = 0
 1428              		@ frame_needed = 0, uses_anonymous_args = 0
 1429              		@ link register save eliminated.
 1430              	.LVL115:
 1431              		.loc 2 687 0
 1432 0570 90E80C00 		ldmia	r0, {r2, r3}
 1433              		.loc 2 688 0
 1434 0574 8168     		ldr	r1, [r0, #8]
 1435 0576 42F01002 		orr	r2, r2, #16
 1436              		.loc 2 664 0
 1437 057a 70B4     		push	{r4, r5, r6}
 1438              		.cfi_def_cfa_offset 12
 1439              		.cfi_offset 4, -12
 1440              		.cfi_offset 5, -8
 1441              		.cfi_offset 6, -4
 1442 057c 42EA4323 		orr	r3, r2, r3, lsl #9
 1443              		.loc 2 685 0
 1444 0580 144C     		ldr	r4, .L137
 1445              		.loc 2 691 0
 1446 0582 C668     		ldr	r6, [r0, #12]
 1447              		.loc 2 697 0
 1448 0584 0569     		ldr	r5, [r0, #16]
 1449              		.loc 2 703 0
 1450 0586 4069     		ldr	r0, [r0, #20]
 1451              	.LVL116:
 1452              		.loc 2 687 0
 1453 0588 43EA4133 		orr	r3, r3, r1, lsl #13
 1454              		.loc 2 685 0
 1455 058c 2360     		str	r3, [r4]
 1456              		.loc 2 692 0
 1457 058e 96E80C00 		ldmia	r6, {r2, r3}
 1458              		.loc 2 693 0
 1459 0592 B168     		ldr	r1, [r6, #8]
 1460              		.loc 2 694 0
 1461 0594 F668     		ldr	r6, [r6, #12]
 1462              		.loc 2 693 0
 1463 0596 0904     		lsls	r1, r1, #16
 1464 0598 41EA0323 		orr	r3, r1, r3, lsl #8
 1465              		.loc 2 692 0
 1466 059c 1343     		orrs	r3, r3, r2
 1467              		.loc 2 693 0
ARM GAS  /var/folders/28/j9jfyj_n4wz3qtvnym210h2c0000gn/T//ccoKeYRm.s 			page 27


 1468 059e 43EA0663 		orr	r3, r3, r6, lsl #24
 1469              		.loc 2 691 0
 1470 05a2 A360     		str	r3, [r4, #8]
 1471              		.loc 2 698 0
 1472 05a4 95E80C00 		ldmia	r5, {r2, r3}
 1473              		.loc 2 699 0
 1474 05a8 A968     		ldr	r1, [r5, #8]
 1475              		.loc 2 700 0
 1476 05aa ED68     		ldr	r5, [r5, #12]
 1477              		.loc 2 699 0
 1478 05ac 0904     		lsls	r1, r1, #16
 1479 05ae 41EA0323 		orr	r3, r1, r3, lsl #8
 1480              		.loc 2 698 0
 1481 05b2 1343     		orrs	r3, r3, r2
 1482              		.loc 2 699 0
 1483 05b4 43EA0563 		orr	r3, r3, r5, lsl #24
 1484              		.loc 2 697 0
 1485 05b8 E360     		str	r3, [r4, #12]
 1486              		.loc 2 704 0
 1487 05ba 90E80C00 		ldmia	r0, {r2, r3}
 1488              		.loc 2 705 0
 1489 05be 8168     		ldr	r1, [r0, #8]
 1490              		.loc 2 706 0
 1491 05c0 C068     		ldr	r0, [r0, #12]
 1492              		.loc 2 705 0
 1493 05c2 0904     		lsls	r1, r1, #16
 1494 05c4 41EA0323 		orr	r3, r1, r3, lsl #8
 1495              		.loc 2 704 0
 1496 05c8 1343     		orrs	r3, r3, r2
 1497              		.loc 2 705 0
 1498 05ca 43EA0063 		orr	r3, r3, r0, lsl #24
 1499              		.loc 2 703 0
 1500 05ce 2361     		str	r3, [r4, #16]
 1501              		.loc 2 707 0
 1502 05d0 70BC     		pop	{r4, r5, r6}
 1503              		.cfi_restore 6
 1504              		.cfi_restore 5
 1505              		.cfi_restore 4
 1506              		.cfi_def_cfa_offset 0
 1507 05d2 7047     		bx	lr
 1508              	.L138:
 1509              		.align	2
 1510              	.L137:
 1511 05d4 A00000A0 		.word	-1610612576
 1512              		.cfi_endproc
 1513              	.LFE198:
 1514              		.size	FMC_PCCARDInit, .-FMC_PCCARDInit
 1515              		.align	2
 1516 05d8 AFF30080 		.p2align 4,,15
 1516      AFF30080 
 1517              		.global	FMC_PCCARDStructInit
 1518              		.thumb
 1519              		.thumb_func
 1520              		.type	FMC_PCCARDStructInit, %function
 1521              	FMC_PCCARDStructInit:
 1522              	.LFB199:
 1523              		.loc 2 716 0
ARM GAS  /var/folders/28/j9jfyj_n4wz3qtvnym210h2c0000gn/T//ccoKeYRm.s 			page 28


 1524              		.cfi_startproc
 1525              		@ args = 0, pretend = 0, frame = 0
 1526              		@ frame_needed = 0, uses_anonymous_args = 0
 1527              		@ link register save eliminated.
 1528              	.LVL117:
 1529 05e0 30B4     		push	{r4, r5}
 1530              		.cfi_def_cfa_offset 8
 1531              		.cfi_offset 4, -8
 1532              		.cfi_offset 5, -4
 1533              		.loc 2 725 0
 1534 05e2 0169     		ldr	r1, [r0, #16]
 1535              		.loc 2 721 0
 1536 05e4 C468     		ldr	r4, [r0, #12]
 1537              		.loc 2 729 0
 1538 05e6 4269     		ldr	r2, [r0, #20]
 1539              		.loc 2 721 0
 1540 05e8 FC23     		movs	r3, #252
 1541              		.loc 2 718 0
 1542 05ea 0025     		movs	r5, #0
 1543 05ec 0560     		str	r5, [r0]
 1544              		.loc 2 719 0
 1545 05ee 4560     		str	r5, [r0, #4]
 1546              		.loc 2 720 0
 1547 05f0 8560     		str	r5, [r0, #8]
 1548              		.loc 2 721 0
 1549 05f2 2360     		str	r3, [r4]
 1550              		.loc 2 722 0
 1551 05f4 6360     		str	r3, [r4, #4]
 1552              		.loc 2 723 0
 1553 05f6 A360     		str	r3, [r4, #8]
 1554              		.loc 2 724 0
 1555 05f8 E360     		str	r3, [r4, #12]
 1556              		.loc 2 725 0
 1557 05fa 0B60     		str	r3, [r1]
 1558              		.loc 2 726 0
 1559 05fc 4B60     		str	r3, [r1, #4]
 1560              		.loc 2 727 0
 1561 05fe 8B60     		str	r3, [r1, #8]
 1562              		.loc 2 728 0
 1563 0600 CB60     		str	r3, [r1, #12]
 1564              		.loc 2 733 0
 1565 0602 30BC     		pop	{r4, r5}
 1566              		.cfi_restore 5
 1567              		.cfi_restore 4
 1568              		.cfi_def_cfa_offset 0
 1569              		.loc 2 729 0
 1570 0604 1360     		str	r3, [r2]
 1571              		.loc 2 730 0
 1572 0606 5360     		str	r3, [r2, #4]
 1573              		.loc 2 731 0
 1574 0608 9360     		str	r3, [r2, #8]
 1575              		.loc 2 732 0
 1576 060a D360     		str	r3, [r2, #12]
 1577              		.loc 2 733 0
 1578 060c 7047     		bx	lr
 1579              		.cfi_endproc
 1580              	.LFE199:
ARM GAS  /var/folders/28/j9jfyj_n4wz3qtvnym210h2c0000gn/T//ccoKeYRm.s 			page 29


 1581              		.size	FMC_PCCARDStructInit, .-FMC_PCCARDStructInit
 1582 060e 00BF     		.align	2
 1583              		.p2align 4,,15
 1584              		.global	FMC_PCCARDCmd
 1585              		.thumb
 1586              		.thumb_func
 1587              		.type	FMC_PCCARDCmd, %function
 1588              	FMC_PCCARDCmd:
 1589              	.LFB200:
 1590              		.loc 2 742 0
 1591              		.cfi_startproc
 1592              		@ args = 0, pretend = 0, frame = 0
 1593              		@ frame_needed = 0, uses_anonymous_args = 0
 1594              		@ link register save eliminated.
 1595              	.LVL118:
 1596              		.loc 2 748 0
 1597 0610 054A     		ldr	r2, .L145
 1598              		.loc 2 745 0
 1599 0612 20B9     		cbnz	r0, .L144
 1600              		.loc 2 753 0
 1601 0614 1168     		ldr	r1, [r2]
 1602 0616 054B     		ldr	r3, .L145+4
 1603 0618 0B40     		ands	r3, r3, r1
 1604 061a 1360     		str	r3, [r2]
 1605 061c 7047     		bx	lr
 1606              	.L144:
 1607              		.loc 2 748 0
 1608 061e 1368     		ldr	r3, [r2]
 1609 0620 43F00403 		orr	r3, r3, #4
 1610 0624 1360     		str	r3, [r2]
 1611 0626 7047     		bx	lr
 1612              	.L146:
 1613              		.align	2
 1614              	.L145:
 1615 0628 A00000A0 		.word	-1610612576
 1616 062c FBFF0F00 		.word	1048571
 1617              		.cfi_endproc
 1618              	.LFE200:
 1619              		.size	FMC_PCCARDCmd, .-FMC_PCCARDCmd
 1620              		.align	2
 1621              		.p2align 4,,15
 1622              		.global	FMC_SDRAMDeInit
 1623              		.thumb
 1624              		.thumb_func
 1625              		.type	FMC_SDRAMDeInit, %function
 1626              	FMC_SDRAMDeInit:
 1627              	.LFB201:
 1628              		.loc 2 814 0
 1629              		.cfi_startproc
 1630              		@ args = 0, pretend = 0, frame = 0
 1631              		@ frame_needed = 0, uses_anonymous_args = 0
 1632              		@ link register save eliminated.
 1633              	.LVL119:
 1634 0630 30B4     		push	{r4, r5}
 1635              		.cfi_def_cfa_offset 8
 1636              		.cfi_offset 4, -8
 1637              		.cfi_offset 5, -4
ARM GAS  /var/folders/28/j9jfyj_n4wz3qtvnym210h2c0000gn/T//ccoKeYRm.s 			page 30


 1638 0632 8000     		lsls	r0, r0, #2
 1639              	.LVL120:
 1640              		.loc 2 820 0
 1641 0634 084B     		ldr	r3, .L149
 1642 0636 00F12040 		add	r0, r0, #-1610612736
 1643 063a 0022     		movs	r2, #0
 1644              		.loc 2 818 0
 1645 063c 4FF43475 		mov	r5, #720
 1646              		.loc 2 819 0
 1647 0640 6FF07044 		mvn	r4, #-268435456
 1648              		.loc 2 818 0
 1649 0644 C0F84051 		str	r5, [r0, #320]
 1650              		.loc 2 819 0
 1651 0648 C0F84841 		str	r4, [r0, #328]
 1652              		.loc 2 820 0
 1653 064c 1A61     		str	r2, [r3, #16]
 1654              		.loc 2 823 0
 1655 064e 30BC     		pop	{r4, r5}
 1656              		.cfi_restore 5
 1657              		.cfi_restore 4
 1658              		.cfi_def_cfa_offset 0
 1659              		.loc 2 821 0
 1660 0650 5A61     		str	r2, [r3, #20]
 1661              		.loc 2 822 0
 1662 0652 9A61     		str	r2, [r3, #24]
 1663              		.loc 2 823 0
 1664 0654 7047     		bx	lr
 1665              	.L150:
 1666 0656 00BF     		.align	2
 1667              	.L149:
 1668 0658 400100A0 		.word	-1610612416
 1669              		.cfi_endproc
 1670              	.LFE201:
 1671              		.size	FMC_SDRAMDeInit, .-FMC_SDRAMDeInit
 1672              		.align	2
 1673 065c AFF30080 		.p2align 4,,15
 1674              		.global	FMC_SDRAMInit
 1675              		.thumb
 1676              		.thumb_func
 1677              		.type	FMC_SDRAMInit, %function
 1678              	FMC_SDRAMInit:
 1679              	.LFB202:
 1680              		.loc 2 834 0
 1681              		.cfi_startproc
 1682              		@ args = 0, pretend = 0, frame = 8
 1683              		@ frame_needed = 0, uses_anonymous_args = 0
 1684              		@ link register save eliminated.
 1685              	.LVL121:
 1686 0660 2DE9F001 		push	{r4, r5, r6, r7, r8}
 1687              		.cfi_def_cfa_offset 20
 1688              		.cfi_offset 4, -20
 1689              		.cfi_offset 5, -16
 1690              		.cfi_offset 6, -12
 1691              		.cfi_offset 7, -8
 1692              		.cfi_offset 8, -4
 1693 0664 83B0     		sub	sp, sp, #12
 1694              		.cfi_def_cfa_offset 32
ARM GAS  /var/folders/28/j9jfyj_n4wz3qtvnym210h2c0000gn/T//ccoKeYRm.s 			page 31


 1695 0666 8369     		ldr	r3, [r0, #24]
 1696 0668 0193     		str	r3, [sp, #4]
 1697 066a 8668     		ldr	r6, [r0, #8]
 1698 066c C368     		ldr	r3, [r0, #12]
 1699 066e 0569     		ldr	r5, [r0, #16]
 1700 0670 4469     		ldr	r4, [r0, #20]
 1701              		.loc 2 851 0
 1702 0672 C769     		ldr	r7, [r0, #28]
 1703              		.loc 2 852 0
 1704 0674 D0F82080 		ldr	r8, [r0, #32]
 1705              		.loc 2 853 0
 1706 0678 416A     		ldr	r1, [r0, #36]
 1707              		.loc 2 875 0
 1708 067a 0268     		ldr	r2, [r0]
 1709 067c 1E43     		orrs	r6, r6, r3
 1710 067e 3543     		orrs	r5, r5, r6
 1711 0680 019B     		ldr	r3, [sp, #4]
 1712 0682 2C43     		orrs	r4, r4, r5
 1713 0684 2343     		orrs	r3, r3, r4
 1714 0686 3B43     		orrs	r3, r3, r7
 1715 0688 43EA0803 		orr	r3, r3, r8
 1716              		.loc 2 865 0
 1717 068c 4468     		ldr	r4, [r0, #4]
 1718 068e 0B43     		orrs	r3, r3, r1
 1719 0690 2343     		orrs	r3, r3, r4
 1720              	.LVL122:
 1721              		.loc 2 875 0
 1722 0692 02BB     		cbnz	r2, .L152
 1723              		.loc 2 891 0
 1724 0694 876A     		ldr	r7, [r0, #40]
 1725              		.loc 2 877 0
 1726 0696 234E     		ldr	r6, .L155
 1727              		.loc 2 897 0
 1728 0698 07F10C01 		add	r1, r7, #12
 1729              		.loc 2 877 0
 1730 069c 3360     		str	r3, [r6]
 1731              		.loc 2 893 0
 1732 069e BD68     		ldr	r5, [r7, #8]
 1733              		.loc 2 892 0
 1734 06a0 7868     		ldr	r0, [r7, #4]
 1735              	.LVL123:
 1736              		.loc 2 891 0
 1737 06a2 3C68     		ldr	r4, [r7]
 1738              		.loc 2 897 0
 1739 06a4 8EC9     		ldmia	r1, {r1, r2, r3, r7}
 1740              	.LVL124:
 1741              		.loc 2 893 0
 1742 06a6 013D     		subs	r5, r5, #1
 1743 06a8 2D02     		lsls	r5, r5, #8
 1744              		.loc 2 892 0
 1745 06aa 0138     		subs	r0, r0, #1
 1746 06ac 45EA0010 		orr	r0, r5, r0, lsl #4
 1747              		.loc 2 891 0
 1748 06b0 013C     		subs	r4, r4, #1
 1749              		.loc 2 892 0
 1750 06b2 0443     		orrs	r4, r4, r0
 1751              		.loc 2 894 0
ARM GAS  /var/folders/28/j9jfyj_n4wz3qtvnym210h2c0000gn/T//ccoKeYRm.s 			page 32


 1752 06b4 0139     		subs	r1, r1, #1
 1753              		.loc 2 893 0
 1754 06b6 44EA0130 		orr	r0, r4, r1, lsl #12
 1755              		.loc 2 895 0
 1756 06ba 013A     		subs	r2, r2, #1
 1757              		.loc 2 894 0
 1758 06bc 40EA0241 		orr	r1, r0, r2, lsl #16
 1759              		.loc 2 896 0
 1760 06c0 013B     		subs	r3, r3, #1
 1761              		.loc 2 895 0
 1762 06c2 41EA0352 		orr	r2, r1, r3, lsl #20
 1763              		.loc 2 897 0
 1764 06c6 7B1E     		subs	r3, r7, #1
 1765              		.loc 2 891 0
 1766 06c8 42EA0363 		orr	r3, r2, r3, lsl #24
 1767              	.LVL125:
 1768              		.loc 2 899 0
 1769 06cc B360     		str	r3, [r6, #8]
 1770              	.LVL126:
 1771              		.loc 2 915 0
 1772 06ce 03B0     		add	sp, sp, #12
 1773              		.cfi_remember_state
 1774              		.cfi_def_cfa_offset 20
 1775              		@ sp needed
 1776 06d0 BDE8F001 		pop	{r4, r5, r6, r7, r8}
 1777              		.cfi_restore 8
 1778              		.cfi_restore 7
 1779              		.cfi_restore 6
 1780              		.cfi_restore 5
 1781              		.cfi_restore 4
 1782              		.cfi_def_cfa_offset 0
 1783 06d4 7047     		bx	lr
 1784              	.LVL127:
 1785              	.L152:
 1786              		.cfi_restore_state
 1787              		.loc 2 885 0
 1788 06d6 134D     		ldr	r5, .L155
 1789              		.loc 2 881 0
 1790 06d8 48EA070C 		orr	ip, r8, r7
 1791 06dc 4CEA0101 		orr	r1, ip, r1
 1792              	.LVL128:
 1793              		.loc 2 903 0
 1794 06e0 876A     		ldr	r7, [r0, #40]
 1795              		.loc 2 885 0
 1796 06e2 2960     		str	r1, [r5]
 1797              		.loc 2 886 0
 1798 06e4 45F82230 		str	r3, [r5, r2, lsl #2]
 1799              		.loc 2 905 0
 1800 06e8 BE68     		ldr	r6, [r7, #8]
 1801              		.loc 2 904 0
 1802 06ea 7B68     		ldr	r3, [r7, #4]
 1803              	.LVL129:
 1804              		.loc 2 908 0
 1805 06ec FC68     		ldr	r4, [r7, #12]
 1806              		.loc 2 903 0
 1807 06ee 3968     		ldr	r1, [r7]
 1808              	.LVL130:
ARM GAS  /var/folders/28/j9jfyj_n4wz3qtvnym210h2c0000gn/T//ccoKeYRm.s 			page 33


 1809              		.loc 2 909 0
 1810 06f0 7869     		ldr	r0, [r7, #20]
 1811              	.LVL131:
 1812              		.loc 2 906 0
 1813 06f2 3F69     		ldr	r7, [r7, #16]
 1814              		.loc 2 905 0
 1815 06f4 013E     		subs	r6, r6, #1
 1816 06f6 3602     		lsls	r6, r6, #8
 1817              		.loc 2 904 0
 1818 06f8 013B     		subs	r3, r3, #1
 1819 06fa 46EA0313 		orr	r3, r6, r3, lsl #4
 1820              		.loc 2 908 0
 1821 06fe 013C     		subs	r4, r4, #1
 1822              		.loc 2 903 0
 1823 0700 0139     		subs	r1, r1, #1
 1824              		.loc 2 904 0
 1825 0702 1943     		orrs	r1, r1, r3
 1826              		.loc 2 912 0
 1827 0704 0232     		adds	r2, r2, #2
 1828              	.LVL132:
 1829              		.loc 2 908 0
 1830 0706 2403     		lsls	r4, r4, #12
 1831              		.loc 2 906 0
 1832 0708 7B1E     		subs	r3, r7, #1
 1833              		.loc 2 909 0
 1834 070a 0138     		subs	r0, r0, #1
 1835              		.loc 2 908 0
 1836 070c 44EA0050 		orr	r0, r4, r0, lsl #20
 1837              		.loc 2 903 0
 1838 0710 41EA0343 		orr	r3, r1, r3, lsl #16
 1839              	.LVL133:
 1840              		.loc 2 911 0
 1841 0714 A860     		str	r0, [r5, #8]
 1842              	.LVL134:
 1843              		.loc 2 912 0
 1844 0716 45F82230 		str	r3, [r5, r2, lsl #2]
 1845              		.loc 2 915 0
 1846 071a 03B0     		add	sp, sp, #12
 1847              		.cfi_def_cfa_offset 20
 1848              		@ sp needed
 1849 071c BDE8F001 		pop	{r4, r5, r6, r7, r8}
 1850              		.cfi_restore 4
 1851              		.cfi_restore 5
 1852              		.cfi_restore 6
 1853              		.cfi_restore 7
 1854              		.cfi_restore 8
 1855              		.cfi_def_cfa_offset 0
 1856 0720 7047     		bx	lr
 1857              	.L156:
 1858 0722 00BF     		.align	2
 1859              	.L155:
 1860 0724 400100A0 		.word	-1610612416
 1861              		.cfi_endproc
 1862              	.LFE202:
 1863              		.size	FMC_SDRAMInit, .-FMC_SDRAMInit
 1864              		.align	2
 1865 0728 AFF30080 		.p2align 4,,15
ARM GAS  /var/folders/28/j9jfyj_n4wz3qtvnym210h2c0000gn/T//ccoKeYRm.s 			page 34


 1865      AFF30080 
 1866              		.global	SDRAM_Init
 1867              		.thumb
 1868              		.thumb_func
 1869              		.type	SDRAM_Init, %function
 1870              	SDRAM_Init:
 1871              	.LFB180:
 1872              		.loc 1 61 0
 1873              		.cfi_startproc
 1874              		@ args = 0, pretend = 0, frame = 72
 1875              		@ frame_needed = 0, uses_anonymous_args = 0
 1876 0730 2DE9F041 		push	{r4, r5, r6, r7, r8, lr}
 1877              		.cfi_def_cfa_offset 24
 1878              		.cfi_offset 4, -24
 1879              		.cfi_offset 5, -20
 1880              		.cfi_offset 6, -16
 1881              		.cfi_offset 7, -12
 1882              		.cfi_offset 8, -8
 1883              		.cfi_offset 14, -4
 1884              		.loc 1 66 0
 1885 0734 194A     		ldr	r2, .L159
 1886 0736 936B     		ldr	r3, [r2, #56]
 1887              		.loc 1 61 0
 1888 0738 92B0     		sub	sp, sp, #72
 1889              		.cfi_def_cfa_offset 96
 1890              		.loc 1 66 0
 1891 073a 43F00103 		orr	r3, r3, #1
 1892 073e 9363     		str	r3, [r2, #56]
 1893              		.loc 1 110 0
 1894 0740 0421     		movs	r1, #4
 1895              		.loc 1 106 0
 1896 0742 0223     		movs	r3, #2
 1897              		.loc 1 121 0
 1898 0744 0022     		movs	r2, #0
 1899              		.loc 1 127 0
 1900 0746 4FF0400C 		mov	ip, #64
 1901              		.loc 1 128 0
 1902 074a 4FF4807E 		mov	lr, #256
 1903              		.loc 1 108 0
 1904 074e 0724     		movs	r4, #7
 1905              		.loc 1 136 0
 1906 0750 07A8     		add	r0, sp, #28
 1907              		.loc 1 126 0
 1908 0752 4FF01008 		mov	r8, #16
 1909              		.loc 1 130 0
 1910 0756 4FF40067 		mov	r7, #2048
 1911              		.loc 1 131 0
 1912 075a 4FF48056 		mov	r6, #4096
 1913              		.loc 1 132 0
 1914 075e 4FF40055 		mov	r5, #8192
 1915              		.loc 1 106 0
 1916 0762 0093     		str	r3, [sp]
 1917              		.loc 1 114 0
 1918 0764 0493     		str	r3, [sp, #16]
 1919              		.loc 1 116 0
 1920 0766 0593     		str	r3, [sp, #20]
 1921              		.loc 1 118 0
ARM GAS  /var/folders/28/j9jfyj_n4wz3qtvnym210h2c0000gn/T//ccoKeYRm.s 			page 35


 1922 0768 0693     		str	r3, [sp, #24]
 1923              		.loc 1 110 0
 1924 076a 0291     		str	r1, [sp, #8]
 1925              		.loc 1 125 0
 1926 076c 0991     		str	r1, [sp, #36]
 1927              		.loc 1 121 0
 1928 076e 0792     		str	r2, [sp, #28]
 1929              		.loc 1 123 0
 1930 0770 0892     		str	r2, [sp, #32]
 1931              		.loc 1 129 0
 1932 0772 0D92     		str	r2, [sp, #52]
 1933              		.loc 1 127 0
 1934 0774 CDF82CC0 		str	ip, [sp, #44]
 1935              		.loc 1 128 0
 1936 0778 CDF830E0 		str	lr, [sp, #48]
 1937              		.loc 1 108 0
 1938 077c 0194     		str	r4, [sp, #4]
 1939              		.loc 1 112 0
 1940 077e 0394     		str	r4, [sp, #12]
 1941              		.loc 1 126 0
 1942 0780 CDF82880 		str	r8, [sp, #40]
 1943              		.loc 1 130 0
 1944 0784 0E97     		str	r7, [sp, #56]
 1945              		.loc 1 131 0
 1946 0786 0F96     		str	r6, [sp, #60]
 1947              		.loc 1 132 0
 1948 0788 1095     		str	r5, [sp, #64]
 1949              		.loc 1 133 0
 1950 078a CDF844D0 		str	sp, [sp, #68]
 1951              		.loc 1 136 0
 1952 078e FFF7FEFF 		bl	FMC_SDRAMInit
 1953              	.LVL135:
 1954              		.loc 1 139 0
 1955 0792 FFF7FEFF 		bl	SDRAM_InitSequence
 1956              	.LVL136:
 1957              		.loc 1 141 0
 1958 0796 12B0     		add	sp, sp, #72
 1959              		.cfi_def_cfa_offset 24
 1960              		@ sp needed
 1961 0798 BDE8F081 		pop	{r4, r5, r6, r7, r8, pc}
 1962              	.L160:
 1963              		.align	2
 1964              	.L159:
 1965 079c 00380240 		.word	1073887232
 1966              		.cfi_endproc
 1967              	.LFE180:
 1968              		.size	SDRAM_Init, .-SDRAM_Init
 1969              		.align	2
 1970              		.p2align 4,,15
 1971              		.global	configSDRAM
 1972              		.thumb
 1973              		.thumb_func
 1974              		.type	configSDRAM, %function
 1975              	configSDRAM:
 1976              	.LFB181:
 1977              		.loc 1 143 0
 1978              		.cfi_startproc
ARM GAS  /var/folders/28/j9jfyj_n4wz3qtvnym210h2c0000gn/T//ccoKeYRm.s 			page 36


 1979              		@ args = 0, pretend = 0, frame = 0
 1980              		@ frame_needed = 0, uses_anonymous_args = 0
 1981              		@ link register save eliminated.
 1982              		.loc 1 144 0
 1983 07a0 FFF7FEBF 		b	SDRAM_Init
 1984              	.LVL137:
 1985              		.cfi_endproc
 1986              	.LFE181:
 1987              		.size	configSDRAM, .-configSDRAM
 1988              		.align	2
 1989 07a4 AFF30080 		.p2align 4,,15
 1989      AFF30080 
 1989      AFF30080 
 1990              		.global	FMC_SDRAMStructInit
 1991              		.thumb
 1992              		.thumb_func
 1993              		.type	FMC_SDRAMStructInit, %function
 1994              	FMC_SDRAMStructInit:
 1995              	.LFB203:
 1996              		.loc 2 924 0
 1997              		.cfi_startproc
 1998              		@ args = 0, pretend = 0, frame = 0
 1999              		@ frame_needed = 0, uses_anonymous_args = 0
 2000              		@ link register save eliminated.
 2001              	.LVL138:
 2002 07b0 30B4     		push	{r4, r5}
 2003              		.cfi_def_cfa_offset 8
 2004              		.cfi_offset 4, -8
 2005              		.cfi_offset 5, -4
 2006              		.loc 2 937 0
 2007 07b2 826A     		ldr	r2, [r0, #40]
 2008              		.loc 2 930 0
 2009 07b4 4023     		movs	r3, #64
 2010 07b6 0361     		str	r3, [r0, #16]
 2011              		.loc 2 926 0
 2012 07b8 0021     		movs	r1, #0
 2013              		.loc 2 929 0
 2014 07ba 1023     		movs	r3, #16
 2015              		.loc 2 931 0
 2016 07bc 8025     		movs	r5, #128
 2017              		.loc 2 932 0
 2018 07be 4FF40074 		mov	r4, #512
 2019              		.loc 2 931 0
 2020 07c2 4561     		str	r5, [r0, #20]
 2021              		.loc 2 932 0
 2022 07c4 8461     		str	r4, [r0, #24]
 2023              		.loc 2 926 0
 2024 07c6 0160     		str	r1, [r0]
 2025              		.loc 2 927 0
 2026 07c8 4160     		str	r1, [r0, #4]
 2027              		.loc 2 928 0
 2028 07ca 8160     		str	r1, [r0, #8]
 2029              		.loc 2 933 0
 2030 07cc C161     		str	r1, [r0, #28]
 2031              		.loc 2 934 0
 2032 07ce 0162     		str	r1, [r0, #32]
 2033              		.loc 2 935 0
ARM GAS  /var/folders/28/j9jfyj_n4wz3qtvnym210h2c0000gn/T//ccoKeYRm.s 			page 37


 2034 07d0 4162     		str	r1, [r0, #36]
 2035              		.loc 2 929 0
 2036 07d2 C360     		str	r3, [r0, #12]
 2037              		.loc 2 945 0
 2038 07d4 30BC     		pop	{r4, r5}
 2039              		.cfi_restore 5
 2040              		.cfi_restore 4
 2041              		.cfi_def_cfa_offset 0
 2042              		.loc 2 937 0
 2043 07d6 1360     		str	r3, [r2]
 2044              		.loc 2 938 0
 2045 07d8 5360     		str	r3, [r2, #4]
 2046              		.loc 2 939 0
 2047 07da 9360     		str	r3, [r2, #8]
 2048              		.loc 2 940 0
 2049 07dc D360     		str	r3, [r2, #12]
 2050              		.loc 2 941 0
 2051 07de 1361     		str	r3, [r2, #16]
 2052              		.loc 2 942 0
 2053 07e0 5361     		str	r3, [r2, #20]
 2054              		.loc 2 943 0
 2055 07e2 9361     		str	r3, [r2, #24]
 2056              		.loc 2 945 0
 2057 07e4 7047     		bx	lr
 2058              		.cfi_endproc
 2059              	.LFE203:
 2060              		.size	FMC_SDRAMStructInit, .-FMC_SDRAMStructInit
 2061 07e6 00BF     		.align	2
 2062 07e8 AFF30080 		.p2align 4,,15
 2062      AFF30080 
 2063              		.global	FMC_SDRAMCmdConfig
 2064              		.thumb
 2065              		.thumb_func
 2066              		.type	FMC_SDRAMCmdConfig, %function
 2067              	FMC_SDRAMCmdConfig:
 2068              	.LFB204:
 2069              		.loc 2 954 0
 2070              		.cfi_startproc
 2071              		@ args = 0, pretend = 0, frame = 0
 2072              		@ frame_needed = 0, uses_anonymous_args = 0
 2073              		@ link register save eliminated.
 2074              	.LVL139:
 2075              		.loc 2 965 0
 2076 07f0 011D     		adds	r1, r0, #4
 2077              		.loc 2 954 0
 2078 07f2 30B4     		push	{r4, r5}
 2079              		.cfi_def_cfa_offset 8
 2080              		.cfi_offset 4, -8
 2081              		.cfi_offset 5, -4
 2082              		.loc 2 965 0
 2083 07f4 2AC9     		ldmia	r1, {r1, r3, r5}
 2084 07f6 0268     		ldr	r2, [r0]
 2085              		.loc 2 968 0
 2086 07f8 044C     		ldr	r4, .L166
 2087 07fa 0A43     		orrs	r2, r2, r1
 2088 07fc 42EA4522 		orr	r2, r2, r5, lsl #9
 2089              		.loc 2 965 0
ARM GAS  /var/folders/28/j9jfyj_n4wz3qtvnym210h2c0000gn/T//ccoKeYRm.s 			page 38


 2090 0800 013B     		subs	r3, r3, #1
 2091              		.loc 2 963 0
 2092 0802 42EA4313 		orr	r3, r2, r3, lsl #5
 2093              	.LVL140:
 2094              		.loc 2 968 0
 2095 0806 2361     		str	r3, [r4, #16]
 2096              		.loc 2 970 0
 2097 0808 30BC     		pop	{r4, r5}
 2098              		.cfi_restore 5
 2099              		.cfi_restore 4
 2100              		.cfi_def_cfa_offset 0
 2101 080a 7047     		bx	lr
 2102              	.L167:
 2103              		.align	2
 2104              	.L166:
 2105 080c 400100A0 		.word	-1610612416
 2106              		.cfi_endproc
 2107              	.LFE204:
 2108              		.size	FMC_SDRAMCmdConfig, .-FMC_SDRAMCmdConfig
 2109              		.align	2
 2110              		.p2align 4,,15
 2111              		.global	FMC_GetModeStatus
 2112              		.thumb
 2113              		.thumb_func
 2114              		.type	FMC_GetModeStatus, %function
 2115              	FMC_GetModeStatus:
 2116              	.LFB205:
 2117              		.loc 2 980 0
 2118              		.cfi_startproc
 2119              		@ args = 0, pretend = 0, frame = 0
 2120              		@ frame_needed = 0, uses_anonymous_args = 0
 2121              		@ link register save eliminated.
 2122              	.LVL141:
 2123              		.loc 2 989 0
 2124 0810 054B     		ldr	r3, .L172
 2125              		.loc 2 987 0
 2126 0812 20B1     		cbz	r0, .L171
 2127              		.loc 2 993 0
 2128 0814 9869     		ldr	r0, [r3, #24]
 2129              	.LVL142:
 2130 0816 00F01800 		and	r0, r0, #24
 2131 081a 8008     		lsrs	r0, r0, #2
 2132              	.LVL143:
 2133              		.loc 2 998 0
 2134 081c 7047     		bx	lr
 2135              	.LVL144:
 2136              	.L171:
 2137              		.loc 2 989 0
 2138 081e 9869     		ldr	r0, [r3, #24]
 2139              	.LVL145:
 2140 0820 00F00600 		and	r0, r0, #6
 2141              	.LVL146:
 2142 0824 7047     		bx	lr
 2143              	.L173:
 2144 0826 00BF     		.align	2
 2145              	.L172:
 2146 0828 400100A0 		.word	-1610612416
ARM GAS  /var/folders/28/j9jfyj_n4wz3qtvnym210h2c0000gn/T//ccoKeYRm.s 			page 39


 2147              		.cfi_endproc
 2148              	.LFE205:
 2149              		.size	FMC_GetModeStatus, .-FMC_GetModeStatus
 2150              		.align	2
 2151 082c AFF30080 		.p2align 4,,15
 2152              		.global	FMC_SetRefreshCount
 2153              		.thumb
 2154              		.thumb_func
 2155              		.type	FMC_SetRefreshCount, %function
 2156              	FMC_SetRefreshCount:
 2157              	.LFB206:
 2158              		.loc 2 1006 0
 2159              		.cfi_startproc
 2160              		@ args = 0, pretend = 0, frame = 0
 2161              		@ frame_needed = 0, uses_anonymous_args = 0
 2162              		@ link register save eliminated.
 2163              	.LVL147:
 2164              		.loc 2 1010 0
 2165 0830 024A     		ldr	r2, .L175
 2166 0832 5369     		ldr	r3, [r2, #20]
 2167 0834 43EA4000 		orr	r0, r3, r0, lsl #1
 2168              	.LVL148:
 2169 0838 5061     		str	r0, [r2, #20]
 2170 083a 7047     		bx	lr
 2171              	.L176:
 2172              		.align	2
 2173              	.L175:
 2174 083c 400100A0 		.word	-1610612416
 2175              		.cfi_endproc
 2176              	.LFE206:
 2177              		.size	FMC_SetRefreshCount, .-FMC_SetRefreshCount
 2178              		.align	2
 2179              		.p2align 4,,15
 2180              		.global	FMC_SetAutoRefresh_Number
 2181              		.thumb
 2182              		.thumb_func
 2183              		.type	FMC_SetAutoRefresh_Number, %function
 2184              	FMC_SetAutoRefresh_Number:
 2185              	.LFB207:
 2186              		.loc 2 1020 0
 2187              		.cfi_startproc
 2188              		@ args = 0, pretend = 0, frame = 0
 2189              		@ frame_needed = 0, uses_anonymous_args = 0
 2190              		@ link register save eliminated.
 2191              	.LVL149:
 2192              		.loc 2 1024 0
 2193 0840 024A     		ldr	r2, .L178
 2194 0842 1369     		ldr	r3, [r2, #16]
 2195 0844 43EA4010 		orr	r0, r3, r0, lsl #5
 2196              	.LVL150:
 2197 0848 1061     		str	r0, [r2, #16]
 2198 084a 7047     		bx	lr
 2199              	.L179:
 2200              		.align	2
 2201              	.L178:
 2202 084c 400100A0 		.word	-1610612416
 2203              		.cfi_endproc
ARM GAS  /var/folders/28/j9jfyj_n4wz3qtvnym210h2c0000gn/T//ccoKeYRm.s 			page 40


 2204              	.LFE207:
 2205              		.size	FMC_SetAutoRefresh_Number, .-FMC_SetAutoRefresh_Number
 2206              		.align	2
 2207              		.p2align 4,,15
 2208              		.global	FMC_SDRAMWriteProtectionConfig
 2209              		.thumb
 2210              		.thumb_func
 2211              		.type	FMC_SDRAMWriteProtectionConfig, %function
 2212              	FMC_SDRAMWriteProtectionConfig:
 2213              	.LFB208:
 2214              		.loc 2 1036 0
 2215              		.cfi_startproc
 2216              		@ args = 0, pretend = 0, frame = 0
 2217              		@ frame_needed = 0, uses_anonymous_args = 0
 2218              		@ link register save eliminated.
 2219              	.LVL151:
 2220 0850 8000     		lsls	r0, r0, #2
 2221              	.LVL152:
 2222 0852 00F12040 		add	r0, r0, #-1610612736
 2223              		.loc 2 1041 0
 2224 0856 39B9     		cbnz	r1, .L183
 2225              		.loc 2 1047 0
 2226 0858 D0F84021 		ldr	r2, [r0, #320]
 2227 085c 47F6FF53 		movw	r3, #32255
 2228 0860 1340     		ands	r3, r3, r2
 2229 0862 C0F84031 		str	r3, [r0, #320]
 2230 0866 7047     		bx	lr
 2231              	.L183:
 2232              		.loc 2 1043 0
 2233 0868 D0F84031 		ldr	r3, [r0, #320]
 2234 086c 43F40073 		orr	r3, r3, #512
 2235 0870 C0F84031 		str	r3, [r0, #320]
 2236 0874 7047     		bx	lr
 2237              		.cfi_endproc
 2238              	.LFE208:
 2239              		.size	FMC_SDRAMWriteProtectionConfig, .-FMC_SDRAMWriteProtectionConfig
 2240 0876 00BF     		.align	2
 2241 0878 AFF30080 		.p2align 4,,15
 2241      AFF30080 
 2242              		.global	FMC_ITConfig
 2243              		.thumb
 2244              		.thumb_func
 2245              		.type	FMC_ITConfig, %function
 2246              	FMC_ITConfig:
 2247              	.LFB209:
 2248              		.loc 2 1088 0
 2249              		.cfi_startproc
 2250              		@ args = 0, pretend = 0, frame = 0
 2251              		@ frame_needed = 0, uses_anonymous_args = 0
 2252              		@ link register save eliminated.
 2253              	.LVL153:
 2254              		.loc 2 1093 0
 2255 0880 62B1     		cbz	r2, .L185
 2256              		.loc 2 1096 0
 2257 0882 1028     		cmp	r0, #16
 2258 0884 1ED0     		beq	.L193
 2259              		.loc 2 1101 0
ARM GAS  /var/folders/28/j9jfyj_n4wz3qtvnym210h2c0000gn/T//ccoKeYRm.s 			page 41


 2260 0886 B0F5807F 		cmp	r0, #256
 2261 088a 2BD0     		beq	.L194
 2262              		.loc 2 1106 0
 2263 088c B0F5805F 		cmp	r0, #4096
 2264 0890 1DD0     		beq	.L195
 2265              		.loc 2 1114 0
 2266 0892 1A4A     		ldr	r2, .L199
 2267              	.LVL154:
 2268 0894 5369     		ldr	r3, [r2, #20]
 2269 0896 1943     		orrs	r1, r1, r3
 2270              	.LVL155:
 2271 0898 5161     		str	r1, [r2, #20]
 2272 089a 7047     		bx	lr
 2273              	.LVL156:
 2274              	.L185:
 2275              		.loc 2 1120 0
 2276 089c 1028     		cmp	r0, #16
 2277 089e 0BD0     		beq	.L196
 2278              		.loc 2 1126 0
 2279 08a0 B0F5807F 		cmp	r0, #256
 2280 08a4 18D0     		beq	.L197
 2281              		.loc 2 1131 0
 2282 08a6 B0F5805F 		cmp	r0, #4096
 2283 08aa 20D0     		beq	.L198
 2284              		.loc 2 1139 0
 2285 08ac 134A     		ldr	r2, .L199
 2286              	.LVL157:
 2287 08ae 5369     		ldr	r3, [r2, #20]
 2288 08b0 23EA0101 		bic	r1, r3, r1
 2289              	.LVL158:
 2290 08b4 5161     		str	r1, [r2, #20]
 2291 08b6 7047     		bx	lr
 2292              	.LVL159:
 2293              	.L196:
 2294              		.loc 2 1123 0
 2295 08b8 114A     		ldr	r2, .L199+4
 2296              	.LVL160:
 2297 08ba 5368     		ldr	r3, [r2, #4]
 2298 08bc 23EA0101 		bic	r1, r3, r1
 2299              	.LVL161:
 2300 08c0 5160     		str	r1, [r2, #4]
 2301 08c2 7047     		bx	lr
 2302              	.LVL162:
 2303              	.L193:
 2304              		.loc 2 1098 0
 2305 08c4 0E4A     		ldr	r2, .L199+4
 2306              	.LVL163:
 2307 08c6 5368     		ldr	r3, [r2, #4]
 2308 08c8 1943     		orrs	r1, r1, r3
 2309              	.LVL164:
 2310 08ca 5160     		str	r1, [r2, #4]
 2311 08cc 7047     		bx	lr
 2312              	.LVL165:
 2313              	.L195:
 2314              		.loc 2 1108 0
 2315 08ce 0D4A     		ldr	r2, .L199+8
 2316              	.LVL166:
ARM GAS  /var/folders/28/j9jfyj_n4wz3qtvnym210h2c0000gn/T//ccoKeYRm.s 			page 42


 2317 08d0 5368     		ldr	r3, [r2, #4]
 2318 08d2 1943     		orrs	r1, r1, r3
 2319              	.LVL167:
 2320 08d4 5160     		str	r1, [r2, #4]
 2321 08d6 7047     		bx	lr
 2322              	.LVL168:
 2323              	.L197:
 2324              		.loc 2 1128 0
 2325 08d8 0B4A     		ldr	r2, .L199+12
 2326              	.LVL169:
 2327 08da 5368     		ldr	r3, [r2, #4]
 2328 08dc 23EA0101 		bic	r1, r3, r1
 2329              	.LVL170:
 2330 08e0 5160     		str	r1, [r2, #4]
 2331 08e2 7047     		bx	lr
 2332              	.LVL171:
 2333              	.L194:
 2334              		.loc 2 1103 0
 2335 08e4 084A     		ldr	r2, .L199+12
 2336              	.LVL172:
 2337 08e6 5368     		ldr	r3, [r2, #4]
 2338 08e8 1943     		orrs	r1, r1, r3
 2339              	.LVL173:
 2340 08ea 5160     		str	r1, [r2, #4]
 2341 08ec 7047     		bx	lr
 2342              	.LVL174:
 2343              	.L198:
 2344              		.loc 2 1133 0
 2345 08ee 054A     		ldr	r2, .L199+8
 2346              	.LVL175:
 2347 08f0 5368     		ldr	r3, [r2, #4]
 2348 08f2 23EA0101 		bic	r1, r3, r1
 2349              	.LVL176:
 2350 08f6 5160     		str	r1, [r2, #4]
 2351 08f8 7047     		bx	lr
 2352              	.L200:
 2353 08fa 00BF     		.align	2
 2354              	.L199:
 2355 08fc 400100A0 		.word	-1610612416
 2356 0900 600000A0 		.word	-1610612640
 2357 0904 A00000A0 		.word	-1610612576
 2358 0908 800000A0 		.word	-1610612608
 2359              		.cfi_endproc
 2360              	.LFE209:
 2361              		.size	FMC_ITConfig, .-FMC_ITConfig
 2362              		.align	2
 2363 090c AFF30080 		.p2align 4,,15
 2364              		.global	FMC_GetFlagStatus
 2365              		.thumb
 2366              		.thumb_func
 2367              		.type	FMC_GetFlagStatus, %function
 2368              	FMC_GetFlagStatus:
 2369              	.LFB210:
 2370              		.loc 2 1165 0
 2371              		.cfi_startproc
 2372              		@ args = 0, pretend = 0, frame = 0
 2373              		@ frame_needed = 0, uses_anonymous_args = 0
ARM GAS  /var/folders/28/j9jfyj_n4wz3qtvnym210h2c0000gn/T//ccoKeYRm.s 			page 43


 2374              		@ link register save eliminated.
 2375              	.LVL177:
 2376              		.loc 2 1173 0
 2377 0910 1028     		cmp	r0, #16
 2378 0912 10D0     		beq	.L206
 2379              		.loc 2 1177 0
 2380 0914 B0F5807F 		cmp	r0, #256
 2381 0918 10D0     		beq	.L207
 2382              		.loc 2 1181 0
 2383 091a B0F5805F 		cmp	r0, #4096
 2384              		.loc 2 1183 0
 2385 091e 0BBF     		itete	eq
 2386 0920 084B     		ldreq	r3, .L208
 2387              		.loc 2 1187 0
 2388 0922 094B     		ldrne	r3, .L208+4
 2389              		.loc 2 1183 0
 2390 0924 5B68     		ldreq	r3, [r3, #4]
 2391              	.LVL178:
 2392              		.loc 2 1187 0
 2393 0926 9B69     		ldrne	r3, [r3, #24]
 2394              	.LVL179:
 2395              	.L203:
 2396              		.loc 2 1191 0
 2397 0928 03EA0100 		and	r0, r3, r1
 2398              	.LVL180:
 2399              		.loc 2 1201 0
 2400 092c 081A     		subs	r0, r1, r0
 2401 092e B0FA80F0 		clz	r0, r0
 2402 0932 4009     		lsrs	r0, r0, #5
 2403 0934 7047     		bx	lr
 2404              	.LVL181:
 2405              	.L206:
 2406              		.loc 2 1175 0
 2407 0936 054B     		ldr	r3, .L208+8
 2408 0938 5B68     		ldr	r3, [r3, #4]
 2409              	.LVL182:
 2410 093a F5E7     		b	.L203
 2411              	.LVL183:
 2412              	.L207:
 2413              		.loc 2 1179 0
 2414 093c 044B     		ldr	r3, .L208+12
 2415 093e 5B68     		ldr	r3, [r3, #4]
 2416              	.LVL184:
 2417 0940 F2E7     		b	.L203
 2418              	.L209:
 2419 0942 00BF     		.align	2
 2420              	.L208:
 2421 0944 A00000A0 		.word	-1610612576
 2422 0948 400100A0 		.word	-1610612416
 2423 094c 600000A0 		.word	-1610612640
 2424 0950 800000A0 		.word	-1610612608
 2425              		.cfi_endproc
 2426              	.LFE210:
 2427              		.size	FMC_GetFlagStatus, .-FMC_GetFlagStatus
 2428              		.align	2
 2429 0954 AFF30080 		.p2align 4,,15
 2429      AFF30080 
ARM GAS  /var/folders/28/j9jfyj_n4wz3qtvnym210h2c0000gn/T//ccoKeYRm.s 			page 44


 2429      AFF30080 
 2430              		.global	FMC_ClearFlag
 2431              		.thumb
 2432              		.thumb_func
 2433              		.type	FMC_ClearFlag, %function
 2434              	FMC_ClearFlag:
 2435              	.LFB211:
 2436              		.loc 2 1221 0
 2437              		.cfi_startproc
 2438              		@ args = 0, pretend = 0, frame = 0
 2439              		@ frame_needed = 0, uses_anonymous_args = 0
 2440              		@ link register save eliminated.
 2441              	.LVL185:
 2442              		.loc 2 1226 0
 2443 0960 1028     		cmp	r0, #16
 2444 0962 0BD0     		beq	.L215
 2445              		.loc 2 1230 0
 2446 0964 B0F5807F 		cmp	r0, #256
 2447 0968 0ED0     		beq	.L216
 2448              		.loc 2 1234 0
 2449 096a B0F5805F 		cmp	r0, #4096
 2450 096e 11D0     		beq	.L217
 2451              		.loc 2 1241 0
 2452 0970 0B4A     		ldr	r2, .L218
 2453 0972 5369     		ldr	r3, [r2, #20]
 2454 0974 23EA0101 		bic	r1, r3, r1
 2455              	.LVL186:
 2456 0978 5161     		str	r1, [r2, #20]
 2457 097a 7047     		bx	lr
 2458              	.LVL187:
 2459              	.L215:
 2460              		.loc 2 1228 0
 2461 097c 094A     		ldr	r2, .L218+4
 2462 097e 5368     		ldr	r3, [r2, #4]
 2463 0980 23EA0101 		bic	r1, r3, r1
 2464              	.LVL188:
 2465 0984 5160     		str	r1, [r2, #4]
 2466 0986 7047     		bx	lr
 2467              	.LVL189:
 2468              	.L216:
 2469              		.loc 2 1232 0
 2470 0988 074A     		ldr	r2, .L218+8
 2471 098a 5368     		ldr	r3, [r2, #4]
 2472 098c 23EA0101 		bic	r1, r3, r1
 2473              	.LVL190:
 2474 0990 5160     		str	r1, [r2, #4]
 2475 0992 7047     		bx	lr
 2476              	.LVL191:
 2477              	.L217:
 2478              		.loc 2 1236 0
 2479 0994 054A     		ldr	r2, .L218+12
 2480 0996 5368     		ldr	r3, [r2, #4]
 2481 0998 23EA0101 		bic	r1, r3, r1
 2482              	.LVL192:
 2483 099c 5160     		str	r1, [r2, #4]
 2484 099e 7047     		bx	lr
 2485              	.L219:
ARM GAS  /var/folders/28/j9jfyj_n4wz3qtvnym210h2c0000gn/T//ccoKeYRm.s 			page 45


 2486              		.align	2
 2487              	.L218:
 2488 09a0 400100A0 		.word	-1610612416
 2489 09a4 600000A0 		.word	-1610612640
 2490 09a8 800000A0 		.word	-1610612608
 2491 09ac A00000A0 		.word	-1610612576
 2492              		.cfi_endproc
 2493              	.LFE211:
 2494              		.size	FMC_ClearFlag, .-FMC_ClearFlag
 2495              		.align	2
 2496              		.p2align 4,,15
 2497              		.global	FMC_GetITStatus
 2498              		.thumb
 2499              		.thumb_func
 2500              		.type	FMC_GetITStatus, %function
 2501              	FMC_GetITStatus:
 2502              	.LFB212:
 2503              		.loc 2 1264 0
 2504              		.cfi_startproc
 2505              		@ args = 0, pretend = 0, frame = 0
 2506              		@ frame_needed = 0, uses_anonymous_args = 0
 2507              		@ link register save eliminated.
 2508              	.LVL193:
 2509              		.loc 2 1275 0
 2510 09b0 1028     		cmp	r0, #16
 2511              		.loc 2 1264 0
 2512 09b2 10B4     		push	{r4}
 2513              		.cfi_def_cfa_offset 4
 2514              		.cfi_offset 4, -4
 2515              		.loc 2 1275 0
 2516 09b4 1CD0     		beq	.L231
 2517              		.loc 2 1279 0
 2518 09b6 B0F5807F 		cmp	r0, #256
 2519 09ba 12D0     		beq	.L232
 2520              		.loc 2 1283 0
 2521 09bc B0F5805F 		cmp	r0, #4096
 2522 09c0 1DD0     		beq	.L233
 2523              		.loc 2 1290 0
 2524 09c2 104A     		ldr	r2, .L234
 2525 09c4 5369     		ldr	r3, [r2, #20]
 2526              	.LVL194:
 2527              		.loc 2 1291 0
 2528 09c6 9469     		ldr	r4, [r2, #24]
 2529              	.LVL195:
 2530              		.loc 2 1298 0
 2531 09c8 0128     		cmp	r0, #1
 2532              		.loc 2 1295 0
 2533 09ca 01EA0302 		and	r2, r1, r3
 2534              	.LVL196:
 2535              		.loc 2 1298 0
 2536 09ce 0CD8     		bhi	.L222
 2537              		.loc 2 1300 0
 2538 09d0 04F00100 		and	r0, r4, #1
 2539              	.LVL197:
 2540              	.L226:
 2541              		.loc 2 1307 0
 2542 09d4 10B1     		cbz	r0, .L229
ARM GAS  /var/folders/28/j9jfyj_n4wz3qtvnym210h2c0000gn/T//ccoKeYRm.s 			page 46


 2543              		.loc 2 1309 0 discriminator 1
 2544 09d6 101C     		adds	r0, r2, #0
 2545              	.LVL198:
 2546 09d8 18BF     		it	ne
 2547 09da 0120     		movne	r0, #1
 2548              	.L229:
 2549              		.loc 2 1316 0
 2550 09dc 5DF8044B 		ldr	r4, [sp], #4
 2551              		.cfi_remember_state
 2552              		.cfi_restore 4
 2553              		.cfi_def_cfa_offset 0
 2554 09e0 7047     		bx	lr
 2555              	.LVL199:
 2556              	.L232:
 2557              		.cfi_restore_state
 2558              		.loc 2 1281 0
 2559 09e2 094B     		ldr	r3, .L234+4
 2560 09e4 5B68     		ldr	r3, [r3, #4]
 2561              	.LVL200:
 2562              	.L224:
 2563              		.loc 2 1295 0
 2564 09e6 03EA0102 		and	r2, r3, r1
 2565              	.LVL201:
 2566              	.L222:
 2567              		.loc 2 1304 0
 2568 09ea 03EAD100 		and	r0, r3, r1, lsr #3
 2569              	.LVL202:
 2570 09ee F1E7     		b	.L226
 2571              	.LVL203:
 2572              	.L231:
 2573              		.loc 2 1277 0
 2574 09f0 064B     		ldr	r3, .L234+8
 2575 09f2 5B68     		ldr	r3, [r3, #4]
 2576              	.LVL204:
 2577              		.loc 2 1295 0
 2578 09f4 01EA0302 		and	r2, r1, r3
 2579              	.LVL205:
 2580              		.loc 2 1304 0
 2581 09f8 03EAD100 		and	r0, r3, r1, lsr #3
 2582              	.LVL206:
 2583 09fc EAE7     		b	.L226
 2584              	.LVL207:
 2585              	.L233:
 2586              		.loc 2 1285 0
 2587 09fe 044B     		ldr	r3, .L234+12
 2588 0a00 5B68     		ldr	r3, [r3, #4]
 2589              	.LVL208:
 2590 0a02 F0E7     		b	.L224
 2591              	.L235:
 2592              		.align	2
 2593              	.L234:
 2594 0a04 400100A0 		.word	-1610612416
 2595 0a08 800000A0 		.word	-1610612608
 2596 0a0c 600000A0 		.word	-1610612640
 2597 0a10 A00000A0 		.word	-1610612576
 2598              		.cfi_endproc
 2599              	.LFE212:
ARM GAS  /var/folders/28/j9jfyj_n4wz3qtvnym210h2c0000gn/T//ccoKeYRm.s 			page 47


 2600              		.size	FMC_GetITStatus, .-FMC_GetITStatus
 2601              		.align	2
 2602 0a14 AFF30080 		.p2align 4,,15
 2602      AFF30080 
 2602      AFF30080 
 2603              		.global	FMC_ClearITPendingBit
 2604              		.thumb
 2605              		.thumb_func
 2606              		.type	FMC_ClearITPendingBit, %function
 2607              	FMC_ClearITPendingBit:
 2608              	.LFB213:
 2609              		.loc 2 1336 0
 2610              		.cfi_startproc
 2611              		@ args = 0, pretend = 0, frame = 0
 2612              		@ frame_needed = 0, uses_anonymous_args = 0
 2613              		@ link register save eliminated.
 2614              	.LVL209:
 2615              		.loc 2 1341 0
 2616 0a20 1028     		cmp	r0, #16
 2617 0a22 0BD0     		beq	.L241
 2618              		.loc 2 1345 0
 2619 0a24 B0F5807F 		cmp	r0, #256
 2620 0a28 0ED0     		beq	.L242
 2621              		.loc 2 1349 0
 2622 0a2a B0F5805F 		cmp	r0, #4096
 2623 0a2e 11D0     		beq	.L243
 2624              		.loc 2 1356 0
 2625 0a30 0B4A     		ldr	r2, .L244
 2626 0a32 5369     		ldr	r3, [r2, #20]
 2627 0a34 43F00103 		orr	r3, r3, #1
 2628 0a38 5361     		str	r3, [r2, #20]
 2629 0a3a 7047     		bx	lr
 2630              	.L241:
 2631              		.loc 2 1343 0
 2632 0a3c 094A     		ldr	r2, .L244+4
 2633 0a3e 5368     		ldr	r3, [r2, #4]
 2634 0a40 23EAD101 		bic	r1, r3, r1, lsr #3
 2635              	.LVL210:
 2636 0a44 5160     		str	r1, [r2, #4]
 2637 0a46 7047     		bx	lr
 2638              	.LVL211:
 2639              	.L242:
 2640              		.loc 2 1347 0
 2641 0a48 074A     		ldr	r2, .L244+8
 2642 0a4a 5368     		ldr	r3, [r2, #4]
 2643 0a4c 23EAD101 		bic	r1, r3, r1, lsr #3
 2644              	.LVL212:
 2645 0a50 5160     		str	r1, [r2, #4]
 2646 0a52 7047     		bx	lr
 2647              	.LVL213:
 2648              	.L243:
 2649              		.loc 2 1351 0
 2650 0a54 054A     		ldr	r2, .L244+12
 2651 0a56 5368     		ldr	r3, [r2, #4]
 2652 0a58 23EAD101 		bic	r1, r3, r1, lsr #3
 2653              	.LVL214:
 2654 0a5c 5160     		str	r1, [r2, #4]
ARM GAS  /var/folders/28/j9jfyj_n4wz3qtvnym210h2c0000gn/T//ccoKeYRm.s 			page 48


 2655 0a5e 7047     		bx	lr
 2656              	.L245:
 2657              		.align	2
 2658              	.L244:
 2659 0a60 400100A0 		.word	-1610612416
 2660 0a64 600000A0 		.word	-1610612640
 2661 0a68 800000A0 		.word	-1610612608
 2662 0a6c A00000A0 		.word	-1610612576
 2663              		.cfi_endproc
 2664              	.LFE213:
 2665              		.size	FMC_ClearITPendingBit, .-FMC_ClearITPendingBit
 2666              		.section	.text.startup,"ax",%progbits
 2667              		.align	2
 2668              		.p2align 4,,15
 2669              		.global	main
 2670              		.thumb
 2671              		.thumb_func
 2672              		.type	main, %function
 2673              	main:
 2674              	.LFB214:
 2675              		.file 3 "main.c"
 2676              		.loc 3 83 0
 2677              		.cfi_startproc
 2678              		@ Volatile: function does not return.
 2679              		@ args = 0, pretend = 0, frame = 0
 2680              		@ frame_needed = 0, uses_anonymous_args = 0
 2681 0000 08B5     		push	{r3, lr}
 2682              		.cfi_def_cfa_offset 8
 2683              		.cfi_offset 3, -8
 2684              		.cfi_offset 14, -4
 2685              		.loc 3 87 0
 2686 0002 0021     		movs	r1, #0
 2687 0004 4FF40072 		mov	r2, #512
 2688 0008 4FF00050 		mov	r0, #536870912
 2689 000c FFF7FEFF 		bl	memcpy
 2690              	.LVL215:
 2691              		.loc 3 90 0
 2692 0010 2F4A     		ldr	r2, .L259
 2693              		.loc 3 117 0
 2694 0012 304D     		ldr	r5, .L259+4
 2695              		.loc 3 90 0
 2696 0014 1368     		ldr	r3, [r2]
 2697              		.loc 3 122 0
 2698 0016 304C     		ldr	r4, .L259+8
 2699              		.loc 3 90 0
 2700 0018 43F00303 		orr	r3, r3, #3
 2701 001c 1360     		str	r3, [r2]
 2702              		.loc 3 92 0
 2703 001e FFF7FEFF 		bl	halInit
 2704              	.LVL216:
 2705              		.loc 3 93 0
 2706 0022 FFF7FEFF 		bl	chSysInit
 2707              	.LVL217:
 2708              		.loc 3 95 0
 2709 0026 FFF7FEFF 		bl	sdcard_init
 2710              	.LVL218:
 2711              		.loc 3 96 0
ARM GAS  /var/folders/28/j9jfyj_n4wz3qtvnym210h2c0000gn/T//ccoKeYRm.s 			page 49


 2712 002a FFF7FEFF 		bl	sysmon_init
 2713              	.LVL219:
 2714              		.loc 3 110 0
 2715 002e FFF7FEFF 		bl	exception_init
 2716              	.LVL220:
 2717              		.loc 3 112 0
 2718 0032 FFF7FEFF 		bl	InitPatch0
 2719              	.LVL221:
 2720              		.loc 3 114 0
 2721 0036 FFF7FEFF 		bl	InitPConnection
 2722              	.LVL222:
 2723              		.loc 3 117 0
 2724 003a 0221     		movs	r1, #2
 2725 003c 0122     		movs	r2, #1
 2726 003e 2846     		mov	r0, r5
 2727 0040 FFF7FEFF 		bl	_pal_lld_setgroupmode
 2728              	.LVL223:
 2729              		.loc 3 118 0
 2730 0044 0223     		movs	r3, #2
 2731 0046 2B83     		strh	r3, [r5, #24]	@ movhi
 2732              		.loc 3 120 0
 2733 0048 0A20     		movs	r0, #10
 2734 004a FFF7FEFF 		bl	chThdSleep
 2735              	.LVL224:
 2736              		.loc 3 122 0
 2737 004e 4FF48061 		mov	r1, #1024
 2738 0052 2046     		mov	r0, r4
 2739 0054 4022     		movs	r2, #64
 2740 0056 FFF7FEFF 		bl	_pal_lld_setgroupmode
 2741              	.LVL225:
 2742              		.loc 3 124 0
 2743 005a FFF7FEFF 		bl	axoloti_board_init
 2744              	.LVL226:
 2745              		.loc 3 125 0
 2746 005e FFF7FEFF 		bl	adc_init
 2747              	.LVL227:
 2748              		.loc 3 126 0
 2749 0062 FFF7FEFF 		bl	axoloti_math_init
 2750              	.LVL228:
 2751              		.loc 3 127 0
 2752 0066 FFF7FEFF 		bl	midi_init
 2753              	.LVL229:
 2754              		.loc 3 128 0
 2755 006a FFF7FEFF 		bl	start_dsp_thread
 2756              	.LVL230:
 2757              		.loc 3 129 0
 2758 006e FFF7FEFF 		bl	codec_init
 2759              	.LVL231:
 2760              		.loc 3 130 0
 2761 0072 2369     		ldr	r3, [r4, #16]
 2762 0074 5905     		lsls	r1, r3, #21
 2763 0076 11D5     		bpl	.L257
 2764              	.L247:
 2765              		.loc 3 136 0
 2766 0078 FFF7FEFF 		bl	axoloti_control_init
 2767              	.LVL232:
 2768              		.loc 3 138 0
ARM GAS  /var/folders/28/j9jfyj_n4wz3qtvnym210h2c0000gn/T//ccoKeYRm.s 			page 50


 2769 007c FFF7FEFF 		bl	ui_init
 2770              	.LVL233:
 2771              	.LBB74:
 2772              	.LBB75:
 2773              		.loc 1 144 0
 2774 0080 FFF7FEFF 		bl	SDRAM_Init
 2775              	.LVL234:
 2776              	.LBE75:
 2777              	.LBE74:
 2778              		.loc 3 142 0
 2779 0084 FFF7FEFF 		bl	memTest
 2780              	.LVL235:
 2781              		.loc 3 146 0
 2782 0088 FFF7FEFF 		bl	MY_USBH_Init
 2783              	.LVL236:
 2784              		.loc 3 149 0
 2785 008c FFF7FEFF 		bl	exception_check
 2786              	.LVL237:
 2787 0090 40B1     		cbz	r0, .L258
 2788              	.L252:
 2789              		.loc 3 169 0 discriminator 1
 2790 0092 4FF47A70 		mov	r0, #1000
 2791 0096 FFF7FEFF 		bl	chThdSleep
 2792              	.LVL238:
 2793              		.loc 3 170 0 discriminator 1
 2794 009a FAE7     		b	.L252
 2795              	.L257:
 2796              		.loc 3 132 0
 2797 009c 0120     		movs	r0, #1
 2798 009e FFF7FEFF 		bl	chThdSleep
 2799              	.LVL239:
 2800 00a2 E9E7     		b	.L247
 2801              	.L258:
 2802              		.loc 3 153 0
 2803 00a4 FFF7FEFF 		bl	sdcard_attemptMountIfUnmounted
 2804              	.LVL240:
 2805              		.loc 3 154 0
 2806 00a8 0C4B     		ldr	r3, .L259+12
 2807 00aa 1B78     		ldrb	r3, [r3]	@ zero_extendqisi2
 2808 00ac 2BB1     		cbz	r3, .L250
 2809              		.loc 3 154 0 is_stmt 0 discriminator 1
 2810 00ae 0A4B     		ldr	r3, .L259+8
 2811 00b0 1B69     		ldr	r3, [r3, #16]
 2812 00b2 5A05     		lsls	r2, r3, #21
 2813 00b4 01D4     		bmi	.L250
 2814              		.loc 3 156 0 is_stmt 1
 2815 00b6 FFF7FEFF 		bl	LoadPatchStartSD
 2816              	.LVL241:
 2817              	.L250:
 2818              		.loc 3 162 0
 2819 00ba 094B     		ldr	r3, .L259+16
 2820 00bc 1B78     		ldrb	r3, [r3]	@ zero_extendqisi2
 2821 00be 012B     		cmp	r3, #1
 2822 00c0 E7D1     		bne	.L252
 2823              		.loc 3 163 0
 2824 00c2 054B     		ldr	r3, .L259+8
 2825 00c4 1B69     		ldr	r3, [r3, #16]
ARM GAS  /var/folders/28/j9jfyj_n4wz3qtvnym210h2c0000gn/T//ccoKeYRm.s 			page 51


 2826 00c6 5B05     		lsls	r3, r3, #21
 2827 00c8 E3D4     		bmi	.L252
 2828              		.loc 3 164 0
 2829 00ca FFF7FEFF 		bl	LoadPatchStartFlash
 2830              	.LVL242:
 2831 00ce E0E7     		b	.L252
 2832              	.L260:
 2833              		.align	2
 2834              	.L259:
 2835 00d0 00380140 		.word	1073821696
 2836 00d4 00080240 		.word	1073874944
 2837 00d8 00000240 		.word	1073872896
 2838 00dc 00000000 		.word	fs_ready
 2839 00e0 00000000 		.word	patchStatus
 2840              		.cfi_endproc
 2841              	.LFE214:
 2842              		.size	main, .-main
 2843              		.text
 2844              		.align	2
 2845              		.p2align 4,,15
 2846              		.global	HAL_Delay
 2847              		.thumb
 2848              		.thumb_func
 2849              		.type	HAL_Delay, %function
 2850              	HAL_Delay:
 2851              	.LFB215:
 2852              		.loc 3 173 0
 2853              		.cfi_startproc
 2854              		@ args = 0, pretend = 0, frame = 0
 2855              		@ frame_needed = 0, uses_anonymous_args = 0
 2856              		@ link register save eliminated.
 2857              	.LVL243:
 2858              		.loc 3 174 0
 2859 0a70 4FF47A73 		mov	r3, #1000
 2860 0a74 03FB00F0 		mul	r0, r3, r0
 2861              	.LVL244:
 2862 0a78 034B     		ldr	r3, .L262
 2863 0a7a 0138     		subs	r0, r0, #1
 2864 0a7c A3FB0030 		umull	r3, r0, r3, r0
 2865 0a80 8009     		lsrs	r0, r0, #6
 2866 0a82 0130     		adds	r0, r0, #1
 2867 0a84 FFF7FEBF 		b	chThdSleep
 2868              	.LVL245:
 2869              	.L263:
 2870              		.align	2
 2871              	.L262:
 2872 0a88 D34D6210 		.word	274877907
 2873              		.cfi_endproc
 2874              	.LFE215:
 2875              		.size	HAL_Delay, .-HAL_Delay
 2876              		.align	2
 2877 0a8c AFF30080 		.p2align 4,,15
 2878              		.global	_sbrk
 2879              		.thumb
 2880              		.thumb_func
 2881              		.type	_sbrk, %function
 2882              	_sbrk:
ARM GAS  /var/folders/28/j9jfyj_n4wz3qtvnym210h2c0000gn/T//ccoKeYRm.s 			page 52


 2883              	.LFB216:
 2884              		.loc 3 177 0
 2885              		.cfi_startproc
 2886              		@ Volatile: function does not return.
 2887              		@ args = 0, pretend = 0, frame = 0
 2888              		@ frame_needed = 0, uses_anonymous_args = 0
 2889              		@ link register save eliminated.
 2890              	.L265:
 2891              		.loc 3 179 0 discriminator 1
 2892 0a90 FEE7     		b	.L265
 2893              		.cfi_endproc
 2894              	.LFE216:
 2895              		.size	_sbrk, .-_sbrk
 2896              	.Letext0:
 2897              		.file 4 "/Applications/axoloti_runtime/platform_osx/arm-none-eabi/include/machine/_default_types.h
 2898              		.file 5 "/Applications/axoloti_runtime/platform_osx/arm-none-eabi/include/sys/_stdint.h"
 2899              		.file 6 "/Applications/Axoloti.app/Contents/Java/chibios/os/hal/platforms/STM32F4xx/stm32f4xx.h"
 2900              		.file 7 "stm32f4xx_fmc.h"
 2901              		.file 8 "/Applications/Axoloti.app/Contents/Java/chibios/os/ports/GCC/ARMCMx/chtypes.h"
 2902              		.file 9 "/Applications/Axoloti.app/Contents/Java/chibios/os/hal/platforms/STM32/GPIOv2/pal_lld.h"
 2903              		.file 10 "patch.h"
 2904              		.file 11 "sysmon.h"
 2905              		.file 12 "/Applications/Axoloti.app/Contents/Java/CMSIS//Include/core_cm4.h"
 2906              		.file 13 "sdcard.h"
 2907              		.file 14 "axoloti_math.h"
 2908              		.file 15 "/Applications/Axoloti.app/Contents/Java/chibios/os/kernel/include/chthreads.h"
 2909              		.file 16 "/Applications/Axoloti.app/Contents/Java/chibios/os/hal/include/hal.h"
 2910              		.file 17 "/Applications/Axoloti.app/Contents/Java/chibios/os/kernel/include/chsys.h"
 2911              		.file 18 "exceptions.h"
 2912              		.file 19 "pconnection.h"
 2913              		.file 20 "axoloti_board.h"
 2914              		.file 21 "midi.h"
 2915              		.file 22 "codec.h"
 2916              		.file 23 "axoloti_control.h"
 2917              		.file 24 "ui.h"