ARM GAS  /var/folders/28/j9jfyj_n4wz3qtvnym210h2c0000gn/T//cckC861L.s 			page 1


   1              		.syntax unified
   2              		.cpu cortex-m4
   3              		.eabi_attribute 27, 1
   4              		.eabi_attribute 28, 1
   5              		.fpu fpv4-sp-d16
   6              		.eabi_attribute 20, 1
   7              		.eabi_attribute 21, 1
   8              		.eabi_attribute 23, 3
   9              		.eabi_attribute 24, 1
  10              		.eabi_attribute 25, 1
  11              		.eabi_attribute 26, 1
  12              		.eabi_attribute 30, 2
  13              		.eabi_attribute 34, 1
  14              		.eabi_attribute 18, 4
  15              		.thumb
  16              		.file	"modulator.cpp"
  17              		.text
  18              	.Ltext0:
  19              		.cfi_sections	.debug_frame
  20              		.section	.text._ZN5warps9Modulator11ProcessXmodILNS_13XmodAlgorithmE3ELS2_4EEEvffffPKfS4_Pfj,"axG"
  21              		.align	2
  22              		.p2align 4,,15
  23              		.weak	_ZN5warps9Modulator11ProcessXmodILNS_13XmodAlgorithmE3ELS2_4EEEvffffPKfS4_Pfj
  24              		.thumb
  25              		.thumb_func
  26              		.type	_ZN5warps9Modulator11ProcessXmodILNS_13XmodAlgorithmE3ELS2_4EEEvffffPKfS4_Pfj, %function
  27              	_ZN5warps9Modulator11ProcessXmodILNS_13XmodAlgorithmE3ELS2_4EEEvffffPKfS4_Pfj:
  28              		.fnstart
  29              	.LFB810:
  30              		.file 1 "./mutable_instruments/warps/dsp/modulator.h"
  31              		.loc 1 157 0
  32              		.cfi_startproc
  33              		@ args = 4, pretend = 0, frame = 0
  34              		@ frame_needed = 0, uses_anonymous_args = 0
  35              		@ link register save eliminated.
  36              	.LVL0:
  37 0000 30B4     		push	{r4, r5}
  38              		.cfi_def_cfa_offset 8
  39              		.cfi_offset 4, -8
  40              		.cfi_offset 5, -4
  41 0002 2DED048B 		fstmfdd	sp!, {d8, d9}
  42              		.cfi_def_cfa_offset 24
  43              		.cfi_offset 80, -24
  44              		.cfi_offset 81, -20
  45              		.cfi_offset 82, -16
  46              		.cfi_offset 83, -12
  47              		.loc 1 157 0
  48 0006 069D     		ldr	r5, [sp, #24]
  49              	.LBB3375:
  50              		.loc 1 166 0
  51 0008 07EE905A 		fmsr	s15, r5	@ int
  52 000c F8EE677A 		fuitos	s15, s15
  53 0010 F7EE005A 		fconsts	s11, #112
  54 0014 C5EEA77A 		fdivs	s15, s11, s15
  55              	.LVL1:
  56              		.loc 1 168 0
  57 0018 70EEC00A 		fsubs	s1, s1, s0
ARM GAS  /var/folders/28/j9jfyj_n4wz3qtvnym210h2c0000gn/T//cckC861L.s 			page 2


  58              	.LVL2:
  59              		.loc 1 167 0
  60 001c 71EEC11A 		fsubs	s3, s3, s2
  61              	.LVL3:
  62              		.loc 1 168 0
  63 0020 60EEA70A 		fmuls	s1, s1, s15
  64              		.loc 1 167 0
  65 0024 61EEA71A 		fmuls	s3, s3, s15
  66              	.LVL4:
  67              		.loc 1 169 0
  68 0028 002D     		cmp	r5, #0
  69 002a 00F0D380 		beq	.L1
  70              	.LBB3376:
  71              	.LBB3377:
  72              	.LBB3378:
  73              		.file 2 "./mutable_instruments/warps/dsp/modulator.cpp"
  74              		.loc 2 402 0
  75 002e 9FED6B5A 		flds	s10, .L8
  76              		.loc 2 405 0
  77 0032 9FED6B3A 		flds	s6, .L8+4
  78              		.loc 2 406 0
  79 0036 DFED6B3A 		flds	s7, .L8+8
  80 003a 0C31     		adds	r1, r1, #12
  81              	.LVL5:
  82 003c 0C32     		adds	r2, r2, #12
  83              	.LVL6:
  84 003e 0C33     		adds	r3, r3, #12
  85              	.LVL7:
  86              	.LBE3378:
  87              	.LBE3377:
  88              	.LBB3388:
  89              	.LBB3389:
  90              		.loc 2 394 0
  91 0040 B1EE004A 		fconsts	s8, #16
  92 0044 F2EE004A 		fconsts	s9, #32
  93              	.LVL8:
  94              	.L3:
  95              	.LBE3389:
  96              	.LBE3388:
  97              		.loc 1 171 0
  98 0048 51ED037A 		flds	s15, [r1, #-12]
  99              	.LVL9:
 100              		.loc 1 172 0
 101 004c 12ED032A 		flds	s4, [r2, #-12]
 102              	.LVL10:
 103              	.LBB3397:
 104              	.LBB3392:
 105              		.loc 2 394 0
 106 0050 F0EE656A 		fcpys	s13, s11
 107 0054 27EE847A 		fmuls	s14, s15, s8
 108 0058 E1EE246A 		vfma.f32	s13, s2, s9
 109              	.LBE3392:
 110              	.LBE3397:
 111              	.LBE3376:
 112              		.loc 1 169 0
 113 005c 033D     		subs	r5, r5, #3
 114              	.LVL11:
ARM GAS  /var/folders/28/j9jfyj_n4wz3qtvnym210h2c0000gn/T//cckC861L.s 			page 3


 115 005e 01F10C01 		add	r1, r1, #12
 116              	.LVL12:
 117              	.LBB3407:
 118              	.LBB3398:
 119              	.LBB3393:
 120              		.loc 2 394 0
 121 0062 22EE077A 		fmuls	s14, s4, s14
 122              	.LBE3393:
 123              	.LBE3398:
 124              	.LBB3399:
 125              	.LBB3383:
 126              		.loc 2 403 0
 127 0066 62EE052A 		fmuls	s5, s4, s10
 128              	.LBE3383:
 129              	.LBE3399:
 130              	.LBB3400:
 131              	.LBB3394:
 132              		.loc 2 394 0
 133 006a 67EE266A 		fmuls	s13, s14, s13
 134              	.LVL13:
 135              	.LBE3394:
 136              	.LBE3400:
 137              	.LBB3401:
 138              	.LBB3384:
 139              		.loc 2 402 0
 140 006e 27EE856A 		fmuls	s12, s15, s10
 141              	.LBE3384:
 142              	.LBE3401:
 143              	.LBB3402:
 144              	.LBB3395:
 145              	.LBB3390:
 146              	.LBB3391:
 147              		.file 3 "/Applications/axoloti_runtime/platform_osx/arm-none-eabi/include/c++/4.9.3/cmath"
 148              		.loc 3 261 0
 149 0072 B0EEE67A 		fabss	s14, s13
 150              	.LBE3391:
 151              	.LBE3390:
 152              		.loc 2 395 0
 153 0076 37EE257A 		fadds	s14, s14, s11
 154              	.LBE3395:
 155              	.LBE3402:
 156              	.LBB3403:
 157              	.LBB3385:
 158              		.loc 2 402 0
 159 007a BDEEC66A 		ftosizs	s12, s12
 160              	.LBE3385:
 161              	.LBE3403:
 162              	.LBB3404:
 163              	.LBB3396:
 164              		.loc 2 395 0
 165 007e 86EE877A 		fdivs	s14, s13, s14
 166              	.LVL14:
 167 0082 02F10C02 		add	r2, r2, #12
 168 0086 03F10C03 		add	r3, r3, #12
 169              	.LBE3396:
 170              	.LBE3404:
 171              	.LBB3405:
ARM GAS  /var/folders/28/j9jfyj_n4wz3qtvnym210h2c0000gn/T//cckC861L.s 			page 4


 172              	.LBB3386:
 173              		.loc 2 403 0
 174 008a FDEEE26A 		ftosizs	s13, s5
 175              	.LVL15:
 176              		.loc 2 402 0
 177 008e 16EE100A 		fmrs	r0, s12	@ int
 178              	.LBB3379:
 179              	.LBB3380:
 180              		.file 4 "./mutable_instruments/stmlib/dsp/dsp.h"
 181              		.loc 4 133 0
 182              	@ 133 "./mutable_instruments/stmlib/dsp/dsp.h" 1
 183 0092 00F30F04 		ssat r4, #16, r0
 184              	@ 0 "" 2
 185              	.LVL16:
 186              		.thumb
 187              	.LBE3380:
 188              	.LBE3379:
 189              		.loc 2 403 0
 190 0096 16EE900A 		fmrs	r0, s13	@ int
 191              	.LBB3381:
 192              	.LBB3382:
 193              		.loc 4 133 0
 194              	@ 133 "./mutable_instruments/stmlib/dsp/dsp.h" 1
 195 009a 00F30F00 		ssat r0, #16, r0
 196              	@ 0 "" 2
 197              	.LVL17:
 198              		.thumb
 199              	.LBE3382:
 200              	.LBE3381:
 201              		.loc 2 404 0
 202 009e 80EA0400 		eor	r0, r0, r4
 203              	.LVL18:
 204              		.loc 2 405 0
 205 00a2 77EE827A 		fadds	s15, s15, s4
 206              	.LVL19:
 207              		.loc 2 404 0
 208 00a6 00B2     		sxth	r0, r0
 209 00a8 06EE900A 		fmsr	s13, r0	@ int
 210              		.loc 2 405 0
 211 00ac 67EE837A 		fmuls	s15, s15, s6
 212              	.LVL20:
 213              		.loc 2 404 0
 214 00b0 F8EEE66A 		fsitos	s13, s13
 215              		.loc 2 406 0
 216 00b4 B0EE676A 		fcpys	s12, s15
 217 00b8 96EEA36A 		vfnms.f32	s12, s13, s7
 218              	.LBE3386:
 219              	.LBE3405:
 220              		.loc 1 176 0
 221 00bc 71EE218A 		fadds	s17, s2, s3
 222              	.LVL21:
 223              	.LBB3406:
 224              	.LBB3387:
 225              		.loc 2 406 0
 226 00c0 E1EE067A 		vfma.f32	s15, s2, s12
 227              	.LVL22:
 228              	.LBE3387:
ARM GAS  /var/folders/28/j9jfyj_n4wz3qtvnym210h2c0000gn/T//cckC861L.s 			page 5


 229              	.LBE3406:
 230              	.LBE3407:
 231              	.LBB3408:
 232              	.LBB3409:
 233              	.LBB3410:
 234              		.loc 2 394 0
 235 00c4 F0EE652A 		fcpys	s5, s11
 236              	.LBE3410:
 237              	.LBE3409:
 238              	.LBE3408:
 239              	.LBB3441:
 240              		.loc 1 175 0
 241 00c8 77EEC77A 		fsubs	s15, s15, s14
 242              		.loc 1 177 0
 243 00cc 30EE209A 		fadds	s18, s0, s1
 244              	.LVL23:
 245              		.loc 1 175 0
 246 00d0 A7EE807A 		vfma.f32	s14, s15, s0
 247              	.LBE3441:
 248              	.LBB3442:
 249              	.LBB3419:
 250              	.LBB3413:
 251              		.loc 2 394 0
 252 00d4 E8EEA42A 		vfma.f32	s5, s17, s9
 253              	.LBE3413:
 254              	.LBE3419:
 255              	.LBE3442:
 256              	.LBB3443:
 257              		.loc 1 175 0
 258 00d8 03ED067A 		fsts	s14, [r3, #-24]
 259              	.LVL24:
 260              	.LBE3443:
 261              	.LBB3444:
 262              		.loc 1 181 0
 263 00dc 51ED057A 		flds	s15, [r1, #-20]
 264              	.LVL25:
 265              		.loc 1 182 0
 266 00e0 12ED050A 		flds	s0, [r2, #-20]
 267              	.LVL26:
 268              	.LBB3420:
 269              	.LBB3414:
 270              		.loc 2 394 0
 271 00e4 27EE846A 		fmuls	s12, s15, s8
 272              	.LBE3414:
 273              	.LBE3420:
 274              	.LBB3421:
 275              	.LBB3422:
 276              		.loc 2 402 0
 277 00e8 27EE851A 		fmuls	s2, s15, s10
 278              	.LVL27:
 279              	.LBE3422:
 280              	.LBE3421:
 281              	.LBB3432:
 282              	.LBB3415:
 283              		.loc 2 394 0
 284 00ec 20EE066A 		fmuls	s12, s0, s12
 285              	.LBE3415:
ARM GAS  /var/folders/28/j9jfyj_n4wz3qtvnym210h2c0000gn/T//cckC861L.s 			page 6


 286              	.LBE3432:
 287              	.LBB3433:
 288              	.LBB3427:
 289              		.loc 2 403 0
 290 00f0 20EE057A 		fmuls	s14, s0, s10
 291              	.LBE3427:
 292              	.LBE3433:
 293              	.LBB3434:
 294              	.LBB3416:
 295              		.loc 2 394 0
 296 00f4 66EE222A 		fmuls	s5, s12, s5
 297              	.LVL28:
 298              	.LBE3416:
 299              	.LBE3434:
 300              	.LBB3435:
 301              	.LBB3428:
 302              		.loc 2 402 0
 303 00f8 BDEEC16A 		ftosizs	s12, s2
 304              		.loc 2 403 0
 305 00fc BDEEC77A 		ftosizs	s14, s14
 306              		.loc 2 402 0
 307 0100 16EE100A 		fmrs	r0, s12	@ int
 308              	.LBB3423:
 309              	.LBB3424:
 310              		.loc 4 133 0
 311              	@ 133 "./mutable_instruments/stmlib/dsp/dsp.h" 1
 312 0104 00F30F04 		ssat r4, #16, r0
 313              	@ 0 "" 2
 314              	.LVL29:
 315              		.thumb
 316              	.LBE3424:
 317              	.LBE3423:
 318              	.LBE3428:
 319              	.LBE3435:
 320              	.LBB3436:
 321              	.LBB3417:
 322              	.LBB3411:
 323              	.LBB3412:
 324              		.loc 3 261 0
 325 0108 B0EEE26A 		fabss	s12, s5
 326              	.LBE3412:
 327              	.LBE3411:
 328              		.loc 2 395 0
 329 010c 36EE256A 		fadds	s12, s12, s11
 330              	.LBE3417:
 331              	.LBE3436:
 332              	.LBB3437:
 333              	.LBB3429:
 334              		.loc 2 403 0
 335 0110 17EE100A 		fmrs	r0, s14	@ int
 336              	.LBB3425:
 337              	.LBB3426:
 338              		.loc 4 133 0
 339              	@ 133 "./mutable_instruments/stmlib/dsp/dsp.h" 1
 340 0114 00F30F00 		ssat r0, #16, r0
 341              	@ 0 "" 2
 342              		.thumb
ARM GAS  /var/folders/28/j9jfyj_n4wz3qtvnym210h2c0000gn/T//cckC861L.s 			page 7


 343              	.LBE3426:
 344              	.LBE3425:
 345              	.LBE3429:
 346              	.LBE3437:
 347              	.LBB3438:
 348              	.LBB3418:
 349              		.loc 2 395 0
 350 0118 82EE866A 		fdivs	s12, s5, s12
 351              	.LVL30:
 352              	.LBE3418:
 353              	.LBE3438:
 354              	.LBB3439:
 355              	.LBB3430:
 356              		.loc 2 404 0
 357 011c 80EA0400 		eor	r0, r0, r4
 358              	.LVL31:
 359 0120 00B2     		sxth	r0, r0
 360              		.loc 2 405 0
 361 0122 77EE807A 		fadds	s15, s15, s0
 362              	.LVL32:
 363              		.loc 2 404 0
 364 0126 07EE100A 		fmsr	s14, r0	@ int
 365              		.loc 2 405 0
 366 012a 67EE837A 		fmuls	s15, s15, s6
 367              	.LVL33:
 368              		.loc 2 404 0
 369 012e F8EEC72A 		fsitos	s5, s14
 370              	.LVL34:
 371              		.loc 2 406 0
 372 0132 B0EE677A 		fcpys	s14, s15
 373 0136 92EEA37A 		vfnms.f32	s14, s5, s7
 374              	.LBE3430:
 375              	.LBE3439:
 376              		.loc 1 186 0
 377 013a 38EEA12A 		fadds	s4, s17, s3
 378              	.LVL35:
 379              	.LBB3440:
 380              	.LBB3431:
 381              		.loc 2 406 0
 382 013e E8EE877A 		vfma.f32	s15, s17, s14
 383              	.LVL36:
 384              	.LBE3431:
 385              	.LBE3440:
 386              	.LBE3444:
 387              	.LBB3445:
 388              	.LBB3446:
 389              	.LBB3447:
 390              		.loc 2 394 0
 391 0142 F0EE656A 		fcpys	s13, s11
 392              	.LBE3447:
 393              	.LBE3446:
 394              	.LBE3445:
 395              	.LBB3480:
 396              		.loc 1 185 0
 397 0146 77EEC67A 		fsubs	s15, s15, s12
 398              	.LBE3480:
 399              	.LBB3481:
ARM GAS  /var/folders/28/j9jfyj_n4wz3qtvnym210h2c0000gn/T//cckC861L.s 			page 8


 400              	.LBB3456:
 401              	.LBB3450:
 402              		.loc 2 394 0
 403 014a E2EE246A 		vfma.f32	s13, s4, s9
 404              	.LBE3450:
 405              	.LBE3456:
 406              	.LBE3481:
 407              	.LBB3482:
 408              		.loc 1 185 0
 409 014e A7EE896A 		vfma.f32	s12, s15, s18
 410              		.loc 1 187 0
 411 0152 39EE208A 		fadds	s16, s18, s1
 412              	.LVL37:
 413              		.loc 1 185 0
 414 0156 03ED056A 		fsts	s12, [r3, #-20]
 415              	.LVL38:
 416              	.LBE3482:
 417              	.LBB3483:
 418              		.loc 1 191 0
 419 015a 51ED047A 		flds	s15, [r1, #-16]
 420              	.LVL39:
 421              		.loc 1 192 0
 422 015e 52ED048A 		flds	s17, [r2, #-16]
 423              	.LVL40:
 424              	.LBB3457:
 425              	.LBB3451:
 426              		.loc 2 394 0
 427 0162 27EE847A 		fmuls	s14, s15, s8
 428              	.LBE3451:
 429              	.LBE3457:
 430              	.LBB3458:
 431              	.LBB3459:
 432              		.loc 2 402 0
 433 0166 27EE856A 		fmuls	s12, s15, s10
 434              	.LBE3459:
 435              	.LBE3458:
 436              	.LBB3470:
 437              	.LBB3452:
 438              		.loc 2 394 0
 439 016a 28EE877A 		fmuls	s14, s17, s14
 440              	.LBE3452:
 441              	.LBE3470:
 442              	.LBB3471:
 443              	.LBB3464:
 444              		.loc 2 403 0
 445 016e 68EE852A 		fmuls	s5, s17, s10
 446              	.LBE3464:
 447              	.LBE3471:
 448              	.LBB3472:
 449              	.LBB3453:
 450              		.loc 2 394 0
 451 0172 67EE266A 		fmuls	s13, s14, s13
 452              	.LVL41:
 453              	.LBE3453:
 454              	.LBE3472:
 455              	.LBB3473:
 456              	.LBB3465:
ARM GAS  /var/folders/28/j9jfyj_n4wz3qtvnym210h2c0000gn/T//cckC861L.s 			page 9


 457              		.loc 2 402 0
 458 0176 BDEEC67A 		ftosizs	s14, s12
 459              		.loc 2 405 0
 460 017a 77EEA87A 		fadds	s15, s15, s17
 461              	.LVL42:
 462              		.loc 2 402 0
 463 017e 17EE100A 		fmrs	r0, s14	@ int
 464              	.LBB3460:
 465              	.LBB3461:
 466              		.loc 4 133 0
 467              	@ 133 "./mutable_instruments/stmlib/dsp/dsp.h" 1
 468 0182 00F30F04 		ssat r4, #16, r0
 469              	@ 0 "" 2
 470              	.LVL43:
 471              		.thumb
 472              	.LBE3461:
 473              	.LBE3460:
 474              	.LBE3465:
 475              	.LBE3473:
 476              	.LBB3474:
 477              	.LBB3454:
 478              	.LBB3448:
 479              	.LBB3449:
 480              		.loc 3 261 0
 481 0186 B0EEE67A 		fabss	s14, s13
 482              	.LBE3449:
 483              	.LBE3448:
 484              		.loc 2 395 0
 485 018a 37EE257A 		fadds	s14, s14, s11
 486              	.LBE3454:
 487              	.LBE3474:
 488              	.LBB3475:
 489              	.LBB3466:
 490              		.loc 2 405 0
 491 018e 67EE837A 		fmuls	s15, s15, s6
 492              	.LBE3466:
 493              	.LBE3475:
 494              	.LBB3476:
 495              	.LBB3455:
 496              		.loc 2 395 0
 497 0192 86EE877A 		fdivs	s14, s13, s14
 498              	.LVL44:
 499              	.LBE3455:
 500              	.LBE3476:
 501              	.LBB3477:
 502              	.LBB3467:
 503              		.loc 2 403 0
 504 0196 FDEEE26A 		ftosizs	s13, s5
 505              	.LVL45:
 506              		.loc 2 406 0
 507 019a B0EE676A 		fcpys	s12, s15
 508              		.loc 2 403 0
 509 019e 16EE900A 		fmrs	r0, s13	@ int
 510              	.LBB3462:
 511              	.LBB3463:
 512              		.loc 4 133 0
 513              	@ 133 "./mutable_instruments/stmlib/dsp/dsp.h" 1
ARM GAS  /var/folders/28/j9jfyj_n4wz3qtvnym210h2c0000gn/T//cckC861L.s 			page 10


 514 01a2 00F30F00 		ssat r0, #16, r0
 515              	@ 0 "" 2
 516              	.LVL46:
 517              		.thumb
 518              	.LBE3463:
 519              	.LBE3462:
 520              		.loc 2 404 0
 521 01a6 80EA0400 		eor	r0, r0, r4
 522              	.LVL47:
 523 01aa 00B2     		sxth	r0, r0
 524 01ac 06EE900A 		fmsr	s13, r0	@ int
 525 01b0 F8EEE66A 		fsitos	s13, s13
 526              	.LBE3467:
 527              	.LBE3477:
 528              		.loc 1 196 0
 529 01b4 32EE211A 		fadds	s2, s4, s3
 530              	.LVL48:
 531              	.LBB3478:
 532              	.LBB3468:
 533              		.loc 2 406 0
 534 01b8 96EEA36A 		vfnms.f32	s12, s13, s7
 535              	.LVL49:
 536              	.LBE3468:
 537              	.LBE3478:
 538              		.loc 1 197 0
 539 01bc 38EE200A 		fadds	s0, s16, s1
 540              	.LVL50:
 541              	.LBB3479:
 542              	.LBB3469:
 543              		.loc 2 406 0
 544 01c0 E2EE067A 		vfma.f32	s15, s4, s12
 545              	.LVL51:
 546              	.LBE3469:
 547              	.LBE3479:
 548              		.loc 1 195 0
 549 01c4 77EEC77A 		fsubs	s15, s15, s14
 550 01c8 A7EE887A 		vfma.f32	s14, s15, s16
 551 01cc 03ED047A 		fsts	s14, [r3, #-16]
 552              	.LVL52:
 553              	.LBE3483:
 554              		.loc 1 169 0
 555 01d0 7FF43AAF 		bne	.L3
 556              	.LVL53:
 557              	.L1:
 558              	.LBE3375:
 559              		.loc 1 201 0
 560 01d4 BDEC048B 		fldmfdd	sp!, {d8-d9}
 561              		.cfi_restore 82
 562              		.cfi_restore 83
 563              		.cfi_restore 80
 564              		.cfi_restore 81
 565              		.cfi_def_cfa_offset 8
 566 01d8 30BC     		pop	{r4, r5}
 567              		.cfi_restore 5
 568              		.cfi_restore 4
 569              		.cfi_def_cfa_offset 0
 570              	.LVL54:
ARM GAS  /var/folders/28/j9jfyj_n4wz3qtvnym210h2c0000gn/T//cckC861L.s 			page 11


 571 01da 7047     		bx	lr
 572              	.L9:
 573              		.align	2
 574              	.L8:
 575 01dc 00000047 		.word	1191182336
 576 01e0 3333333F 		.word	1060320051
 577 01e4 00000038 		.word	939524096
 578              		.cfi_endproc
 579              	.LFE810:
 580              		.cantunwind
 581              		.fnend
 582              		.size	_ZN5warps9Modulator11ProcessXmodILNS_13XmodAlgorithmE3ELS2_4EEEvffffPKfS4_Pfj, .-_ZN5warps9M
 583              		.section	.text._ZN5warps9Modulator11ProcessXmodILNS_13XmodAlgorithmE0ELS2_1EEEvffffPKfS4_Pfj,"axG"
 584              		.align	2
 585              		.p2align 4,,15
 586              		.weak	_ZN5warps9Modulator11ProcessXmodILNS_13XmodAlgorithmE0ELS2_1EEEvffffPKfS4_Pfj
 587              		.thumb
 588              		.thumb_func
 589              		.type	_ZN5warps9Modulator11ProcessXmodILNS_13XmodAlgorithmE0ELS2_1EEEvffffPKfS4_Pfj, %function
 590              	_ZN5warps9Modulator11ProcessXmodILNS_13XmodAlgorithmE0ELS2_1EEEvffffPKfS4_Pfj:
 591              		.fnstart
 592              	.LFB807:
 593              		.loc 1 157 0
 594              		.cfi_startproc
 595              		@ args = 4, pretend = 0, frame = 0
 596              		@ frame_needed = 0, uses_anonymous_args = 0
 597              	.LVL55:
 598 0000 2DE9F043 		push	{r4, r5, r6, r7, r8, r9, lr}
 599              		.cfi_def_cfa_offset 28
 600              		.cfi_offset 4, -28
 601              		.cfi_offset 5, -24
 602              		.cfi_offset 6, -20
 603              		.cfi_offset 7, -16
 604              		.cfi_offset 8, -12
 605              		.cfi_offset 9, -8
 606              		.cfi_offset 14, -4
 607 0004 2DED028B 		fstmfdd	sp!, {d8}
 608              		.cfi_def_cfa_offset 36
 609              		.cfi_offset 80, -36
 610              		.cfi_offset 81, -32
 611              		.loc 1 157 0
 612 0008 099E     		ldr	r6, [sp, #36]
 613              	.LBB3524:
 614              		.loc 1 166 0
 615 000a 07EE906A 		fmsr	s15, r6	@ int
 616 000e B8EE677A 		fuitos	s14, s15
 617 0012 F7EE007A 		fconsts	s15, #112
 618 0016 C7EE877A 		fdivs	s15, s15, s14
 619              	.LVL56:
 620              		.loc 1 168 0
 621 001a 70EEC00A 		fsubs	s1, s1, s0
 622              	.LVL57:
 623              		.loc 1 167 0
 624 001e 71EEC11A 		fsubs	s3, s3, s2
 625              	.LVL58:
 626              		.loc 1 168 0
 627 0022 60EEA70A 		fmuls	s1, s1, s15
ARM GAS  /var/folders/28/j9jfyj_n4wz3qtvnym210h2c0000gn/T//cckC861L.s 			page 12


 628              		.loc 1 167 0
 629 0026 61EEA71A 		fmuls	s3, s3, s15
 630              	.LVL59:
 631              		.loc 1 169 0
 632 002a 002E     		cmp	r6, #0
 633 002c 00F02681 		beq	.L10
 634 0030 944F     		ldr	r7, .L16
 635 0032 954C     		ldr	r4, .L16+4
 636 0034 9548     		ldr	r0, .L16+8
 637              	.LVL60:
 638              	.LBB3525:
 639              	.LBB3526:
 640              	.LBB3527:
 641              	.LBB3528:
 642              	.LBB3529:
 643              		.loc 4 44 0
 644 0036 DFED964A 		flds	s9, .L16+12
 645              	.LBE3529:
 646              	.LBE3528:
 647              	.LBE3527:
 648              	.LBE3526:
 649              	.LBB3563:
 650              	.LBB3564:
 651              		.loc 2 372 0
 652 003a 9FED965A 		flds	s10, .L16+16
 653              		.loc 2 375 0
 654 003e DFED965A 		flds	s11, .L16+20
 655              	.LBB3565:
 656              	.LBB3566:
 657              		.loc 4 44 0
 658 0042 9FED966A 		flds	s12, .L16+24
 659 0046 0C31     		adds	r1, r1, #12
 660              	.LVL61:
 661 0048 0C32     		adds	r2, r2, #12
 662              	.LVL62:
 663 004a 0C33     		adds	r3, r3, #12
 664              	.LVL63:
 665 004c 07F1040E 		add	lr, r7, #4
 666              	.LBE3566:
 667              	.LBE3565:
 668              		.loc 2 374 0
 669 0050 F5EE006A 		fconsts	s13, #80
 670              	.LVL64:
 671              	.L12:
 672              	.LBE3564:
 673              	.LBE3563:
 674              		.loc 1 171 0
 675 0054 11ED038A 		flds	s16, [r1, #-12]
 676              	.LVL65:
 677              		.loc 1 172 0
 678 0058 12ED037A 		flds	s14, [r2, #-12]
 679              	.LVL66:
 680              	.LBB3595:
 681              	.LBB3583:
 682              		.loc 2 372 0
 683 005c 78EE057A 		fadds	s15, s16, s10
 684              		.loc 2 374 0
ARM GAS  /var/folders/28/j9jfyj_n4wz3qtvnym210h2c0000gn/T//cckC861L.s 			page 13


 685 0060 28EE074A 		fmuls	s8, s16, s14
 686              		.loc 2 373 0
 687 0064 77EE277A 		fadds	s15, s14, s15
 688              	.LBE3583:
 689              	.LBE3595:
 690              	.LBB3596:
 691              	.LBB3552:
 692              	.LBB3538:
 693              	.LBB3530:
 694              		.loc 4 44 0
 695 0068 61EE243A 		fmuls	s7, s2, s9
 696              	.LVL67:
 697              	.LBE3530:
 698              	.LBE3538:
 699              	.LBE3552:
 700              	.LBE3596:
 701              	.LBB3597:
 702              	.LBB3584:
 703              		.loc 2 374 0
 704 006c E4EE267A 		vfma.f32	s15, s8, s13
 705              	.LBE3584:
 706              	.LBE3597:
 707              	.LBE3525:
 708              		.loc 1 169 0
 709 0070 033E     		subs	r6, r6, #3
 710              	.LVL68:
 711 0072 01F10C01 		add	r1, r1, #12
 712              	.LVL69:
 713              	.LBB3618:
 714              	.LBB3598:
 715              	.LBB3553:
 716              	.LBB3539:
 717              	.LBB3531:
 718              		.loc 4 45 0
 719 0076 BDEEE34A 		ftosizs	s8, s7
 720              	.LVL70:
 721              	.LBE3531:
 722              	.LBE3539:
 723              	.LBE3553:
 724              	.LBE3598:
 725              	.LBB3599:
 726              	.LBB3585:
 727              		.loc 2 375 0
 728 007a 31EE253A 		fadds	s6, s2, s11
 729              	.LBE3585:
 730              	.LBE3599:
 731              	.LBB3600:
 732              	.LBB3554:
 733              	.LBB3540:
 734              	.LBB3532:
 735              		.loc 4 46 0
 736 007e 14EE105A 		fmrs	r5, s8	@ int
 737              	.LBE3532:
 738              	.LBE3540:
 739              	.LBE3554:
 740              	.LBE3600:
 741              	.LBB3601:
ARM GAS  /var/folders/28/j9jfyj_n4wz3qtvnym210h2c0000gn/T//cckC861L.s 			page 14


 742              	.LBB3586:
 743              		.loc 2 375 0
 744 0082 67EE837A 		fmuls	s15, s15, s6
 745              	.LBE3586:
 746              	.LBE3601:
 747              	.LBB3602:
 748              	.LBB3555:
 749              	.LBB3541:
 750              	.LBB3533:
 751              		.loc 4 46 0
 752 0086 4FEA8505 		lsl	r5, r5, #2
 753              		.loc 4 47 0
 754 008a 05F1040C 		add	ip, r5, #4
 755              	.LBE3533:
 756              	.LBE3541:
 757              	.LBE3555:
 758              	.LBE3602:
 759              	.LBB3603:
 760              	.LBB3587:
 761              	.LBB3575:
 762              	.LBB3567:
 763              		.loc 4 44 0
 764 008e 67EE867A 		fmuls	s15, s15, s12
 765              	.LBE3567:
 766              	.LBE3575:
 767              	.LBE3587:
 768              	.LBE3603:
 769              	.LBB3604:
 770              	.LBB3556:
 771              	.LBB3542:
 772              	.LBB3543:
 773              		.loc 4 47 0
 774 0092 00EB0C09 		add	r9, r0, ip
 775              		.loc 4 46 0
 776 0096 00EB0508 		add	r8, r0, r5
 777 009a D8ED002A 		flds	s5, [r8]
 778              		.loc 4 48 0
 779 009e D9ED008A 		flds	s17, [r9]
 780              	.LBE3543:
 781              	.LBE3542:
 782              	.LBE3556:
 783              	.LBE3604:
 784              	.LBB3605:
 785              	.LBB3588:
 786              	.LBB3576:
 787              	.LBB3568:
 788              		.loc 4 45 0
 789 00a2 BDEEE73A 		ftosizs	s6, s15
 790              	.LBE3568:
 791              	.LBE3576:
 792              	.LBE3588:
 793              	.LBE3605:
 794              	.LBB3606:
 795              	.LBB3557:
 796              	.LBB3546:
 797              	.LBB3534:
 798 00a6 B8EEC44A 		fsitos	s8, s8
ARM GAS  /var/folders/28/j9jfyj_n4wz3qtvnym210h2c0000gn/T//cckC861L.s 			page 15


 799              	.LVL71:
 800              		.loc 4 47 0
 801 00aa A444     		add	ip, ip, r4
 802              		.loc 4 46 0
 803 00ac 2544     		add	r5, r5, r4
 804              		.loc 4 48 0
 805 00ae 9CED002A 		flds	s4, [ip]
 806              		.loc 4 45 0
 807 00b2 33EEC44A 		fsubs	s8, s7, s8
 808              	.LVL72:
 809              	.LBE3534:
 810              	.LBE3546:
 811              	.LBB3547:
 812              	.LBB3544:
 813              		.loc 4 48 0
 814 00b6 78EEE28A 		fsubs	s17, s17, s5
 815              	.LBE3544:
 816              	.LBE3547:
 817              	.LBB3548:
 818              	.LBB3535:
 819              		.loc 4 46 0
 820 00ba D5ED003A 		flds	s7, [r5]
 821              	.LVL73:
 822              	.LBE3535:
 823              	.LBE3548:
 824              	.LBE3557:
 825              	.LBE3606:
 826              	.LBB3607:
 827              	.LBB3589:
 828              	.LBB3577:
 829              	.LBB3569:
 830 00be 13EE105A 		fmrs	r5, s6	@ int
 831              	.LBE3569:
 832              	.LBE3577:
 833              	.LBE3589:
 834              	.LBE3607:
 835              	.LBB3608:
 836              	.LBB3558:
 837              	.LBB3549:
 838              	.LBB3545:
 839              		.loc 4 48 0
 840 00c2 E4EE282A 		vfma.f32	s5, s8, s17
 841              	.LVL74:
 842              	.LBE3545:
 843              	.LBE3549:
 844              	.LBE3558:
 845              	.LBE3608:
 846              	.LBB3609:
 847              	.LBB3590:
 848              	.LBB3578:
 849              	.LBB3570:
 850              		.loc 4 46 0
 851 00c6 4FEA8505 		lsl	r5, r5, #2
 852 00ca 07EB050C 		add	ip, r7, r5
 853              	.LBE3570:
 854              	.LBE3578:
 855              	.LBE3590:
ARM GAS  /var/folders/28/j9jfyj_n4wz3qtvnym210h2c0000gn/T//cckC861L.s 			page 16


 856              	.LBE3609:
 857              	.LBB3610:
 858              	.LBB3559:
 859              	.LBB3550:
 860              	.LBB3536:
 861              		.loc 4 48 0
 862 00ce 32EE632A 		fsubs	s4, s4, s7
 863              	.LBE3536:
 864              	.LBE3550:
 865              	.LBE3559:
 866              	.LBE3610:
 867              	.LBB3611:
 868              	.LBB3591:
 869              	.LBB3579:
 870              	.LBB3571:
 871              		.loc 4 47 0
 872 00d2 7544     		add	r5, r5, lr
 873              	.LBE3571:
 874              	.LBE3579:
 875              	.LBE3591:
 876              	.LBE3611:
 877              	.LBB3612:
 878              	.LBB3560:
 879              	.LBB3551:
 880              	.LBB3537:
 881              		.loc 4 48 0
 882 00d4 E4EE023A 		vfma.f32	s7, s8, s4
 883              	.LVL75:
 884 00d8 02F10C02 		add	r2, r2, #12
 885 00dc 03F10C03 		add	r3, r3, #12
 886              	.LBE3537:
 887              	.LBE3551:
 888              	.LBE3560:
 889              	.LBE3612:
 890              	.LBB3613:
 891              	.LBB3592:
 892              	.LBB3580:
 893              	.LBB3572:
 894              		.loc 4 46 0
 895 00e0 9CED004A 		flds	s8, [ip]
 896              	.LVL76:
 897              		.loc 4 48 0
 898 00e4 95ED002A 		flds	s4, [r5]
 899              		.loc 4 45 0
 900 00e8 B8EEC33A 		fsitos	s6, s6
 901              	.LBE3572:
 902              	.LBE3580:
 903              	.LBE3592:
 904              	.LBE3613:
 905              	.LBB3614:
 906              	.LBB3561:
 907              		.loc 2 364 0
 908 00ec 27EE227A 		fmuls	s14, s14, s5
 909              	.LVL77:
 910              	.LBE3561:
 911              	.LBE3614:
 912              	.LBB3615:
ARM GAS  /var/folders/28/j9jfyj_n4wz3qtvnym210h2c0000gn/T//cckC861L.s 			page 17


 913              	.LBB3593:
 914              	.LBB3581:
 915              	.LBB3573:
 916              		.loc 4 45 0
 917 00f0 77EEC37A 		fsubs	s15, s15, s6
 918              		.loc 4 48 0
 919 00f4 32EE443A 		fsubs	s6, s4, s8
 920              	.LBE3573:
 921              	.LBE3581:
 922              	.LBE3593:
 923              	.LBE3615:
 924              	.LBB3616:
 925              	.LBB3562:
 926              		.loc 2 364 0
 927 00f8 A8EE237A 		vfma.f32	s14, s16, s7
 928              	.LVL78:
 929              	.LBE3562:
 930              	.LBE3616:
 931              	.LBB3617:
 932              	.LBB3594:
 933              	.LBB3582:
 934              	.LBB3574:
 935              		.loc 4 48 0
 936 00fc A7EE834A 		vfma.f32	s8, s15, s6
 937              	.LVL79:
 938              	.LBE3574:
 939              	.LBE3582:
 940              	.LBE3594:
 941              	.LBE3617:
 942              		.loc 1 176 0
 943 0100 31EE211A 		fadds	s2, s2, s3
 944              	.LVL80:
 945              		.loc 1 175 0
 946 0104 34EE474A 		fsubs	s8, s8, s14
 947              	.LBE3618:
 948              	.LBB3619:
 949              	.LBB3620:
 950              	.LBB3621:
 951              	.LBB3622:
 952              	.LBB3623:
 953              		.loc 4 44 0
 954 0108 61EE243A 		fmuls	s7, s2, s9
 955              	.LBE3623:
 956              	.LBE3622:
 957              	.LBE3621:
 958              	.LBE3620:
 959              	.LBE3619:
 960              	.LBB3698:
 961              		.loc 1 175 0
 962 010c A4EE007A 		vfma.f32	s14, s8, s0
 963              	.LBE3698:
 964              	.LBB3699:
 965              	.LBB3652:
 966              	.LBB3642:
 967              	.LBB3630:
 968              	.LBB3624:
 969              		.loc 4 45 0
ARM GAS  /var/folders/28/j9jfyj_n4wz3qtvnym210h2c0000gn/T//cckC861L.s 			page 18


 970 0110 BDEEE34A 		ftosizs	s8, s7
 971              	.LBE3624:
 972              	.LBE3630:
 973              	.LBE3642:
 974              	.LBE3652:
 975              	.LBE3699:
 976              	.LBB3700:
 977              		.loc 1 175 0
 978 0114 03ED067A 		fsts	s14, [r3, #-24]
 979              	.LVL81:
 980              	.LBE3700:
 981              	.LBB3701:
 982              		.loc 1 181 0
 983 0118 11ED058A 		flds	s16, [r1, #-20]
 984              	.LVL82:
 985              		.loc 1 182 0
 986 011c 12ED057A 		flds	s14, [r2, #-20]
 987              	.LBB3653:
 988              	.LBB3654:
 989              		.loc 2 372 0
 990 0120 78EE057A 		fadds	s15, s16, s10
 991              		.loc 2 374 0
 992 0124 68EE072A 		fmuls	s5, s16, s14
 993              		.loc 2 373 0
 994 0128 77EE277A 		fadds	s15, s14, s15
 995              		.loc 2 375 0
 996 012c 31EE253A 		fadds	s6, s2, s11
 997              		.loc 2 374 0
 998 0130 E2EEA67A 		vfma.f32	s15, s5, s13
 999              	.LBE3654:
 1000              	.LBE3653:
 1001              	.LBB3680:
 1002              	.LBB3643:
 1003              	.LBB3631:
 1004              	.LBB3625:
 1005              		.loc 4 46 0
 1006 0134 14EE105A 		fmrs	r5, s8	@ int
 1007              	.LBE3625:
 1008              	.LBE3631:
 1009              	.LBE3643:
 1010              	.LBE3680:
 1011              	.LBB3681:
 1012              	.LBB3671:
 1013              		.loc 2 375 0
 1014 0138 67EE837A 		fmuls	s15, s15, s6
 1015              	.LBE3671:
 1016              	.LBE3681:
 1017              	.LBB3682:
 1018              	.LBB3644:
 1019              	.LBB3632:
 1020              	.LBB3626:
 1021              		.loc 4 46 0
 1022 013c 4FEA8505 		lsl	r5, r5, #2
 1023              		.loc 4 47 0
 1024 0140 05F1040C 		add	ip, r5, #4
 1025              	.LBE3626:
 1026              	.LBE3632:
ARM GAS  /var/folders/28/j9jfyj_n4wz3qtvnym210h2c0000gn/T//cckC861L.s 			page 19


 1027              	.LBE3644:
 1028              	.LBE3682:
 1029              	.LBB3683:
 1030              	.LBB3672:
 1031              	.LBB3655:
 1032              	.LBB3656:
 1033              		.loc 4 44 0
 1034 0144 67EE867A 		fmuls	s15, s15, s12
 1035              	.LBE3656:
 1036              	.LBE3655:
 1037              	.LBE3672:
 1038              	.LBE3683:
 1039              	.LBB3684:
 1040              	.LBB3645:
 1041              	.LBB3633:
 1042              	.LBB3634:
 1043              		.loc 4 46 0
 1044 0148 00EB0509 		add	r9, r0, r5
 1045              		.loc 4 47 0
 1046 014c 00EB0C08 		add	r8, r0, ip
 1047              		.loc 4 46 0
 1048 0150 D9ED002A 		flds	s5, [r9]
 1049              		.loc 4 48 0
 1050 0154 D8ED008A 		flds	s17, [r8]
 1051              	.LBE3634:
 1052              	.LBE3633:
 1053              	.LBE3645:
 1054              	.LBE3684:
 1055              	.LBB3685:
 1056              	.LBB3673:
 1057              	.LBB3664:
 1058              	.LBB3657:
 1059              		.loc 4 45 0
 1060 0158 BDEEE73A 		ftosizs	s6, s15
 1061              	.LBE3657:
 1062              	.LBE3664:
 1063              	.LBE3673:
 1064              	.LBE3685:
 1065              	.LBB3686:
 1066              	.LBB3646:
 1067              	.LBB3637:
 1068              	.LBB3627:
 1069 015c B8EEC44A 		fsitos	s8, s8
 1070              		.loc 4 46 0
 1071 0160 2544     		add	r5, r5, r4
 1072              		.loc 4 47 0
 1073 0162 A444     		add	ip, ip, r4
 1074              		.loc 4 45 0
 1075 0164 33EEC44A 		fsubs	s8, s7, s8
 1076              		.loc 4 48 0
 1077 0168 9CED002A 		flds	s4, [ip]
 1078              		.loc 4 46 0
 1079 016c D5ED003A 		flds	s7, [r5]
 1080              	.LBE3627:
 1081              	.LBE3637:
 1082              	.LBB3638:
 1083              	.LBB3635:
ARM GAS  /var/folders/28/j9jfyj_n4wz3qtvnym210h2c0000gn/T//cckC861L.s 			page 20


 1084              		.loc 4 48 0
 1085 0170 78EEE28A 		fsubs	s17, s17, s5
 1086              	.LBE3635:
 1087              	.LBE3638:
 1088              	.LBE3646:
 1089              	.LBE3686:
 1090              	.LBB3687:
 1091              	.LBB3674:
 1092              	.LBB3665:
 1093              	.LBB3658:
 1094              		.loc 4 46 0
 1095 0174 13EE105A 		fmrs	r5, s6	@ int
 1096              	.LBE3658:
 1097              	.LBE3665:
 1098              	.LBE3674:
 1099              	.LBE3687:
 1100              	.LBB3688:
 1101              	.LBB3647:
 1102              	.LBB3639:
 1103              	.LBB3636:
 1104              		.loc 4 48 0
 1105 0178 E4EE282A 		vfma.f32	s5, s8, s17
 1106              	.LBE3636:
 1107              	.LBE3639:
 1108              	.LBE3647:
 1109              	.LBE3688:
 1110              	.LBB3689:
 1111              	.LBB3675:
 1112              	.LBB3666:
 1113              	.LBB3659:
 1114              		.loc 4 46 0
 1115 017c 4FEA8505 		lsl	r5, r5, #2
 1116 0180 07EB050C 		add	ip, r7, r5
 1117              	.LBE3659:
 1118              	.LBE3666:
 1119              	.LBE3675:
 1120              	.LBE3689:
 1121              	.LBB3690:
 1122              	.LBB3648:
 1123              	.LBB3640:
 1124              	.LBB3628:
 1125              		.loc 4 48 0
 1126 0184 32EE632A 		fsubs	s4, s4, s7
 1127              	.LBE3628:
 1128              	.LBE3640:
 1129              	.LBE3648:
 1130              	.LBE3690:
 1131              	.LBB3691:
 1132              	.LBB3676:
 1133              	.LBB3667:
 1134              	.LBB3660:
 1135              		.loc 4 47 0
 1136 0188 7544     		add	r5, r5, lr
 1137              	.LBE3660:
 1138              	.LBE3667:
 1139              	.LBE3676:
 1140              	.LBE3691:
ARM GAS  /var/folders/28/j9jfyj_n4wz3qtvnym210h2c0000gn/T//cckC861L.s 			page 21


 1141              	.LBB3692:
 1142              	.LBB3649:
 1143              	.LBB3641:
 1144              	.LBB3629:
 1145              		.loc 4 48 0
 1146 018a E4EE023A 		vfma.f32	s7, s8, s4
 1147              	.LBE3629:
 1148              	.LBE3641:
 1149              	.LBE3649:
 1150              	.LBE3692:
 1151              	.LBB3693:
 1152              	.LBB3677:
 1153              	.LBB3668:
 1154              	.LBB3661:
 1155              		.loc 4 45 0
 1156 018e B8EEC33A 		fsitos	s6, s6
 1157              		.loc 4 46 0
 1158 0192 9CED004A 		flds	s8, [ip]
 1159              		.loc 4 48 0
 1160 0196 95ED002A 		flds	s4, [r5]
 1161              		.loc 4 45 0
 1162 019a 77EEC37A 		fsubs	s15, s15, s6
 1163              	.LBE3661:
 1164              	.LBE3668:
 1165              	.LBE3677:
 1166              	.LBE3693:
 1167              	.LBB3694:
 1168              	.LBB3650:
 1169              		.loc 2 364 0
 1170 019e 27EE227A 		fmuls	s14, s14, s5
 1171              	.LBE3650:
 1172              	.LBE3694:
 1173              	.LBB3695:
 1174              	.LBB3678:
 1175              	.LBB3669:
 1176              	.LBB3662:
 1177              		.loc 4 48 0
 1178 01a2 32EE443A 		fsubs	s6, s4, s8
 1179              	.LBE3662:
 1180              	.LBE3669:
 1181              	.LBE3678:
 1182              	.LBE3695:
 1183              	.LBB3696:
 1184              	.LBB3651:
 1185              		.loc 2 364 0
 1186 01a6 A8EE237A 		vfma.f32	s14, s16, s7
 1187              	.LBE3651:
 1188              	.LBE3696:
 1189              	.LBB3697:
 1190              	.LBB3679:
 1191              	.LBB3670:
 1192              	.LBB3663:
 1193              		.loc 4 48 0
 1194 01aa A7EE834A 		vfma.f32	s8, s15, s6
 1195              	.LBE3663:
 1196              	.LBE3670:
 1197              	.LBE3679:
ARM GAS  /var/folders/28/j9jfyj_n4wz3qtvnym210h2c0000gn/T//cckC861L.s 			page 22


 1198              	.LBE3697:
 1199              	.LBE3701:
 1200              	.LBB3702:
 1201              		.loc 1 177 0
 1202 01ae 30EE200A 		fadds	s0, s0, s1
 1203              	.LVL83:
 1204              	.LBE3702:
 1205              	.LBB3703:
 1206              		.loc 1 185 0
 1207 01b2 34EE474A 		fsubs	s8, s8, s14
 1208              		.loc 1 186 0
 1209 01b6 31EE211A 		fadds	s2, s2, s3
 1210              	.LVL84:
 1211              		.loc 1 185 0
 1212 01ba A4EE007A 		vfma.f32	s14, s8, s0
 1213              	.LBE3703:
 1214              	.LBB3704:
 1215              	.LBB3705:
 1216              	.LBB3706:
 1217              	.LBB3707:
 1218              	.LBB3708:
 1219              		.loc 4 44 0
 1220 01be 61EE243A 		fmuls	s7, s2, s9
 1221              	.LBE3708:
 1222              	.LBE3707:
 1223              	.LBE3706:
 1224              	.LBE3705:
 1225              	.LBE3704:
 1226              	.LBB3785:
 1227              		.loc 1 185 0
 1228 01c2 03ED057A 		fsts	s14, [r3, #-20]
 1229              	.LVL85:
 1230              	.LBE3785:
 1231              	.LBB3786:
 1232              		.loc 1 191 0
 1233 01c6 11ED048A 		flds	s16, [r1, #-16]
 1234              	.LVL86:
 1235              		.loc 1 192 0
 1236 01ca 12ED047A 		flds	s14, [r2, #-16]
 1237              	.LBB3737:
 1238              	.LBB3738:
 1239              		.loc 2 372 0
 1240 01ce 78EE057A 		fadds	s15, s16, s10
 1241              		.loc 2 374 0
 1242 01d2 28EE073A 		fmuls	s6, s16, s14
 1243              		.loc 2 373 0
 1244 01d6 77EE277A 		fadds	s15, s14, s15
 1245              	.LBE3738:
 1246              	.LBE3737:
 1247              	.LBB3765:
 1248              	.LBB3727:
 1249              	.LBB3715:
 1250              	.LBB3709:
 1251              		.loc 4 45 0
 1252 01da BDEEE34A 		ftosizs	s8, s7
 1253              	.LBE3709:
 1254              	.LBE3715:
ARM GAS  /var/folders/28/j9jfyj_n4wz3qtvnym210h2c0000gn/T//cckC861L.s 			page 23


 1255              	.LBE3727:
 1256              	.LBE3765:
 1257              	.LBB3766:
 1258              	.LBB3755:
 1259              		.loc 2 374 0
 1260 01de E3EE267A 		vfma.f32	s15, s6, s13
 1261              		.loc 2 375 0
 1262 01e2 31EE253A 		fadds	s6, s2, s11
 1263              	.LBE3755:
 1264              	.LBE3766:
 1265              	.LBB3767:
 1266              	.LBB3728:
 1267              	.LBB3716:
 1268              	.LBB3710:
 1269              		.loc 4 46 0
 1270 01e6 14EE105A 		fmrs	r5, s8	@ int
 1271              	.LBE3710:
 1272              	.LBE3716:
 1273              	.LBE3728:
 1274              	.LBE3767:
 1275              	.LBB3768:
 1276              	.LBB3756:
 1277              		.loc 2 375 0
 1278 01ea 67EE837A 		fmuls	s15, s15, s6
 1279              	.LBE3756:
 1280              	.LBE3768:
 1281              	.LBB3769:
 1282              	.LBB3729:
 1283              	.LBB3717:
 1284              	.LBB3711:
 1285              		.loc 4 46 0
 1286 01ee 4FEA8505 		lsl	r5, r5, #2
 1287              		.loc 4 47 0
 1288 01f2 05F1040C 		add	ip, r5, #4
 1289              	.LBE3711:
 1290              	.LBE3717:
 1291              	.LBE3729:
 1292              	.LBE3769:
 1293              	.LBB3770:
 1294              	.LBB3757:
 1295              	.LBB3739:
 1296              	.LBB3740:
 1297              		.loc 4 44 0
 1298 01f6 67EE867A 		fmuls	s15, s15, s12
 1299              	.LBE3740:
 1300              	.LBE3739:
 1301              	.LBE3757:
 1302              	.LBE3770:
 1303              	.LBB3771:
 1304              	.LBB3730:
 1305              	.LBB3718:
 1306              	.LBB3719:
 1307              		.loc 4 46 0
 1308 01fa 00EB0509 		add	r9, r0, r5
 1309              		.loc 4 47 0
 1310 01fe 00EB0C08 		add	r8, r0, ip
 1311              		.loc 4 46 0
ARM GAS  /var/folders/28/j9jfyj_n4wz3qtvnym210h2c0000gn/T//cckC861L.s 			page 24


 1312 0202 D9ED002A 		flds	s5, [r9]
 1313              		.loc 4 48 0
 1314 0206 D8ED008A 		flds	s17, [r8]
 1315              	.LBE3719:
 1316              	.LBE3718:
 1317              	.LBE3730:
 1318              	.LBE3771:
 1319              	.LBB3772:
 1320              	.LBB3758:
 1321              	.LBB3748:
 1322              	.LBB3741:
 1323              		.loc 4 45 0
 1324 020a BDEEE73A 		ftosizs	s6, s15
 1325              	.LBE3741:
 1326              	.LBE3748:
 1327              	.LBE3758:
 1328              	.LBE3772:
 1329              	.LBB3773:
 1330              	.LBB3731:
 1331              	.LBB3722:
 1332              	.LBB3712:
 1333 020e B8EEC44A 		fsitos	s8, s8
 1334              		.loc 4 46 0
 1335 0212 2544     		add	r5, r5, r4
 1336              		.loc 4 47 0
 1337 0214 A444     		add	ip, ip, r4
 1338              		.loc 4 45 0
 1339 0216 33EEC44A 		fsubs	s8, s7, s8
 1340              		.loc 4 48 0
 1341 021a 9CED002A 		flds	s4, [ip]
 1342              		.loc 4 46 0
 1343 021e D5ED003A 		flds	s7, [r5]
 1344              	.LBE3712:
 1345              	.LBE3722:
 1346              	.LBB3723:
 1347              	.LBB3720:
 1348              		.loc 4 48 0
 1349 0222 78EEE28A 		fsubs	s17, s17, s5
 1350              	.LBE3720:
 1351              	.LBE3723:
 1352              	.LBE3731:
 1353              	.LBE3773:
 1354              	.LBB3774:
 1355              	.LBB3759:
 1356              	.LBB3749:
 1357              	.LBB3742:
 1358              		.loc 4 46 0
 1359 0226 13EE105A 		fmrs	r5, s6	@ int
 1360              	.LBE3742:
 1361              	.LBE3749:
 1362              	.LBE3759:
 1363              	.LBE3774:
 1364              	.LBB3775:
 1365              	.LBB3732:
 1366              	.LBB3724:
 1367              	.LBB3721:
 1368              		.loc 4 48 0
ARM GAS  /var/folders/28/j9jfyj_n4wz3qtvnym210h2c0000gn/T//cckC861L.s 			page 25


 1369 022a E4EE282A 		vfma.f32	s5, s8, s17
 1370              	.LBE3721:
 1371              	.LBE3724:
 1372              	.LBE3732:
 1373              	.LBE3775:
 1374              	.LBB3776:
 1375              	.LBB3760:
 1376              	.LBB3750:
 1377              	.LBB3743:
 1378              		.loc 4 46 0
 1379 022e 4FEA8505 		lsl	r5, r5, #2
 1380 0232 07EB050C 		add	ip, r7, r5
 1381              	.LBE3743:
 1382              	.LBE3750:
 1383              	.LBE3760:
 1384              	.LBE3776:
 1385              	.LBB3777:
 1386              	.LBB3733:
 1387              	.LBB3725:
 1388              	.LBB3713:
 1389              		.loc 4 48 0
 1390 0236 32EE632A 		fsubs	s4, s4, s7
 1391              	.LBE3713:
 1392              	.LBE3725:
 1393              	.LBE3733:
 1394              	.LBE3777:
 1395              	.LBB3778:
 1396              	.LBB3761:
 1397              	.LBB3751:
 1398              	.LBB3744:
 1399              		.loc 4 47 0
 1400 023a 7544     		add	r5, r5, lr
 1401              	.LBE3744:
 1402              	.LBE3751:
 1403              	.LBE3761:
 1404              	.LBE3778:
 1405              	.LBB3779:
 1406              	.LBB3734:
 1407              	.LBB3726:
 1408              	.LBB3714:
 1409              		.loc 4 48 0
 1410 023c E4EE023A 		vfma.f32	s7, s8, s4
 1411              	.LBE3714:
 1412              	.LBE3726:
 1413              	.LBE3734:
 1414              	.LBE3779:
 1415              	.LBB3780:
 1416              	.LBB3762:
 1417              	.LBB3752:
 1418              	.LBB3745:
 1419              		.loc 4 45 0
 1420 0240 B8EEC33A 		fsitos	s6, s6
 1421              		.loc 4 46 0
 1422 0244 9CED004A 		flds	s8, [ip]
 1423              		.loc 4 48 0
 1424 0248 95ED002A 		flds	s4, [r5]
 1425              		.loc 4 45 0
ARM GAS  /var/folders/28/j9jfyj_n4wz3qtvnym210h2c0000gn/T//cckC861L.s 			page 26


 1426 024c 77EEC37A 		fsubs	s15, s15, s6
 1427              	.LBE3745:
 1428              	.LBE3752:
 1429              	.LBE3762:
 1430              	.LBE3780:
 1431              	.LBB3781:
 1432              	.LBB3735:
 1433              		.loc 2 364 0
 1434 0250 27EE227A 		fmuls	s14, s14, s5
 1435              	.LBE3735:
 1436              	.LBE3781:
 1437              	.LBB3782:
 1438              	.LBB3763:
 1439              	.LBB3753:
 1440              	.LBB3746:
 1441              		.loc 4 48 0
 1442 0254 32EE443A 		fsubs	s6, s4, s8
 1443              	.LBE3746:
 1444              	.LBE3753:
 1445              	.LBE3763:
 1446              	.LBE3782:
 1447              	.LBB3783:
 1448              	.LBB3736:
 1449              		.loc 2 364 0
 1450 0258 A8EE237A 		vfma.f32	s14, s16, s7
 1451              	.LBE3736:
 1452              	.LBE3783:
 1453              	.LBB3784:
 1454              	.LBB3764:
 1455              	.LBB3754:
 1456              	.LBB3747:
 1457              		.loc 4 48 0
 1458 025c A7EE834A 		vfma.f32	s8, s15, s6
 1459              	.LBE3747:
 1460              	.LBE3754:
 1461              	.LBE3764:
 1462              	.LBE3784:
 1463              	.LBE3786:
 1464              	.LBB3787:
 1465              		.loc 1 187 0
 1466 0260 30EE200A 		fadds	s0, s0, s1
 1467              	.LVL87:
 1468              	.LBE3787:
 1469              	.LBB3788:
 1470              		.loc 1 195 0
 1471 0264 34EE474A 		fsubs	s8, s8, s14
 1472              		.loc 1 196 0
 1473 0268 31EE211A 		fadds	s2, s2, s3
 1474              	.LVL88:
 1475              		.loc 1 195 0
 1476 026c A4EE007A 		vfma.f32	s14, s8, s0
 1477              		.loc 1 197 0
 1478 0270 30EE200A 		fadds	s0, s0, s1
 1479              	.LVL89:
 1480              		.loc 1 195 0
 1481 0274 03ED047A 		fsts	s14, [r3, #-16]
 1482              	.LVL90:
ARM GAS  /var/folders/28/j9jfyj_n4wz3qtvnym210h2c0000gn/T//cckC861L.s 			page 27


 1483              	.LBE3788:
 1484              		.loc 1 169 0
 1485 0278 7FF4ECAE 		bne	.L12
 1486              	.LVL91:
 1487              	.L10:
 1488              	.LBE3524:
 1489              		.loc 1 201 0
 1490 027c BDEC028B 		fldmfdd	sp!, {d8}
 1491              		.cfi_restore 80
 1492              		.cfi_restore 81
 1493              		.cfi_def_cfa_offset 28
 1494 0280 BDE8F083 		pop	{r4, r5, r6, r7, r8, r9, pc}
 1495              	.LVL92:
 1496              	.L17:
 1497              		.align	2
 1498              	.L16:
 1499 0284 00200000 		.word	_ZN5warps16lut_bipolar_foldE+8192
 1500 0288 00000000 		.word	_ZN5warps12lut_xfade_inE
 1501 028c 00000000 		.word	_ZN5warps13lut_xfade_outE
 1502 0290 00008043 		.word	1132462080
 1503 0294 00000000 		.word	0
 1504 0298 0AD7A33C 		.word	1017370378
 1505 029c FB175F44 		.word	1147082747
 1506              		.cfi_endproc
 1507              	.LFE807:
 1508              		.cantunwind
 1509              		.fnend
 1510              		.size	_ZN5warps9Modulator11ProcessXmodILNS_13XmodAlgorithmE0ELS2_1EEEvffffPKfS4_Pfj, .-_ZN5warps9M
 1511              		.section	.text._ZN5warps9Modulator11ProcessXmodILNS_13XmodAlgorithmE5ELS2_6EEEvffffPKfS4_Pfj,"axG"
 1512              		.align	2
 1513              		.p2align 4,,15
 1514              		.weak	_ZN5warps9Modulator11ProcessXmodILNS_13XmodAlgorithmE5ELS2_6EEEvffffPKfS4_Pfj
 1515              		.thumb
 1516              		.thumb_func
 1517              		.type	_ZN5warps9Modulator11ProcessXmodILNS_13XmodAlgorithmE5ELS2_6EEEvffffPKfS4_Pfj, %function
 1518              	_ZN5warps9Modulator11ProcessXmodILNS_13XmodAlgorithmE5ELS2_6EEEvffffPKfS4_Pfj:
 1519              		.fnstart
 1520              	.LFB812:
 1521              		.loc 1 157 0
 1522              		.cfi_startproc
 1523              		@ args = 4, pretend = 0, frame = 16
 1524              		@ frame_needed = 0, uses_anonymous_args = 0
 1525              	.LVL93:
 1526 0000 30B5     		push	{r4, r5, lr}
 1527              		.cfi_def_cfa_offset 12
 1528              		.cfi_offset 4, -12
 1529              		.cfi_offset 5, -8
 1530              		.cfi_offset 14, -4
 1531 0002 85B0     		sub	sp, sp, #20
 1532              		.cfi_def_cfa_offset 32
 1533              	.LBB3814:
 1534              		.loc 1 168 0
 1535 0004 70EEC00A 		fsubs	s1, s1, s0
 1536              	.LVL94:
 1537              	.LBE3814:
 1538              		.loc 1 157 0
 1539 0008 089C     		ldr	r4, [sp, #32]
ARM GAS  /var/folders/28/j9jfyj_n4wz3qtvnym210h2c0000gn/T//cckC861L.s 			page 28


 1540              	.LBB3879:
 1541              		.loc 1 166 0
 1542 000a 07EE904A 		fmsr	s15, r4	@ int
 1543 000e B8EE677A 		fuitos	s14, s15
 1544 0012 F7EE007A 		fconsts	s15, #112
 1545 0016 C7EE877A 		fdivs	s15, s15, s14
 1546              	.LVL95:
 1547              		.loc 1 167 0
 1548 001a 71EEC11A 		fsubs	s3, s3, s2
 1549              	.LVL96:
 1550              		.loc 1 168 0
 1551 001e 60EEA70A 		fmuls	s1, s1, s15
 1552              		.loc 1 167 0
 1553 0022 61EEA71A 		fmuls	s3, s3, s15
 1554              	.LVL97:
 1555              		.loc 1 169 0
 1556 0026 002C     		cmp	r4, #0
 1557 0028 00F0ED80 		beq	.L18
 1558              	.LBB3815:
 1559              	.LBB3816:
 1560              	.LBB3817:
 1561              		.loc 2 413 0
 1562 002c DFED775A 		flds	s11, .L45
 1563              		.loc 2 421 0
 1564 0030 9FED776A 		flds	s12, .L45+4
 1565 0034 0C31     		adds	r1, r1, #12
 1566              	.LVL98:
 1567 0036 0C32     		adds	r2, r2, #12
 1568              	.LVL99:
 1569 0038 0C33     		adds	r3, r3, #12
 1570              	.LVL100:
 1571              	.L29:
 1572              		.loc 2 413 0
 1573 003a 61EE256A 		fmuls	s13, s2, s11
 1574              	.LBE3817:
 1575              	.LBE3816:
 1576              		.loc 1 171 0
 1577 003e 51ED037A 		flds	s15, [r1, #-12]
 1578              	.LVL101:
 1579              		.loc 1 172 0
 1580 0042 12ED037A 		flds	s14, [r2, #-12]
 1581              	.LVL102:
 1582              	.LBB3824:
 1583              	.LBB3822:
 1584              		.loc 2 414 0
 1585 0046 BDEEE65A 		ftosizs	s10, s13
 1586              	.LBB3818:
 1587              	.LBB3819:
 1588              		.loc 3 261 0
 1589 004a F0EEC74A 		fabss	s9, s14
 1590              	.LBE3819:
 1591              	.LBE3818:
 1592              		.loc 2 416 0
 1593 004e F4EEC77A 		fcmpes	s15, s14
 1594              		.loc 2 414 0
 1595 0052 15EE100A 		fmrs	r0, s10	@ int
 1596              	.LVL103:
ARM GAS  /var/folders/28/j9jfyj_n4wz3qtvnym210h2c0000gn/T//cckC861L.s 			page 29


 1597 0056 B8EEC54A 		fsitos	s8, s10
 1598              	.LBB3820:
 1599              	.LBB3821:
 1600              		.loc 3 261 0
 1601 005a B0EEE75A 		fabss	s10, s15
 1602              	.LBE3821:
 1603              	.LBE3820:
 1604              		.loc 2 416 0
 1605 005e F1EE10FA 		fmstat
 1606              		.loc 2 417 0
 1607 0062 B4EEE45A 		fcmpes	s10, s9
 1608              		.loc 2 414 0
 1609 0066 76EEC46A 		fsubs	s13, s13, s8
 1610              	.LVL104:
 1611              		.loc 2 416 0
 1612 006a 54BF     		ite	pl
 1613 006c B0EE474A 		fcpyspl	s8, s14
 1614 0070 B0EE674A 		fcpysmi	s8, s15
 1615              	.LVL105:
 1616              		.loc 2 417 0
 1617 0074 F1EE10FA 		fmstat
 1618              	.LVL106:
 1619              		.loc 2 421 0
 1620 0078 B4EEC67A 		fcmpes	s14, s12
 1621              		.loc 2 420 0
 1622 007c D6BF     		itet	le
 1623 007e B1EE645A 		fnegsle	s10, s9
 1624              	.LVL107:
 1625              		.loc 2 417 0
 1626 0082 F0EE674A 		fcpysgt	s9, s15
 1627 0086 F0EE474A 		fcpysle	s9, s14
 1628              		.loc 2 421 0
 1629 008a F1EE10FA 		fmstat
 1630 008e D8BF     		it	le
 1631 0090 B0EE677A 		fcpysle	s14, s15
 1632              	.LVL108:
 1633              		.loc 2 424 0
 1634 0094 04AD     		add	r5, sp, #16
 1635              		.loc 2 423 0
 1636 0096 8DED004A 		fsts	s8, [sp]
 1637 009a CDED024A 		fsts	s9, [sp, #8]
 1638 009e 8DED017A 		fsts	s14, [sp, #4]
 1639 00a2 8DED035A 		fsts	s10, [sp, #12]
 1640              		.loc 2 424 0
 1641 00a6 05EB8005 		add	r5, r5, r0, lsl #2
 1642 00aa 15ED047A 		flds	s14, [r5, #-16]
 1643              	.LVL109:
 1644              		.loc 2 427 0
 1645 00ae 15ED035A 		flds	s10, [r5, #-12]
 1646              	.LVL110:
 1647 00b2 35EE475A 		fsubs	s10, s10, s14
 1648              	.LBE3822:
 1649              	.LBE3824:
 1650              		.loc 1 176 0
 1651 00b6 31EE211A 		fadds	s2, s2, s3
 1652              	.LVL111:
 1653              	.LBB3825:
ARM GAS  /var/folders/28/j9jfyj_n4wz3qtvnym210h2c0000gn/T//cckC861L.s 			page 30


 1654              	.LBB3823:
 1655              		.loc 2 427 0
 1656 00ba A6EE857A 		vfma.f32	s14, s13, s10
 1657              	.LVL112:
 1658              	.LBE3823:
 1659              	.LBE3825:
 1660              	.LBE3815:
 1661              	.LBB3826:
 1662              	.LBB3827:
 1663              	.LBB3828:
 1664              		.loc 2 424 0
 1665 00be 04AD     		add	r5, sp, #16
 1666              	.LVL113:
 1667              	.LBE3828:
 1668              	.LBE3827:
 1669              	.LBE3826:
 1670              	.LBB3843:
 1671              	.LBB3844:
 1672              	.LBB3845:
 1673              		.loc 2 425 0
 1674 00c0 0DF1100E 		add	lr, sp, #16
 1675              	.LBE3845:
 1676              	.LBE3844:
 1677              	.LBE3843:
 1678              	.LBB3860:
 1679              	.LBB3838:
 1680              	.LBB3833:
 1681              		.loc 2 413 0
 1682 00c4 21EE255A 		fmuls	s10, s2, s11
 1683              	.LBE3833:
 1684              	.LBE3838:
 1685              	.LBE3860:
 1686              	.LBB3861:
 1687              		.loc 1 175 0
 1688 00c8 77EEC77A 		fsubs	s15, s15, s14
 1689              	.LVL114:
 1690              	.LBE3861:
 1691              	.LBB3862:
 1692              	.LBB3839:
 1693              	.LBB3834:
 1694              		.loc 2 414 0
 1695 00cc FDEEC56A 		ftosizs	s13, s10
 1696              	.LVL115:
 1697              	.LBE3834:
 1698              	.LBE3839:
 1699              	.LBE3862:
 1700              	.LBB3863:
 1701              		.loc 1 175 0
 1702 00d0 A7EE807A 		vfma.f32	s14, s15, s0
 1703 00d4 0C31     		adds	r1, r1, #12
 1704              	.LVL116:
 1705 00d6 0C32     		adds	r2, r2, #12
 1706              	.LVL117:
 1707              	.LBE3863:
 1708              	.LBB3864:
 1709              	.LBB3840:
 1710              	.LBB3835:
ARM GAS  /var/folders/28/j9jfyj_n4wz3qtvnym210h2c0000gn/T//cckC861L.s 			page 31


 1711              		.loc 2 414 0
 1712 00d8 16EE900A 		fmrs	r0, s13	@ int
 1713              	.LVL118:
 1714              	.LBE3835:
 1715              	.LBE3840:
 1716              	.LBE3864:
 1717              	.LBB3865:
 1718              		.loc 1 175 0
 1719 00dc 03ED037A 		fsts	s14, [r3, #-12]
 1720              	.LVL119:
 1721              	.LBE3865:
 1722              	.LBB3866:
 1723              		.loc 1 181 0
 1724 00e0 51ED057A 		flds	s15, [r1, #-20]
 1725              		.loc 1 182 0
 1726 00e4 12ED057A 		flds	s14, [r2, #-20]
 1727              	.LBB3841:
 1728              	.LBB3836:
 1729              	.LBB3829:
 1730              	.LBB3830:
 1731              		.loc 3 261 0
 1732 00e8 F0EEE74A 		fabss	s9, s15
 1733              	.LBE3830:
 1734              	.LBE3829:
 1735              	.LBB3831:
 1736              	.LBB3832:
 1737 00ec B0EEC74A 		fabss	s8, s14
 1738              	.LVL120:
 1739              	.LBE3832:
 1740              	.LBE3831:
 1741              		.loc 2 416 0
 1742 00f0 F4EEC77A 		fcmpes	s15, s14
 1743 00f4 F1EE10FA 		fmstat
 1744              		.loc 2 417 0
 1745 00f8 F4EEC44A 		fcmpes	s9, s8
 1746              		.loc 2 416 0
 1747 00fc 54BF     		ite	pl
 1748 00fe F0EE473A 		fcpyspl	s7, s14
 1749 0102 F0EE673A 		fcpysmi	s7, s15
 1750              		.loc 2 417 0
 1751 0106 F1EE10FA 		fmstat
 1752              		.loc 2 421 0
 1753 010a B4EEC67A 		fcmpes	s14, s12
 1754              		.loc 2 420 0
 1755 010e D6BF     		itet	le
 1756 0110 F1EE444A 		fnegsle	s9, s8
 1757              		.loc 2 417 0
 1758 0114 B0EE674A 		fcpysgt	s8, s15
 1759 0118 B0EE474A 		fcpysle	s8, s14
 1760              		.loc 2 421 0
 1761 011c F1EE10FA 		fmstat
 1762 0120 D8BF     		it	le
 1763 0122 B0EE677A 		fcpysle	s14, s15
 1764              		.loc 2 423 0
 1765 0126 CDED003A 		fsts	s7, [sp]
 1766              	.LVL121:
 1767 012a 8DED024A 		fsts	s8, [sp, #8]
ARM GAS  /var/folders/28/j9jfyj_n4wz3qtvnym210h2c0000gn/T//cckC861L.s 			page 32


 1768 012e 8DED017A 		fsts	s14, [sp, #4]
 1769              	.LVL122:
 1770 0132 CDED034A 		fsts	s9, [sp, #12]
 1771              	.LVL123:
 1772              		.loc 2 424 0
 1773 0136 05EB8005 		add	r5, r5, r0, lsl #2
 1774 013a 15ED047A 		flds	s14, [r5, #-16]
 1775              		.loc 2 427 0
 1776 013e 55ED034A 		flds	s9, [r5, #-12]
 1777              		.loc 2 414 0
 1778 0142 B8EEE63A 		fsitos	s6, s13
 1779              		.loc 2 427 0
 1780 0146 74EEC74A 		fsubs	s9, s9, s14
 1781              		.loc 2 414 0
 1782 014a 35EE435A 		fsubs	s10, s10, s6
 1783              	.LBE3836:
 1784              	.LBE3841:
 1785              	.LBE3866:
 1786              	.LBB3867:
 1787              		.loc 1 177 0
 1788 014e 70EE206A 		fadds	s13, s0, s1
 1789              	.LVL124:
 1790              	.LBE3867:
 1791              	.LBB3868:
 1792              	.LBB3842:
 1793              	.LBB3837:
 1794              		.loc 2 427 0
 1795 0152 A5EE247A 		vfma.f32	s14, s10, s9
 1796              	.LVL125:
 1797              	.LBE3837:
 1798              	.LBE3842:
 1799              	.LBE3868:
 1800              	.LBB3869:
 1801              	.LBB3855:
 1802              	.LBB3850:
 1803              		.loc 2 424 0
 1804 0156 04AD     		add	r5, sp, #16
 1805              	.LVL126:
 1806 0158 0C33     		adds	r3, r3, #12
 1807              	.LBE3850:
 1808              	.LBE3855:
 1809              	.LBE3869:
 1810              	.LBB3870:
 1811              		.loc 1 186 0
 1812 015a 31EE211A 		fadds	s2, s2, s3
 1813              	.LVL127:
 1814              		.loc 1 185 0
 1815 015e 77EEC77A 		fsubs	s15, s15, s14
 1816              	.LVL128:
 1817              	.LBE3870:
 1818              	.LBB3871:
 1819              	.LBB3856:
 1820              	.LBB3851:
 1821              		.loc 2 413 0
 1822 0162 21EE255A 		fmuls	s10, s2, s11
 1823              	.LVL129:
 1824              	.LBE3851:
ARM GAS  /var/folders/28/j9jfyj_n4wz3qtvnym210h2c0000gn/T//cckC861L.s 			page 33


 1825              	.LBE3856:
 1826              	.LBE3871:
 1827              	.LBB3872:
 1828              		.loc 1 185 0
 1829 0166 A7EEA67A 		vfma.f32	s14, s15, s13
 1830              	.LBE3872:
 1831              	.LBB3873:
 1832              	.LBB3857:
 1833              	.LBB3852:
 1834              		.loc 2 414 0
 1835 016a FDEEC54A 		ftosizs	s9, s10
 1836              	.LBE3852:
 1837              	.LBE3857:
 1838              	.LBE3873:
 1839              	.LBB3874:
 1840              		.loc 1 185 0
 1841 016e 03ED057A 		fsts	s14, [r3, #-20]
 1842              	.LVL130:
 1843              	.LBE3874:
 1844              	.LBB3875:
 1845              		.loc 1 191 0
 1846 0172 51ED047A 		flds	s15, [r1, #-16]
 1847              		.loc 1 192 0
 1848 0176 12ED047A 		flds	s14, [r2, #-16]
 1849              	.LBB3858:
 1850              	.LBB3853:
 1851              		.loc 2 414 0
 1852 017a 14EE900A 		fmrs	r0, s9	@ int
 1853              	.LVL131:
 1854              	.LBB3846:
 1855              	.LBB3847:
 1856              		.loc 3 261 0
 1857 017e B0EEC74A 		fabss	s8, s14
 1858              	.LBE3847:
 1859              	.LBE3846:
 1860              		.loc 2 416 0
 1861 0182 F4EEC77A 		fcmpes	s15, s14
 1862              		.loc 2 414 0
 1863 0186 B8EEE43A 		fsitos	s6, s9
 1864              	.LBB3848:
 1865              	.LBB3849:
 1866              		.loc 3 261 0
 1867 018a F0EEE74A 		fabss	s9, s15
 1868              	.LBE3849:
 1869              	.LBE3848:
 1870              		.loc 2 416 0
 1871 018e F1EE10FA 		fmstat
 1872              		.loc 2 417 0
 1873 0192 F4EEC44A 		fcmpes	s9, s8
 1874              		.loc 2 416 0
 1875 0196 54BF     		ite	pl
 1876 0198 F0EE473A 		fcpyspl	s7, s14
 1877 019c F0EE673A 		fcpysmi	s7, s15
 1878              	.LVL132:
 1879              		.loc 2 417 0
 1880 01a0 F1EE10FA 		fmstat
 1881              		.loc 2 421 0
ARM GAS  /var/folders/28/j9jfyj_n4wz3qtvnym210h2c0000gn/T//cckC861L.s 			page 34


 1882 01a4 B4EEC67A 		fcmpes	s14, s12
 1883              		.loc 2 420 0
 1884 01a8 D6BF     		itet	le
 1885 01aa F1EE444A 		fnegsle	s9, s8
 1886              		.loc 2 417 0
 1887 01ae B0EE674A 		fcpysgt	s8, s15
 1888 01b2 B0EE474A 		fcpysle	s8, s14
 1889              		.loc 2 421 0
 1890 01b6 F1EE10FA 		fmstat
 1891 01ba D8BF     		it	le
 1892 01bc B0EE677A 		fcpysle	s14, s15
 1893              		.loc 2 423 0
 1894 01c0 8DED017A 		fsts	s14, [sp, #4]
 1895 01c4 CDED003A 		fsts	s7, [sp]
 1896              	.LVL133:
 1897 01c8 8DED024A 		fsts	s8, [sp, #8]
 1898 01cc CDED034A 		fsts	s9, [sp, #12]
 1899              		.loc 2 424 0
 1900 01d0 05EB8005 		add	r5, r5, r0, lsl #2
 1901 01d4 15ED047A 		flds	s14, [r5, #-16]
 1902              		.loc 2 427 0
 1903 01d8 55ED034A 		flds	s9, [r5, #-12]
 1904              		.loc 2 414 0
 1905 01dc 35EE435A 		fsubs	s10, s10, s6
 1906              		.loc 2 427 0
 1907 01e0 74EEC74A 		fsubs	s9, s9, s14
 1908              	.LBE3853:
 1909              	.LBE3858:
 1910              	.LBE3875:
 1911              	.LBB3876:
 1912              		.loc 1 187 0
 1913 01e4 76EEA06A 		fadds	s13, s13, s1
 1914              	.LVL134:
 1915              	.LBE3876:
 1916              	.LBB3877:
 1917              	.LBB3859:
 1918              	.LBB3854:
 1919              		.loc 2 427 0
 1920 01e8 A5EE247A 		vfma.f32	s14, s10, s9
 1921              	.LVL135:
 1922              	.LBE3854:
 1923              	.LBE3859:
 1924              	.LBE3877:
 1925              		.loc 1 169 0
 1926 01ec 033C     		subs	r4, r4, #3
 1927              	.LVL136:
 1928              	.LBB3878:
 1929              		.loc 1 196 0
 1930 01ee 31EE211A 		fadds	s2, s2, s3
 1931              	.LVL137:
 1932              		.loc 1 195 0
 1933 01f2 77EEC77A 		fsubs	s15, s15, s14
 1934              	.LVL138:
 1935              		.loc 1 197 0
 1936 01f6 36EEA00A 		fadds	s0, s13, s1
 1937              	.LVL139:
 1938              		.loc 1 195 0
ARM GAS  /var/folders/28/j9jfyj_n4wz3qtvnym210h2c0000gn/T//cckC861L.s 			page 35


 1939 01fa A7EEA67A 		vfma.f32	s14, s15, s13
 1940 01fe 03ED047A 		fsts	s14, [r3, #-16]
 1941              	.LVL140:
 1942              	.LBE3878:
 1943              		.loc 1 169 0
 1944 0202 7FF41AAF 		bne	.L29
 1945              	.LVL141:
 1946              	.L18:
 1947              	.LBE3879:
 1948              		.loc 1 201 0
 1949 0206 05B0     		add	sp, sp, #20
 1950              		.cfi_def_cfa_offset 12
 1951              		@ sp needed
 1952 0208 30BD     		pop	{r4, r5, pc}
 1953              	.LVL142:
 1954              	.L46:
 1955 020a 00BF     		.align	2
 1956              	.L45:
 1957 020c 14AE3F40 		.word	1077915156
 1958 0210 CDCC4C3D 		.word	1028443341
 1959              		.cfi_endproc
 1960              	.LFE812:
 1961              		.cantunwind
 1962              		.fnend
 1963              		.size	_ZN5warps9Modulator11ProcessXmodILNS_13XmodAlgorithmE5ELS2_6EEEvffffPKfS4_Pfj, .-_ZN5warps9M
 1964              		.section	.text._ZN5warps9Modulator11ProcessXmodILNS_13XmodAlgorithmE4ELS2_5EEEvffffPKfS4_Pfj,"axG"
 1965              		.align	2
 1966              		.p2align 4,,15
 1967              		.weak	_ZN5warps9Modulator11ProcessXmodILNS_13XmodAlgorithmE4ELS2_5EEEvffffPKfS4_Pfj
 1968              		.thumb
 1969              		.thumb_func
 1970              		.type	_ZN5warps9Modulator11ProcessXmodILNS_13XmodAlgorithmE4ELS2_5EEEvffffPKfS4_Pfj, %function
 1971              	_ZN5warps9Modulator11ProcessXmodILNS_13XmodAlgorithmE4ELS2_5EEEvffffPKfS4_Pfj:
 1972              		.fnstart
 1973              	.LFB811:
 1974              		.loc 1 157 0
 1975              		.cfi_startproc
 1976              		@ args = 4, pretend = 0, frame = 16
 1977              		@ frame_needed = 0, uses_anonymous_args = 0
 1978              		@ link register save eliminated.
 1979              	.LVL143:
 1980 0000 70B4     		push	{r4, r5, r6}
 1981              		.cfi_def_cfa_offset 12
 1982              		.cfi_offset 4, -12
 1983              		.cfi_offset 5, -8
 1984              		.cfi_offset 6, -4
 1985 0002 2DED028B 		fstmfdd	sp!, {d8}
 1986              		.cfi_def_cfa_offset 20
 1987              		.cfi_offset 80, -20
 1988              		.cfi_offset 81, -16
 1989 0006 85B0     		sub	sp, sp, #20
 1990              		.cfi_def_cfa_offset 40
 1991              	.LBB3923:
 1992              		.loc 1 168 0
 1993 0008 70EEC00A 		fsubs	s1, s1, s0
 1994              	.LVL144:
 1995              	.LBE3923:
ARM GAS  /var/folders/28/j9jfyj_n4wz3qtvnym210h2c0000gn/T//cckC861L.s 			page 36


 1996              		.loc 1 157 0
 1997 000c 0A9D     		ldr	r5, [sp, #40]
 1998              	.LBB4040:
 1999              		.loc 1 166 0
 2000 000e 07EE905A 		fmsr	s15, r5	@ int
 2001 0012 B8EE677A 		fuitos	s14, s15
 2002 0016 F7EE007A 		fconsts	s15, #112
 2003 001a C7EE877A 		fdivs	s15, s15, s14
 2004              	.LVL145:
 2005              		.loc 1 167 0
 2006 001e 71EEC11A 		fsubs	s3, s3, s2
 2007              	.LVL146:
 2008              		.loc 1 168 0
 2009 0022 60EEA70A 		fmuls	s1, s1, s15
 2010              		.loc 1 167 0
 2011 0026 61EEA71A 		fmuls	s3, s3, s15
 2012              	.LVL147:
 2013              		.loc 1 169 0
 2014 002a 002D     		cmp	r5, #0
 2015 002c 00F05D81 		beq	.L47
 2016              	.LBB3924:
 2017              	.LBB3925:
 2018              	.LBB3926:
 2019              		.loc 2 402 0
 2020 0030 9FEDB06A 		flds	s12, .L74
 2021              		.loc 2 405 0
 2022 0034 9FEDB04A 		flds	s8, .L74+4
 2023              		.loc 2 406 0
 2024 0038 DFEDB04A 		flds	s9, .L74+8
 2025              	.LBE3926:
 2026              	.LBE3925:
 2027              	.LBB3936:
 2028              	.LBB3937:
 2029              		.loc 2 413 0
 2030 003c 9FEDB05A 		flds	s10, .L74+12
 2031              		.loc 2 421 0
 2032 0040 DFEDB05A 		flds	s11, .L74+16
 2033 0044 0C31     		adds	r1, r1, #12
 2034              	.LVL148:
 2035 0046 0C32     		adds	r2, r2, #12
 2036              	.LVL149:
 2037 0048 0C33     		adds	r3, r3, #12
 2038              	.LVL150:
 2039              	.L58:
 2040              	.LBE3937:
 2041              	.LBE3936:
 2042              		.loc 1 171 0
 2043 004a 51ED033A 		flds	s7, [r1, #-12]
 2044              	.LVL151:
 2045              		.loc 1 172 0
 2046 004e 12ED037A 		flds	s14, [r2, #-12]
 2047              	.LVL152:
 2048              	.LBB3948:
 2049              	.LBB3931:
 2050              		.loc 2 402 0
 2051 0052 63EE867A 		fmuls	s15, s7, s12
 2052              		.loc 2 403 0
ARM GAS  /var/folders/28/j9jfyj_n4wz3qtvnym210h2c0000gn/T//cckC861L.s 			page 37


 2053 0056 67EE066A 		fmuls	s13, s14, s12
 2054              		.loc 2 402 0
 2055 005a FDEEE77A 		ftosizs	s15, s15
 2056              	.LBE3931:
 2057              	.LBE3948:
 2058              	.LBB3949:
 2059              	.LBB3942:
 2060              		.loc 2 413 0
 2061 005e 21EE053A 		fmuls	s6, s2, s10
 2062              	.LBE3942:
 2063              	.LBE3949:
 2064              	.LBB3950:
 2065              	.LBB3932:
 2066              		.loc 2 402 0
 2067 0062 17EE904A 		fmrs	r4, s15	@ int
 2068              	.LBB3927:
 2069              	.LBB3928:
 2070              		.loc 4 133 0
 2071              	@ 133 "./mutable_instruments/stmlib/dsp/dsp.h" 1
 2072 0066 04F30F04 		ssat r4, #16, r4
 2073              	@ 0 "" 2
 2074              	.LVL153:
 2075              		.thumb
 2076              	.LBE3928:
 2077              	.LBE3927:
 2078              		.loc 2 403 0
 2079 006a FDEEE67A 		ftosizs	s15, s13
 2080              		.loc 2 405 0
 2081 006e 73EE876A 		fadds	s13, s7, s14
 2082              		.loc 2 403 0
 2083 0072 17EE900A 		fmrs	r0, s15	@ int
 2084              	.LBB3929:
 2085              	.LBB3930:
 2086              		.loc 4 133 0
 2087              	@ 133 "./mutable_instruments/stmlib/dsp/dsp.h" 1
 2088 0076 00F30F00 		ssat r0, #16, r0
 2089              	@ 0 "" 2
 2090              	.LVL154:
 2091              		.thumb
 2092              	.LBE3930:
 2093              	.LBE3929:
 2094              		.loc 2 404 0
 2095 007a 6040     		eors	r0, r0, r4
 2096              	.LVL155:
 2097 007c 00B2     		sxth	r0, r0
 2098 007e 07EE900A 		fmsr	s15, r0	@ int
 2099              		.loc 2 405 0
 2100 0082 66EE846A 		fmuls	s13, s13, s8
 2101              	.LVL156:
 2102              		.loc 2 404 0
 2103 0086 F8EEE77A 		fsitos	s15, s15
 2104              		.loc 2 406 0
 2105 008a F0EE662A 		fcpys	s5, s13
 2106 008e D7EEA42A 		vfnms.f32	s5, s15, s9
 2107              	.LBE3932:
 2108              	.LBE3950:
 2109              	.LBB3951:
ARM GAS  /var/folders/28/j9jfyj_n4wz3qtvnym210h2c0000gn/T//cckC861L.s 			page 38


 2110              	.LBB3943:
 2111              		.loc 2 424 0
 2112 0092 04AC     		add	r4, sp, #16
 2113              	.LVL157:
 2114 0094 0C31     		adds	r1, r1, #12
 2115              	.LVL158:
 2116              		.loc 2 416 0
 2117 0096 F4EEC73A 		fcmpes	s7, s14
 2118              	.LBE3943:
 2119              	.LBE3951:
 2120              	.LBB3952:
 2121              	.LBB3933:
 2122              		.loc 2 406 0
 2123 009a F0EE627A 		fcpys	s15, s5
 2124              	.LBE3933:
 2125              	.LBE3952:
 2126              	.LBB3953:
 2127              	.LBB3944:
 2128              		.loc 2 414 0
 2129 009e FDEEC32A 		ftosizs	s5, s6
 2130              	.LBE3944:
 2131              	.LBE3953:
 2132              	.LBB3954:
 2133              	.LBB3934:
 2134              		.loc 2 406 0
 2135 00a2 E1EE276A 		vfma.f32	s13, s2, s15
 2136              	.LVL159:
 2137 00a6 0C32     		adds	r2, r2, #12
 2138 00a8 0C33     		adds	r3, r3, #12
 2139              	.LBE3934:
 2140              	.LBE3954:
 2141              	.LBB3955:
 2142              	.LBB3945:
 2143              	.LBB3938:
 2144              	.LBB3939:
 2145              		.loc 3 261 0
 2146 00aa B0EEC72A 		fabss	s4, s14
 2147              	.LBE3939:
 2148              	.LBE3938:
 2149              		.loc 2 414 0
 2150 00ae 12EE900A 		fmrs	r0, s5	@ int
 2151 00b2 F8EEE28A 		fsitos	s17, s5
 2152              	.LBB3940:
 2153              	.LBB3941:
 2154              		.loc 3 261 0
 2155 00b6 F0EEE32A 		fabss	s5, s7
 2156              	.LBE3941:
 2157              	.LBE3940:
 2158              		.loc 2 416 0
 2159 00ba F1EE10FA 		fmstat
 2160              		.loc 2 417 0
 2161 00be F4EEC22A 		fcmpes	s5, s4
 2162              		.loc 2 416 0
 2163 00c2 54BF     		ite	pl
 2164 00c4 B0EE478A 		fcpyspl	s16, s14
 2165 00c8 B0EE638A 		fcpysmi	s16, s7
 2166              		.loc 2 417 0
ARM GAS  /var/folders/28/j9jfyj_n4wz3qtvnym210h2c0000gn/T//cckC861L.s 			page 39


 2167 00cc F1EE10FA 		fmstat
 2168              		.loc 2 421 0
 2169 00d0 B4EEE57A 		fcmpes	s14, s11
 2170              	.LBE3945:
 2171              	.LBE3955:
 2172              	.LBB3956:
 2173              	.LBB3935:
 2174              		.loc 2 406 0
 2175 00d4 F0EE667A 		fcpys	s15, s13
 2176              	.LVL160:
 2177              	.LBE3935:
 2178              	.LBE3956:
 2179              	.LBB3957:
 2180              	.LBB3946:
 2181              		.loc 2 420 0
 2182 00d8 DABF     		itte	le
 2183 00da F1EE422A 		fnegsle	s5, s4
 2184              		.loc 2 417 0
 2185 00de F0EE476A 		fcpysle	s13, s14
 2186 00e2 F0EE636A 		fcpysgt	s13, s7
 2187              		.loc 2 421 0
 2188 00e6 F1EE10FA 		fmstat
 2189 00ea D8BF     		it	le
 2190 00ec B0EE637A 		fcpysle	s14, s7
 2191              	.LVL161:
 2192              		.loc 2 423 0
 2193 00f0 8DED008A 		fsts	s16, [sp]
 2194 00f4 CDED032A 		fsts	s5, [sp, #12]
 2195 00f8 8DED017A 		fsts	s14, [sp, #4]
 2196 00fc CDED026A 		fsts	s13, [sp, #8]
 2197              		.loc 2 424 0
 2198 0100 04EB8004 		add	r4, r4, r0, lsl #2
 2199 0104 14ED047A 		flds	s14, [r4, #-16]
 2200              		.loc 2 427 0
 2201 0108 54ED036A 		flds	s13, [r4, #-12]
 2202              		.loc 2 414 0
 2203 010c 33EE683A 		fsubs	s6, s6, s17
 2204              	.LVL162:
 2205              		.loc 2 427 0
 2206 0110 76EEC76A 		fsubs	s13, s13, s14
 2207              	.LBE3946:
 2208              	.LBE3957:
 2209              		.loc 1 176 0
 2210 0114 31EE211A 		fadds	s2, s2, s3
 2211              	.LVL163:
 2212              	.LBB3958:
 2213              	.LBB3947:
 2214              		.loc 2 427 0
 2215 0118 A3EE267A 		vfma.f32	s14, s6, s13
 2216              	.LVL164:
 2217              	.LBE3947:
 2218              	.LBE3958:
 2219              	.LBE3924:
 2220              	.LBB3959:
 2221              	.LBB3960:
 2222              	.LBB3961:
 2223              		.loc 2 413 0
ARM GAS  /var/folders/28/j9jfyj_n4wz3qtvnym210h2c0000gn/T//cckC861L.s 			page 40


 2224 011c 21EE053A 		fmuls	s6, s2, s10
 2225              	.LVL165:
 2226              	.LBE3961:
 2227              	.LBE3960:
 2228              	.LBE3959:
 2229              	.LBB3992:
 2230              		.loc 1 175 0
 2231 0120 37EE677A 		fsubs	s14, s14, s15
 2232              	.LBE3992:
 2233              	.LBB3993:
 2234              	.LBB3973:
 2235              	.LBB3966:
 2236              		.loc 2 414 0
 2237 0124 FDEEC36A 		ftosizs	s13, s6
 2238              	.LBE3966:
 2239              	.LBE3973:
 2240              	.LBE3993:
 2241              	.LBB3994:
 2242              		.loc 1 175 0
 2243 0128 E7EE007A 		vfma.f32	s15, s14, s0
 2244              	.LBE3994:
 2245              	.LBB3995:
 2246              	.LBB3974:
 2247              	.LBB3967:
 2248              		.loc 2 414 0
 2249 012c 16EE906A 		fmrs	r6, s13	@ int
 2250              	.LBE3967:
 2251              	.LBE3974:
 2252              	.LBE3995:
 2253              	.LBB3996:
 2254              		.loc 1 175 0
 2255 0130 43ED067A 		fsts	s15, [r3, #-24]
 2256              	.LVL166:
 2257              	.LBE3996:
 2258              	.LBB3997:
 2259              		.loc 1 181 0
 2260 0134 51ED053A 		flds	s7, [r1, #-20]
 2261              	.LVL167:
 2262              		.loc 1 182 0
 2263 0138 12ED057A 		flds	s14, [r2, #-20]
 2264              	.LBB3975:
 2265              	.LBB3976:
 2266              		.loc 2 402 0
 2267 013c 63EE867A 		fmuls	s15, s7, s12
 2268              	.LBE3976:
 2269              	.LBE3975:
 2270              	.LBB3984:
 2271              	.LBB3968:
 2272              		.loc 2 414 0
 2273 0140 F8EEE68A 		fsitos	s17, s13
 2274              	.LBE3968:
 2275              	.LBE3984:
 2276              	.LBB3985:
 2277              	.LBB3981:
 2278              		.loc 2 402 0
 2279 0144 FDEEE77A 		ftosizs	s15, s15
 2280              		.loc 2 403 0
ARM GAS  /var/folders/28/j9jfyj_n4wz3qtvnym210h2c0000gn/T//cckC861L.s 			page 41


 2281 0148 67EE066A 		fmuls	s13, s14, s12
 2282              		.loc 2 402 0
 2283 014c 17EE904A 		fmrs	r4, s15	@ int
 2284              	.LVL168:
 2285              	.LBB3977:
 2286              	.LBB3978:
 2287              		.loc 4 133 0
 2288              	@ 133 "./mutable_instruments/stmlib/dsp/dsp.h" 1
 2289 0150 04F30F04 		ssat r4, #16, r4
 2290              	@ 0 "" 2
 2291              		.thumb
 2292              	.LBE3978:
 2293              	.LBE3977:
 2294              		.loc 2 403 0
 2295 0154 FDEEE67A 		ftosizs	s15, s13
 2296              		.loc 2 405 0
 2297 0158 73EE876A 		fadds	s13, s7, s14
 2298              		.loc 2 403 0
 2299 015c 17EE900A 		fmrs	r0, s15	@ int
 2300              	.LVL169:
 2301              	.LBB3979:
 2302              	.LBB3980:
 2303              		.loc 4 133 0
 2304              	@ 133 "./mutable_instruments/stmlib/dsp/dsp.h" 1
 2305 0160 00F30F00 		ssat r0, #16, r0
 2306              	@ 0 "" 2
 2307              		.thumb
 2308              	.LBE3980:
 2309              	.LBE3979:
 2310              		.loc 2 404 0
 2311 0164 6040     		eors	r0, r0, r4
 2312 0166 00B2     		sxth	r0, r0
 2313 0168 07EE900A 		fmsr	s15, r0	@ int
 2314              		.loc 2 405 0
 2315 016c 66EE846A 		fmuls	s13, s13, s8
 2316              		.loc 2 404 0
 2317 0170 F8EEE77A 		fsitos	s15, s15
 2318              		.loc 2 406 0
 2319 0174 F0EE662A 		fcpys	s5, s13
 2320              	.LVL170:
 2321 0178 D7EEA42A 		vfnms.f32	s5, s15, s9
 2322              	.LBE3981:
 2323              	.LBE3985:
 2324              	.LBB3986:
 2325              	.LBB3969:
 2326              		.loc 2 424 0
 2327 017c 04A8     		add	r0, sp, #16
 2328 017e 00EB8600 		add	r0, r0, r6, lsl #2
 2329              		.loc 2 416 0
 2330 0182 F4EEC73A 		fcmpes	s7, s14
 2331              	.LBE3969:
 2332              	.LBE3986:
 2333              	.LBB3987:
 2334              	.LBB3982:
 2335              		.loc 2 406 0
 2336 0186 F0EE627A 		fcpys	s15, s5
 2337 018a E1EE276A 		vfma.f32	s13, s2, s15
ARM GAS  /var/folders/28/j9jfyj_n4wz3qtvnym210h2c0000gn/T//cckC861L.s 			page 42


 2338              	.LBE3982:
 2339              	.LBE3987:
 2340              	.LBB3988:
 2341              	.LBB3970:
 2342              	.LBB3962:
 2343              	.LBB3963:
 2344              		.loc 3 261 0
 2345 018e F0EEE32A 		fabss	s5, s7
 2346              	.LBE3963:
 2347              	.LBE3962:
 2348              	.LBB3964:
 2349              	.LBB3965:
 2350 0192 B0EEC72A 		fabss	s4, s14
 2351              	.LBE3965:
 2352              	.LBE3964:
 2353              		.loc 2 416 0
 2354 0196 F1EE10FA 		fmstat
 2355              		.loc 2 417 0
 2356 019a F4EEC22A 		fcmpes	s5, s4
 2357              		.loc 2 416 0
 2358 019e 54BF     		ite	pl
 2359 01a0 B0EE478A 		fcpyspl	s16, s14
 2360 01a4 B0EE638A 		fcpysmi	s16, s7
 2361              	.LVL171:
 2362              		.loc 2 417 0
 2363 01a8 F1EE10FA 		fmstat
 2364              		.loc 2 421 0
 2365 01ac B4EEE57A 		fcmpes	s14, s11
 2366              	.LBE3970:
 2367              	.LBE3988:
 2368              	.LBB3989:
 2369              	.LBB3983:
 2370              		.loc 2 406 0
 2371 01b0 F0EE667A 		fcpys	s15, s13
 2372              	.LBE3983:
 2373              	.LBE3989:
 2374              	.LBB3990:
 2375              	.LBB3971:
 2376              		.loc 2 420 0
 2377 01b4 DABF     		itte	le
 2378 01b6 F1EE422A 		fnegsle	s5, s4
 2379              		.loc 2 417 0
 2380 01ba F0EE476A 		fcpysle	s13, s14
 2381 01be F0EE636A 		fcpysgt	s13, s7
 2382              		.loc 2 421 0
 2383 01c2 F1EE10FA 		fmstat
 2384 01c6 D8BF     		it	le
 2385 01c8 B0EE637A 		fcpysle	s14, s7
 2386              		.loc 2 423 0
 2387 01cc 8DED008A 		fsts	s16, [sp]
 2388              	.LVL172:
 2389 01d0 CDED032A 		fsts	s5, [sp, #12]
 2390              	.LVL173:
 2391 01d4 8DED017A 		fsts	s14, [sp, #4]
 2392 01d8 CDED026A 		fsts	s13, [sp, #8]
 2393              		.loc 2 424 0
 2394 01dc 10ED047A 		flds	s14, [r0, #-16]
ARM GAS  /var/folders/28/j9jfyj_n4wz3qtvnym210h2c0000gn/T//cckC861L.s 			page 43


 2395              		.loc 2 427 0
 2396 01e0 50ED036A 		flds	s13, [r0, #-12]
 2397              		.loc 2 414 0
 2398 01e4 33EE683A 		fsubs	s6, s6, s17
 2399              		.loc 2 427 0
 2400 01e8 76EEC76A 		fsubs	s13, s13, s14
 2401              	.LBE3971:
 2402              	.LBE3990:
 2403              	.LBE3997:
 2404              	.LBB3998:
 2405              		.loc 1 177 0
 2406 01ec 30EE200A 		fadds	s0, s0, s1
 2407              	.LVL174:
 2408              	.LBE3998:
 2409              	.LBB3999:
 2410              	.LBB3991:
 2411              	.LBB3972:
 2412              		.loc 2 427 0
 2413 01f0 A3EE267A 		vfma.f32	s14, s6, s13
 2414              	.LVL175:
 2415              	.LBE3972:
 2416              	.LBE3991:
 2417              		.loc 1 186 0
 2418 01f4 31EE211A 		fadds	s2, s2, s3
 2419              	.LVL176:
 2420              		.loc 1 185 0
 2421 01f8 37EE677A 		fsubs	s14, s14, s15
 2422              	.LBE3999:
 2423              	.LBB4000:
 2424              	.LBB4001:
 2425              	.LBB4002:
 2426              		.loc 2 413 0
 2427 01fc 61EE052A 		fmuls	s5, s2, s10
 2428              	.LVL177:
 2429              	.LBE4002:
 2430              	.LBE4001:
 2431              	.LBE4000:
 2432              	.LBB4033:
 2433              		.loc 1 185 0
 2434 0200 E7EE007A 		vfma.f32	s15, s14, s0
 2435              	.LBE4033:
 2436              	.LBB4034:
 2437              	.LBB4014:
 2438              	.LBB4007:
 2439              		.loc 2 414 0
 2440 0204 FDEEE26A 		ftosizs	s13, s5
 2441              	.LBE4007:
 2442              	.LBE4014:
 2443              	.LBE4034:
 2444              	.LBB4035:
 2445              		.loc 1 185 0
 2446 0208 43ED057A 		fsts	s15, [r3, #-20]
 2447              	.LBE4035:
 2448              	.LBB4036:
 2449              		.loc 1 191 0
 2450 020c 51ED043A 		flds	s7, [r1, #-16]
 2451              	.LVL178:
ARM GAS  /var/folders/28/j9jfyj_n4wz3qtvnym210h2c0000gn/T//cckC861L.s 			page 44


 2452              		.loc 1 192 0
 2453 0210 12ED047A 		flds	s14, [r2, #-16]
 2454              	.LBB4015:
 2455              	.LBB4016:
 2456              		.loc 2 402 0
 2457 0214 63EE867A 		fmuls	s15, s7, s12
 2458              	.LBE4016:
 2459              	.LBE4015:
 2460              	.LBB4024:
 2461              	.LBB4008:
 2462              		.loc 2 414 0
 2463 0218 16EE906A 		fmrs	r6, s13	@ int
 2464              	.LVL179:
 2465 021c F8EEE68A 		fsitos	s17, s13
 2466              	.LBE4008:
 2467              	.LBE4024:
 2468              	.LBB4025:
 2469              	.LBB4021:
 2470              		.loc 2 402 0
 2471 0220 FDEEE77A 		ftosizs	s15, s15
 2472              		.loc 2 403 0
 2473 0224 67EE066A 		fmuls	s13, s14, s12
 2474              		.loc 2 402 0
 2475 0228 17EE904A 		fmrs	r4, s15	@ int
 2476              	.LVL180:
 2477              	.LBB4017:
 2478              	.LBB4018:
 2479              		.loc 4 133 0
 2480              	@ 133 "./mutable_instruments/stmlib/dsp/dsp.h" 1
 2481 022c 04F30F04 		ssat r4, #16, r4
 2482              	@ 0 "" 2
 2483              		.thumb
 2484              	.LBE4018:
 2485              	.LBE4017:
 2486              		.loc 2 403 0
 2487 0230 FDEEE67A 		ftosizs	s15, s13
 2488              		.loc 2 405 0
 2489 0234 73EE876A 		fadds	s13, s7, s14
 2490              		.loc 2 403 0
 2491 0238 17EE900A 		fmrs	r0, s15	@ int
 2492              	.LVL181:
 2493              	.LBB4019:
 2494              	.LBB4020:
 2495              		.loc 4 133 0
 2496              	@ 133 "./mutable_instruments/stmlib/dsp/dsp.h" 1
 2497 023c 00F30F00 		ssat r0, #16, r0
 2498              	@ 0 "" 2
 2499              		.thumb
 2500              	.LBE4020:
 2501              	.LBE4019:
 2502              		.loc 2 404 0
 2503 0240 6040     		eors	r0, r0, r4
 2504 0242 00B2     		sxth	r0, r0
 2505 0244 07EE900A 		fmsr	s15, r0	@ int
 2506              		.loc 2 405 0
 2507 0248 66EE846A 		fmuls	s13, s13, s8
 2508              		.loc 2 404 0
ARM GAS  /var/folders/28/j9jfyj_n4wz3qtvnym210h2c0000gn/T//cckC861L.s 			page 45


 2509 024c F8EEE77A 		fsitos	s15, s15
 2510              		.loc 2 406 0
 2511 0250 B0EE663A 		fcpys	s6, s13
 2512              	.LVL182:
 2513 0254 97EEA43A 		vfnms.f32	s6, s15, s9
 2514              	.LBE4021:
 2515              	.LBE4025:
 2516              	.LBB4026:
 2517              	.LBB4009:
 2518              		.loc 2 424 0
 2519 0258 04A8     		add	r0, sp, #16
 2520 025a 00EB8600 		add	r0, r0, r6, lsl #2
 2521              		.loc 2 416 0
 2522 025e F4EEC73A 		fcmpes	s7, s14
 2523              	.LBE4009:
 2524              	.LBE4026:
 2525              	.LBB4027:
 2526              	.LBB4022:
 2527              		.loc 2 406 0
 2528 0262 F0EE437A 		fcpys	s15, s6
 2529 0266 E1EE276A 		vfma.f32	s13, s2, s15
 2530              	.LBE4022:
 2531              	.LBE4027:
 2532              	.LBB4028:
 2533              	.LBB4010:
 2534              	.LBB4003:
 2535              	.LBB4004:
 2536              		.loc 3 261 0
 2537 026a B0EEE32A 		fabss	s4, s7
 2538              	.LBE4004:
 2539              	.LBE4003:
 2540              	.LBB4005:
 2541              	.LBB4006:
 2542 026e B0EEC78A 		fabss	s16, s14
 2543              	.LVL183:
 2544              	.LBE4006:
 2545              	.LBE4005:
 2546              		.loc 2 416 0
 2547 0272 F1EE10FA 		fmstat
 2548              		.loc 2 417 0
 2549 0276 B4EEC82A 		fcmpes	s4, s16
 2550              	.LBE4010:
 2551              	.LBE4028:
 2552              	.LBE4036:
 2553              	.LBB4037:
 2554              		.loc 1 187 0
 2555 027a 30EE203A 		fadds	s6, s0, s1
 2556              	.LVL184:
 2557              	.LBE4037:
 2558              	.LBB4038:
 2559              	.LBB4029:
 2560              	.LBB4011:
 2561              		.loc 2 416 0
 2562 027e 54BF     		ite	pl
 2563 0280 B0EE470A 		fcpyspl	s0, s14
 2564 0284 B0EE630A 		fcpysmi	s0, s7
 2565              		.loc 2 417 0
ARM GAS  /var/folders/28/j9jfyj_n4wz3qtvnym210h2c0000gn/T//cckC861L.s 			page 46


 2566 0288 F1EE10FA 		fmstat
 2567              		.loc 2 421 0
 2568 028c B4EEE57A 		fcmpes	s14, s11
 2569              	.LBE4011:
 2570              	.LBE4029:
 2571              	.LBB4030:
 2572              	.LBB4023:
 2573              		.loc 2 406 0
 2574 0290 F0EE667A 		fcpys	s15, s13
 2575              	.LVL185:
 2576              	.LBE4023:
 2577              	.LBE4030:
 2578              	.LBB4031:
 2579              	.LBB4012:
 2580              		.loc 2 420 0
 2581 0294 DABF     		itte	le
 2582 0296 B1EE482A 		fnegsle	s4, s16
 2583              		.loc 2 417 0
 2584 029a F0EE476A 		fcpysle	s13, s14
 2585 029e F0EE636A 		fcpysgt	s13, s7
 2586              		.loc 2 421 0
 2587 02a2 F1EE10FA 		fmstat
 2588 02a6 D8BF     		it	le
 2589 02a8 B0EE637A 		fcpysle	s14, s7
 2590              	.LVL186:
 2591              		.loc 2 423 0
 2592 02ac 8DED000A 		fsts	s0, [sp]
 2593              	.LVL187:
 2594 02b0 8DED017A 		fsts	s14, [sp, #4]
 2595 02b4 CDED026A 		fsts	s13, [sp, #8]
 2596 02b8 8DED032A 		fsts	s4, [sp, #12]
 2597              	.LVL188:
 2598              		.loc 2 424 0
 2599 02bc 10ED047A 		flds	s14, [r0, #-16]
 2600              		.loc 2 427 0
 2601 02c0 50ED036A 		flds	s13, [r0, #-12]
 2602              		.loc 2 414 0
 2603 02c4 72EEE82A 		fsubs	s5, s5, s17
 2604              	.LVL189:
 2605              		.loc 2 427 0
 2606 02c8 76EEC76A 		fsubs	s13, s13, s14
 2607              	.LBE4012:
 2608              	.LBE4031:
 2609              	.LBE4038:
 2610              		.loc 1 169 0
 2611 02cc 033D     		subs	r5, r5, #3
 2612              	.LVL190:
 2613              	.LBB4039:
 2614              	.LBB4032:
 2615              	.LBB4013:
 2616              		.loc 2 427 0
 2617 02ce A2EEA67A 		vfma.f32	s14, s5, s13
 2618              	.LVL191:
 2619              	.LBE4013:
 2620              	.LBE4032:
 2621              		.loc 1 196 0
 2622 02d2 31EE211A 		fadds	s2, s2, s3
ARM GAS  /var/folders/28/j9jfyj_n4wz3qtvnym210h2c0000gn/T//cckC861L.s 			page 47


 2623              	.LVL192:
 2624              		.loc 1 195 0
 2625 02d6 37EE677A 		fsubs	s14, s14, s15
 2626              		.loc 1 197 0
 2627 02da 33EE200A 		fadds	s0, s6, s1
 2628              	.LVL193:
 2629              		.loc 1 195 0
 2630 02de E7EE037A 		vfma.f32	s15, s14, s6
 2631 02e2 43ED047A 		fsts	s15, [r3, #-16]
 2632              	.LVL194:
 2633              	.LBE4039:
 2634              		.loc 1 169 0
 2635 02e6 7FF4B0AE 		bne	.L58
 2636              	.LVL195:
 2637              	.L47:
 2638              	.LBE4040:
 2639              		.loc 1 201 0
 2640 02ea 05B0     		add	sp, sp, #20
 2641              		.cfi_def_cfa_offset 20
 2642              		@ sp needed
 2643 02ec BDEC028B 		fldmfdd	sp!, {d8}
 2644              		.cfi_restore 80
 2645              		.cfi_restore 81
 2646              		.cfi_def_cfa_offset 12
 2647 02f0 70BC     		pop	{r4, r5, r6}
 2648              		.cfi_restore 6
 2649              		.cfi_restore 5
 2650              		.cfi_restore 4
 2651              		.cfi_def_cfa_offset 0
 2652              	.LVL196:
 2653 02f2 7047     		bx	lr
 2654              	.L75:
 2655              		.align	2
 2656              	.L74:
 2657 02f4 00000047 		.word	1191182336
 2658 02f8 3333333F 		.word	1060320051
 2659 02fc 00000038 		.word	939524096
 2660 0300 14AE3F40 		.word	1077915156
 2661 0304 CDCC4C3D 		.word	1028443341
 2662              		.cfi_endproc
 2663              	.LFE811:
 2664              		.cantunwind
 2665              		.fnend
 2666              		.size	_ZN5warps9Modulator11ProcessXmodILNS_13XmodAlgorithmE4ELS2_5EEEvffffPKfS4_Pfj, .-_ZN5warps9M
 2667              		.section	.text._ZN5warps9Modulator11ProcessXmodILNS_13XmodAlgorithmE1ELS2_2EEEvffffPKfS4_Pfj,"axG"
 2668              		.align	2
 2669              		.p2align 4,,15
 2670              		.weak	_ZN5warps9Modulator11ProcessXmodILNS_13XmodAlgorithmE1ELS2_2EEEvffffPKfS4_Pfj
 2671              		.thumb
 2672              		.thumb_func
 2673              		.type	_ZN5warps9Modulator11ProcessXmodILNS_13XmodAlgorithmE1ELS2_2EEEvffffPKfS4_Pfj, %function
 2674              	_ZN5warps9Modulator11ProcessXmodILNS_13XmodAlgorithmE1ELS2_2EEEvffffPKfS4_Pfj:
 2675              		.fnstart
 2676              	.LFB808:
 2677              		.loc 1 157 0
 2678              		.cfi_startproc
 2679              		@ args = 4, pretend = 0, frame = 0
ARM GAS  /var/folders/28/j9jfyj_n4wz3qtvnym210h2c0000gn/T//cckC861L.s 			page 48


 2680              		@ frame_needed = 0, uses_anonymous_args = 0
 2681              		@ link register save eliminated.
 2682              	.LVL197:
 2683 0000 F0B4     		push	{r4, r5, r6, r7}
 2684              		.cfi_def_cfa_offset 16
 2685              		.cfi_offset 4, -16
 2686              		.cfi_offset 5, -12
 2687              		.cfi_offset 6, -8
 2688              		.cfi_offset 7, -4
 2689 0002 2DED0A8B 		fstmfdd	sp!, {d8, d9, d10, d11, d12}
 2690              		.cfi_def_cfa_offset 56
 2691              		.cfi_offset 80, -56
 2692              		.cfi_offset 81, -52
 2693              		.cfi_offset 82, -48
 2694              		.cfi_offset 83, -44
 2695              		.cfi_offset 84, -40
 2696              		.cfi_offset 85, -36
 2697              		.cfi_offset 86, -32
 2698              		.cfi_offset 87, -28
 2699              		.cfi_offset 88, -24
 2700              		.cfi_offset 89, -20
 2701              		.loc 1 157 0
 2702 0006 0E9C     		ldr	r4, [sp, #56]
 2703              	.LBB4111:
 2704              		.loc 1 166 0
 2705 0008 07EE904A 		fmsr	s15, r4	@ int
 2706 000c F8EE677A 		fuitos	s15, s15
 2707 0010 B7EE006A 		fconsts	s12, #112
 2708 0014 C6EE277A 		fdivs	s15, s12, s15
 2709              	.LVL198:
 2710              		.loc 1 168 0
 2711 0018 70EEC00A 		fsubs	s1, s1, s0
 2712              	.LVL199:
 2713              		.loc 1 167 0
 2714 001c 71EEC11A 		fsubs	s3, s3, s2
 2715              	.LVL200:
 2716              		.loc 1 168 0
 2717 0020 60EEA70A 		fmuls	s1, s1, s15
 2718              		.loc 1 167 0
 2719 0024 61EEA71A 		fmuls	s3, s3, s15
 2720              	.LVL201:
 2721              		.loc 1 169 0
 2722 0028 002C     		cmp	r4, #0
 2723 002a 00F08A81 		beq	.L76
 2724 002e C74D     		ldr	r5, .L94
 2725              	.LBB4112:
 2726              	.LBB4113:
 2727              	.LBB4114:
 2728              		.loc 2 372 0
 2729 0030 9FEDC72A 		flds	s4, .L94+4
 2730              		.loc 2 375 0
 2731 0034 DFEDC72A 		flds	s5, .L94+8
 2732              	.LBB4115:
 2733              	.LBB4116:
 2734              		.loc 4 44 0
 2735 0038 9FEDC73A 		flds	s6, .L94+12
 2736              	.LBE4116:
ARM GAS  /var/folders/28/j9jfyj_n4wz3qtvnym210h2c0000gn/T//cckC861L.s 			page 49


 2737              	.LBE4115:
 2738              	.LBE4114:
 2739              	.LBE4113:
 2740              	.LBB4135:
 2741              	.LBB4136:
 2742              	.LBB4137:
 2743              	.LBB4138:
 2744              		.loc 2 352 0
 2745 003c DFEDC74A 		flds	s9, .L94+16
 2746              		.loc 2 355 0
 2747 0040 9FEDC75A 		flds	s10, .L94+20
 2748 0044 0C31     		adds	r1, r1, #12
 2749              	.LVL202:
 2750 0046 0C32     		adds	r2, r2, #12
 2751              	.LVL203:
 2752 0048 0C33     		adds	r3, r3, #12
 2753              	.LVL204:
 2754 004a 2E1D     		adds	r6, r5, #4
 2755              	.LBE4138:
 2756              	.LBE4137:
 2757              	.LBE4136:
 2758              	.LBE4135:
 2759              	.LBB4182:
 2760              	.LBB4125:
 2761              		.loc 2 374 0
 2762 004c F5EE003A 		fconsts	s7, #80
 2763              	.LBE4125:
 2764              	.LBE4182:
 2765              	.LBB4183:
 2766              	.LBB4175:
 2767              	.LBB4148:
 2768              	.LBB4143:
 2769              		.loc 2 351 0
 2770 0050 FFEE005A 		fconsts	s11, #240
 2771              	.LBE4143:
 2772              	.LBE4148:
 2773              		.loc 2 386 0
 2774 0054 B3EE084A 		fconsts	s8, #56
 2775              	.LVL205:
 2776              	.L84:
 2777              	.LBE4175:
 2778              	.LBE4183:
 2779              		.loc 1 172 0
 2780 0058 12ED03AA 		flds	s20, [r2, #-12]
 2781              		.loc 1 171 0
 2782 005c 51ED039A 		flds	s19, [r1, #-12]
 2783              	.LVL206:
 2784              	.LBB4184:
 2785              	.LBB4176:
 2786              		.loc 2 384 0
 2787 0060 3AEE0A8A 		fadds	s16, s20, s20
 2788              		.loc 2 386 0
 2789 0064 F1EE007A 		fconsts	s15, #16
 2790              		.loc 2 385 0
 2791 0068 79EE888A 		fadds	s17, s19, s16
 2792 006c 39EEC88A 		fsubs	s16, s19, s16
 2793              	.LBB4149:
ARM GAS  /var/folders/28/j9jfyj_n4wz3qtvnym210h2c0000gn/T//cckC861L.s 			page 50


 2794              	.LBB4144:
 2795              	.LBB4139:
 2796              	.LBB4140:
 2797              		.loc 3 261 0
 2798 0070 B0EEE87A 		fabss	s14, s17
 2799              	.LBE4140:
 2800              	.LBE4139:
 2801              		.loc 2 352 0
 2802 0074 37EE647A 		fsubs	s14, s14, s9
 2803              	.LBE4144:
 2804              	.LBE4149:
 2805              	.LBB4150:
 2806              	.LBB4151:
 2807              	.LBB4152:
 2808              	.LBB4153:
 2809              		.loc 3 261 0
 2810 0078 F0EEC86A 		fabss	s13, s16
 2811              	.LBE4153:
 2812              	.LBE4152:
 2813              		.loc 2 352 0
 2814 007c 76EEE46A 		fsubs	s13, s13, s9
 2815              	.LBE4151:
 2816              	.LBE4150:
 2817              	.LBB4159:
 2818              	.LBB4145:
 2819              	.LBB4141:
 2820              	.LBB4142:
 2821              		.loc 3 261 0
 2822 0080 B0EEC79A 		fabss	s18, s14
 2823              	.LBE4142:
 2824              	.LBE4141:
 2825              		.loc 2 353 0
 2826 0084 37EE097A 		fadds	s14, s14, s18
 2827              	.LBE4145:
 2828              	.LBE4159:
 2829              	.LBB4160:
 2830              	.LBB4156:
 2831              	.LBB4154:
 2832              	.LBB4155:
 2833              		.loc 3 261 0
 2834 0088 B0EEE69A 		fabss	s18, s13
 2835              	.LBE4155:
 2836              	.LBE4154:
 2837              		.loc 2 353 0
 2838 008c 76EE896A 		fadds	s13, s13, s18
 2839              	.LBE4156:
 2840              	.LBE4160:
 2841              	.LBB4161:
 2842              	.LBB4146:
 2843              		.loc 2 354 0
 2844 0090 27EE077A 		fmuls	s14, s14, s14
 2845              		.loc 2 351 0
 2846 0094 F5EEC08A 		fcmpezs	s17
 2847 0098 F1EE10FA 		fmstat
 2848              		.loc 2 355 0
 2849 009c 27EE057A 		fmuls	s14, s14, s10
 2850              	.LBE4146:
ARM GAS  /var/folders/28/j9jfyj_n4wz3qtvnym210h2c0000gn/T//cckC861L.s 			page 51


 2851              	.LBE4161:
 2852              	.LBB4162:
 2853              	.LBB4157:
 2854              		.loc 2 354 0
 2855 00a0 66EEA66A 		fmuls	s13, s13, s13
 2856              		.loc 2 351 0
 2857 00a4 B5EEC08A 		fcmpezs	s16
 2858              	.LBE4157:
 2859              	.LBE4162:
 2860              	.LBB4163:
 2861              	.LBB4147:
 2862 00a8 D4BF     		ite	le
 2863 00aa B0EE658A 		fcpysle	s16, s11
 2864 00ae B0EE468A 		fcpysgt	s16, s12
 2865              		.loc 2 355 0
 2866 00b2 27EE087A 		fmuls	s14, s14, s16
 2867              	.LBE4147:
 2868              	.LBE4163:
 2869              	.LBB4164:
 2870              	.LBB4158:
 2871              		.loc 2 351 0
 2872 00b6 F1EE10FA 		fmstat
 2873              		.loc 2 355 0
 2874 00ba 66EE856A 		fmuls	s13, s13, s10
 2875              		.loc 2 351 0
 2876 00be D4BF     		ite	le
 2877 00c0 B0EE658A 		fcpysle	s16, s11
 2878 00c4 B0EE468A 		fcpysgt	s16, s12
 2879              	.LBE4158:
 2880              	.LBE4164:
 2881              		.loc 2 385 0
 2882 00c8 A6EE887A 		vfma.f32	s14, s13, s16
 2883 00cc 0C32     		adds	r2, r2, #12
 2884 00ce 0C31     		adds	r1, r1, #12
 2885              	.LVL207:
 2886              		.loc 2 386 0
 2887 00d0 F0EE676A 		fcpys	s13, s15
 2888 00d4 E1EE046A 		vfma.f32	s13, s2, s8
 2889 00d8 0C33     		adds	r3, r3, #12
 2890              	.LBE4176:
 2891              	.LBE4184:
 2892              	.LBB4185:
 2893              	.LBB4126:
 2894              		.loc 2 372 0
 2895 00da 39EE829A 		fadds	s18, s19, s4
 2896              	.LVL208:
 2897              	.LBE4126:
 2898              	.LBE4185:
 2899              	.LBB4186:
 2900              	.LBB4177:
 2901              		.loc 2 386 0
 2902 00de 27EE267A 		fmuls	s14, s14, s13
 2903              	.LBB4165:
 2904              	.LBB4166:
 2905              		.loc 4 98 0
 2906 00e2 F2EE028A 		fconsts	s17, #34
 2907              	.LBE4166:
ARM GAS  /var/folders/28/j9jfyj_n4wz3qtvnym210h2c0000gn/T//cckC861L.s 			page 52


 2908              	.LBE4165:
 2909              	.LBE4177:
 2910              	.LBE4186:
 2911              	.LBB4187:
 2912              	.LBB4127:
 2913              		.loc 2 374 0
 2914 00e6 69EE8A9A 		fmuls	s19, s19, s20
 2915              	.LVL209:
 2916              		.loc 2 373 0
 2917 00ea 3AEE099A 		fadds	s18, s20, s18
 2918              	.LVL210:
 2919              	.LBE4127:
 2920              	.LBE4187:
 2921              	.LBB4188:
 2922              	.LBB4178:
 2923              	.LBB4171:
 2924              	.LBB4167:
 2925              		.loc 4 98 0
 2926 00ee B3EE0B8A 		fconsts	s16, #59
 2927 00f2 67EE286A 		fmuls	s13, s14, s17
 2928              	.LBE4167:
 2929              	.LBE4171:
 2930              	.LBE4178:
 2931              	.LBE4188:
 2932              	.LBB4189:
 2933              	.LBB4128:
 2934              		.loc 2 374 0
 2935 00f6 A9EEA39A 		vfma.f32	s18, s19, s7
 2936              	.LVL211:
 2937              	.LBE4128:
 2938              	.LBE4189:
 2939              	.LBB4190:
 2940              	.LBB4179:
 2941              	.LBB4172:
 2942              	.LBB4168:
 2943              		.loc 4 98 0
 2944 00fa F0EE489A 		fcpys	s19, s16
 2945 00fe E7EE269A 		vfma.f32	s19, s14, s13
 2946 0102 B0EE48AA 		fcpys	s20, s16
 2947              	.LVL212:
 2948 0106 A7EE07AA 		vfma.f32	s20, s14, s14
 2949 010a F0EE696A 		fcpys	s13, s19
 2950              	.LBE4168:
 2951              	.LBE4172:
 2952              	.LBE4179:
 2953              	.LBE4190:
 2954              	.LBB4191:
 2955              	.LBB4129:
 2956              		.loc 2 375 0
 2957 010e 71EE229A 		fadds	s19, s2, s5
 2958              	.LBE4129:
 2959              	.LBE4191:
 2960              	.LBB4192:
 2961              	.LBB4180:
 2962              	.LBB4173:
 2963              	.LBB4169:
 2964              		.loc 4 98 0
ARM GAS  /var/folders/28/j9jfyj_n4wz3qtvnym210h2c0000gn/T//cckC861L.s 			page 53


 2965 0112 27EE0A7A 		fmuls	s14, s14, s20
 2966              	.LBE4169:
 2967              	.LBE4173:
 2968              	.LBE4180:
 2969              	.LBE4192:
 2970              	.LBB4193:
 2971              	.LBB4130:
 2972              		.loc 2 375 0
 2973 0116 29EE299A 		fmuls	s18, s18, s19
 2974              	.LVL213:
 2975              	.LBE4130:
 2976              	.LBE4193:
 2977              	.LBB4194:
 2978              	.LBB4181:
 2979              	.LBB4174:
 2980              	.LBB4170:
 2981              		.loc 4 98 0
 2982 011a C7EE266A 		fdivs	s13, s14, s13
 2983              	.LBE4170:
 2984              	.LBE4174:
 2985              	.LBE4181:
 2986              	.LBE4194:
 2987              	.LBB4195:
 2988              	.LBB4131:
 2989              	.LBB4121:
 2990              	.LBB4117:
 2991              		.loc 4 44 0
 2992 011e 29EE039A 		fmuls	s18, s18, s6
 2993              	.LVL214:
 2994              	.LBE4117:
 2995              	.LBE4121:
 2996              	.LBE4131:
 2997              	.LBE4195:
 2998              		.loc 1 176 0
 2999 0122 31EE211A 		fadds	s2, s2, s3
 3000              	.LVL215:
 3001              	.LBB4196:
 3002              	.LBB4132:
 3003              	.LBB4122:
 3004              	.LBB4118:
 3005              		.loc 4 45 0
 3006 0126 BDEEC97A 		ftosizs	s14, s18
 3007              	.LVL216:
 3008              	.LBE4118:
 3009              	.LBE4122:
 3010              	.LBE4132:
 3011              	.LBE4196:
 3012              	.LBE4112:
 3013              	.LBB4199:
 3014              	.LBB4200:
 3015              	.LBB4201:
 3016              		.loc 2 386 0
 3017 012a B0EE67AA 		fcpys	s20, s15
 3018              	.LBE4201:
 3019              	.LBE4200:
 3020              	.LBE4199:
 3021              	.LBB4276:
ARM GAS  /var/folders/28/j9jfyj_n4wz3qtvnym210h2c0000gn/T//cckC861L.s 			page 54


 3022              	.LBB4197:
 3023              	.LBB4133:
 3024              	.LBB4123:
 3025              	.LBB4119:
 3026              		.loc 4 46 0
 3027 012e 17EE100A 		fmrs	r0, s14	@ int
 3028 0132 8000     		lsls	r0, r0, #2
 3029 0134 2F18     		adds	r7, r5, r0
 3030              		.loc 4 47 0
 3031 0136 3044     		add	r0, r0, r6
 3032              		.loc 4 48 0
 3033 0138 D0ED00AA 		flds	s21, [r0]
 3034              		.loc 4 45 0
 3035 013c F8EEC79A 		fsitos	s19, s14
 3036              		.loc 4 46 0
 3037 0140 97ED007A 		flds	s14, [r7]
 3038              	.LVL217:
 3039              		.loc 4 45 0
 3040 0144 39EE699A 		fsubs	s18, s18, s19
 3041              	.LVL218:
 3042              		.loc 4 48 0
 3043 0148 7AEEC7AA 		fsubs	s21, s21, s14
 3044              	.LBE4119:
 3045              	.LBE4123:
 3046              	.LBE4133:
 3047              	.LBE4197:
 3048              	.LBE4276:
 3049              	.LBB4277:
 3050              	.LBB4243:
 3051              	.LBB4236:
 3052              		.loc 2 386 0
 3053 014c A1EE04AA 		vfma.f32	s20, s2, s8
 3054              	.LBE4236:
 3055              	.LBE4243:
 3056              	.LBE4277:
 3057              	.LBB4278:
 3058              	.LBB4198:
 3059              	.LBB4134:
 3060              	.LBB4124:
 3061              	.LBB4120:
 3062              		.loc 4 48 0
 3063 0150 A9EE2A7A 		vfma.f32	s14, s18, s21
 3064              	.LVL219:
 3065              	.LBE4120:
 3066              	.LBE4124:
 3067              	.LBE4134:
 3068              	.LBE4198:
 3069              		.loc 1 177 0
 3070 0154 30EE209A 		fadds	s18, s0, s1
 3071              	.LVL220:
 3072              		.loc 1 175 0
 3073 0158 76EEC76A 		fsubs	s13, s13, s14
 3074              	.LBE4278:
 3075              	.LBB4279:
 3076              	.LBB4244:
 3077              	.LBB4245:
 3078              		.loc 2 375 0
ARM GAS  /var/folders/28/j9jfyj_n4wz3qtvnym210h2c0000gn/T//cckC861L.s 			page 55


 3079 015c 71EE229A 		fadds	s19, s2, s5
 3080              	.LBE4245:
 3081              	.LBE4244:
 3082              	.LBE4279:
 3083              	.LBB4280:
 3084              		.loc 1 175 0
 3085 0160 A6EE807A 		vfma.f32	s14, s13, s0
 3086              	.LBE4280:
 3087              	.LBB4281:
 3088              		.loc 1 186 0
 3089 0164 31EE211A 		fadds	s2, s2, s3
 3090              	.LVL221:
 3091              	.LBE4281:
 3092              	.LBB4282:
 3093              		.loc 1 175 0
 3094 0168 03ED067A 		fsts	s14, [r3, #-24]
 3095              	.LVL222:
 3096              	.LBE4282:
 3097              	.LBB4283:
 3098              		.loc 1 182 0
 3099 016c 12ED05BA 		flds	s22, [r2, #-20]
 3100              		.loc 1 181 0
 3101 0170 51ED05AA 		flds	s21, [r1, #-20]
 3102              	.LVL223:
 3103              	.LBB4262:
 3104              	.LBB4237:
 3105              		.loc 2 384 0
 3106 0174 3BEE0BCA 		fadds	s24, s22, s22
 3107              	.LBE4237:
 3108              	.LBE4262:
 3109              	.LBB4263:
 3110              	.LBB4254:
 3111              		.loc 2 372 0
 3112 0178 3AEE820A 		fadds	s0, s21, s4
 3113              	.LVL224:
 3114              	.LBE4254:
 3115              	.LBE4263:
 3116              	.LBB4264:
 3117              	.LBB4238:
 3118              		.loc 2 385 0
 3119 017c 7AEE8CBA 		fadds	s23, s21, s24
 3120 0180 3AEECCCA 		fsubs	s24, s21, s24
 3121              	.LBB4202:
 3122              	.LBB4203:
 3123              	.LBB4204:
 3124              	.LBB4205:
 3125              		.loc 3 261 0
 3126 0184 F0EEEB6A 		fabss	s13, s23
 3127              	.LBE4205:
 3128              	.LBE4204:
 3129              		.loc 2 352 0
 3130 0188 76EEE46A 		fsubs	s13, s13, s9
 3131              	.LBE4203:
 3132              	.LBE4202:
 3133              	.LBB4212:
 3134              	.LBB4213:
 3135              	.LBB4214:
ARM GAS  /var/folders/28/j9jfyj_n4wz3qtvnym210h2c0000gn/T//cckC861L.s 			page 56


 3136              	.LBB4215:
 3137              		.loc 3 261 0
 3138 018c B0EECC7A 		fabss	s14, s24
 3139              	.LBE4215:
 3140              	.LBE4214:
 3141              		.loc 2 352 0
 3142 0190 37EE647A 		fsubs	s14, s14, s9
 3143              	.LBE4213:
 3144              	.LBE4212:
 3145              	.LBB4222:
 3146              	.LBB4208:
 3147              	.LBB4206:
 3148              	.LBB4207:
 3149              		.loc 3 261 0
 3150 0194 F0EEE6CA 		fabss	s25, s13
 3151              	.LBE4207:
 3152              	.LBE4206:
 3153              		.loc 2 353 0
 3154 0198 76EEAC6A 		fadds	s13, s13, s25
 3155              	.LBE4208:
 3156              	.LBE4222:
 3157              	.LBB4223:
 3158              	.LBB4218:
 3159              	.LBB4216:
 3160              	.LBB4217:
 3161              		.loc 3 261 0
 3162 019c F0EEC7CA 		fabss	s25, s14
 3163              	.LBE4217:
 3164              	.LBE4216:
 3165              		.loc 2 353 0
 3166 01a0 37EE2C7A 		fadds	s14, s14, s25
 3167              	.LBE4218:
 3168              	.LBE4223:
 3169              	.LBB4224:
 3170              	.LBB4209:
 3171              		.loc 2 354 0
 3172 01a4 66EEA66A 		fmuls	s13, s13, s13
 3173              		.loc 2 351 0
 3174 01a8 F5EEC0BA 		fcmpezs	s23
 3175 01ac F1EE10FA 		fmstat
 3176              	.LVL225:
 3177              	.LBE4209:
 3178              	.LBE4224:
 3179              	.LBB4225:
 3180              	.LBB4219:
 3181              		.loc 2 354 0
 3182 01b0 67EE07BA 		fmuls	s23, s14, s14
 3183              	.LBE4219:
 3184              	.LBE4225:
 3185              	.LBB4226:
 3186              	.LBB4210:
 3187              		.loc 2 355 0
 3188 01b4 66EE856A 		fmuls	s13, s13, s10
 3189              	.LBE4210:
 3190              	.LBE4226:
 3191              	.LBB4227:
 3192              	.LBB4220:
ARM GAS  /var/folders/28/j9jfyj_n4wz3qtvnym210h2c0000gn/T//cckC861L.s 			page 57


 3193              		.loc 2 351 0
 3194 01b8 B5EEC0CA 		fcmpezs	s24
 3195              	.LBE4220:
 3196              	.LBE4227:
 3197              	.LBB4228:
 3198              	.LBB4211:
 3199 01bc D4BF     		ite	le
 3200 01be B0EE657A 		fcpysle	s14, s11
 3201 01c2 B0EE467A 		fcpysgt	s14, s12
 3202              		.loc 2 355 0
 3203 01c6 26EE877A 		fmuls	s14, s13, s14
 3204              	.LBE4211:
 3205              	.LBE4228:
 3206              	.LBB4229:
 3207              	.LBB4221:
 3208              		.loc 2 351 0
 3209 01ca F1EE10FA 		fmstat
 3210              		.loc 2 355 0
 3211 01ce 6BEE856A 		fmuls	s13, s23, s10
 3212              		.loc 2 351 0
 3213 01d2 D4BF     		ite	le
 3214 01d4 F0EE65BA 		fcpysle	s23, s11
 3215 01d8 F0EE46BA 		fcpysgt	s23, s12
 3216              	.LBE4221:
 3217              	.LBE4229:
 3218              		.loc 2 385 0
 3219 01dc A6EEAB7A 		vfma.f32	s14, s13, s23
 3220              	.LBE4238:
 3221              	.LBE4264:
 3222              	.LBB4265:
 3223              	.LBB4255:
 3224              		.loc 2 374 0
 3225 01e0 6AEE8BAA 		fmuls	s21, s21, s22
 3226              	.LVL226:
 3227              		.loc 2 373 0
 3228 01e4 3BEE000A 		fadds	s0, s22, s0
 3229              	.LVL227:
 3230              	.LBE4255:
 3231              	.LBE4265:
 3232              	.LBB4266:
 3233              	.LBB4239:
 3234              		.loc 2 386 0
 3235 01e8 27EE0A7A 		fmuls	s14, s14, s20
 3236              	.LBE4239:
 3237              	.LBE4266:
 3238              	.LBB4267:
 3239              	.LBB4256:
 3240              		.loc 2 374 0
 3241 01ec AAEEA30A 		vfma.f32	s0, s21, s7
 3242              	.LVL228:
 3243              	.LBE4256:
 3244              	.LBE4267:
 3245              	.LBB4268:
 3246              	.LBB4240:
 3247              	.LBB4230:
 3248              	.LBB4231:
 3249              		.loc 4 98 0
ARM GAS  /var/folders/28/j9jfyj_n4wz3qtvnym210h2c0000gn/T//cckC861L.s 			page 58


 3250 01f0 B0EE48AA 		fcpys	s20, s16
 3251 01f4 67EE286A 		fmuls	s13, s14, s17
 3252 01f8 A7EE07AA 		vfma.f32	s20, s14, s14
 3253 01fc F0EE48AA 		fcpys	s21, s16
 3254 0200 E7EE26AA 		vfma.f32	s21, s14, s13
 3255              	.LBE4231:
 3256              	.LBE4230:
 3257              	.LBE4240:
 3258              	.LBE4268:
 3259              	.LBB4269:
 3260              	.LBB4257:
 3261              		.loc 2 375 0
 3262 0204 20EE290A 		fmuls	s0, s0, s19
 3263              	.LBE4257:
 3264              	.LBE4269:
 3265              	.LBB4270:
 3266              	.LBB4241:
 3267              	.LBB4234:
 3268              	.LBB4232:
 3269              		.loc 4 98 0
 3270 0208 27EE0A7A 		fmuls	s14, s14, s20
 3271              	.LBE4232:
 3272              	.LBE4234:
 3273              	.LBE4241:
 3274              	.LBE4270:
 3275              	.LBB4271:
 3276              	.LBB4258:
 3277              	.LBB4246:
 3278              	.LBB4247:
 3279              		.loc 4 44 0
 3280 020c 20EE030A 		fmuls	s0, s0, s6
 3281              	.LVL229:
 3282              	.LBE4247:
 3283              	.LBE4246:
 3284              	.LBE4258:
 3285              	.LBE4271:
 3286              	.LBB4272:
 3287              	.LBB4242:
 3288              	.LBB4235:
 3289              	.LBB4233:
 3290              		.loc 4 98 0
 3291 0210 87EE2A7A 		fdivs	s14, s14, s21
 3292              	.LBE4233:
 3293              	.LBE4235:
 3294              	.LBE4242:
 3295              	.LBE4272:
 3296              	.LBB4273:
 3297              	.LBB4259:
 3298              	.LBB4251:
 3299              	.LBB4248:
 3300              		.loc 4 45 0
 3301 0214 BDEEC0AA 		ftosizs	s20, s0
 3302              	.LVL230:
 3303              	.LBE4248:
 3304              	.LBE4251:
 3305              	.LBE4259:
 3306              	.LBE4273:
ARM GAS  /var/folders/28/j9jfyj_n4wz3qtvnym210h2c0000gn/T//cckC861L.s 			page 59


 3307              		.loc 1 187 0
 3308 0218 79EE206A 		fadds	s13, s18, s1
 3309              	.LBB4274:
 3310              	.LBB4260:
 3311              	.LBB4252:
 3312              	.LBB4249:
 3313              		.loc 4 46 0
 3314 021c 1AEE100A 		fmrs	r0, s20	@ int
 3315 0220 8000     		lsls	r0, r0, #2
 3316 0222 2F18     		adds	r7, r5, r0
 3317              		.loc 4 47 0
 3318 0224 3044     		add	r0, r0, r6
 3319              		.loc 4 48 0
 3320 0226 90ED00BA 		flds	s22, [r0]
 3321              	.LVL231:
 3322              		.loc 4 45 0
 3323 022a F8EECAAA 		fsitos	s21, s20
 3324              		.loc 4 46 0
 3325 022e 97ED00AA 		flds	s20, [r7]
 3326              	.LVL232:
 3327              		.loc 4 45 0
 3328 0232 30EE6A0A 		fsubs	s0, s0, s21
 3329              	.LVL233:
 3330              		.loc 4 48 0
 3331 0236 7BEE4AAA 		fsubs	s21, s22, s20
 3332              	.LBE4249:
 3333              	.LBE4252:
 3334              	.LBE4260:
 3335              	.LBE4274:
 3336              	.LBE4283:
 3337              	.LBB4284:
 3338              	.LBB4285:
 3339              	.LBB4286:
 3340              		.loc 2 386 0
 3341 023a E1EE047A 		vfma.f32	s15, s2, s8
 3342              	.LBE4286:
 3343              	.LBE4285:
 3344              	.LBE4284:
 3345              	.LBB4361:
 3346              	.LBB4275:
 3347              	.LBB4261:
 3348              	.LBB4253:
 3349              	.LBB4250:
 3350              		.loc 4 48 0
 3351 023e A0EE2AAA 		vfma.f32	s20, s0, s21
 3352              	.LVL234:
 3353              	.LBE4250:
 3354              	.LBE4253:
 3355              	.LBE4261:
 3356              	.LBE4275:
 3357              	.LBE4361:
 3358              	.LBB4362:
 3359              	.LBB4330:
 3360              	.LBB4331:
 3361              		.loc 2 375 0
 3362 0242 71EE229A 		fadds	s19, s2, s5
 3363              	.LVL235:
ARM GAS  /var/folders/28/j9jfyj_n4wz3qtvnym210h2c0000gn/T//cckC861L.s 			page 60


 3364              	.LBE4331:
 3365              	.LBE4330:
 3366              	.LBE4362:
 3367              	.LBB4363:
 3368              		.loc 1 185 0
 3369 0246 37EE4A7A 		fsubs	s14, s14, s20
 3370              	.LBE4363:
 3371              	.LBB4364:
 3372              		.loc 1 196 0
 3373 024a 31EE211A 		fadds	s2, s2, s3
 3374              	.LVL236:
 3375              	.LBE4364:
 3376              	.LBB4365:
 3377              		.loc 1 185 0
 3378 024e A7EE09AA 		vfma.f32	s20, s14, s18
 3379              	.LBE4365:
 3380              	.LBB4366:
 3381              		.loc 1 197 0
 3382 0252 36EEA00A 		fadds	s0, s13, s1
 3383              	.LVL237:
 3384              	.LBE4366:
 3385              	.LBB4367:
 3386              		.loc 1 185 0
 3387 0256 03ED05AA 		fsts	s20, [r3, #-20]
 3388              	.LVL238:
 3389              	.LBE4367:
 3390              	.LBB4368:
 3391              		.loc 1 192 0
 3392 025a 12ED04BA 		flds	s22, [r2, #-16]
 3393              		.loc 1 191 0
 3394 025e 51ED04AA 		flds	s21, [r1, #-16]
 3395              	.LVL239:
 3396              	.LBB4346:
 3397              	.LBB4323:
 3398              		.loc 2 384 0
 3399 0262 7BEE0BBA 		fadds	s23, s22, s22
 3400              	.LVL240:
 3401              	.LBE4323:
 3402              	.LBE4346:
 3403              	.LBB4347:
 3404              	.LBB4338:
 3405              		.loc 2 372 0
 3406 0266 3AEE829A 		fadds	s18, s21, s4
 3407              	.LVL241:
 3408              	.LBE4338:
 3409              	.LBE4347:
 3410              	.LBB4348:
 3411              	.LBB4324:
 3412              		.loc 2 385 0
 3413 026a 3AEEABCA 		fadds	s24, s21, s23
 3414              	.LVL242:
 3415 026e 7AEEEBBA 		fsubs	s23, s21, s23
 3416              	.LBB4287:
 3417              	.LBB4288:
 3418              	.LBB4289:
 3419              	.LBB4290:
 3420              		.loc 3 261 0
ARM GAS  /var/folders/28/j9jfyj_n4wz3qtvnym210h2c0000gn/T//cckC861L.s 			page 61


 3421 0272 B0EECC7A 		fabss	s14, s24
 3422              	.LBE4290:
 3423              	.LBE4289:
 3424              		.loc 2 352 0
 3425 0276 37EE647A 		fsubs	s14, s14, s9
 3426              	.LBE4288:
 3427              	.LBE4287:
 3428              	.LBB4297:
 3429              	.LBB4298:
 3430              	.LBB4299:
 3431              	.LBB4300:
 3432              		.loc 3 261 0
 3433 027a B0EEEBAA 		fabss	s20, s23
 3434              	.LBE4300:
 3435              	.LBE4299:
 3436              		.loc 2 352 0
 3437 027e 3AEE64AA 		fsubs	s20, s20, s9
 3438              	.LBE4298:
 3439              	.LBE4297:
 3440              	.LBB4307:
 3441              	.LBB4293:
 3442              	.LBB4291:
 3443              	.LBB4292:
 3444              		.loc 3 261 0
 3445 0282 F0EEC7CA 		fabss	s25, s14
 3446              	.LBE4292:
 3447              	.LBE4291:
 3448              		.loc 2 353 0
 3449 0286 37EE2C7A 		fadds	s14, s14, s25
 3450              	.LBE4293:
 3451              	.LBE4307:
 3452              	.LBB4308:
 3453              	.LBB4303:
 3454              	.LBB4301:
 3455              	.LBB4302:
 3456              		.loc 3 261 0
 3457 028a F0EECACA 		fabss	s25, s20
 3458              	.LBE4302:
 3459              	.LBE4301:
 3460              	.LBE4303:
 3461              	.LBE4308:
 3462              	.LBB4309:
 3463              	.LBB4294:
 3464              		.loc 2 354 0
 3465 028e 27EE077A 		fmuls	s14, s14, s14
 3466              	.LBE4294:
 3467              	.LBE4309:
 3468              	.LBB4310:
 3469              	.LBB4304:
 3470              		.loc 2 353 0
 3471 0292 3AEE2CAA 		fadds	s20, s20, s25
 3472              	.LBE4304:
 3473              	.LBE4310:
 3474              	.LBB4311:
 3475              	.LBB4295:
 3476              		.loc 2 351 0
 3477 0296 B5EEC0CA 		fcmpezs	s24
ARM GAS  /var/folders/28/j9jfyj_n4wz3qtvnym210h2c0000gn/T//cckC861L.s 			page 62


 3478 029a F1EE10FA 		fmstat
 3479              	.LVL243:
 3480              		.loc 2 355 0
 3481 029e 27EE057A 		fmuls	s14, s14, s10
 3482              	.LBE4295:
 3483              	.LBE4311:
 3484              	.LBB4312:
 3485              	.LBB4305:
 3486              		.loc 2 354 0
 3487 02a2 2AEE0AAA 		fmuls	s20, s20, s20
 3488              		.loc 2 351 0
 3489 02a6 F5EEC0BA 		fcmpezs	s23
 3490              	.LBE4305:
 3491              	.LBE4312:
 3492              	.LBB4313:
 3493              	.LBB4296:
 3494 02aa D4BF     		ite	le
 3495 02ac F0EE65BA 		fcpysle	s23, s11
 3496 02b0 F0EE46BA 		fcpysgt	s23, s12
 3497              		.loc 2 355 0
 3498 02b4 27EE2B7A 		fmuls	s14, s14, s23
 3499              	.LBE4296:
 3500              	.LBE4313:
 3501              	.LBB4314:
 3502              	.LBB4306:
 3503              		.loc 2 351 0
 3504 02b8 F1EE10FA 		fmstat
 3505              		.loc 2 355 0
 3506 02bc 2AEE05AA 		fmuls	s20, s20, s10
 3507              		.loc 2 351 0
 3508 02c0 D4BF     		ite	le
 3509 02c2 F0EE65BA 		fcpysle	s23, s11
 3510 02c6 F0EE46BA 		fcpysgt	s23, s12
 3511              	.LBE4306:
 3512              	.LBE4314:
 3513              		.loc 2 385 0
 3514 02ca AAEE2B7A 		vfma.f32	s14, s20, s23
 3515              	.LBE4324:
 3516              	.LBE4348:
 3517              	.LBE4368:
 3518              		.loc 1 169 0
 3519 02ce 033C     		subs	r4, r4, #3
 3520              	.LVL244:
 3521              	.LBB4369:
 3522              	.LBB4349:
 3523              	.LBB4339:
 3524              		.loc 2 373 0
 3525 02d0 3BEE099A 		fadds	s18, s22, s18
 3526              	.LVL245:
 3527              		.loc 2 374 0
 3528 02d4 6AEE8BAA 		fmuls	s21, s21, s22
 3529              	.LVL246:
 3530              	.LBE4339:
 3531              	.LBE4349:
 3532              	.LBB4350:
 3533              	.LBB4325:
 3534              		.loc 2 386 0
ARM GAS  /var/folders/28/j9jfyj_n4wz3qtvnym210h2c0000gn/T//cckC861L.s 			page 63


 3535 02d8 67EE277A 		fmuls	s15, s14, s15
 3536              	.LBE4325:
 3537              	.LBE4350:
 3538              	.LBB4351:
 3539              	.LBB4340:
 3540              		.loc 2 374 0
 3541 02dc B0EE497A 		fcpys	s14, s18
 3542              	.LBE4340:
 3543              	.LBE4351:
 3544              	.LBB4352:
 3545              	.LBB4326:
 3546              	.LBB4315:
 3547              	.LBB4316:
 3548              		.loc 4 98 0
 3549 02e0 B0EE48AA 		fcpys	s20, s16
 3550              	.LBE4316:
 3551              	.LBE4315:
 3552              	.LBE4326:
 3553              	.LBE4352:
 3554              	.LBB4353:
 3555              	.LBB4341:
 3556              		.loc 2 374 0
 3557 02e4 AAEEA37A 		vfma.f32	s14, s21, s7
 3558              	.LVL247:
 3559              	.LBE4341:
 3560              	.LBE4353:
 3561              	.LBB4354:
 3562              	.LBB4327:
 3563              	.LBB4320:
 3564              	.LBB4317:
 3565              		.loc 4 98 0
 3566 02e8 67EEA88A 		fmuls	s17, s15, s17
 3567 02ec A7EEA7AA 		vfma.f32	s20, s15, s15
 3568 02f0 A7EEA88A 		vfma.f32	s16, s15, s17
 3569              	.LBE4317:
 3570              	.LBE4320:
 3571              	.LBE4327:
 3572              	.LBE4354:
 3573              	.LBB4355:
 3574              	.LBB4342:
 3575              		.loc 2 375 0
 3576 02f4 27EE297A 		fmuls	s14, s14, s19
 3577              	.LBE4342:
 3578              	.LBE4355:
 3579              	.LBB4356:
 3580              	.LBB4328:
 3581              	.LBB4321:
 3582              	.LBB4318:
 3583              		.loc 4 98 0
 3584 02f8 67EE8A7A 		fmuls	s15, s15, s20
 3585              	.LBE4318:
 3586              	.LBE4321:
 3587              	.LBE4328:
 3588              	.LBE4356:
 3589              	.LBB4357:
 3590              	.LBB4343:
 3591              	.LBB4332:
ARM GAS  /var/folders/28/j9jfyj_n4wz3qtvnym210h2c0000gn/T//cckC861L.s 			page 64


 3592              	.LBB4333:
 3593              		.loc 4 44 0
 3594 02fc 27EE037A 		fmuls	s14, s14, s6
 3595              	.LVL248:
 3596              	.LBE4333:
 3597              	.LBE4332:
 3598              	.LBE4343:
 3599              	.LBE4357:
 3600              	.LBB4358:
 3601              	.LBB4329:
 3602              	.LBB4322:
 3603              	.LBB4319:
 3604              		.loc 4 98 0
 3605 0300 C7EE887A 		fdivs	s15, s15, s16
 3606              	.LBE4319:
 3607              	.LBE4322:
 3608              	.LBE4329:
 3609              	.LBE4358:
 3610              	.LBB4359:
 3611              	.LBB4344:
 3612              	.LBB4336:
 3613              	.LBB4334:
 3614              		.loc 4 45 0
 3615 0304 BDEEC78A 		ftosizs	s16, s14
 3616              	.LVL249:
 3617              		.loc 4 46 0
 3618 0308 18EE100A 		fmrs	r0, s16	@ int
 3619 030c 4FEA8000 		lsl	r0, r0, #2
 3620 0310 05EB0007 		add	r7, r5, r0
 3621              		.loc 4 47 0
 3622 0314 3044     		add	r0, r0, r6
 3623              		.loc 4 45 0
 3624 0316 F8EEC88A 		fsitos	s17, s16
 3625              		.loc 4 48 0
 3626 031a 90ED009A 		flds	s18, [r0]
 3627              		.loc 4 46 0
 3628 031e 97ED008A 		flds	s16, [r7]
 3629              	.LVL250:
 3630              		.loc 4 45 0
 3631 0322 37EE687A 		fsubs	s14, s14, s17
 3632              	.LVL251:
 3633              		.loc 4 48 0
 3634 0326 79EE488A 		fsubs	s17, s18, s16
 3635 032a A7EE288A 		vfma.f32	s16, s14, s17
 3636              	.LVL252:
 3637              	.LBE4334:
 3638              	.LBE4336:
 3639              	.LBE4344:
 3640              	.LBE4359:
 3641              		.loc 1 195 0
 3642 032e 77EEC87A 		fsubs	s15, s15, s16
 3643              	.LBB4360:
 3644              	.LBB4345:
 3645              	.LBB4337:
 3646              	.LBB4335:
 3647              		.loc 4 48 0
 3648 0332 B0EE487A 		fcpys	s14, s16
ARM GAS  /var/folders/28/j9jfyj_n4wz3qtvnym210h2c0000gn/T//cckC861L.s 			page 65


 3649              	.LVL253:
 3650              	.LBE4335:
 3651              	.LBE4337:
 3652              	.LBE4345:
 3653              	.LBE4360:
 3654              		.loc 1 195 0
 3655 0336 A7EEA67A 		vfma.f32	s14, s15, s13
 3656 033a 03ED047A 		fsts	s14, [r3, #-16]
 3657              	.LVL254:
 3658              	.LBE4369:
 3659              		.loc 1 169 0
 3660 033e 7FF48BAE 		bne	.L84
 3661              	.LVL255:
 3662              	.L76:
 3663              	.LBE4111:
 3664              		.loc 1 201 0
 3665 0342 BDEC0A8B 		fldmfdd	sp!, {d8-d12}
 3666              		.cfi_restore 88
 3667              		.cfi_restore 89
 3668              		.cfi_restore 86
 3669              		.cfi_restore 87
 3670              		.cfi_restore 84
 3671              		.cfi_restore 85
 3672              		.cfi_restore 82
 3673              		.cfi_restore 83
 3674              		.cfi_restore 80
 3675              		.cfi_restore 81
 3676              		.cfi_def_cfa_offset 16
 3677 0346 F0BC     		pop	{r4, r5, r6, r7}
 3678              		.cfi_restore 7
 3679              		.cfi_restore 6
 3680              		.cfi_restore 5
 3681              		.cfi_restore 4
 3682              		.cfi_def_cfa_offset 0
 3683              	.LVL256:
 3684 0348 7047     		bx	lr
 3685              	.L95:
 3686 034a 00BF     		.align	2
 3687              	.L94:
 3688 034c 00200000 		.word	_ZN5warps16lut_bipolar_foldE+8192
 3689 0350 00000000 		.word	0
 3690 0354 0AD7A33C 		.word	1017370378
 3691 0358 FB175F44 		.word	1147082747
 3692 035c 83C02A3F 		.word	1059766403
 3693 0360 7524313D 		.word	1026630773
 3694              		.cfi_endproc
 3695              	.LFE808:
 3696              		.cantunwind
 3697              		.fnend
 3698              		.size	_ZN5warps9Modulator11ProcessXmodILNS_13XmodAlgorithmE1ELS2_2EEEvffffPKfS4_Pfj, .-_ZN5warps9M
 3699              		.section	.text._ZN5warps9Modulator11ProcessXmodILNS_13XmodAlgorithmE2ELS2_3EEEvffffPKfS4_Pfj,"axG"
 3700              		.align	2
 3701              		.p2align 4,,15
 3702              		.weak	_ZN5warps9Modulator11ProcessXmodILNS_13XmodAlgorithmE2ELS2_3EEEvffffPKfS4_Pfj
 3703              		.thumb
 3704              		.thumb_func
 3705              		.type	_ZN5warps9Modulator11ProcessXmodILNS_13XmodAlgorithmE2ELS2_3EEEvffffPKfS4_Pfj, %function
ARM GAS  /var/folders/28/j9jfyj_n4wz3qtvnym210h2c0000gn/T//cckC861L.s 			page 66


 3706              	_ZN5warps9Modulator11ProcessXmodILNS_13XmodAlgorithmE2ELS2_3EEEvffffPKfS4_Pfj:
 3707              		.fnstart
 3708              	.LFB809:
 3709              		.loc 1 157 0
 3710              		.cfi_startproc
 3711              		@ args = 4, pretend = 0, frame = 0
 3712              		@ frame_needed = 0, uses_anonymous_args = 0
 3713              		@ link register save eliminated.
 3714              	.LVL257:
 3715 0000 2DED068B 		fstmfdd	sp!, {d8, d9, d10}
 3716              		.cfi_def_cfa_offset 24
 3717              		.cfi_offset 80, -24
 3718              		.cfi_offset 81, -20
 3719              		.cfi_offset 82, -16
 3720              		.cfi_offset 83, -12
 3721              		.cfi_offset 84, -8
 3722              		.cfi_offset 85, -4
 3723              		.loc 1 157 0
 3724 0004 0698     		ldr	r0, [sp, #24]
 3725              	.LVL258:
 3726              	.LBB4437:
 3727              		.loc 1 166 0
 3728 0006 07EE900A 		fmsr	s15, r0	@ int
 3729 000a F8EE677A 		fuitos	s15, s15
 3730 000e F7EE006A 		fconsts	s13, #112
 3731 0012 C6EEA77A 		fdivs	s15, s13, s15
 3732              	.LVL259:
 3733              		.loc 1 168 0
 3734 0016 70EEC00A 		fsubs	s1, s1, s0
 3735              	.LVL260:
 3736              		.loc 1 167 0
 3737 001a 71EEC11A 		fsubs	s3, s3, s2
 3738              	.LVL261:
 3739              		.loc 1 168 0
 3740 001e 60EEA70A 		fmuls	s1, s1, s15
 3741              		.loc 1 167 0
 3742 0022 61EEA71A 		fmuls	s3, s3, s15
 3743              	.LVL262:
 3744              		.loc 1 169 0
 3745 0026 0028     		cmp	r0, #0
 3746 0028 00F04B81 		beq	.L96
 3747              	.LBB4438:
 3748              	.LBB4439:
 3749              	.LBB4440:
 3750              	.LBB4441:
 3751              	.LBB4442:
 3752              		.loc 2 352 0
 3753 002c 9FEDA64A 		flds	s8, .L114
 3754              		.loc 2 355 0
 3755 0030 DFEDA64A 		flds	s9, .L114+4
 3756 0034 0C31     		adds	r1, r1, #12
 3757              	.LVL263:
 3758 0036 0C32     		adds	r2, r2, #12
 3759              	.LVL264:
 3760 0038 0C33     		adds	r3, r3, #12
 3761              	.LVL265:
 3762              		.loc 2 351 0
ARM GAS  /var/folders/28/j9jfyj_n4wz3qtvnym210h2c0000gn/T//cckC861L.s 			page 67


 3763 003a BFEE005A 		fconsts	s10, #240
 3764              	.LBE4442:
 3765              	.LBE4441:
 3766              		.loc 2 386 0
 3767 003e B3EE083A 		fconsts	s6, #56
 3768 0042 F1EE005A 		fconsts	s11, #16
 3769              	.LBB4451:
 3770              	.LBB4452:
 3771              		.loc 4 98 0
 3772 0046 B3EE0B6A 		fconsts	s12, #59
 3773 004a F2EE023A 		fconsts	s7, #34
 3774              	.LVL266:
 3775              	.L104:
 3776              	.LBE4452:
 3777              	.LBE4451:
 3778              	.LBE4440:
 3779              	.LBE4439:
 3780              		.loc 1 172 0
 3781 004e 52ED032A 		flds	s5, [r2, #-12]
 3782              		.loc 1 171 0
 3783 0052 11ED038A 		flds	s16, [r1, #-12]
 3784              	.LVL267:
 3785              	.LBB4483:
 3786              	.LBB4477:
 3787              		.loc 2 384 0
 3788 0056 72EEA28A 		fadds	s17, s5, s5
 3789              	.LVL268:
 3790              		.loc 2 386 0
 3791 005a F0EE659A 		fcpys	s19, s11
 3792              		.loc 2 385 0
 3793 005e 38EE289A 		fadds	s18, s16, s17
 3794              	.LVL269:
 3795 0062 78EE688A 		fsubs	s17, s16, s17
 3796              	.LVL270:
 3797              	.LBB4457:
 3798              	.LBB4447:
 3799              	.LBB4443:
 3800              	.LBB4444:
 3801              		.loc 3 261 0
 3802 0066 B0EEC97A 		fabss	s14, s18
 3803              	.LBE4444:
 3804              	.LBE4443:
 3805              		.loc 2 352 0
 3806 006a 37EE447A 		fsubs	s14, s14, s8
 3807              	.LBE4447:
 3808              	.LBE4457:
 3809              	.LBB4458:
 3810              	.LBB4459:
 3811              	.LBB4460:
 3812              	.LBB4461:
 3813              		.loc 3 261 0
 3814 006e B0EEE82A 		fabss	s4, s17
 3815              	.LBE4461:
 3816              	.LBE4460:
 3817              		.loc 2 352 0
 3818 0072 32EE442A 		fsubs	s4, s4, s8
 3819              	.LBE4459:
ARM GAS  /var/folders/28/j9jfyj_n4wz3qtvnym210h2c0000gn/T//cckC861L.s 			page 68


 3820              	.LBE4458:
 3821              	.LBB4467:
 3822              	.LBB4448:
 3823              	.LBB4445:
 3824              	.LBB4446:
 3825              		.loc 3 261 0
 3826 0076 F0EEC77A 		fabss	s15, s14
 3827              	.LBE4446:
 3828              	.LBE4445:
 3829              		.loc 2 353 0
 3830 007a 37EE277A 		fadds	s14, s14, s15
 3831              	.LBE4448:
 3832              	.LBE4467:
 3833              	.LBB4468:
 3834              	.LBB4464:
 3835              	.LBB4462:
 3836              	.LBB4463:
 3837              		.loc 3 261 0
 3838 007e F0EEC27A 		fabss	s15, s4
 3839              	.LBE4463:
 3840              	.LBE4462:
 3841              		.loc 2 353 0
 3842 0082 32EE272A 		fadds	s4, s4, s15
 3843              	.LBE4464:
 3844              	.LBE4468:
 3845              	.LBB4469:
 3846              	.LBB4449:
 3847              		.loc 2 354 0
 3848 0086 27EE077A 		fmuls	s14, s14, s14
 3849              		.loc 2 351 0
 3850 008a B5EEC09A 		fcmpezs	s18
 3851 008e F1EE10FA 		fmstat
 3852              		.loc 2 355 0
 3853 0092 27EE247A 		fmuls	s14, s14, s9
 3854              	.LBE4449:
 3855              	.LBE4469:
 3856              	.LBB4470:
 3857              	.LBB4465:
 3858              		.loc 2 354 0
 3859 0096 22EE022A 		fmuls	s4, s4, s4
 3860              		.loc 2 351 0
 3861 009a F5EEC08A 		fcmpezs	s17
 3862              	.LBE4465:
 3863              	.LBE4470:
 3864              	.LBB4471:
 3865              	.LBB4450:
 3866 009e D4BF     		ite	le
 3867 00a0 F0EE457A 		fcpysle	s15, s10
 3868 00a4 F0EE667A 		fcpysgt	s15, s13
 3869              	.LVL271:
 3870              		.loc 2 355 0
 3871 00a8 67EE277A 		fmuls	s15, s14, s15
 3872              	.LVL272:
 3873              	.LBE4450:
 3874              	.LBE4471:
 3875              	.LBB4472:
 3876              	.LBB4466:
ARM GAS  /var/folders/28/j9jfyj_n4wz3qtvnym210h2c0000gn/T//cckC861L.s 			page 69


 3877              		.loc 2 351 0
 3878 00ac F1EE10FA 		fmstat
 3879              	.LVL273:
 3880              		.loc 2 355 0
 3881 00b0 22EE242A 		fmuls	s4, s4, s9
 3882              		.loc 2 351 0
 3883 00b4 D4BF     		ite	le
 3884 00b6 B0EE457A 		fcpysle	s14, s10
 3885 00ba B0EE667A 		fcpysgt	s14, s13
 3886              	.LVL274:
 3887              	.LBE4466:
 3888              	.LBE4472:
 3889              		.loc 2 386 0
 3890 00be E1EE039A 		vfma.f32	s19, s2, s6
 3891 00c2 0C32     		adds	r2, r2, #12
 3892 00c4 0C31     		adds	r1, r1, #12
 3893              	.LVL275:
 3894              		.loc 2 385 0
 3895 00c6 E2EE077A 		vfma.f32	s15, s4, s14
 3896              	.LVL276:
 3897 00ca 0C33     		adds	r3, r3, #12
 3898              	.LBE4477:
 3899              	.LBE4483:
 3900              	.LBB4484:
 3901              	.LBB4485:
 3902              		.loc 2 394 0
 3903 00cc B2EE002A 		fconsts	s4, #32
 3904 00d0 F0EE668A 		fcpys	s17, s13
 3905              	.LVL277:
 3906 00d4 E1EE028A 		vfma.f32	s17, s2, s4
 3907 00d8 28EE258A 		fmuls	s16, s16, s11
 3908              	.LVL278:
 3909              	.LBE4485:
 3910              	.LBE4484:
 3911              	.LBB4493:
 3912              	.LBB4478:
 3913              		.loc 2 386 0
 3914 00dc 67EEA97A 		fmuls	s15, s15, s19
 3915              	.LVL279:
 3916              	.LBE4478:
 3917              	.LBE4493:
 3918              	.LBB4494:
 3919              	.LBB4488:
 3920              		.loc 2 394 0
 3921 00e0 62EE882A 		fmuls	s5, s5, s16
 3922              	.LVL280:
 3923              	.LBE4488:
 3924              	.LBE4494:
 3925              	.LBB4495:
 3926              	.LBB4479:
 3927              	.LBB4473:
 3928              	.LBB4453:
 3929              		.loc 4 98 0
 3930 00e4 B0EE467A 		fcpys	s14, s12
 3931              	.LVL281:
 3932 00e8 27EEA38A 		fmuls	s16, s15, s7
 3933 00ec A7EEA77A 		vfma.f32	s14, s15, s15
ARM GAS  /var/folders/28/j9jfyj_n4wz3qtvnym210h2c0000gn/T//cckC861L.s 			page 70


 3934              	.LBE4453:
 3935              	.LBE4473:
 3936              	.LBE4479:
 3937              	.LBE4495:
 3938              	.LBB4496:
 3939              	.LBB4489:
 3940              		.loc 2 394 0
 3941 00f0 62EEA82A 		fmuls	s5, s5, s17
 3942              	.LBE4489:
 3943              	.LBE4496:
 3944              	.LBB4497:
 3945              	.LBB4480:
 3946              	.LBB4474:
 3947              	.LBB4454:
 3948              		.loc 4 98 0
 3949 00f4 F0EE468A 		fcpys	s17, s12
 3950 00f8 E7EE888A 		vfma.f32	s17, s15, s16
 3951              	.LBE4454:
 3952              	.LBE4474:
 3953              	.LBE4480:
 3954              	.LBE4497:
 3955              	.LBB4498:
 3956              	.LBB4490:
 3957              	.LBB4486:
 3958              	.LBB4487:
 3959              		.loc 3 261 0
 3960 00fc B0EEE28A 		fabss	s16, s5
 3961              	.LBE4487:
 3962              	.LBE4486:
 3963              	.LBE4490:
 3964              	.LBE4498:
 3965              	.LBB4499:
 3966              	.LBB4481:
 3967              	.LBB4475:
 3968              	.LBB4455:
 3969              		.loc 4 98 0
 3970 0100 67EE877A 		fmuls	s15, s15, s14
 3971              	.LVL282:
 3972              	.LBE4455:
 3973              	.LBE4475:
 3974              	.LBE4481:
 3975              	.LBE4499:
 3976              	.LBB4500:
 3977              	.LBB4491:
 3978              		.loc 2 395 0
 3979 0104 38EE268A 		fadds	s16, s16, s13
 3980              	.LBE4491:
 3981              	.LBE4500:
 3982              	.LBB4501:
 3983              	.LBB4482:
 3984              	.LBB4476:
 3985              	.LBB4456:
 3986              		.loc 4 98 0
 3987 0108 87EEA87A 		fdivs	s14, s15, s17
 3988              	.LVL283:
 3989              	.LBE4456:
 3990              	.LBE4476:
ARM GAS  /var/folders/28/j9jfyj_n4wz3qtvnym210h2c0000gn/T//cckC861L.s 			page 71


 3991              	.LBE4482:
 3992              	.LBE4501:
 3993              	.LBB4502:
 3994              	.LBB4492:
 3995              		.loc 2 395 0
 3996 010c C2EE882A 		fdivs	s5, s5, s16
 3997              	.LVL284:
 3998              	.LBE4492:
 3999              	.LBE4502:
 4000              		.loc 1 176 0
 4001 0110 31EE211A 		fadds	s2, s2, s3
 4002              	.LVL285:
 4003              		.loc 1 175 0
 4004 0114 72EEC72A 		fsubs	s5, s5, s14
 4005              	.LBE4438:
 4006              	.LBB4503:
 4007              	.LBB4504:
 4008              	.LBB4505:
 4009              		.loc 2 386 0
 4010 0118 F0EE658A 		fcpys	s17, s11
 4011              	.LBE4505:
 4012              	.LBE4504:
 4013              	.LBE4503:
 4014              	.LBB4574:
 4015              		.loc 1 175 0
 4016 011c A2EE807A 		vfma.f32	s14, s5, s0
 4017              	.LBE4574:
 4018              	.LBB4575:
 4019              	.LBB4550:
 4020              	.LBB4542:
 4021              		.loc 2 386 0
 4022 0120 E1EE038A 		vfma.f32	s17, s2, s6
 4023              	.LBE4542:
 4024              	.LBE4550:
 4025              	.LBE4575:
 4026              	.LBB4576:
 4027              		.loc 1 175 0
 4028 0124 03ED067A 		fsts	s14, [r3, #-24]
 4029              	.LVL286:
 4030              	.LBE4576:
 4031              	.LBB4577:
 4032              		.loc 1 182 0
 4033 0128 52ED052A 		flds	s5, [r2, #-20]
 4034              		.loc 1 181 0
 4035 012c 11ED057A 		flds	s14, [r1, #-20]
 4036              	.LBB4551:
 4037              	.LBB4543:
 4038              		.loc 2 384 0
 4039 0130 72EEA27A 		fadds	s15, s5, s5
 4040              	.LBE4543:
 4041              	.LBE4551:
 4042              	.LBB4552:
 4043              	.LBB4553:
 4044              		.loc 2 394 0
 4045 0134 27EE25AA 		fmuls	s20, s14, s11
 4046              	.LBE4553:
 4047              	.LBE4552:
ARM GAS  /var/folders/28/j9jfyj_n4wz3qtvnym210h2c0000gn/T//cckC861L.s 			page 72


 4048              	.LBB4562:
 4049              	.LBB4544:
 4050              		.loc 2 385 0
 4051 0138 77EE279A 		fadds	s19, s14, s15
 4052 013c 77EE677A 		fsubs	s15, s14, s15
 4053              	.LBB4506:
 4054              	.LBB4507:
 4055              	.LBB4508:
 4056              	.LBB4509:
 4057              		.loc 3 261 0
 4058 0140 B0EEE97A 		fabss	s14, s19
 4059              	.LBE4509:
 4060              	.LBE4508:
 4061              		.loc 2 352 0
 4062 0144 37EE447A 		fsubs	s14, s14, s8
 4063              	.LBE4507:
 4064              	.LBE4506:
 4065              	.LBB4516:
 4066              	.LBB4517:
 4067              	.LBB4518:
 4068              	.LBB4519:
 4069              		.loc 3 261 0
 4070 0148 B0EEE78A 		fabss	s16, s15
 4071              	.LBE4519:
 4072              	.LBE4518:
 4073              		.loc 2 352 0
 4074 014c 38EE448A 		fsubs	s16, s16, s8
 4075              	.LBE4517:
 4076              	.LBE4516:
 4077              	.LBB4526:
 4078              	.LBB4512:
 4079              	.LBB4510:
 4080              	.LBB4511:
 4081              		.loc 3 261 0
 4082 0150 F0EEC7AA 		fabss	s21, s14
 4083              	.LBE4511:
 4084              	.LBE4510:
 4085              		.loc 2 353 0
 4086 0154 37EE2A7A 		fadds	s14, s14, s21
 4087              	.LBE4512:
 4088              	.LBE4526:
 4089              	.LBB4527:
 4090              	.LBB4522:
 4091              	.LBB4520:
 4092              	.LBB4521:
 4093              		.loc 3 261 0
 4094 0158 F0EEC8AA 		fabss	s21, s16
 4095              	.LBE4521:
 4096              	.LBE4520:
 4097              	.LBE4522:
 4098              	.LBE4527:
 4099              	.LBB4528:
 4100              	.LBB4513:
 4101              		.loc 2 354 0
 4102 015c 27EE077A 		fmuls	s14, s14, s14
 4103              	.LBE4513:
 4104              	.LBE4528:
ARM GAS  /var/folders/28/j9jfyj_n4wz3qtvnym210h2c0000gn/T//cckC861L.s 			page 73


 4105              	.LBB4529:
 4106              	.LBB4523:
 4107              		.loc 2 353 0
 4108 0160 38EE2A8A 		fadds	s16, s16, s21
 4109              	.LBE4523:
 4110              	.LBE4529:
 4111              	.LBB4530:
 4112              	.LBB4514:
 4113              		.loc 2 351 0
 4114 0164 F5EEC09A 		fcmpezs	s19
 4115 0168 F1EE10FA 		fmstat
 4116              	.LVL287:
 4117              		.loc 2 355 0
 4118 016c 27EE247A 		fmuls	s14, s14, s9
 4119              	.LBE4514:
 4120              	.LBE4530:
 4121              	.LBB4531:
 4122              	.LBB4524:
 4123              		.loc 2 354 0
 4124 0170 28EE088A 		fmuls	s16, s16, s16
 4125              		.loc 2 351 0
 4126 0174 F5EEC07A 		fcmpezs	s15
 4127              	.LBE4524:
 4128              	.LBE4531:
 4129              	.LBB4532:
 4130              	.LBB4515:
 4131 0178 D4BF     		ite	le
 4132 017a F0EE457A 		fcpysle	s15, s10
 4133 017e F0EE667A 		fcpysgt	s15, s13
 4134              		.loc 2 355 0
 4135 0182 67EE277A 		fmuls	s15, s14, s15
 4136              	.LBE4515:
 4137              	.LBE4532:
 4138              	.LBB4533:
 4139              	.LBB4525:
 4140              		.loc 2 351 0
 4141 0186 F1EE10FA 		fmstat
 4142              		.loc 2 355 0
 4143 018a 28EE248A 		fmuls	s16, s16, s9
 4144              		.loc 2 351 0
 4145 018e D4BF     		ite	le
 4146 0190 B0EE457A 		fcpysle	s14, s10
 4147 0194 B0EE667A 		fcpysgt	s14, s13
 4148              	.LBE4525:
 4149              	.LBE4533:
 4150              		.loc 2 385 0
 4151 0198 E8EE077A 		vfma.f32	s15, s16, s14
 4152              	.LBE4544:
 4153              	.LBE4562:
 4154              	.LBB4563:
 4155              	.LBB4556:
 4156              		.loc 2 394 0
 4157 019c B0EE669A 		fcpys	s18, s13
 4158              	.LVL288:
 4159 01a0 A1EE029A 		vfma.f32	s18, s2, s4
 4160              	.LBE4556:
 4161              	.LBE4563:
ARM GAS  /var/folders/28/j9jfyj_n4wz3qtvnym210h2c0000gn/T//cckC861L.s 			page 74


 4162              	.LBB4564:
 4163              	.LBB4545:
 4164              		.loc 2 386 0
 4165 01a4 67EEA87A 		fmuls	s15, s15, s17
 4166              	.LBE4545:
 4167              	.LBE4564:
 4168              	.LBB4565:
 4169              	.LBB4557:
 4170              		.loc 2 394 0
 4171 01a8 62EE8A2A 		fmuls	s5, s5, s20
 4172              	.LBE4557:
 4173              	.LBE4565:
 4174              	.LBB4566:
 4175              	.LBB4546:
 4176              	.LBB4534:
 4177              	.LBB4535:
 4178              		.loc 4 98 0
 4179 01ac F0EE468A 		fcpys	s17, s12
 4180 01b0 27EEA37A 		fmuls	s14, s15, s7
 4181 01b4 E7EEA78A 		vfma.f32	s17, s15, s15
 4182              	.LBE4535:
 4183              	.LBE4534:
 4184              	.LBE4546:
 4185              	.LBE4566:
 4186              	.LBB4567:
 4187              	.LBB4558:
 4188              		.loc 2 394 0
 4189 01b8 62EE892A 		fmuls	s5, s5, s18
 4190              	.LBE4558:
 4191              	.LBE4567:
 4192              	.LBB4568:
 4193              	.LBB4547:
 4194              	.LBB4539:
 4195              	.LBB4536:
 4196              		.loc 4 98 0
 4197 01bc B0EE468A 		fcpys	s16, s12
 4198 01c0 A7EE878A 		vfma.f32	s16, s15, s14
 4199              	.LBE4536:
 4200              	.LBE4539:
 4201              	.LBE4547:
 4202              	.LBE4568:
 4203              	.LBB4569:
 4204              	.LBB4559:
 4205              	.LBB4554:
 4206              	.LBB4555:
 4207              		.loc 3 261 0
 4208 01c4 B0EEE27A 		fabss	s14, s5
 4209              	.LBE4555:
 4210              	.LBE4554:
 4211              	.LBE4559:
 4212              	.LBE4569:
 4213              	.LBB4570:
 4214              	.LBB4548:
 4215              	.LBB4540:
 4216              	.LBB4537:
 4217              		.loc 4 98 0
 4218 01c8 67EEA87A 		fmuls	s15, s15, s17
ARM GAS  /var/folders/28/j9jfyj_n4wz3qtvnym210h2c0000gn/T//cckC861L.s 			page 75


 4219              	.LBE4537:
 4220              	.LBE4540:
 4221              	.LBE4548:
 4222              	.LBE4570:
 4223              	.LBB4571:
 4224              	.LBB4560:
 4225              		.loc 2 395 0
 4226 01cc 37EE267A 		fadds	s14, s14, s13
 4227              	.LBE4560:
 4228              	.LBE4571:
 4229              	.LBB4572:
 4230              	.LBB4549:
 4231              	.LBB4541:
 4232              	.LBB4538:
 4233              		.loc 4 98 0
 4234 01d0 C7EE887A 		fdivs	s15, s15, s16
 4235              	.LBE4538:
 4236              	.LBE4541:
 4237              	.LBE4549:
 4238              	.LBE4572:
 4239              	.LBB4573:
 4240              	.LBB4561:
 4241              		.loc 2 395 0
 4242 01d4 C2EE872A 		fdivs	s5, s5, s14
 4243              	.LBE4561:
 4244              	.LBE4573:
 4245              	.LBE4577:
 4246              	.LBB4578:
 4247              		.loc 1 177 0
 4248 01d8 30EE200A 		fadds	s0, s0, s1
 4249              	.LVL289:
 4250              	.LBE4578:
 4251              	.LBB4579:
 4252              		.loc 1 185 0
 4253 01dc 72EEE72A 		fsubs	s5, s5, s15
 4254              		.loc 1 186 0
 4255 01e0 31EE211A 		fadds	s2, s2, s3
 4256              	.LVL290:
 4257              		.loc 1 185 0
 4258 01e4 E2EE807A 		vfma.f32	s15, s5, s0
 4259              	.LBE4579:
 4260              	.LBB4580:
 4261              	.LBB4581:
 4262              	.LBB4582:
 4263              		.loc 2 394 0
 4264 01e8 B0EE669A 		fcpys	s18, s13
 4265              	.LVL291:
 4266              	.LBE4582:
 4267              	.LBE4581:
 4268              	.LBE4580:
 4269              	.LBB4655:
 4270              		.loc 1 185 0
 4271 01ec 43ED057A 		fsts	s15, [r3, #-20]
 4272              	.LVL292:
 4273              	.LBE4655:
 4274              	.LBB4656:
 4275              		.loc 1 192 0
ARM GAS  /var/folders/28/j9jfyj_n4wz3qtvnym210h2c0000gn/T//cckC861L.s 			page 76


 4276 01f0 52ED042A 		flds	s5, [r2, #-16]
 4277              		.loc 1 191 0
 4278 01f4 11ED048A 		flds	s16, [r1, #-16]
 4279              	.LBB4592:
 4280              	.LBB4593:
 4281              		.loc 2 384 0
 4282 01f8 72EEA28A 		fadds	s17, s5, s5
 4283              	.LBE4593:
 4284              	.LBE4592:
 4285              	.LBB4641:
 4286              	.LBB4585:
 4287              		.loc 2 394 0
 4288 01fc A1EE029A 		vfma.f32	s18, s2, s4
 4289              	.LBE4585:
 4290              	.LBE4641:
 4291              	.LBB4642:
 4292              	.LBB4634:
 4293              		.loc 2 385 0
 4294 0200 78EE287A 		fadds	s15, s16, s17
 4295 0204 78EE688A 		fsubs	s17, s16, s17
 4296              	.LBB4594:
 4297              	.LBB4595:
 4298              	.LBB4596:
 4299              	.LBB4597:
 4300              		.loc 3 261 0
 4301 0208 B0EEE77A 		fabss	s14, s15
 4302              	.LBE4597:
 4303              	.LBE4596:
 4304              		.loc 2 352 0
 4305 020c 37EE447A 		fsubs	s14, s14, s8
 4306              	.LBE4595:
 4307              	.LBE4594:
 4308              	.LBB4605:
 4309              	.LBB4606:
 4310              	.LBB4607:
 4311              	.LBB4608:
 4312              		.loc 3 261 0
 4313 0210 B0EEE82A 		fabss	s4, s17
 4314              	.LBE4608:
 4315              	.LBE4607:
 4316              		.loc 2 352 0
 4317 0214 32EE442A 		fsubs	s4, s4, s8
 4318              	.LBE4606:
 4319              	.LBE4605:
 4320              	.LBB4616:
 4321              	.LBB4600:
 4322              	.LBB4598:
 4323              	.LBB4599:
 4324              		.loc 3 261 0
 4325 0218 B0EEC7AA 		fabss	s20, s14
 4326              	.LBE4599:
 4327              	.LBE4598:
 4328              		.loc 2 353 0
 4329 021c 37EE0A7A 		fadds	s14, s14, s20
 4330              	.LBE4600:
 4331              	.LBE4616:
 4332              	.LBB4617:
ARM GAS  /var/folders/28/j9jfyj_n4wz3qtvnym210h2c0000gn/T//cckC861L.s 			page 77


 4333              	.LBB4611:
 4334              	.LBB4609:
 4335              	.LBB4610:
 4336              		.loc 3 261 0
 4337 0220 B0EEC2AA 		fabss	s20, s4
 4338              	.LBE4610:
 4339              	.LBE4609:
 4340              	.LBE4611:
 4341              	.LBE4617:
 4342              	.LBB4618:
 4343              	.LBB4601:
 4344              		.loc 2 354 0
 4345 0224 27EE077A 		fmuls	s14, s14, s14
 4346              	.LBE4601:
 4347              	.LBE4618:
 4348              	.LBB4619:
 4349              	.LBB4612:
 4350              		.loc 2 353 0
 4351 0228 32EE0A2A 		fadds	s4, s4, s20
 4352              	.LBE4612:
 4353              	.LBE4619:
 4354              	.LBB4620:
 4355              	.LBB4602:
 4356              		.loc 2 351 0
 4357 022c F5EEC07A 		fcmpezs	s15
 4358 0230 F1EE10FA 		fmstat
 4359              	.LVL293:
 4360              		.loc 2 355 0
 4361 0234 27EE247A 		fmuls	s14, s14, s9
 4362              	.LBE4602:
 4363              	.LBE4620:
 4364              	.LBB4621:
 4365              	.LBB4613:
 4366              		.loc 2 354 0
 4367 0238 22EE022A 		fmuls	s4, s4, s4
 4368              	.LBE4613:
 4369              	.LBE4621:
 4370              	.LBB4622:
 4371              	.LBB4603:
 4372              		.loc 2 351 0
 4373 023c D4BF     		ite	le
 4374 023e F0EE457A 		fcpysle	s15, s10
 4375 0242 F0EE667A 		fcpysgt	s15, s13
 4376              	.LBE4603:
 4377              	.LBE4622:
 4378              	.LBB4623:
 4379              	.LBB4614:
 4380 0246 F5EEC08A 		fcmpezs	s17
 4381              	.LBE4614:
 4382              	.LBE4623:
 4383              	.LBB4624:
 4384              	.LBB4604:
 4385              		.loc 2 355 0
 4386 024a 67EE277A 		fmuls	s15, s14, s15
 4387              	.LBE4604:
 4388              	.LBE4624:
 4389              	.LBB4625:
ARM GAS  /var/folders/28/j9jfyj_n4wz3qtvnym210h2c0000gn/T//cckC861L.s 			page 78


 4390              	.LBB4615:
 4391              		.loc 2 351 0
 4392 024e F1EE10FA 		fmstat
 4393              		.loc 2 355 0
 4394 0252 22EE242A 		fmuls	s4, s4, s9
 4395              		.loc 2 351 0
 4396 0256 D4BF     		ite	le
 4397 0258 B0EE457A 		fcpysle	s14, s10
 4398 025c B0EE667A 		fcpysgt	s14, s13
 4399              	.LBE4615:
 4400              	.LBE4625:
 4401              		.loc 2 386 0
 4402 0260 F0EE659A 		fcpys	s19, s11
 4403              	.LVL294:
 4404              		.loc 2 385 0
 4405 0264 E2EE077A 		vfma.f32	s15, s4, s14
 4406              	.LBE4634:
 4407              	.LBE4642:
 4408              	.LBE4656:
 4409              		.loc 1 169 0
 4410 0268 0338     		subs	r0, r0, #3
 4411              	.LVL295:
 4412              	.LBB4657:
 4413              	.LBB4643:
 4414              	.LBB4635:
 4415              		.loc 2 386 0
 4416 026a E1EE039A 		vfma.f32	s19, s2, s6
 4417              	.LBE4635:
 4418              	.LBE4643:
 4419              	.LBB4644:
 4420              	.LBB4586:
 4421              		.loc 2 394 0
 4422 026e 28EE258A 		fmuls	s16, s16, s11
 4423              	.LBE4586:
 4424              	.LBE4644:
 4425              	.LBB4645:
 4426              	.LBB4636:
 4427              		.loc 2 386 0
 4428 0272 67EEA97A 		fmuls	s15, s15, s19
 4429              	.LBE4636:
 4430              	.LBE4645:
 4431              	.LBB4646:
 4432              	.LBB4587:
 4433              		.loc 2 394 0
 4434 0276 62EE882A 		fmuls	s5, s5, s16
 4435              	.LBE4587:
 4436              	.LBE4646:
 4437              	.LBB4647:
 4438              	.LBB4637:
 4439              	.LBB4626:
 4440              	.LBB4627:
 4441              		.loc 4 98 0
 4442 027a B0EE468A 		fcpys	s16, s12
 4443 027e 27EEA37A 		fmuls	s14, s15, s7
 4444 0282 A7EEA78A 		vfma.f32	s16, s15, s15
 4445              	.LBE4627:
 4446              	.LBE4626:
ARM GAS  /var/folders/28/j9jfyj_n4wz3qtvnym210h2c0000gn/T//cckC861L.s 			page 79


 4447              	.LBE4637:
 4448              	.LBE4647:
 4449              	.LBB4648:
 4450              	.LBB4588:
 4451              		.loc 2 394 0
 4452 0286 62EE892A 		fmuls	s5, s5, s18
 4453              	.LBE4588:
 4454              	.LBE4648:
 4455              	.LBB4649:
 4456              	.LBB4638:
 4457              	.LBB4631:
 4458              	.LBB4628:
 4459              		.loc 4 98 0
 4460 028a B0EE462A 		fcpys	s4, s12
 4461 028e A7EE872A 		vfma.f32	s4, s15, s14
 4462              	.LBE4628:
 4463              	.LBE4631:
 4464              	.LBE4638:
 4465              	.LBE4649:
 4466              	.LBB4650:
 4467              	.LBB4589:
 4468              	.LBB4583:
 4469              	.LBB4584:
 4470              		.loc 3 261 0
 4471 0292 B0EEE27A 		fabss	s14, s5
 4472              	.LBE4584:
 4473              	.LBE4583:
 4474              	.LBE4589:
 4475              	.LBE4650:
 4476              	.LBB4651:
 4477              	.LBB4639:
 4478              	.LBB4632:
 4479              	.LBB4629:
 4480              		.loc 4 98 0
 4481 0296 67EE887A 		fmuls	s15, s15, s16
 4482              	.LBE4629:
 4483              	.LBE4632:
 4484              	.LBE4639:
 4485              	.LBE4651:
 4486              	.LBB4652:
 4487              	.LBB4590:
 4488              		.loc 2 395 0
 4489 029a 37EE267A 		fadds	s14, s14, s13
 4490              	.LBE4590:
 4491              	.LBE4652:
 4492              	.LBB4653:
 4493              	.LBB4640:
 4494              	.LBB4633:
 4495              	.LBB4630:
 4496              		.loc 4 98 0
 4497 029e C7EE827A 		fdivs	s15, s15, s4
 4498              	.LBE4630:
 4499              	.LBE4633:
 4500              	.LBE4640:
 4501              	.LBE4653:
 4502              	.LBB4654:
 4503              	.LBB4591:
ARM GAS  /var/folders/28/j9jfyj_n4wz3qtvnym210h2c0000gn/T//cckC861L.s 			page 80


 4504              		.loc 2 395 0
 4505 02a2 C2EE872A 		fdivs	s5, s5, s14
 4506              	.LBE4591:
 4507              	.LBE4654:
 4508              	.LBE4657:
 4509              	.LBB4658:
 4510              		.loc 1 187 0
 4511 02a6 30EE200A 		fadds	s0, s0, s1
 4512              	.LVL296:
 4513              	.LBE4658:
 4514              	.LBB4659:
 4515              		.loc 1 195 0
 4516 02aa 72EEE72A 		fsubs	s5, s5, s15
 4517              		.loc 1 196 0
 4518 02ae 31EE211A 		fadds	s2, s2, s3
 4519              	.LVL297:
 4520              		.loc 1 195 0
 4521 02b2 E2EE807A 		vfma.f32	s15, s5, s0
 4522              		.loc 1 197 0
 4523 02b6 30EE200A 		fadds	s0, s0, s1
 4524              	.LVL298:
 4525              		.loc 1 195 0
 4526 02ba 43ED047A 		fsts	s15, [r3, #-16]
 4527              	.LVL299:
 4528              	.LBE4659:
 4529              		.loc 1 169 0
 4530 02be 7FF4C6AE 		bne	.L104
 4531              	.LVL300:
 4532              	.L96:
 4533              	.LBE4437:
 4534              		.loc 1 201 0
 4535 02c2 BDEC068B 		fldmfdd	sp!, {d8-d10}
 4536              		.cfi_restore 84
 4537              		.cfi_restore 85
 4538              		.cfi_restore 82
 4539              		.cfi_restore 83
 4540              		.cfi_restore 80
 4541              		.cfi_restore 81
 4542              		.cfi_def_cfa_offset 0
 4543              	.LVL301:
 4544 02c6 7047     		bx	lr
 4545              	.L115:
 4546              		.align	2
 4547              	.L114:
 4548 02c8 83C02A3F 		.word	1059766403
 4549 02cc 7524313D 		.word	1026630773
 4550              		.cfi_endproc
 4551              	.LFE809:
 4552              		.cantunwind
 4553              		.fnend
 4554              		.size	_ZN5warps9Modulator11ProcessXmodILNS_13XmodAlgorithmE2ELS2_3EEEvffffPKfS4_Pfj, .-_ZN5warps9M
 4555              		.text
 4556              		.align	2
 4557              		.p2align 4,,15
 4558              		.global	_ZN5warps9Modulator4InitEf
 4559              		.thumb
 4560              		.thumb_func
ARM GAS  /var/folders/28/j9jfyj_n4wz3qtvnym210h2c0000gn/T//cckC861L.s 			page 81


 4561              		.type	_ZN5warps9Modulator4InitEf, %function
 4562              	_ZN5warps9Modulator4InitEf:
 4563              		.fnstart
 4564              	.LFB762:
 4565              		.loc 2 43 0
 4566              		.cfi_startproc
 4567              		@ args = 0, pretend = 0, frame = 0
 4568              		@ frame_needed = 0, uses_anonymous_args = 0
 4569              	.LVL302:
 4570 0000 F8B5     		push	{r3, r4, r5, r6, r7, lr}
 4571              		.save {r3, r4, r5, r6, r7, lr}
 4572              		.cfi_def_cfa_offset 24
 4573              		.cfi_offset 3, -24
 4574              		.cfi_offset 4, -20
 4575              		.cfi_offset 5, -16
 4576              		.cfi_offset 6, -12
 4577              		.cfi_offset 7, -8
 4578              		.cfi_offset 14, -4
 4579 0002 0546     		mov	r5, r0
 4580 0004 00F50C56 		add	r6, r0, #8960
 4581              	.LBB4660:
 4582              		.loc 2 44 0
 4583 0008 0023     		movs	r3, #0
 4584 000a 3648     		ldr	r0, .L128
 4585              	.LVL303:
 4586              	.LBE4660:
 4587              		.loc 2 43 0
 4588 000c 2DED028B 		fstmfdd	sp!, {d8}
 4589              		.vsave {d8}
 4590              		.cfi_def_cfa_offset 32
 4591              		.cfi_offset 80, -32
 4592              		.cfi_offset 81, -28
 4593              	.LBB4700:
 4594              	.LBB4661:
 4595              	.LBB4662:
 4596              	.LBB4663:
 4597              		.loc 1 58 0
 4598 0010 0021     		movs	r1, #0
 4599              	.LBE4663:
 4600              	.LBE4662:
 4601              	.LBE4661:
 4602              	.LBE4700:
 4603              		.loc 2 43 0
 4604 0012 B0EE408A 		fcpys	s16, s0
 4605              	.LBB4701:
 4606              		.loc 2 44 0
 4607 0016 2B70     		strb	r3, [r5]
 4608 0018 1436     		adds	r6, r6, #20
 4609              		.loc 2 45 0
 4610 001a 6B70     		strb	r3, [r5, #1]
 4611              	.LVL304:
 4612 001c 2F46     		mov	r7, r5
 4613 001e 05F1F004 		add	r4, r5, #240
 4614 0022 05F1280C 		add	ip, r5, #40
 4615              	.LBB4685:
 4616              	.LBB4665:
 4617              	.LBB4666:
ARM GAS  /var/folders/28/j9jfyj_n4wz3qtvnym210h2c0000gn/T//cckC861L.s 			page 82


 4618              		.file 5 "./mutable_instruments/warps/dsp/quadrature_transform.h"
 4619              		.loc 5 47 0
 4620 0026 4FF0110E 		mov	lr, #17
 4621              	.LVL305:
 4622              	.L121:
 4623              	.LBE4666:
 4624              	.LBE4665:
 4625              	.LBB4673:
 4626              	.LBB4674:
 4627              		.file 6 "./mutable_instruments/warps/dsp/sample_rate_converter.h"
 4628              		.loc 6 176 0 discriminator 3
 4629 002a 2346     		mov	r3, r4
 4630 002c 2034     		adds	r4, r4, #32
 4631              	.LBB4675:
 4632              	.LBB4676:
 4633              	.LBB4677:
 4634              		.file 7 "/Applications/axoloti_runtime/platform_osx/arm-none-eabi/include/c++/4.9.3/bits/stl_algob
 4635              		.loc 7 703 0 discriminator 3
 4636 002e A342     		cmp	r3, r4
 4637              	.LBE4677:
 4638              	.LBE4676:
 4639              	.LBE4675:
 4640              	.LBE4674:
 4641              	.LBE4673:
 4642              	.LBB4682:
 4643              	.LBB4664:
 4644              		.loc 1 58 0 discriminator 3
 4645 0030 3965     		str	r1, [r7, #80]	@ float
 4646              	.LVL306:
 4647              	.LBE4664:
 4648              	.LBE4682:
 4649              	.LBB4683:
 4650              	.LBB4681:
 4651              	.LBB4680:
 4652              	.LBB4679:
 4653              	.LBB4678:
 4654              		.loc 7 703 0 discriminator 3
 4655 0032 03D0     		beq	.L120
 4656              	.LVL307:
 4657              	.L119:
 4658              		.loc 7 704 0
 4659 0034 43F8041B 		str	r1, [r3], #4	@ float
 4660              	.LVL308:
 4661              		.loc 7 703 0
 4662 0038 A342     		cmp	r3, r4
 4663 003a FBD1     		bne	.L119
 4664              	.L120:
 4665              	.LVL309:
 4666 003c 2A4A     		ldr	r2, .L128+4
 4667              	.LBE4678:
 4668              	.LBE4679:
 4669              	.LBE4680:
 4670              	.LBE4681:
 4671              	.LBE4683:
 4672              	.LBB4684:
 4673              	.LBB4672:
 4674              		.loc 5 47 0
ARM GAS  /var/folders/28/j9jfyj_n4wz3qtvnym210h2c0000gn/T//cckC861L.s 			page 83


 4675 003e C6F81CE1 		str	lr, [r6, #284]
 4676              	.LVL310:
 4677 0042 3346     		mov	r3, r6
 4678              	.LVL311:
 4679              	.L118:
 4680              	.LBB4667:
 4681              		.loc 5 49 0
 4682 0044 F2EC017A 		fldmias	r2!, {s15}
 4683              	.LVL312:
 4684              	.LBB4668:
 4685              	.LBB4669:
 4686              		.loc 5 76 0
 4687 0048 43F8041C 		str	r1, [r3, #-4]	@ float
 4688              	.LBE4669:
 4689              	.LBE4668:
 4690              		.loc 5 49 0
 4691 004c F1EE677A 		fnegs	s15, s15
 4692              	.LVL313:
 4693              		.loc 5 48 0
 4694 0050 8242     		cmp	r2, r0
 4695              	.LBB4671:
 4696              	.LBB4670:
 4697              		.loc 5 78 0
 4698 0052 C3ED017A 		fsts	s15, [r3, #4]
 4699              		.loc 5 77 0
 4700 0056 1960     		str	r1, [r3]	@ float
 4701 0058 03F10C03 		add	r3, r3, #12
 4702              	.LBE4670:
 4703              	.LBE4671:
 4704              		.loc 5 48 0
 4705 005c F2D1     		bne	.L118
 4706 005e 1437     		adds	r7, r7, #20
 4707              	.LVL314:
 4708              	.LBE4667:
 4709              	.LBE4672:
 4710              	.LBE4684:
 4711              		.loc 2 47 0 discriminator 3
 4712 0060 6745     		cmp	r7, ip
 4713 0062 06F59276 		add	r6, r6, #292
 4714 0066 E0D1     		bne	.L121
 4715              	.LVL315:
 4716              	.LBE4685:
 4717              	.LBB4686:
 4718              	.LBB4687:
 4719              	.LBB4688:
 4720              	.LBB4689:
 4721              	.LBB4690:
 4722              		.loc 7 704 0
 4723 0068 0021     		movs	r1, #0
 4724              	.LBE4690:
 4725              	.LBE4689:
 4726              	.LBE4688:
 4727              		.loc 6 212 0
 4728 006a 05F59873 		add	r3, r5, #304
 4729              	.LVL316:
 4730 006e 05F52C72 		add	r2, r5, #688
 4731              	.LVL317:
ARM GAS  /var/folders/28/j9jfyj_n4wz3qtvnym210h2c0000gn/T//cckC861L.s 			page 84


 4732              	.L122:
 4733              	.LBB4693:
 4734              	.LBB4692:
 4735              	.LBB4691:
 4736              		.loc 7 704 0
 4737 0072 43F8041B 		str	r1, [r3], #4	@ float
 4738              	.LVL318:
 4739              		.loc 7 703 0
 4740 0076 9A42     		cmp	r2, r3
 4741              		.loc 7 704 0
 4742 0078 4FF00004 		mov	r4, #0
 4743              		.loc 7 703 0
 4744 007c F9D1     		bne	.L122
 4745              	.LBE4691:
 4746              	.LBE4692:
 4747              	.LBE4693:
 4748              		.loc 6 213 0
 4749 007e 05F5F673 		add	r3, r5, #492
 4750              	.LVL319:
 4751 0082 C5F8B032 		str	r3, [r5, #688]
 4752              	.LBE4687:
 4753              	.LBE4686:
 4754              		.loc 2 54 0
 4755 0086 B0EE480A 		fcpys	s0, s16
 4756              	.LVL320:
 4757 008a 05F17400 		add	r0, r5, #116
 4758 008e FFF7FEFF 		bl	_ZN5warps10Oscillator4InitEf
 4759              	.LVL321:
 4760              		.loc 2 55 0
 4761 0092 B0EE480A 		fcpys	s0, s16
 4762 0096 05F1A800 		add	r0, r5, #168
 4763 009a FFF7FEFF 		bl	_ZN5warps10Oscillator4InitEf
 4764              	.LVL322:
 4765              	.LBB4694:
 4766              	.LBB4695:
 4767              		.file 8 "./mutable_instruments/warps/dsp/quadrature_oscillator.h"
 4768              		.loc 8 47 0
 4769 009e F7EE007A 		fconsts	s15, #112
 4770 00a2 C7EE887A 		fdivs	s15, s15, s16
 4771              	.LBE4695:
 4772              	.LBE4694:
 4773              		.loc 2 57 0
 4774 00a6 05F52D70 		add	r0, r5, #692
 4775              	.LBB4698:
 4776              	.LBB4696:
 4777              		.loc 8 48 0
 4778 00aa C5F8E440 		str	r4, [r5, #228]	@ float
 4779              		.loc 8 49 0
 4780 00ae C5F8E840 		str	r4, [r5, #232]	@ float
 4781              		.loc 8 50 0
 4782 00b2 C5F8EC40 		str	r4, [r5, #236]	@ float
 4783              		.loc 8 51 0
 4784 00b6 C5F8E040 		str	r4, [r5, #224]	@ float
 4785              	.LBE4696:
 4786              	.LBE4698:
 4787              		.loc 2 57 0
 4788 00ba B0EE480A 		fcpys	s0, s16
ARM GAS  /var/folders/28/j9jfyj_n4wz3qtvnym210h2c0000gn/T//cckC861L.s 			page 85


 4789              	.LBB4699:
 4790              	.LBB4697:
 4791              		.loc 8 47 0
 4792 00be C5ED377A 		fsts	s15, [r5, #220]
 4793              	.LBE4697:
 4794              	.LBE4699:
 4795              		.loc 2 57 0
 4796 00c2 FFF7FEFF 		bl	_ZN5warps7Vocoder4InitEf
 4797              	.LVL323:
 4798              	.LBE4701:
 4799              		.loc 2 67 0
 4800 00c6 BDEC028B 		fldmfdd	sp!, {d8}
 4801              		.cfi_restore 80
 4802              		.cfi_restore 81
 4803              		.cfi_def_cfa_offset 24
 4804              	.LVL324:
 4805              	.LBB4702:
 4806              		.loc 2 66 0
 4807 00ca 05F52553 		add	r3, r5, #10560
 4808              		.loc 2 64 0
 4809 00ce 0749     		ldr	r1, .L128+8
 4810              		.loc 2 60 0
 4811 00d0 AC62     		str	r4, [r5, #40]	@ float
 4812              		.loc 2 59 0
 4813 00d2 0022     		movs	r2, #0
 4814              		.loc 2 61 0
 4815 00d4 EC62     		str	r4, [r5, #44]	@ float
 4816              		.loc 2 62 0
 4817 00d6 2C63     		str	r4, [r5, #48]	@ float
 4818              		.loc 2 63 0
 4819 00d8 6C63     		str	r4, [r5, #52]	@ float
 4820              		.loc 2 64 0
 4821 00da 6964     		str	r1, [r5, #68]	@ float
 4822              		.loc 2 59 0
 4823 00dc AA64     		str	r2, [r5, #72]
 4824              		.loc 2 66 0
 4825 00de 9C61     		str	r4, [r3, #24]	@ float
 4826              	.LBE4702:
 4827              		.loc 2 67 0
 4828 00e0 F8BD     		pop	{r3, r4, r5, r6, r7, pc}
 4829              	.LVL325:
 4830              	.L129:
 4831 00e2 00BF     		.align	2
 4832              	.L128:
 4833 00e4 44000000 		.word	_ZN5warps12lut_ap_polesE+68
 4834 00e8 00000000 		.word	_ZN5warps12lut_ap_polesE
 4835 00ec 00004042 		.word	1111490560
 4836              		.cfi_endproc
 4837              	.LFE762:
 4838              		.fnend
 4839              		.size	_ZN5warps9Modulator4InitEf, .-_ZN5warps9Modulator4InitEf
 4840              		.align	2
 4841              		.p2align 4,,15
 4842              		.global	_ZN5warps9Modulator16ProcessEasterEggEPNS_10ShortFrameES2_j
 4843              		.thumb
 4844              		.thumb_func
 4845              		.type	_ZN5warps9Modulator16ProcessEasterEggEPNS_10ShortFrameES2_j, %function
ARM GAS  /var/folders/28/j9jfyj_n4wz3qtvnym210h2c0000gn/T//cckC861L.s 			page 86


 4846              	_ZN5warps9Modulator16ProcessEasterEggEPNS_10ShortFrameES2_j:
 4847              		.fnstart
 4848              	.LFB763:
 4849              		.loc 2 72 0
 4850              		.cfi_startproc
 4851              		@ args = 0, pretend = 0, frame = 32
 4852              		@ frame_needed = 0, uses_anonymous_args = 0
 4853              	.LVL326:
 4854 00f0 2DE9F04F 		push	{r4, r5, r6, r7, r8, r9, r10, fp, lr}
 4855              		.cfi_def_cfa_offset 36
 4856              		.cfi_offset 4, -36
 4857              		.cfi_offset 5, -32
 4858              		.cfi_offset 6, -28
 4859              		.cfi_offset 7, -24
 4860              		.cfi_offset 8, -20
 4861              		.cfi_offset 9, -16
 4862              		.cfi_offset 10, -12
 4863              		.cfi_offset 11, -8
 4864              		.cfi_offset 14, -4
 4865 00f4 2DED068B 		fstmfdd	sp!, {d8, d9, d10}
 4866              		.cfi_def_cfa_offset 60
 4867              		.cfi_offset 80, -60
 4868              		.cfi_offset 81, -56
 4869              		.cfi_offset 82, -52
 4870              		.cfi_offset 83, -48
 4871              		.cfi_offset 84, -44
 4872              		.cfi_offset 85, -40
 4873 00f8 8346     		mov	fp, r0
 4874 00fa 89B0     		sub	sp, sp, #36
 4875              		.cfi_def_cfa_offset 96
 4876              	.LBB4800:
 4877              	.LBB4801:
 4878              		.loc 2 78 0
 4879 00fc 406A     		ldr	r0, [r0, #36]
 4880              	.LVL327:
 4881 00fe 0090     		str	r0, [sp]
 4882              	.LBE4801:
 4883              		.loc 2 74 0
 4884 0100 0BF51955 		add	r5, fp, #9792
 4885              		.loc 2 75 0
 4886 0104 03F6961E 		addw	lr, r3, #2454
 4887              	.LBE4800:
 4888              		.loc 2 72 0
 4889 0108 0191     		str	r1, [sp, #4]
 4890              	.LVL328:
 4891 010a 0392     		str	r2, [sp, #12]
 4892              	.LBB5049:
 4893              		.loc 2 74 0
 4894 010c 1835     		adds	r5, r5, #24
 4895              	.LVL329:
 4896              		.loc 2 75 0
 4897 010e 0BEB8E0E 		add	lr, fp, lr, lsl #2
 4898              	.LVL330:
 4899              	.LBB4940:
 4900              		.loc 2 78 0
 4901 0112 0028     		cmp	r0, #0
 4902 0114 40F0B780 		bne	.L131
ARM GAS  /var/folders/28/j9jfyj_n4wz3qtvnym210h2c0000gn/T//cckC861L.s 			page 87


 4903              	.LBE4940:
 4904              		.loc 2 73 0 discriminator 1
 4905 0118 0BF51657 		add	r7, fp, #9600
 4906 011c 1837     		adds	r7, r7, #24
 4907              	.LVL331:
 4908              	.LBB4941:
 4909              	.LBB4802:
 4910              	.LBB4803:
 4911              		.loc 2 100 0 discriminator 1
 4912 011e 002B     		cmp	r3, #0
 4913 0120 00F05083 		beq	.L217
 4914              		.loc 2 101 0
 4915 0124 9FEDE97A 		flds	s14, .L223
 4916              		.loc 2 100 0
 4917 0128 009A     		ldr	r2, [sp]
 4918              	.LVL332:
 4919 012a 0198     		ldr	r0, [sp, #4]
 4920 012c 3946     		mov	r1, r7
 4921              	.LVL333:
 4922              	.L149:
 4923              		.loc 2 101 0 discriminator 3
 4924 012e 30F92240 		ldrsh	r4, [r0, r2, lsl #2]
 4925 0132 07EE904A 		fmsr	s15, r4	@ int
 4926 0136 F8EEE77A 		fsitos	s15, s15
 4927              		.loc 2 100 0 discriminator 3
 4928 013a 0132     		adds	r2, r2, #1
 4929              	.LVL334:
 4930              		.loc 2 101 0 discriminator 3
 4931 013c 67EE877A 		fmuls	s15, s15, s14
 4932              		.loc 2 100 0 discriminator 3
 4933 0140 9A42     		cmp	r2, r3
 4934              		.loc 2 101 0 discriminator 3
 4935 0142 E1EC017A 		fstmias	r1!, {s15}
 4936              		.loc 2 100 0 discriminator 3
 4937 0146 F2D1     		bne	.L149
 4938              	.LVL335:
 4939              	.LBE4803:
 4940              	.LBB4804:
 4941              	.LBB4805:
 4942              		.loc 5 62 0
 4943 0148 0BF50C52 		add	r2, fp, #8960
 4944              	.LVL336:
 4945 014c D2F830C1 		ldr	ip, [r2, #304]
 4946 0150 BCF1000F 		cmp	ip, #0
 4947 0154 40F34383 		ble	.L218
 4948              	.LVL337:
 4949              	.L169:
 4950 0158 0BF50C54 		add	r4, fp, #8960
 4951 015c 1834     		adds	r4, r4, #24
 4952              	.LVL338:
 4953 015e 03F1FF38 		add	r8, r3, #-1
 4954              	.LBB4806:
 4955              		.loc 5 63 0
 4956 0162 2946     		mov	r1, r5
 4957              		.loc 5 64 0
 4958 0164 3846     		mov	r0, r7
 4959              	.LVL339:
ARM GAS  /var/folders/28/j9jfyj_n4wz3qtvnym210h2c0000gn/T//cckC861L.s 			page 88


 4960 0166 0026     		movs	r6, #0
 4961              	.LVL340:
 4962              	.LBB4807:
 4963              	.LBB4808:
 4964              		.loc 5 89 0
 4965 0168 94ED006A 		flds	s12, [r4]
 4966              	.LVL341:
 4967              		.loc 5 90 0
 4968 016c 54ED026A 		flds	s13, [r4, #-8]
 4969              	.LVL342:
 4970              		.loc 5 91 0
 4971 0170 54ED017A 		flds	s15, [r4, #-4]
 4972              	.LVL343:
 4973              		.loc 5 92 0
 4974 0174 53B3     		cbz	r3, .L178
 4975              	.LVL344:
 4976              	.L220:
 4977 0176 4246     		mov	r2, r8
 4978              	.LVL345:
 4979              	.L155:
 4980              	.LBB4809:
 4981              		.loc 5 93 0
 4982 0178 B0EC017A 		fldmias	r0!, {s14}
 4983              	.LVL346:
 4984              		.loc 5 94 0
 4985 017c 77EE677A 		fsubs	s15, s14, s15
 4986              	.LVL347:
 4987              	.LBE4809:
 4988              		.loc 5 92 0
 4989 0180 013A     		subs	r2, r2, #1
 4990              	.LVL348:
 4991              	.LBB4810:
 4992              		.loc 5 94 0
 4993 0182 E6EE276A 		vfma.f32	s13, s12, s15
 4994              	.LVL349:
 4995              	.LBE4810:
 4996              		.loc 5 92 0
 4997 0186 B2F1FF3F 		cmp	r2, #-1
 4998              	.LBB4811:
 4999              		.loc 5 94 0
 5000 018a F0EE667A 		fcpys	s15, s13
 5001              	.LVL350:
 5002              		.loc 5 95 0
 5003 018e E1EC017A 		fstmias	r1!, {s15}
 5004              	.LVL351:
 5005              		.loc 5 93 0
 5006 0192 F0EE476A 		fcpys	s13, s14
 5007              	.LVL352:
 5008              	.LBE4811:
 5009              		.loc 5 92 0
 5010 0196 EFD1     		bne	.L155
 5011              	.LBE4808:
 5012              	.LBE4807:
 5013              	.LBE4806:
 5014              		.loc 5 62 0
 5015 0198 0136     		adds	r6, r6, #1
 5016              	.LVL353:
ARM GAS  /var/folders/28/j9jfyj_n4wz3qtvnym210h2c0000gn/T//cckC861L.s 			page 89


 5017 019a 6645     		cmp	r6, ip
 5018              	.LBB4822:
 5019              	.LBB4817:
 5020              	.LBB4812:
 5021              		.loc 5 99 0
 5022 019c 04ED027A 		fsts	s14, [r4, #-8]
 5023              		.loc 5 100 0
 5024 01a0 44ED017A 		fsts	s15, [r4, #-4]
 5025              	.LBE4812:
 5026              	.LBE4817:
 5027              	.LBE4822:
 5028              		.loc 5 62 0
 5029 01a4 1BDA     		bge	.L219
 5030              	.LVL354:
 5031              	.L156:
 5032              	.LBB4823:
 5033              		.loc 5 63 0
 5034 01a6 16F0010F 		tst	r6, #1
 5035 01aa 04F10C04 		add	r4, r4, #12
 5036 01ae 14BF     		ite	ne
 5037 01b0 7146     		movne	r1, lr
 5038              	.LVL355:
 5039 01b2 2946     		moveq	r1, r5
 5040              	.LVL356:
 5041              		.loc 5 64 0
 5042 01b4 012E     		cmp	r6, #1
 5043 01b6 0CBF     		ite	eq
 5044 01b8 3846     		moveq	r0, r7
 5045 01ba 0846     		movne	r0, r1
 5046              	.LVL357:
 5047              	.LBB4818:
 5048              	.LBB4813:
 5049              		.loc 5 89 0
 5050 01bc 94ED006A 		flds	s12, [r4]
 5051              	.LVL358:
 5052              		.loc 5 90 0
 5053 01c0 54ED026A 		flds	s13, [r4, #-8]
 5054              	.LVL359:
 5055              		.loc 5 91 0
 5056 01c4 54ED017A 		flds	s15, [r4, #-4]
 5057              	.LVL360:
 5058              		.loc 5 92 0
 5059 01c8 002B     		cmp	r3, #0
 5060 01ca D4D1     		bne	.L220
 5061              	.LVL361:
 5062              	.L178:
 5063              	.LBE4813:
 5064              	.LBE4818:
 5065              	.LBE4823:
 5066              		.loc 5 62 0
 5067 01cc 0136     		adds	r6, r6, #1
 5068              	.LVL362:
 5069              	.LBB4824:
 5070              	.LBB4819:
 5071              	.LBB4814:
 5072              		.loc 5 90 0
 5073 01ce B0EE667A 		fcpys	s14, s13
ARM GAS  /var/folders/28/j9jfyj_n4wz3qtvnym210h2c0000gn/T//cckC861L.s 			page 90


 5074              	.LBE4814:
 5075              	.LBE4819:
 5076              	.LBE4824:
 5077              		.loc 5 62 0
 5078 01d2 6645     		cmp	r6, ip
 5079              	.LBB4825:
 5080              	.LBB4820:
 5081              	.LBB4815:
 5082              		.loc 5 99 0
 5083 01d4 04ED027A 		fsts	s14, [r4, #-8]
 5084              		.loc 5 100 0
 5085 01d8 44ED017A 		fsts	s15, [r4, #-4]
 5086              	.LBE4815:
 5087              	.LBE4820:
 5088              	.LBE4825:
 5089              		.loc 5 62 0
 5090 01dc E3DB     		blt	.L156
 5091              	.LVL363:
 5092              	.L219:
 5093              	.LBE4805:
 5094              	.LBE4804:
 5095              	.LBB4829:
 5096              	.LBB4830:
 5097              	.LBB4831:
 5098              		.file 9 "./mutable_instruments/stmlib/dsp/parameter_interpolator.h"
 5099              		.loc 9 49 0
 5100 01de 9BED105A 		flds	s10, [fp, #64]
 5101              	.LVL364:
 5102              		.loc 9 50 0
 5103 01e2 9BED073A 		flds	s6, [fp, #28]
 5104 01e6 07EE903A 		fmsr	s15, r3	@ int
 5105              	.LVL365:
 5106 01ea 33EE453A 		fsubs	s6, s6, s10
 5107 01ee B8EE674A 		fuitos	s8, s15
 5108 01f2 83EE043A 		fdivs	s6, s6, s8
 5109              	.LVL366:
 5110              	.LBE4831:
 5111              	.LBE4830:
 5112              	.LBE4829:
 5113              	.LBB4834:
 5114              		.loc 2 110 0
 5115 01f6 002B     		cmp	r3, #0
 5116 01f8 42D0     		beq	.L157
 5117              	.LVL367:
 5118              	.L171:
 5119 01fa B54F     		ldr	r7, .L223+4
 5120 01fc 2E46     		mov	r6, r5
 5121 01fe 07F5806C 		add	ip, r7, #1024
 5122 0202 7446     		mov	r4, lr
 5123              	.LBE4834:
 5124              	.LBB4862:
 5125              	.LBB4827:
 5126              	.LBB4826:
 5127              	.LBB4821:
 5128              	.LBB4816:
 5129              		.loc 5 90 0 discriminator 3
 5130 0204 0020     		movs	r0, #0
ARM GAS  /var/folders/28/j9jfyj_n4wz3qtvnym210h2c0000gn/T//cckC861L.s 			page 91


 5131              	.LBE4816:
 5132              	.LBE4821:
 5133              	.LBE4826:
 5134              	.LBE4827:
 5135              	.LBE4862:
 5136              	.LBB4863:
 5137              	.LBB4835:
 5138              	.LBB4836:
 5139              	.LBB4837:
 5140              		.loc 4 44 0 discriminator 3
 5141 0206 DFEDB32A 		flds	s5, .L223+8
 5142              	.LVL368:
 5143              	.L158:
 5144              	.LBE4837:
 5145              	.LBE4836:
 5146              		.loc 2 112 0 discriminator 3
 5147 020a D4ED004A 		flds	s9, [r4]
 5148              		.loc 2 111 0 discriminator 3
 5149 020e D6ED003A 		flds	s7, [r6]
 5150              	.LVL369:
 5151              	.LBB4844:
 5152              	.LBB4845:
 5153              		.loc 9 54 0 discriminator 3
 5154 0212 35EE035A 		fadds	s10, s10, s6
 5155              	.LVL370:
 5156              	.LBE4845:
 5157              	.LBE4844:
 5158              	.LBE4835:
 5159              		.loc 2 110 0 discriminator 3
 5160 0216 0130     		adds	r0, r0, #1
 5161              	.LVL371:
 5162              	.LBB4860:
 5163              	.LBB4846:
 5164              	.LBB4838:
 5165              		.loc 4 44 0 discriminator 3
 5166 0218 25EE227A 		fmuls	s14, s10, s5
 5167              	.LVL372:
 5168              	.LBE4838:
 5169              	.LBE4846:
 5170              	.LBE4860:
 5171              		.loc 2 110 0 discriminator 3
 5172 021c 8342     		cmp	r3, r0
 5173              	.LBB4861:
 5174              	.LBB4847:
 5175              	.LBB4839:
 5176              		.loc 4 45 0 discriminator 3
 5177 021e FDEEC77A 		ftosizs	s15, s14
 5178              	.LVL373:
 5179              		.loc 4 46 0 discriminator 3
 5180 0222 17EE902A 		fmrs	r2, s15	@ int
 5181 0226 4FEA8202 		lsl	r2, r2, #2
 5182              		.loc 4 47 0 discriminator 3
 5183 022a 02F10401 		add	r1, r2, #4
 5184              	.LBE4839:
 5185              	.LBE4847:
 5186              	.LBB4848:
 5187              	.LBB4849:
ARM GAS  /var/folders/28/j9jfyj_n4wz3qtvnym210h2c0000gn/T//cckC861L.s 			page 92


 5188 022e 0CEB0109 		add	r9, ip, r1
 5189              		.loc 4 46 0 discriminator 3
 5190 0232 0CEB0208 		add	r8, ip, r2
 5191              		.loc 4 48 0 discriminator 3
 5192 0236 99ED006A 		flds	s12, [r9]
 5193              		.loc 4 46 0 discriminator 3
 5194 023a D8ED006A 		flds	s13, [r8]
 5195              	.LBE4849:
 5196              	.LBE4848:
 5197              	.LBB4853:
 5198              	.LBB4840:
 5199              		.loc 4 45 0 discriminator 3
 5200 023e F8EEE77A 		fsitos	s15, s15
 5201              	.LVL374:
 5202              		.loc 4 47 0 discriminator 3
 5203 0242 3944     		add	r1, r1, r7
 5204              		.loc 4 45 0 discriminator 3
 5205 0244 77EE677A 		fsubs	s15, s14, s15
 5206              	.LVL375:
 5207              		.loc 4 46 0 discriminator 3
 5208 0248 3A44     		add	r2, r2, r7
 5209              	.LBE4840:
 5210              	.LBE4853:
 5211              	.LBB4854:
 5212              	.LBB4850:
 5213              		.loc 4 48 0 discriminator 3
 5214 024a 36EE667A 		fsubs	s14, s12, s13
 5215              	.LVL376:
 5216              	.LBE4850:
 5217              	.LBE4854:
 5218              	.LBB4855:
 5219              	.LBB4841:
 5220 024e D1ED005A 		flds	s11, [r1]
 5221              		.loc 4 46 0 discriminator 3
 5222 0252 92ED006A 		flds	s12, [r2]
 5223              	.LVL377:
 5224              	.LBE4841:
 5225              	.LBE4855:
 5226              	.LBB4856:
 5227              	.LBB4851:
 5228              		.loc 4 48 0 discriminator 3
 5229 0256 E7EE876A 		vfma.f32	s13, s15, s14
 5230              	.LBE4851:
 5231              	.LBE4856:
 5232              	.LBB4857:
 5233              	.LBB4842:
 5234 025a 75EEC65A 		fsubs	s11, s11, s12
 5235              	.LBE4842:
 5236              	.LBE4857:
 5237              	.LBB4858:
 5238              	.LBB4852:
 5239 025e B0EE667A 		fcpys	s14, s13
 5240              	.LBE4852:
 5241              	.LBE4858:
 5242              	.LBB4859:
 5243              	.LBB4843:
 5244 0262 A7EEA56A 		vfma.f32	s12, s15, s11
ARM GAS  /var/folders/28/j9jfyj_n4wz3qtvnym210h2c0000gn/T//cckC861L.s 			page 93


 5245              	.LVL378:
 5246              	.LBE4843:
 5247              	.LBE4859:
 5248              		.loc 2 116 0 discriminator 3
 5249 0266 64EEA66A 		fmuls	s13, s9, s13
 5250              	.LVL379:
 5251 026a 27EE637A 		fnmuls	s14, s14, s7
 5252 026e E3EE866A 		vfma.f32	s13, s7, s12
 5253              		.loc 2 117 0 discriminator 3
 5254 0272 A4EE867A 		vfma.f32	s14, s9, s12
 5255              		.loc 2 116 0 discriminator 3
 5256 0276 E6EC016A 		fstmias	r6!, {s13}
 5257              	.LVL380:
 5258              		.loc 2 117 0 discriminator 3
 5259 027a A4EC017A 		fstmias	r4!, {s14}
 5260              	.LBE4861:
 5261              		.loc 2 110 0 discriminator 3
 5262 027e C4D8     		bhi	.L158
 5263              	.LVL381:
 5264              	.L157:
 5265              	.LBE4863:
 5266              	.LBB4864:
 5267              	.LBB4865:
 5268              		.loc 9 44 0
 5269 0280 8BED105A 		fsts	s10, [fp, #64]
 5270 0284 4EE1     		b	.L148
 5271              	.LVL382:
 5272              	.L131:
 5273              	.LBE4865:
 5274              	.LBE4864:
 5275              	.LBE4802:
 5276              	.LBB4868:
 5277              		.loc 2 79 0
 5278 0286 9BED057A 		flds	s14, [fp, #20]
 5279 028a F6EE007A 		fconsts	s15, #96
 5280 028e 77EE677A 		fsubs	s15, s14, s15
 5281              	.LVL383:
 5282              		.loc 2 80 0
 5283 0292 F2EE0C6A 		fconsts	s13, #44
 5284 0296 B7EE006A 		fconsts	s12, #112
 5285 029a 66EEE76A 		fnmuls	s13, s13, s15
 5286 029e F0EE465A 		fcpys	s11, s12
 5287 02a2 E6EEA75A 		vfma.f32	s11, s13, s15
 5288              		.loc 2 81 0
 5289 02a6 F5EEC05A 		fcmpezs	s11
 5290 02aa F1EE10FA 		fmstat
 5291              		.loc 2 80 0
 5292 02ae F0EE656A 		fcpys	s13, s11
 5293              	.LVL384:
 5294 02b2 54BF     		ite	pl
 5295 02b4 76EE654A 		fsubspl	s9, s12, s11
 5296              		.loc 2 82 0
 5297 02b8 DFED876A 		fldsmi	s13, .L223+12
 5298              	.LVL385:
 5299              		.loc 2 85 0
 5300 02bc DBED065A 		flds	s11, [fp, #24]
 5301 02c0 A5EEA67A 		vfma.f32	s14, s11, s13
ARM GAS  /var/folders/28/j9jfyj_n4wz3qtvnym210h2c0000gn/T//cckC861L.s 			page 94


 5302              	.LVL386:
 5303              		.loc 2 87 0
 5304 02c4 F6EE006A 		fconsts	s13, #96
 5305              	.LVL387:
 5306              		.loc 2 88 0
 5307 02c8 77EE667A 		fsubs	s15, s14, s13
 5308              	.LVL388:
 5309 02cc 48BF     		it	mi
 5310 02ce F0EE464A 		fcpysmi	s9, s12
 5311              	.LBB4869:
 5312              	.LBB4870:
 5313              		.loc 3 261 0
 5314 02d2 F0EEE77A 		fabss	s15, s15
 5315              	.LBE4870:
 5316              	.LBE4869:
 5317              		.loc 2 91 0
 5318 02d6 9FED816A 		flds	s12, .L223+16
 5319              	.LVL389:
 5320              		.loc 2 88 0
 5321 02da 77EEA77A 		fadds	s15, s15, s15
 5322              		.loc 2 87 0
 5323 02de B4EEE67A 		fcmpes	s14, s13
 5324 02e2 F1EE10FA 		fmstat
 5325              	.LVL390:
 5326 02e6 F7EE006A 		fconsts	s13, #112
 5327              	.LVL391:
 5328 02ea BFEE007A 		fconsts	s14, #240
 5329              	.LVL392:
 5330              		.loc 2 91 0
 5331 02ee F4EEC67A 		fcmpes	s15, s12
 5332              		.loc 2 87 0
 5333 02f2 A8BF     		it	ge
 5334 02f4 B0EE667A 		fcpysge	s14, s13
 5335              	.LVL393:
 5336              		.loc 2 91 0
 5337 02f8 F1EE10FA 		fmstat
 5338 02fc 40F20081 		bls	.L221
 5339              	.LVL394:
 5340              		.loc 2 91 0 is_stmt 0 discriminator 2
 5341 0300 77EEC67A 		fsubs	s15, s15, s12
 5342              	.LVL395:
 5343              	.LBB4871:
 5344              	.LBB4872:
 5345              		.file 10 "./mutable_instruments/stmlib/dsp/units.h"
 5346              		.loc 10 41 0 is_stmt 1 discriminator 2
 5347 0304 DFED766A 		flds	s13, .L223+20
 5348              	.LVL396:
 5349 0308 9FED766A 		flds	s12, .L223+24
 5350              		.loc 10 44 0 discriminator 2
 5351 030c 7648     		ldr	r0, .L223+28
 5352              		.loc 10 45 0 discriminator 2
 5353 030e 7749     		ldr	r1, .L223+32
 5354              	.LVL397:
 5355              		.loc 10 41 0 discriminator 2
 5356 0310 E7EE866A 		vfma.f32	s13, s15, s12
 5357              	.LVL398:
 5358              	.LBE4872:
ARM GAS  /var/folders/28/j9jfyj_n4wz3qtvnym210h2c0000gn/T//cckC861L.s 			page 95


 5359              	.LBE4871:
 5360              		.loc 2 91 0 discriminator 2
 5361 0314 B1EE006A 		fconsts	s12, #16
 5362              	.LBB4874:
 5363              	.LBB4873:
 5364              		.loc 10 42 0 discriminator 2
 5365 0318 BDEEE64A 		ftosizs	s8, s13
 5366              	.LVL399:
 5367 031c B8EEC45A 		fsitos	s10, s8
 5368              		.loc 10 44 0 discriminator 2
 5369 0320 14EE102A 		fmrs	r2, s8	@ int
 5370              	.LVL400:
 5371              		.loc 10 42 0 discriminator 2
 5372 0324 36EEC55A 		fsubs	s10, s13, s10
 5373              	.LVL401:
 5374              		.loc 10 44 0 discriminator 2
 5375 0328 00EB8202 		add	r2, r0, r2, lsl #2
 5376 032c F0EE457A 		fcpys	s15, s10
 5377 0330 FEEECC7A 		vcvt.s32.f32	s15, s15, #8
 5378              		.loc 10 45 0 discriminator 2
 5379 0334 D2ED006A 		flds	s13, [r2]
 5380              	.LVL402:
 5381              		.loc 10 44 0 discriminator 2
 5382 0338 17EE902A 		fmrs	r2, s15	@ int
 5383              		.loc 10 45 0 discriminator 2
 5384 033c 01EB8202 		add	r2, r1, r2, lsl #2
 5385 0340 D2ED007A 		flds	s15, [r2]
 5386 0344 66EEA77A 		fmuls	s15, s13, s15
 5387              	.LBE4873:
 5388              	.LBE4874:
 5389              		.loc 2 91 0 discriminator 2
 5390 0348 27EE866A 		fmuls	s12, s15, s12
 5391              	.LVL403:
 5392              	.L138:
 5393              		.loc 2 93 0 discriminator 4
 5394 034c DFED687A 		flds	s15, .L223+36
 5395              	.LBB4875:
 5396              	.LBB4876:
 5397              		.loc 10 41 0 discriminator 4
 5398 0350 DFED636A 		flds	s13, .L223+20
 5399              	.LBE4876:
 5400              	.LBE4875:
 5401              		.loc 2 97 0 discriminator 4
 5402 0354 009A     		ldr	r2, [sp]
 5403              	.LBB4880:
 5404              	.LBB4881:
 5405              		.loc 8 60 0 discriminator 4
 5406 0356 9BED374A 		flds	s8, [fp, #220]
 5407              	.LBE4881:
 5408              	.LBE4880:
 5409              		.loc 2 93 0 discriminator 4
 5410 035a 65EEA75A 		fmuls	s11, s11, s15
 5411              	.LVL404:
 5412              		.loc 2 97 0 discriminator 4
 5413 035e 013A     		subs	r2, r2, #1
 5414              		.loc 2 93 0 discriminator 4
 5415 0360 65EEA45A 		fmuls	s11, s11, s9
ARM GAS  /var/folders/28/j9jfyj_n4wz3qtvnym210h2c0000gn/T//cckC861L.s 			page 96


 5416              		.loc 2 97 0 discriminator 4
 5417 0364 02EE102A 		fmsr	s4, r2	@ int
 5418              	.LBB4931:
 5419              	.LBB4877:
 5420              		.loc 10 41 0 discriminator 4
 5421 0368 E7EE256A 		vfma.f32	s13, s14, s11
 5422              	.LVL405:
 5423              	.LBE4877:
 5424              	.LBE4931:
 5425              	.LBB4932:
 5426              	.LBB4927:
 5427              		.loc 8 61 0 discriminator 4
 5428 036c BDEE005A 		fconsts	s10, #208
 5429              	.LBE4927:
 5430              	.LBE4932:
 5431              	.LBB4933:
 5432              	.LBB4878:
 5433              		.loc 10 42 0 discriminator 4
 5434 0370 FDEEE65A 		ftosizs	s11, s13
 5435              	.LVL406:
 5436              	.LBE4878:
 5437              	.LBE4933:
 5438              		.loc 2 97 0 discriminator 4
 5439 0374 BAEEEF2A 		vcvt.f32.s32	s4, s4, #1
 5440              	.LBB4934:
 5441              	.LBB4879:
 5442              		.loc 10 42 0 discriminator 4
 5443 0378 F8EEE57A 		fsitos	s15, s11
 5444              		.loc 10 44 0 discriminator 4
 5445 037c 15EE902A 		fmrs	r2, s11	@ int
 5446              		.loc 10 42 0 discriminator 4
 5447 0380 76EEE76A 		fsubs	s13, s13, s15
 5448              	.LVL407:
 5449              		.loc 10 44 0 discriminator 4
 5450 0384 00EB8200 		add	r0, r0, r2, lsl #2
 5451 0388 FEEECC6A 		vcvt.s32.f32	s13, s13, #8
 5452              	.LVL408:
 5453              		.loc 10 45 0 discriminator 4
 5454 038c D0ED005A 		flds	s11, [r0]
 5455              	.LVL409:
 5456 0390 16EE902A 		fmrs	r2, s13	@ int
 5457              	.LVL410:
 5458 0394 01EB8201 		add	r1, r1, r2, lsl #2
 5459 0398 D1ED007A 		flds	s15, [r1]
 5460 039c 65EEA77A 		fmuls	s15, s11, s15
 5461              	.LBE4879:
 5462              	.LBE4934:
 5463              		.loc 2 94 0 discriminator 4
 5464 03a0 66EE277A 		fmuls	s15, s12, s15
 5465              	.LVL411:
 5466              		.loc 2 95 0 discriminator 4
 5467 03a4 27EE277A 		fmuls	s14, s14, s15
 5468              	.LVL412:
 5469              	.LBB4935:
 5470              	.LBB4928:
 5471              		.loc 8 60 0 discriminator 4
 5472 03a8 67EE047A 		fmuls	s15, s14, s8
ARM GAS  /var/folders/28/j9jfyj_n4wz3qtvnym210h2c0000gn/T//cckC861L.s 			page 97


 5473              	.LVL413:
 5474              		.loc 8 61 0 discriminator 4
 5475 03ac F4EEC57A 		fcmpes	s15, s10
 5476 03b0 F1EE10FA 		fmstat
 5477 03b4 00F10382 		bmi	.L175
 5478              		.loc 8 61 0 is_stmt 0
 5479 03b8 B5EE007A 		fconsts	s14, #80
 5480              	.LVL414:
 5481 03bc F4EE477A 		fcmps	s15, s14
 5482 03c0 F1EE10FA 		fmstat
 5483 03c4 C8BF     		it	gt
 5484 03c6 F0EE477A 		fcpysgt	s15, s14
 5485              	.LVL415:
 5486              	.L139:
 5487              	.LBB4882:
 5488              	.LBB4883:
 5489              	.LBB4884:
 5490              		.loc 9 49 0 is_stmt 1
 5491 03ca DBED393A 		flds	s7, [fp, #228]
 5492              	.LVL416:
 5493              	.LBE4884:
 5494              	.LBE4883:
 5495              	.LBE4882:
 5496              	.LBB4889:
 5497              	.LBB4890:
 5498              	.LBB4891:
 5499 03ce 9BED3A3A 		flds	s6, [fp, #232]
 5500              	.LBE4891:
 5501              	.LBE4890:
 5502              	.LBE4889:
 5503              		.loc 8 68 0
 5504 03d2 DBED384A 		flds	s9, [fp, #224]
 5505              	.LVL417:
 5506              	.LBB4896:
 5507              	.LBB4887:
 5508              	.LBB4885:
 5509              		.loc 9 50 0
 5510 03d6 07EE103A 		fmsr	s14, r3	@ int
 5511 03da 77EEE37A 		fsubs	s15, s15, s7
 5512              	.LVL418:
 5513 03de B8EE474A 		fuitos	s8, s14
 5514              	.LBE4885:
 5515              	.LBE4887:
 5516              	.LBE4896:
 5517              	.LBB4897:
 5518              	.LBB4894:
 5519              	.LBB4892:
 5520 03e2 32EE432A 		fsubs	s4, s4, s6
 5521              	.LVL419:
 5522              	.LBE4892:
 5523              	.LBE4894:
 5524              	.LBE4897:
 5525              	.LBB4898:
 5526              	.LBB4888:
 5527              	.LBB4886:
 5528 03e6 C7EE842A 		fdivs	s5, s15, s8
 5529              	.LVL420:
ARM GAS  /var/folders/28/j9jfyj_n4wz3qtvnym210h2c0000gn/T//cckC861L.s 			page 98


 5530              	.LBE4886:
 5531              	.LBE4888:
 5532              	.LBE4898:
 5533              		.loc 8 69 0
 5534 03ea 03F1FF39 		add	r9, r3, #-1
 5535              	.LBB4899:
 5536              	.LBB4895:
 5537              	.LBB4893:
 5538              		.loc 9 50 0
 5539 03ee 82EE042A 		fdivs	s4, s4, s8
 5540              	.LVL421:
 5541              	.LBE4893:
 5542              	.LBE4895:
 5543              	.LBE4899:
 5544              		.loc 8 69 0
 5545 03f2 002B     		cmp	r3, #0
 5546 03f4 00F09080 		beq	.L141
 5547 03f8 F246     		mov	r10, lr
 5548 03fa A846     		mov	r8, r5
 5549              	.LBB4900:
 5550              		.loc 8 74 0
 5551 03fc 0295     		str	r5, [sp, #8]
 5552              		.loc 8 78 0
 5553 03fe DFED3D0A 		flds	s1, .L223+40
 5554 0402 9FED341A 		flds	s2, .L223+8
 5555              		.loc 8 74 0
 5556 0406 F7EE001A 		fconsts	s3, #112
 5557              	.LVL422:
 5558 040a 52E0     		b	.L147
 5559              	.LVL423:
 5560              	.L207:
 5561 040c F4EEE14A 		fcmpes	s9, s3
 5562 0410 F1EE10FA 		fmstat
 5563              		.loc 8 75 0
 5564 0414 A8BF     		it	ge
 5565 0416 74EEE14A 		fsubsge	s9, s9, s3
 5566              	.LVL424:
 5567              	.L144:
 5568              	.LBB4901:
 5569              	.LBB4902:
 5570              		.loc 9 54 0
 5571 041a 33EE023A 		fadds	s6, s6, s4
 5572              	.LVL425:
 5573 041e 64EE816A 		fmuls	s13, s9, s2
 5574              	.LBE4902:
 5575              	.LBE4901:
 5576              		.loc 8 78 0
 5577 0422 23EE207A 		fmuls	s14, s6, s1
 5578              	.LVL426:
 5579 0426 FDEEE65A 		ftosizs	s11, s13
 5580              		.loc 8 79 0
 5581 042a BDEEC75A 		ftosizs	s10, s14
 5582              	.LVL427:
 5583 042e 15EE901A 		fmrs	r1, s11	@ int
 5584 0432 15EE102A 		fmrs	r2, s10	@ int
 5585 0436 F8EEE57A 		fsitos	s15, s11
 5586 043a B8EEC56A 		fsitos	s12, s10
ARM GAS  /var/folders/28/j9jfyj_n4wz3qtvnym210h2c0000gn/T//cckC861L.s 			page 99


 5587 043e D200     		lsls	r2, r2, #3
 5588 0440 8C00     		lsls	r4, r1, #2
 5589 0442 2D49     		ldr	r1, .L223+44
 5590 0444 02F10806 		add	r6, r2, #8
 5591 0448 37EE466A 		fsubs	s12, s14, s12
 5592              	.LVL428:
 5593 044c 76EEE76A 		fsubs	s13, s13, s15
 5594 0450 0E44     		add	r6, r6, r1
 5595 0452 0A44     		add	r2, r2, r1
 5596 0454 271D     		adds	r7, r4, #4
 5597 0456 06AD     		add	r5, sp, #24
 5598              	.LVL429:
 5599              	.L146:
 5600              	.LBB4903:
 5601              	.LBB4904:
 5602              		.loc 8 86 0
 5603 0458 52F8040B 		ldr	r0, [r2], #4
 5604              	.LVL430:
 5605              		.loc 8 91 0
 5606 045c 56F8041B 		ldr	r1, [r6], #4
 5607              	.LBB4905:
 5608              	.LBB4906:
 5609              		.loc 4 46 0
 5610 0460 00EB040C 		add	ip, r0, r4
 5611              		.loc 4 47 0
 5612 0464 3844     		add	r0, r0, r7
 5613              	.LVL431:
 5614              		.loc 4 48 0
 5615 0466 90ED005A 		flds	s10, [r0]
 5616              		.loc 4 46 0
 5617 046a DCED007A 		flds	s15, [ip]
 5618              	.LVL432:
 5619              	.LBE4906:
 5620              	.LBE4905:
 5621              	.LBB4909:
 5622              	.LBB4910:
 5623 046e 0819     		adds	r0, r1, r4
 5624              		.loc 4 47 0
 5625 0470 3944     		add	r1, r1, r7
 5626              		.loc 4 46 0
 5627 0472 90ED007A 		flds	s14, [r0]
 5628              		.loc 4 48 0
 5629 0476 D1ED005A 		flds	s11, [r1]
 5630              	.LBE4910:
 5631              	.LBE4909:
 5632              	.LBB4913:
 5633              	.LBB4907:
 5634 047a 35EE675A 		fsubs	s10, s10, s15
 5635              	.LBE4907:
 5636              	.LBE4913:
 5637              	.LBB4914:
 5638              	.LBB4911:
 5639 047e 75EEC75A 		fsubs	s11, s11, s14
 5640              	.LBE4911:
 5641              	.LBE4914:
 5642              	.LBB4915:
 5643              	.LBB4908:
ARM GAS  /var/folders/28/j9jfyj_n4wz3qtvnym210h2c0000gn/T//cckC861L.s 			page 100


 5644 0482 E5EE267A 		vfma.f32	s15, s10, s13
 5645              	.LVL433:
 5646              	.LBE4908:
 5647              	.LBE4915:
 5648              	.LBE4904:
 5649              		.loc 8 82 0
 5650 0486 08A9     		add	r1, sp, #32
 5651              	.LBB4917:
 5652              	.LBB4916:
 5653              	.LBB4912:
 5654              		.loc 4 48 0
 5655 0488 A5EEA67A 		vfma.f32	s14, s11, s13
 5656              	.LVL434:
 5657              	.LBE4912:
 5658              	.LBE4916:
 5659              		.loc 8 93 0
 5660 048c 37EE677A 		fsubs	s14, s14, s15
 5661 0490 E6EE077A 		vfma.f32	s15, s12, s14
 5662 0494 E5EC017A 		fstmias	r5!, {s15}
 5663              	.LBE4917:
 5664              		.loc 8 82 0
 5665 0498 8D42     		cmp	r5, r1
 5666 049a DDD1     		bne	.L146
 5667              	.LBE4903:
 5668              	.LBE4900:
 5669              		.loc 8 69 0
 5670 049c 09F1FF39 		add	r9, r9, #-1
 5671              	.LVL435:
 5672              	.LBB4920:
 5673              		.loc 8 96 0
 5674 04a0 0699     		ldr	r1, [sp, #24]	@ float
 5675              		.loc 8 97 0
 5676 04a2 079A     		ldr	r2, [sp, #28]	@ float
 5677              	.LVL436:
 5678              		.loc 8 96 0
 5679 04a4 48F8041B 		str	r1, [r8], #4	@ float
 5680              	.LVL437:
 5681              	.LBE4920:
 5682              		.loc 8 69 0
 5683 04a8 B9F1FF3F 		cmp	r9, #-1
 5684              	.LBB4921:
 5685              		.loc 8 97 0
 5686 04ac 4AF8042B 		str	r2, [r10], #4	@ float
 5687              	.LVL438:
 5688              	.LBE4921:
 5689              		.loc 8 69 0
 5690 04b0 31D0     		beq	.L222
 5691              	.LVL439:
 5692              	.L147:
 5693              	.LBB4922:
 5694              	.LBB4918:
 5695              	.LBB4919:
 5696              		.loc 9 54 0
 5697 04b2 73EEA23A 		fadds	s7, s7, s5
 5698              	.LVL440:
 5699              	.LBE4919:
 5700              	.LBE4918:
ARM GAS  /var/folders/28/j9jfyj_n4wz3qtvnym210h2c0000gn/T//cckC861L.s 			page 101


 5701              		.loc 8 70 0
 5702 04b6 74EEA34A 		fadds	s9, s9, s7
 5703              	.LVL441:
 5704              		.loc 8 72 0
 5705 04ba F5EEC04A 		fcmpezs	s9
 5706 04be F1EE10FA 		fmstat
 5707 04c2 A3D8     		bhi	.L207
 5708              		.loc 8 73 0
 5709 04c4 74EEA14A 		fadds	s9, s9, s3
 5710              	.LVL442:
 5711 04c8 A7E7     		b	.L144
 5712              	.L224:
 5713 04ca 00BF     		.align	2
 5714              	.L223:
 5715 04cc 00000038 		.word	939524096
 5716 04d0 00000000 		.word	_ZN5warps7lut_sinE
 5717 04d4 00008044 		.word	1149239296
 5718 04d8 00000000 		.word	0
 5719 04dc CDCCCC3E 		.word	1053609165
 5720 04e0 00000043 		.word	1124073472
 5721 04e4 00003443 		.word	1127481344
 5722 04e8 00000000 		.word	_ZN6stmlib20lut_pitch_ratio_highE
 5723 04ec 00000000 		.word	_ZN6stmlib19lut_pitch_ratio_lowE
 5724 04f0 00007042 		.word	1114636288
 5725 04f4 B9FCFF3F 		.word	1073740985
 5726 04f8 00000000 		.word	_ZN5warps9wav_tableE
 5727 04fc 00007A42 		.word	1115291648
 5728              	.LVL443:
 5729              	.L221:
 5730              	.LBE4922:
 5731              	.LBE4928:
 5732              	.LBE4935:
 5733              		.loc 2 90 0 discriminator 1
 5734 0500 67EEA76A 		fmuls	s13, s15, s15
 5735              	.LVL444:
 5736              		.loc 2 91 0 discriminator 1
 5737 0504 1FED036A 		flds	s12, .L223+48
 5738 0508 BB48     		ldr	r0, .L225
 5739 050a BC49     		ldr	r1, .L225+4
 5740              	.LVL445:
 5741              		.loc 2 90 0 discriminator 1
 5742 050c 66EEA77A 		fmuls	s15, s13, s15
 5743              	.LVL446:
 5744              		.loc 2 91 0 discriminator 1
 5745 0510 27EE866A 		fmuls	s12, s15, s12
 5746 0514 1AE7     		b	.L138
 5747              	.LVL447:
 5748              	.L222:
 5749 0516 029D     		ldr	r5, [sp, #8]
 5750              	.LVL448:
 5751              	.L141:
 5752              	.LBB4936:
 5753              	.LBB4929:
 5754              		.loc 8 99 0
 5755 0518 CBED384A 		fsts	s9, [fp, #224]
 5756              	.LVL449:
 5757              	.LBB4923:
ARM GAS  /var/folders/28/j9jfyj_n4wz3qtvnym210h2c0000gn/T//cckC861L.s 			page 102


 5758              	.LBB4924:
 5759              		.loc 9 44 0
 5760 051c 8BED3A3A 		fsts	s6, [fp, #232]
 5761              	.LVL450:
 5762              	.LBE4924:
 5763              	.LBE4923:
 5764              	.LBB4925:
 5765              	.LBB4926:
 5766 0520 CBED393A 		fsts	s7, [fp, #228]
 5767              	.LVL451:
 5768              	.L148:
 5769              	.LBE4926:
 5770              	.LBE4925:
 5771              	.LBE4929:
 5772              	.LBE4936:
 5773              	.LBE4868:
 5774              	.LBE4941:
 5775              	.LBB4942:
 5776              	.LBB4943:
 5777              	.LBB4944:
 5778              		.loc 9 49 0
 5779 0524 9BED0D5A 		flds	s10, [fp, #52]
 5780              	.LVL452:
 5781              		.loc 9 50 0
 5782 0528 DBED041A 		flds	s3, [fp, #16]
 5783              	.LBE4944:
 5784              	.LBE4943:
 5785              	.LBE4942:
 5786              	.LBB4949:
 5787              	.LBB4950:
 5788              	.LBB4951:
 5789              		.loc 9 49 0
 5790 052c DBED0A4A 		flds	s9, [fp, #40]
 5791              		.loc 9 50 0
 5792 0530 9BED011A 		flds	s2, [fp, #4]
 5793              	.LBE4951:
 5794              	.LBE4950:
 5795              	.LBE4949:
 5796              	.LBB4956:
 5797              	.LBB4957:
 5798              	.LBB4958:
 5799              		.loc 9 49 0
 5800 0534 DBED0B3A 		flds	s7, [fp, #44]
 5801              		.loc 9 50 0
 5802 0538 DBED020A 		flds	s1, [fp, #8]
 5803              	.LBE4958:
 5804              	.LBE4957:
 5805              	.LBE4956:
 5806              		.loc 2 135 0
 5807 053c 0BF52552 		add	r2, fp, #10560
 5808              	.LBB4963:
 5809              	.LBB4947:
 5810              	.LBB4945:
 5811              		.loc 9 50 0
 5812 0540 71EEC51A 		fsubs	s3, s3, s10
 5813              	.LBE4945:
 5814              	.LBE4947:
ARM GAS  /var/folders/28/j9jfyj_n4wz3qtvnym210h2c0000gn/T//cckC861L.s 			page 103


 5815              	.LBE4963:
 5816              	.LBB4964:
 5817              	.LBB4954:
 5818              	.LBB4952:
 5819 0544 31EE641A 		fsubs	s2, s2, s9
 5820              	.LBE4952:
 5821              	.LBE4954:
 5822              	.LBE4964:
 5823              	.LBB4965:
 5824              	.LBB4961:
 5825              	.LBB4959:
 5826 0548 70EEE30A 		fsubs	s1, s1, s7
 5827              	.LBE4959:
 5828              	.LBE4961:
 5829              	.LBE4965:
 5830              		.loc 2 135 0
 5831 054c 1832     		adds	r2, r2, #24
 5832              	.LBB4966:
 5833              	.LBB4948:
 5834              	.LBB4946:
 5835              		.loc 9 50 0
 5836 054e C1EE841A 		fdivs	s3, s3, s8
 5837              	.LVL453:
 5838              	.LBE4946:
 5839              	.LBE4948:
 5840              	.LBE4966:
 5841              		.loc 2 135 0
 5842 0552 0292     		str	r2, [sp, #8]
 5843              	.LBB4967:
 5844              	.LBB4955:
 5845              	.LBB4953:
 5846              		.loc 9 50 0
 5847 0554 81EE041A 		fdivs	s2, s2, s8
 5848              	.LVL454:
 5849              	.LBE4953:
 5850              	.LBE4955:
 5851              	.LBE4967:
 5852              	.LBB4968:
 5853              	.LBB4962:
 5854              	.LBB4960:
 5855 0558 C0EE840A 		fdivs	s1, s1, s8
 5856              	.LVL455:
 5857              	.LBE4960:
 5858              	.LBE4962:
 5859              	.LBE4968:
 5860              		.loc 2 135 0
 5861 055c 92ED004A 		flds	s8, [r2]
 5862              	.LVL456:
 5863              	.LBB4969:
 5864              		.loc 2 136 0
 5865 0560 002B     		cmp	r3, #0
 5866 0562 00F01181 		beq	.L159
 5867 0566 0BF51052 		add	r2, fp, #9216
 5868 056a 3432     		adds	r2, r2, #52
 5869 056c 0BF51051 		add	r1, fp, #9216
 5870 0570 019E     		ldr	r6, [sp, #4]
 5871 0572 039C     		ldr	r4, [sp, #12]
ARM GAS  /var/folders/28/j9jfyj_n4wz3qtvnym210h2c0000gn/T//cckC861L.s 			page 104


 5872 0574 D2F82021 		ldr	r2, [r2, #288]
 5873 0578 DFF89882 		ldr	r8, .L225+28
 5874 057c DFF898C2 		ldr	ip, .L225+32
 5875              	.LBB4970:
 5876              		.loc 2 141 0
 5877 0580 9FED9F2A 		flds	s4, .L225+8
 5878              	.LBB4971:
 5879              	.LBB4972:
 5880              		.loc 4 44 0
 5881 0584 9FED9F8A 		flds	s16, .L225+12
 5882              	.LBE4972:
 5883              	.LBE4971:
 5884              		.loc 2 173 0
 5885 0588 9FED9F0A 		flds	s0, .L225+16
 5886              		.loc 2 179 0
 5887 058c DFED9F2A 		flds	s5, .L225+20
 5888              	.LBB4981:
 5889              	.LBB4982:
 5890              	.LBB4983:
 5891              		.loc 5 55 0
 5892 0590 CDF804B0 		str	fp, [sp, #4]
 5893              	.LVL457:
 5894 0594 3C31     		adds	r1, r1, #60
 5895 0596 0434     		adds	r4, r4, #4
 5896 0598 0436     		adds	r6, r6, #4
 5897              	.LBE4983:
 5898              	.LBE4982:
 5899              	.LBE4981:
 5900              	.LBE4970:
 5901              		.loc 2 136 0
 5902 059a 0027     		movs	r7, #0
 5903              	.LBB5038:
 5904              		.loc 2 151 0
 5905 059c B0EE003A 		fconsts	s6, #0
 5906              	.LBB4998:
 5907              	.LBB4995:
 5908              	.LBB4990:
 5909              		.loc 5 55 0
 5910 05a0 8B46     		mov	fp, r1
 5911              	.LVL458:
 5912              	.L163:
 5913              	.LBE4990:
 5914              	.LBE4995:
 5915              	.LBE4998:
 5916              		.loc 2 141 0
 5917 05a2 36F9021C 		ldrsh	r1, [r6, #-2]
 5918 05a6 05EE901A 		fmsr	s11, r1	@ int
 5919              		.loc 2 143 0
 5920 05aa 0099     		ldr	r1, [sp]
 5921              		.loc 2 141 0
 5922 05ac F8EEE55A 		fsitos	s11, s11
 5923              	.LBB4999:
 5924              	.LBB5000:
 5925              		.loc 9 54 0
 5926 05b0 35EE215A 		fadds	s10, s10, s3
 5927              	.LVL459:
 5928              	.LBE5000:
ARM GAS  /var/folders/28/j9jfyj_n4wz3qtvnym210h2c0000gn/T//cckC861L.s 			page 105


 5929              	.LBE4999:
 5930              		.loc 2 141 0
 5931 05b4 65EE825A 		fmuls	s11, s11, s4
 5932              	.LVL460:
 5933              		.loc 2 143 0
 5934 05b8 39B1     		cbz	r1, .L160
 5935              		.loc 2 144 0
 5936 05ba 36F9041C 		ldrsh	r1, [r6, #-4]
 5937 05be 07EE901A 		fmsr	s15, r1	@ int
 5938 05c2 F8EEE77A 		fsitos	s15, s15
 5939 05c6 E7EE825A 		vfma.f32	s11, s15, s4
 5940              	.LVL461:
 5941              	.L160:
 5942              		.loc 2 155 0
 5943 05ca B6EE007A 		fconsts	s14, #96
 5944 05ce 35EE477A 		fsubs	s14, s10, s14
 5945              	.LBB5001:
 5946              	.LBB5002:
 5947              		.loc 9 54 0
 5948 05d2 74EE814A 		fadds	s9, s9, s2
 5949              	.LVL462:
 5950              	.LBE5002:
 5951              	.LBE5001:
 5952              		.loc 2 155 0
 5953 05d6 37EE076A 		fadds	s12, s14, s14
 5954              		.loc 2 151 0
 5955 05da 73EE647A 		fsubs	s15, s6, s9
 5956              		.loc 2 155 0
 5957 05de F7EE006A 		fconsts	s13, #112
 5958 05e2 F0EE668A 		fcpys	s17, s13
 5959 05e6 E7EE068A 		vfma.f32	s17, s14, s12
 5960              		.loc 2 151 0
 5961 05ea 67EEA47A 		fmuls	s15, s15, s9
 5962              	.LVL463:
 5963              		.loc 2 157 0
 5964 05ee 28EE846A 		fmuls	s12, s17, s8
 5965              		.loc 2 152 0
 5966 05f2 33EE677A 		fsubs	s14, s6, s15
 5967              		.loc 2 157 0
 5968 05f6 F0EE658A 		fcpys	s17, s11
 5969              		.loc 2 152 0
 5970 05fa 67EE277A 		fmuls	s15, s14, s15
 5971              	.LVL464:
 5972              	.LBB5003:
 5973              	.LBB5004:
 5974              		.loc 4 102 0
 5975 05fe B8EE087A 		fconsts	s14, #136
 5976              	.LBE5004:
 5977              	.LBE5003:
 5978              		.loc 2 157 0
 5979 0602 E6EE278A 		vfma.f32	s17, s12, s15
 5980              	.LBB5011:
 5981              	.LBB5008:
 5982              		.loc 4 102 0
 5983 0606 F4EEC78A 		fcmpes	s17, s14
 5984 060a F1EE10FA 		fmstat
 5985              	.LBE5008:
ARM GAS  /var/folders/28/j9jfyj_n4wz3qtvnym210h2c0000gn/T//cckC861L.s 			page 106


 5986              	.LBE5011:
 5987              		.loc 2 157 0
 5988 060e B0EE686A 		fcpys	s12, s17
 5989              	.LVL465:
 5990              	.LBB5012:
 5991              	.LBB5009:
 5992              		.loc 4 102 0
 5993 0612 00F1D180 		bmi	.L179
 5994              		.loc 4 104 0
 5995 0616 B0EE087A 		fconsts	s14, #8
 5996 061a F4EEC78A 		fcmpes	s17, s14
 5997 061e F1EE10FA 		fmstat
 5998 0622 0FDC     		bgt	.L161
 5999              	.LVL466:
 6000              	.LBB5005:
 6001              	.LBB5006:
 6002              	.LBB5007:
 6003              		.loc 4 98 0
 6004 0624 F3EE0B6A 		fconsts	s13, #59
 6005 0628 B0EE667A 		fcpys	s14, s13
 6006 062c F2EE028A 		fconsts	s17, #34
 6007 0630 A6EE067A 		vfma.f32	s14, s12, s12
 6008 0634 66EE288A 		fmuls	s17, s12, s17
 6009 0638 26EE077A 		fmuls	s14, s12, s14
 6010 063c E6EE286A 		vfma.f32	s13, s12, s17
 6011 0640 C7EE266A 		fdivs	s13, s14, s13
 6012              	.LVL467:
 6013              	.L161:
 6014              	.LBE5007:
 6015              	.LBE5006:
 6016              	.LBE5005:
 6017              	.LBE5009:
 6018              	.LBE5012:
 6019              	.LBB5013:
 6020              	.LBB4996:
 6021              		.loc 5 54 0
 6022 0644 002A     		cmp	r2, #0
 6023              	.LBE4996:
 6024              	.LBE5013:
 6025              		.loc 2 157 0
 6026 0646 76EEE56A 		fsubs	s13, s13, s11
 6027 064a F0EE658A 		fcpys	s17, s11
 6028 064e E6EEA78A 		vfma.f32	s17, s13, s15
 6029              	.LVL468:
 6030              	.LBB5014:
 6031              	.LBB4997:
 6032              		.loc 5 54 0
 6033 0652 2BDD     		ble	.L168
 6034 0654 5946     		mov	r1, fp
 6035              	.LVL469:
 6036              	.LBB4991:
 6037              		.loc 5 56 0
 6038 0656 F0EE687A 		fcpys	s15, s17
 6039              	.LVL470:
 6040              	.LBE4991:
 6041              		.loc 5 54 0
 6042 065a 0020     		movs	r0, #0
ARM GAS  /var/folders/28/j9jfyj_n4wz3qtvnym210h2c0000gn/T//cckC861L.s 			page 107


 6043              	.LBB4992:
 6044              		.loc 5 55 0
 6045 065c 0DF11409 		add	r9, sp, #20
 6046              	.LVL471:
 6047 0660 0FE0     		b	.L164
 6048              	.LVL472:
 6049              	.L167:
 6050 0662 10F0010F 		tst	r0, #1
 6051 0666 0CBF     		ite	eq
 6052 0668 0DF11409 		addeq	r9, sp, #20
 6053              	.LVL473:
 6054 066c 0DF11809 		addne	r9, sp, #24
 6055              		.loc 5 56 0
 6056 0670 0128     		cmp	r0, #1
 6057 0672 C8BF     		it	gt
 6058 0674 D9ED007A 		fldsgt	s15, [r9]
 6059 0678 01F10C01 		add	r1, r1, #12
 6060              	.LVL474:
 6061 067c D8BF     		it	le
 6062 067e F0EE687A 		fcpysle	s15, s17
 6063              	.LVL475:
 6064              	.L164:
 6065              	.LBB4984:
 6066              	.LBB4985:
 6067              		.loc 5 82 0
 6068 0682 11ED017A 		flds	s14, [r1, #-4]
 6069 0686 51ED026A 		flds	s13, [r1, #-8]
 6070 068a 91ED006A 		flds	s12, [r1]
 6071              		.loc 5 83 0
 6072 068e 41ED027A 		fsts	s15, [r1, #-8]
 6073              		.loc 5 82 0
 6074 0692 77EEC77A 		fsubs	s15, s15, s14
 6075              	.LVL476:
 6076              	.LBE4985:
 6077              	.LBE4984:
 6078              	.LBE4992:
 6079              		.loc 5 54 0
 6080 0696 0130     		adds	r0, r0, #1
 6081              	.LVL477:
 6082              	.LBB4993:
 6083              	.LBB4988:
 6084              	.LBB4986:
 6085              		.loc 5 82 0
 6086 0698 E6EE276A 		vfma.f32	s13, s12, s15
 6087              	.LBE4986:
 6088              	.LBE4988:
 6089              	.LBE4993:
 6090              		.loc 5 54 0
 6091 069c 9042     		cmp	r0, r2
 6092              	.LBB4994:
 6093              	.LBB4989:
 6094              	.LBB4987:
 6095              		.loc 5 82 0
 6096 069e F0EE667A 		fcpys	s15, s13
 6097              	.LVL478:
 6098              		.loc 5 84 0
 6099 06a2 41ED016A 		fsts	s13, [r1, #-4]
ARM GAS  /var/folders/28/j9jfyj_n4wz3qtvnym210h2c0000gn/T//cckC861L.s 			page 108


 6100              	.LBE4987:
 6101              	.LBE4989:
 6102              		.loc 5 57 0
 6103 06a6 C9ED006A 		fsts	s13, [r9]
 6104              	.LBE4994:
 6105              		.loc 5 54 0
 6106 06aa DAD1     		bne	.L167
 6107              	.LVL479:
 6108              	.L168:
 6109              	.LBE4997:
 6110              	.LBE5014:
 6111              	.LBB5015:
 6112              	.LBB4973:
 6113              		.loc 4 44 0
 6114 06ac 25EE087A 		fmuls	s14, s10, s16
 6115              	.LBE4973:
 6116              	.LBE5015:
 6117              		.loc 2 163 0
 6118 06b0 BEEC016A 		fldmias	lr!, {s12}
 6119              	.LVL480:
 6120 06b4 DDED066A 		flds	s13, [sp, #24]
 6121              		.loc 2 162 0
 6122 06b8 F5EC01AA 		fldmias	r5!, {s21}
 6123              	.LVL481:
 6124 06bc 9DED05AA 		flds	s20, [sp, #20]
 6125              	.LVL482:
 6126              	.LBB5016:
 6127              	.LBB4974:
 6128              		.loc 4 45 0
 6129 06c0 FDEEC77A 		ftosizs	s15, s14
 6130              	.LBE4974:
 6131              	.LBE5016:
 6132              		.loc 2 163 0
 6133 06c4 26EE266A 		fmuls	s12, s12, s13
 6134              	.LVL483:
 6135              	.LBB5017:
 6136              	.LBB4975:
 6137              		.loc 4 46 0
 6138 06c8 17EE901A 		fmrs	r1, s15	@ int
 6139 06cc 8900     		lsls	r1, r1, #2
 6140              		.loc 4 47 0
 6141 06ce 081D     		adds	r0, r1, #4
 6142              	.LBE4975:
 6143              	.LBE5017:
 6144              	.LBB5018:
 6145              	.LBB5019:
 6146 06d0 0CEB000A 		add	r10, ip, r0
 6147              		.loc 4 46 0
 6148 06d4 0CEB0109 		add	r9, ip, r1
 6149              		.loc 4 48 0
 6150 06d8 DAED008A 		flds	s17, [r10]
 6151              	.LVL484:
 6152              	.LBE5019:
 6153              	.LBE5018:
 6154              	.LBB5023:
 6155              	.LBB4976:
 6156              		.loc 4 45 0
ARM GAS  /var/folders/28/j9jfyj_n4wz3qtvnym210h2c0000gn/T//cckC861L.s 			page 109


 6157 06dc F8EEE76A 		fsitos	s13, s15
 6158              	.LBE4976:
 6159              	.LBE5023:
 6160              	.LBB5024:
 6161              	.LBB5020:
 6162              		.loc 4 46 0
 6163 06e0 D9ED007A 		flds	s15, [r9]
 6164              	.LBE5020:
 6165              	.LBE5024:
 6166              	.LBB5025:
 6167              	.LBB4977:
 6168              		.loc 4 45 0
 6169 06e4 37EE667A 		fsubs	s14, s14, s13
 6170              		.loc 4 47 0
 6171 06e8 4044     		add	r0, r0, r8
 6172              	.LBE4977:
 6173              	.LBE5025:
 6174              	.LBB5026:
 6175              	.LBB5021:
 6176              		.loc 4 48 0
 6177 06ea 78EEE76A 		fsubs	s13, s17, s15
 6178              	.LBE5021:
 6179              	.LBE5026:
 6180              	.LBB5027:
 6181              	.LBB4978:
 6182              		.loc 4 46 0
 6183 06ee 4144     		add	r1, r1, r8
 6184 06f0 D1ED008A 		flds	s17, [r1]
 6185              		.loc 4 48 0
 6186 06f4 90ED009A 		flds	s18, [r0]
 6187              	.LBE4978:
 6188              	.LBE5027:
 6189              	.LBB5028:
 6190              	.LBB5022:
 6191 06f8 E7EE267A 		vfma.f32	s15, s14, s13
 6192              	.LBE5022:
 6193              	.LBE5028:
 6194              	.LBE5038:
 6195              		.loc 2 136 0
 6196 06fc 0137     		adds	r7, r7, #1
 6197              	.LVL485:
 6198 06fe 9F42     		cmp	r7, r3
 6199              	.LBB5039:
 6200              		.loc 2 165 0
 6201 0700 F0EE469A 		fcpys	s19, s12
 6202              		.loc 2 164 0
 6203 0704 F0EE466A 		fcpys	s13, s12
 6204 0708 DAEE8A6A 		vfnms.f32	s13, s21, s20
 6205              	.LVL486:
 6206 070c 06F10406 		add	r6, r6, #4
 6207              	.LVL487:
 6208 0710 04F10404 		add	r4, r4, #4
 6209              	.LBB5029:
 6210              	.LBB4979:
 6211              		.loc 4 48 0
 6212 0714 39EE689A 		fsubs	s18, s18, s17
 6213              	.LBE4979:
ARM GAS  /var/folders/28/j9jfyj_n4wz3qtvnym210h2c0000gn/T//cckC861L.s 			page 110


 6214              	.LBE5029:
 6215              		.loc 2 165 0
 6216 0718 EAEE8A9A 		vfma.f32	s19, s21, s20
 6217              	.LVL488:
 6218              	.LBB5030:
 6219              	.LBB4980:
 6220              		.loc 4 48 0
 6221 071c B0EE686A 		fcpys	s12, s17
 6222              	.LVL489:
 6223 0720 A7EE096A 		vfma.f32	s12, s14, s18
 6224              	.LVL490:
 6225              	.LBE4980:
 6226              	.LBE5030:
 6227              		.loc 2 169 0
 6228 0724 29EEA77A 		fmuls	s14, s19, s15
 6229              	.LVL491:
 6230              		.loc 2 170 0
 6231 0728 66EEA77A 		fmuls	s15, s13, s15
 6232              		.loc 2 169 0
 6233 072c A6EE867A 		vfma.f32	s14, s13, s12
 6234              	.LVL492:
 6235              		.loc 2 170 0
 6236 0730 E9EE867A 		vfma.f32	s15, s19, s12
 6237              	.LVL493:
 6238              	.LBB5031:
 6239              	.LBB5032:
 6240              		.loc 9 54 0
 6241 0734 73EEA03A 		fadds	s7, s7, s1
 6242              	.LVL494:
 6243              	.LBE5032:
 6244              	.LBE5031:
 6245              		.loc 2 175 0
 6246 0738 F7EE006A 		fconsts	s13, #112
 6247              	.LVL495:
 6248              		.loc 2 176 0
 6249 073c 75EEC78A 		fsubs	s17, s11, s14
 6250              	.LVL496:
 6251              		.loc 2 175 0
 6252 0740 76EEE36A 		fsubs	s13, s13, s7
 6253              	.LVL497:
 6254              		.loc 2 177 0
 6255 0744 75EEE75A 		fsubs	s11, s11, s15
 6256              	.LVL498:
 6257              		.loc 2 173 0
 6258 0748 37EE446A 		fsubs	s12, s14, s8
 6259              		.loc 2 177 0
 6260 074c E5EEA67A 		vfma.f32	s15, s11, s13
 6261              	.LVL499:
 6262              		.loc 2 176 0
 6263 0750 A8EEA67A 		vfma.f32	s14, s17, s13
 6264              	.LVL500:
 6265              		.loc 2 180 0
 6266 0754 67EEA27A 		fmuls	s15, s15, s5
 6267              		.loc 2 179 0
 6268 0758 27EE227A 		fmuls	s14, s14, s5
 6269              		.loc 2 180 0
 6270 075c FDEEE77A 		ftosizs	s15, s15
ARM GAS  /var/folders/28/j9jfyj_n4wz3qtvnym210h2c0000gn/T//cckC861L.s 			page 111


 6271              		.loc 2 179 0
 6272 0760 BDEEC77A 		ftosizs	s14, s14
 6273              		.loc 2 180 0
 6274 0764 17EE901A 		fmrs	r1, s15	@ int
 6275              	.LVL501:
 6276              	.LBB5033:
 6277              	.LBB5034:
 6278              		.loc 4 133 0
 6279              	@ 133 "./mutable_instruments/stmlib/dsp/dsp.h" 1
 6280 0768 01F30F01 		ssat r1, #16, r1
 6281              	@ 0 "" 2
 6282              		.thumb
 6283              	.LBE5034:
 6284              	.LBE5033:
 6285              		.loc 2 179 0
 6286 076c 17EE100A 		fmrs	r0, s14	@ int
 6287              	.LBB5035:
 6288              	.LBB5036:
 6289              		.loc 4 133 0
 6290              	@ 133 "./mutable_instruments/stmlib/dsp/dsp.h" 1
 6291 0770 00F30F00 		ssat r0, #16, r0
 6292              	@ 0 "" 2
 6293              		.thumb
 6294              	.LBE5036:
 6295              	.LBE5035:
 6296              		.loc 2 180 0
 6297 0774 24F8061C 		strh	r1, [r4, #-6]	@ movhi
 6298              	.LVL502:
 6299              		.loc 2 179 0
 6300 0778 24F8080C 		strh	r0, [r4, #-8]	@ movhi
 6301              		.loc 2 173 0
 6302 077c A6EE004A 		vfma.f32	s8, s12, s0
 6303              	.LVL503:
 6304              	.LBE5039:
 6305              		.loc 2 136 0
 6306 0780 7FF40FAF 		bne	.L163
 6307 0784 DDF804B0 		ldr	fp, [sp, #4]
 6308              	.LVL504:
 6309              	.L159:
 6310              	.LBE4969:
 6311              		.loc 2 184 0
 6312 0788 029E     		ldr	r6, [sp, #8]
 6313              		.loc 2 185 0
 6314 078a 0BF10405 		add	r5, fp, #4
 6315              	.LVL505:
 6316 078e 0FCD     		ldmia	r5!, {r0, r1, r2, r3}
 6317              	.LVL506:
 6318 0790 0BF12804 		add	r4, fp, #40
 6319              		.loc 2 184 0
 6320 0794 86ED004A 		fsts	s8, [r6]
 6321              		.loc 2 185 0
 6322 0798 0FC4     		stmia	r4!, {r0, r1, r2, r3}
 6323 079a 0FCD     		ldmia	r5!, {r0, r1, r2, r3}
 6324 079c 0FC4     		stmia	r4!, {r0, r1, r2, r3}
 6325 079e 2B68     		ldr	r3, [r5]
 6326 07a0 2360     		str	r3, [r4]
 6327              	.LVL507:
ARM GAS  /var/folders/28/j9jfyj_n4wz3qtvnym210h2c0000gn/T//cckC861L.s 			page 112


 6328              	.LBB5041:
 6329              	.LBB5042:
 6330              		.loc 9 44 0
 6331 07a2 CBED0B3A 		fsts	s7, [fp, #44]
 6332              	.LVL508:
 6333              	.LBE5042:
 6334              	.LBE5041:
 6335              	.LBB5043:
 6336              	.LBB5044:
 6337 07a6 CBED0A4A 		fsts	s9, [fp, #40]
 6338              	.LVL509:
 6339              	.LBE5044:
 6340              	.LBE5043:
 6341              	.LBB5045:
 6342              	.LBB5046:
 6343 07aa 8BED0D5A 		fsts	s10, [fp, #52]
 6344              	.LBE5046:
 6345              	.LBE5045:
 6346              	.LBE5049:
 6347              		.loc 2 186 0
 6348 07ae 09B0     		add	sp, sp, #36
 6349              		.cfi_remember_state
 6350              		.cfi_def_cfa_offset 60
 6351              		@ sp needed
 6352 07b0 BDEC068B 		fldmfdd	sp!, {d8-d10}
 6353              		.cfi_restore 84
 6354              		.cfi_restore 85
 6355              		.cfi_restore 82
 6356              		.cfi_restore 83
 6357              		.cfi_restore 80
 6358              		.cfi_restore 81
 6359              		.cfi_def_cfa_offset 36
 6360 07b4 BDE8F08F 		pop	{r4, r5, r6, r7, r8, r9, r10, fp, pc}
 6361              	.LVL510:
 6362              	.L179:
 6363              		.cfi_restore_state
 6364              	.LBB5050:
 6365              	.LBB5047:
 6366              	.LBB5040:
 6367              	.LBB5037:
 6368              	.LBB5010:
 6369              		.loc 4 103 0
 6370 07b8 FFEE006A 		fconsts	s13, #240
 6371 07bc 42E7     		b	.L161
 6372              	.LVL511:
 6373              	.L175:
 6374              	.LBE5010:
 6375              	.LBE5037:
 6376              	.LBE5040:
 6377              	.LBE5047:
 6378              	.LBB5048:
 6379              	.LBB4938:
 6380              	.LBB4937:
 6381              	.LBB4930:
 6382              		.loc 8 61 0
 6383 07be F0EE457A 		fcpys	s15, s10
 6384              	.LVL512:
ARM GAS  /var/folders/28/j9jfyj_n4wz3qtvnym210h2c0000gn/T//cckC861L.s 			page 113


 6385 07c2 02E6     		b	.L139
 6386              	.LVL513:
 6387              	.L217:
 6388              	.LBE4930:
 6389              	.LBE4937:
 6390              	.LBE4938:
 6391              	.LBB4939:
 6392              	.LBB4866:
 6393              	.LBB4828:
 6394              		.loc 5 62 0
 6395 07c4 0BF50C52 		add	r2, fp, #8960
 6396              	.LVL514:
 6397 07c8 D2F830C1 		ldr	ip, [r2, #304]
 6398 07cc BCF1000F 		cmp	ip, #0
 6399 07d0 3FF7C2AC 		bgt	.L169
 6400              	.LVL515:
 6401              	.LBE4828:
 6402              	.LBE4866:
 6403              	.LBB4867:
 6404              	.LBB4833:
 6405              	.LBB4832:
 6406              		.loc 9 49 0
 6407 07d4 9BED105A 		flds	s10, [fp, #64]
 6408              	.LVL516:
 6409 07d8 9FED0D4A 		flds	s8, .L225+24
 6410 07dc 50E5     		b	.L157
 6411              	.LVL517:
 6412              	.L218:
 6413 07de 9BED105A 		flds	s10, [fp, #64]
 6414              	.LVL518:
 6415              		.loc 9 50 0
 6416 07e2 9BED073A 		flds	s6, [fp, #28]
 6417 07e6 07EE903A 		fmsr	s15, r3	@ int
 6418 07ea 33EE453A 		fsubs	s6, s6, s10
 6419 07ee B8EE674A 		fuitos	s8, s15
 6420 07f2 83EE043A 		fdivs	s6, s6, s8
 6421              	.LVL519:
 6422 07f6 00E5     		b	.L171
 6423              	.L226:
 6424              		.align	2
 6425              	.L225:
 6426 07f8 00000000 		.word	_ZN6stmlib20lut_pitch_ratio_highE
 6427 07fc 00000000 		.word	_ZN6stmlib19lut_pitch_ratio_lowE
 6428 0800 00000038 		.word	939524096
 6429 0804 00008043 		.word	1132462080
 6430 0808 CDCC4C3E 		.word	1045220557
 6431 080c 00000047 		.word	1191182336
 6432 0810 00000000 		.word	0
 6433 0814 00000000 		.word	_ZN5warps12lut_xfade_inE
 6434 0818 00000000 		.word	_ZN5warps13lut_xfade_outE
 6435              	.LBE4832:
 6436              	.LBE4833:
 6437              	.LBE4867:
 6438              	.LBE4939:
 6439              	.LBE5048:
 6440              	.LBE5050:
 6441              		.cfi_endproc
ARM GAS  /var/folders/28/j9jfyj_n4wz3qtvnym210h2c0000gn/T//cckC861L.s 			page 114


 6442              	.LFE763:
 6443              		.cantunwind
 6444              		.fnend
 6445              		.size	_ZN5warps9Modulator16ProcessEasterEggEPNS_10ShortFrameES2_j, .-_ZN5warps9Modulator16ProcessE
 6446              		.align	2
 6447 081c AFF30080 		.p2align 4,,15
 6448              		.global	_ZN5warps9Modulator7ProcessEPNS_10ShortFrameES2_j
 6449              		.thumb
 6450              		.thumb_func
 6451              		.type	_ZN5warps9Modulator7ProcessEPNS_10ShortFrameES2_j, %function
 6452              	_ZN5warps9Modulator7ProcessEPNS_10ShortFrameES2_j:
 6453              		.fnstart
 6454              	.LFB764:
 6455              		.loc 2 188 0
 6456              		.cfi_startproc
 6457              		@ args = 0, pretend = 0, frame = 32
 6458              		@ frame_needed = 0, uses_anonymous_args = 0
 6459              	.LVL520:
 6460 0820 2DE9F04F 		push	{r4, r5, r6, r7, r8, r9, r10, fp, lr}
 6461              		.save {r4, r5, r6, r7, r8, r9, r10, fp, lr}
 6462              		.cfi_def_cfa_offset 36
 6463              		.cfi_offset 4, -36
 6464              		.cfi_offset 5, -32
 6465              		.cfi_offset 6, -28
 6466              		.cfi_offset 7, -24
 6467              		.cfi_offset 8, -20
 6468              		.cfi_offset 9, -16
 6469              		.cfi_offset 10, -12
 6470              		.cfi_offset 11, -8
 6471              		.cfi_offset 14, -4
 6472 0824 2DED108B 		fstmfdd	sp!, {d8, d9, d10, d11, d12, d13, d14, d15}
 6473              		.vsave {d8, d9, d10, d11, d12, d13, d14, d15}
 6474              		.cfi_def_cfa_offset 100
 6475              		.cfi_offset 80, -100
 6476              		.cfi_offset 81, -96
 6477              		.cfi_offset 82, -92
 6478              		.cfi_offset 83, -88
 6479              		.cfi_offset 84, -84
 6480              		.cfi_offset 85, -80
 6481              		.cfi_offset 86, -76
 6482              		.cfi_offset 87, -72
 6483              		.cfi_offset 88, -68
 6484              		.cfi_offset 89, -64
 6485              		.cfi_offset 90, -60
 6486              		.cfi_offset 91, -56
 6487              		.cfi_offset 92, -52
 6488              		.cfi_offset 93, -48
 6489              		.cfi_offset 94, -44
 6490              		.cfi_offset 95, -40
 6491              	.LBB6176:
 6492              		.loc 2 189 0
 6493 0828 0478     		ldrb	r4, [r0]	@ zero_extendqisi2
 6494              	.LBE6176:
 6495              		.loc 2 188 0
 6496              		.pad #44
 6497 082a 8BB0     		sub	sp, sp, #44
 6498              		.cfi_def_cfa_offset 144
ARM GAS  /var/folders/28/j9jfyj_n4wz3qtvnym210h2c0000gn/T//cckC861L.s 			page 115


 6499              		.loc 2 188 0
 6500 082c 0546     		mov	r5, r0
 6501 082e 0491     		str	r1, [sp, #16]
 6502 0830 0592     		str	r2, [sp, #20]
 6503 0832 9E46     		mov	lr, r3
 6504              	.LBB12304:
 6505              		.loc 2 189 0
 6506 0834 3CB1     		cbz	r4, .L228
 6507              	.LVL521:
 6508              	.LBB6177:
 6509              	.LBB6178:
 6510              	.LBB6179:
 6511              	.LBB6180:
 6512              	.LBB6181:
 6513              	.LBB6182:
 6514              		.loc 7 377 0
 6515 0836 9A00     		lsls	r2, r3, #2
 6516              	.LVL522:
 6517 0838 40F04281 		bne	.L376
 6518              	.LBE6182:
 6519              	.LBE6181:
 6520              	.LBE6180:
 6521              	.LBE6179:
 6522              	.LBE6178:
 6523              	.LBE6177:
 6524              	.LBE12304:
 6525              		.loc 2 343 0
 6526 083c 0BB0     		add	sp, sp, #44
 6527              		.cfi_remember_state
 6528              		.cfi_def_cfa_offset 100
 6529              		@ sp needed
 6530 083e BDEC108B 		fldmfdd	sp!, {d8-d15}
 6531              		.cfi_restore 94
 6532              		.cfi_restore 95
 6533              		.cfi_restore 92
 6534              		.cfi_restore 93
 6535              		.cfi_restore 90
 6536              		.cfi_restore 91
 6537              		.cfi_restore 88
 6538              		.cfi_restore 89
 6539              		.cfi_restore 86
 6540              		.cfi_restore 87
 6541              		.cfi_restore 84
 6542              		.cfi_restore 85
 6543              		.cfi_restore 82
 6544              		.cfi_restore 83
 6545              		.cfi_restore 80
 6546              		.cfi_restore 81
 6547              		.cfi_def_cfa_offset 36
 6548 0842 BDE8F08F 		pop	{r4, r5, r6, r7, r8, r9, r10, fp, pc}
 6549              	.LVL523:
 6550              	.L228:
 6551              		.cfi_restore_state
 6552              	.LBB12305:
 6553              		.loc 2 192 0
 6554 0846 4478     		ldrb	r4, [r0, #1]	@ zero_extendqisi2
 6555 0848 002C     		cmp	r4, #0
ARM GAS  /var/folders/28/j9jfyj_n4wz3qtvnym210h2c0000gn/T//cckC861L.s 			page 116


 6556 084a 40F04181 		bne	.L377
 6557              		.loc 2 206 0
 6558 084e 9FEDAE7A 		flds	s14, .L389
 6559 0852 D0ED037A 		flds	s15, [r0, #12]
 6560 0856 77EEC77A 		fsubs	s15, s15, s14
 6561 085a F3EE046A 		fconsts	s13, #52
 6562 085e B6EE007A 		fconsts	s14, #96
 6563 0862 A7EEA67A 		vfma.f32	s14, s15, s13
 6564              		.loc 2 197 0
 6565 0866 00F51753 		add	r3, r0, #9664
 6566              	.LVL524:
 6567              		.loc 2 196 0
 6568 086a 00F51657 		add	r7, r0, #9600
 6569              		.loc 2 199 0
 6570 086e 00F51856 		add	r6, r0, #9728
 6571              		.loc 2 207 0
 6572 0872 B5EEC07A 		fcmpezs	s14
 6573              		.loc 2 197 0
 6574 0876 1833     		adds	r3, r3, #24
 6575              		.loc 2 207 0
 6576 0878 F1EE10FA 		fmstat
 6577              		.loc 2 206 0
 6578 087c 8DED037A 		fsts	s14, [sp, #12]
 6579              		.loc 2 196 0
 6580 0880 07F11807 		add	r7, r7, #24
 6581              	.LVL525:
 6582              		.loc 2 197 0
 6583 0884 0793     		str	r3, [sp, #28]
 6584              	.LVL526:
 6585              		.loc 2 199 0
 6586 0886 06F11806 		add	r6, r6, #24
 6587              	.LVL527:
 6588 088a B7EE008A 		fconsts	s16, #112
 6589              		.loc 2 207 0
 6590 088e 01F18E80 		bmi	.L306
 6591              		.loc 2 207 0 is_stmt 0 discriminator 2
 6592 0892 B4EEC87A 		fcmpes	s14, s16
 6593 0896 F1EE10FA 		fmstat
 6594 089a 41F38E80 		ble	.L378
 6595              		.loc 2 207 0
 6596 089e 8DED038A 		fsts	s16, [sp, #12]
 6597 08a2 9FEDA98A 		flds	s16, .L389+64
 6598              	.L231:
 6599              	.LVL528:
 6600              		.loc 2 209 0 is_stmt 1
 6601 08a6 6B6A     		ldr	r3, [r5, #36]
 6602              	.LVL529:
 6603 08a8 0893     		str	r3, [sp, #32]
 6604 08aa 002B     		cmp	r3, #0
 6605 08ac 00F0F880 		beq	.L379
 6606              	.LVL530:
 6607              		.loc 2 214 0
 6608 08b0 079B     		ldr	r3, [sp, #28]
 6609              	.LBB6193:
 6610              		.loc 2 215 0
 6611 08b2 4FF0010B 		mov	fp, #1
 6612 08b6 4FEA8E08 		lsl	r8, lr, #2
ARM GAS  /var/folders/28/j9jfyj_n4wz3qtvnym210h2c0000gn/T//cckC861L.s 			page 117


 6613              	.LVL531:
 6614              	.L297:
 6615 08ba 07EE90EA 		fmsr	s15, lr	@ int
 6616 08be 4FEA8B01 		lsl	r1, fp, #2
 6617 08c2 0BF1010A 		add	r10, fp, #1
 6618 08c6 05EB8A1A 		add	r10, r5, r10, lsl #6
 6619 08ca 01EB0B02 		add	r2, r1, fp
 6620 08ce 0498     		ldr	r0, [sp, #16]
 6621              	.LVL532:
 6622              	.LBB6194:
 6623              	.LBB6195:
 6624              	.LBB6196:
 6625              	.LBB6197:
 6626              		.loc 1 73 0 discriminator 5
 6627 08d0 9FED923A 		flds	s6, .L389+20
 6628              		.loc 1 75 0 discriminator 5
 6629 08d4 DFED8D3A 		flds	s7, .L389+4
 6630 08d8 9FED8D4A 		flds	s8, .L389+8
 6631              		.loc 1 76 0 discriminator 5
 6632 08dc DFED8D2A 		flds	s5, .L389+12
 6633 08e0 0997     		str	r7, [sp, #36]
 6634 08e2 6918     		adds	r1, r5, r1
 6635 08e4 0AF5165A 		add	r10, r10, #9600
 6636 08e8 0BF10209 		add	r9, fp, #2
 6637 08ec 05EB8202 		add	r2, r5, r2, lsl #2
 6638 08f0 AE46     		mov	lr, r5
 6639              	.LVL533:
 6640 08f2 B8EE672A 		fuitos	s4, s15
 6641 08f6 17EE905A 		fmrs	r5, s15	@ int
 6642              	.LVL534:
 6643 08fa 0AF1180A 		add	r10, r10, #24
 6644 08fe 00EB4909 		add	r9, r0, r9, lsl #1
 6645 0902 0F46     		mov	r7, r1
 6646              	.LVL535:
 6647              	.L245:
 6648              	.LBE6197:
 6649              	.LBE6196:
 6650              	.LBE6195:
 6651              	.LBE6194:
 6652              		.loc 2 223 0 discriminator 7
 6653 0904 0437     		adds	r7, r7, #4
 6654 0906 D7ED001A 		flds	s3, [r7]
 6655              	.LVL536:
 6656              	.LBB6262:
 6657              	.LBB6258:
 6658              	.LBB6202:
 6659              	.LBB6203:
 6660              	.LBB6204:
 6661              		.loc 9 49 0 discriminator 7
 6662 090a 92ED146A 		flds	s12, [r2, #80]
 6663              	.LVL537:
 6664              	.LBE6204:
 6665              	.LBE6203:
 6666              	.LBE6202:
 6667              		.loc 1 71 0 discriminator 7
 6668 090e D2ED136A 		flds	s13, [r2, #76]
 6669              	.LBB6207:
ARM GAS  /var/folders/28/j9jfyj_n4wz3qtvnym210h2c0000gn/T//cckC861L.s 			page 118


 6670              	.LBB6206:
 6671              	.LBB6205:
 6672              		.loc 9 50 0 discriminator 7
 6673 0912 71EEC64A 		fsubs	s9, s3, s12
 6674 0916 C4EE824A 		fdivs	s9, s9, s4
 6675              	.LVL538:
 6676              	.LBE6205:
 6677              	.LBE6206:
 6678              	.LBE6207:
 6679              	.LBB6208:
 6680              		.loc 1 72 0 discriminator 7
 6681 091a ADB3     		cbz	r5, .L235
 6682 091c 1C46     		mov	r4, r3
 6683 091e 3046     		mov	r0, r6
 6684 0920 03EB080C 		add	ip, r3, r8
 6685              		.loc 1 72 0 is_stmt 0
 6686 0924 4946     		mov	r1, r9
 6687 0926 0693     		str	r3, [sp, #24]
 6688              	.LVL539:
 6689              	.L239:
 6690              	.LBB6200:
 6691              		.loc 1 73 0 is_stmt 1
 6692 0928 31F9043C 		ldrsh	r3, [r1, #-4]
 6693 092c 0431     		adds	r1, r1, #4
 6694              	.LVL540:
 6695 092e 07EE903A 		fmsr	s15, r3	@ int
 6696 0932 F8EEE77A 		fsitos	s15, s15
 6697              		.loc 1 74 0
 6698 0936 F0EE665A 		fcpys	s11, s13
 6699              		.loc 1 73 0
 6700 093a 67EE837A 		fmuls	s15, s15, s6
 6701              	.LVL541:
 6702              		.loc 1 76 0
 6703 093e B7EE007A 		fconsts	s14, #112
 6704              		.loc 1 74 0
 6705 0942 D7EEA75A 		vfnms.f32	s11, s15, s15
 6706              	.LVL542:
 6707              	.LBB6198:
 6708              	.LBB6199:
 6709              		.loc 9 54 0
 6710 0946 36EE246A 		fadds	s12, s12, s9
 6711              	.LVL543:
 6712              	.LBE6199:
 6713              	.LBE6198:
 6714              		.loc 1 75 0
 6715 094a F5EEC05A 		fcmpezs	s11
 6716 094e F1EE10FA 		fmstat
 6717 0952 D4BF     		ite	le
 6718 0954 B0EE445A 		fcpysle	s10, s8
 6719 0958 B0EE635A 		fcpysgt	s10, s7
 6720 095c E5EE856A 		vfma.f32	s13, s11, s10
 6721              	.LVL544:
 6722              		.loc 1 76 0
 6723 0960 F4EEC46A 		fcmpes	s13, s8
 6724 0964 F1EE10FA 		fmstat
 6725 0968 98BF     		it	ls
 6726 096a 26EEA27A 		fmulsls	s14, s13, s5
ARM GAS  /var/folders/28/j9jfyj_n4wz3qtvnym210h2c0000gn/T//cckC861L.s 			page 119


 6727 096e 67EE877A 		fmuls	s15, s15, s14
 6728              	.LVL545:
 6729              		.loc 1 77 0
 6730 0972 E4EC017A 		fstmias	r4!, {s15}
 6731              	.LVL546:
 6732              		.loc 1 78 0
 6733 0976 90ED007A 		flds	s14, [r0]
 6734 097a A7EE867A 		vfma.f32	s14, s15, s12
 6735              	.LBE6200:
 6736              		.loc 1 72 0
 6737 097e 6445     		cmp	r4, ip
 6738              	.LBB6201:
 6739              		.loc 1 78 0
 6740 0980 A0EC017A 		fstmias	r0!, {s14}
 6741              	.LVL547:
 6742              	.LBE6201:
 6743              		.loc 1 72 0
 6744 0984 D0D1     		bne	.L239
 6745 0986 069B     		ldr	r3, [sp, #24]
 6746              	.LVL548:
 6747              	.L235:
 6748              	.LBE6208:
 6749              		.loc 1 81 0
 6750 0988 C2ED136A 		fsts	s13, [r2, #76]
 6751              		.loc 1 84 0
 6752 098c 61EEA17A 		fmuls	s15, s3, s3
 6753              	.LVL549:
 6754              		.loc 1 86 0
 6755 0990 F3EE084A 		fconsts	s9, #56
 6756              	.LVL550:
 6757 0994 27EEA77A 		fmuls	s14, s15, s15
 6758              		.loc 1 87 0
 6759 0998 B6EE005A 		fconsts	s10, #96
 6760              		.loc 1 86 0
 6761 099c 21EE877A 		fmuls	s14, s3, s14
 6762              		.loc 1 88 0
 6763 09a0 F0EE005A 		fconsts	s11, #0
 6764              		.loc 1 86 0
 6765 09a4 67EE244A 		fmuls	s9, s14, s9
 6766              	.LVL551:
 6767              		.loc 1 88 0
 6768 09a8 75EEE16A 		fsubs	s13, s11, s3
 6769              	.LVL552:
 6770              		.loc 1 87 0
 6771 09ac E1EEC54A 		vfms.f32	s9, s3, s10
 6772              	.LVL553:
 6773              		.loc 1 90 0
 6774 09b0 9FED597A 		flds	s14, .L389+16
 6775              		.loc 1 87 0
 6776 09b4 67EEA47A 		fmuls	s15, s15, s9
 6777              	.LVL554:
 6778              		.loc 1 88 0
 6779 09b8 61EEA66A 		fmuls	s13, s3, s13
 6780              		.loc 1 87 0
 6781 09bc E1EE857A 		vfma.f32	s15, s3, s10
 6782              	.LVL555:
 6783              	.LBB6209:
ARM GAS  /var/folders/28/j9jfyj_n4wz3qtvnym210h2c0000gn/T//cckC861L.s 			page 120


 6784              	.LBB6210:
 6785              		.loc 4 102 0
 6786 09c0 F8EE085A 		fconsts	s11, #136
 6787              	.LBE6210:
 6788              	.LBE6209:
 6789              		.loc 1 90 0
 6790 09c4 37EEC75A 		fsubs	s10, s15, s14
 6791 09c8 A6EE857A 		vfma.f32	s14, s13, s10
 6792              	.LVL556:
 6793              	.LBB6217:
 6794              	.LBB6214:
 6795              		.loc 4 102 0
 6796 09cc B4EEE57A 		fcmpes	s14, s11
 6797 09d0 F1EE10FA 		fmstat
 6798 09d4 00F19580 		bmi	.L310
 6799              		.loc 4 104 0
 6800 09d8 F0EE086A 		fconsts	s13, #8
 6801 09dc B4EEE67A 		fcmpes	s14, s13
 6802 09e0 F1EE10FA 		fmstat
 6803 09e4 00F3D383 		bgt	.L311
 6804              	.LVL557:
 6805              	.LBB6211:
 6806              	.LBB6212:
 6807              	.LBB6213:
 6808              		.loc 4 98 0
 6809 09e8 F3EE0B1A 		fconsts	s3, #59
 6810              	.LVL558:
 6811 09ec F0EE616A 		fcpys	s13, s3
 6812 09f0 F2EE025A 		fconsts	s11, #34
 6813 09f4 E7EE076A 		vfma.f32	s13, s14, s14
 6814 09f8 67EE255A 		fmuls	s11, s14, s11
 6815 09fc 67EE266A 		fmuls	s13, s14, s13
 6816 0a00 E7EE251A 		vfma.f32	s3, s14, s11
 6817 0a04 B7EE007A 		fconsts	s14, #112
 6818              	.LVL559:
 6819 0a08 C6EEA11A 		fdivs	s3, s13, s3
 6820 0a0c C7EE211A 		fdivs	s3, s14, s3
 6821              	.L240:
 6822              	.LVL560:
 6823              	.LBE6213:
 6824              	.LBE6212:
 6825              	.LBE6211:
 6826              	.LBE6214:
 6827              	.LBE6217:
 6828              	.LBB6218:
 6829              	.LBB6219:
 6830              	.LBB6220:
 6831              		.loc 9 49 0
 6832 0a10 D2ED165A 		flds	s11, [r2, #88]
 6833              	.LVL561:
 6834              	.LBE6220:
 6835              	.LBE6219:
 6836              	.LBE6218:
 6837              	.LBB6225:
 6838              	.LBB6226:
 6839              	.LBB6227:
 6840 0a14 92ED155A 		flds	s10, [r2, #84]
ARM GAS  /var/folders/28/j9jfyj_n4wz3qtvnym210h2c0000gn/T//cckC861L.s 			page 121


 6841              	.LBE6227:
 6842              	.LBE6226:
 6843              	.LBE6225:
 6844              	.LBB6232:
 6845              	.LBB6223:
 6846              	.LBB6221:
 6847              		.loc 9 50 0
 6848 0a18 77EEE57A 		fsubs	s15, s15, s11
 6849              	.LVL562:
 6850              	.LBE6221:
 6851              	.LBE6223:
 6852              	.LBE6232:
 6853              	.LBB6233:
 6854              	.LBB6230:
 6855              	.LBB6228:
 6856 0a1c 71EEC51A 		fsubs	s3, s3, s10
 6857              	.LVL563:
 6858              	.LBE6228:
 6859              	.LBE6230:
 6860              	.LBE6233:
 6861              	.LBB6234:
 6862              	.LBB6224:
 6863              	.LBB6222:
 6864 0a20 C7EE824A 		fdivs	s9, s15, s4
 6865              	.LVL564:
 6866              	.LBE6222:
 6867              	.LBE6224:
 6868              	.LBE6234:
 6869              	.LBB6235:
 6870              	.LBB6231:
 6871              	.LBB6229:
 6872 0a24 C1EE821A 		fdivs	s3, s3, s4
 6873              	.LVL565:
 6874              	.LBE6229:
 6875              	.LBE6231:
 6876              	.LBE6235:
 6877              	.LBB6236:
 6878              		.loc 1 100 0
 6879 0a28 002D     		cmp	r5, #0
 6880 0a2a 58D0     		beq	.L241
 6881 0a2c 03EB0801 		add	r1, r3, r8
 6882              	.LBB6237:
 6883              	.LBB6238:
 6884              	.LBB6239:
 6885              		.loc 4 102 0
 6886 0a30 B8EE081A 		fconsts	s2, #136
 6887              		.loc 4 104 0
 6888 0a34 F0EE080A 		fconsts	s1, #8
 6889              	.LBB6240:
 6890              	.LBB6241:
 6891              	.LBB6242:
 6892              		.loc 4 98 0
 6893 0a38 B3EE0B0A 		fconsts	s0, #59
 6894 0a3c B2EE029A 		fconsts	s18, #34
 6895 0a40 19E0     		b	.L243
 6896              	.LVL566:
 6897              	.L380:
ARM GAS  /var/folders/28/j9jfyj_n4wz3qtvnym210h2c0000gn/T//cckC861L.s 			page 122


 6898 0a42 B0EE407A 		fcpys	s14, s0
 6899 0a46 A7EEA77A 		vfma.f32	s14, s15, s15
 6900 0a4a 67EE898A 		fmuls	s17, s15, s18
 6901 0a4e 67EE876A 		fmuls	s13, s15, s14
 6902 0a52 B0EE407A 		fcpys	s14, s0
 6903 0a56 A7EEA87A 		vfma.f32	s14, s15, s17
 6904 0a5a 86EE877A 		fdivs	s14, s13, s14
 6905              	.LVL567:
 6906              	.L242:
 6907              	.LBE6242:
 6908              	.LBE6241:
 6909              	.LBE6240:
 6910              	.LBE6239:
 6911              	.LBE6238:
 6912              	.LBB6244:
 6913              	.LBB6245:
 6914              		.loc 9 54 0
 6915 0a5e 35EE215A 		fadds	s10, s10, s3
 6916              	.LVL568:
 6917              	.LBE6245:
 6918              	.LBE6244:
 6919              		.loc 1 103 0
 6920 0a62 F0EE676A 		fcpys	s13, s15
 6921 0a66 D5EE076A 		vfnms.f32	s13, s10, s14
 6922 0a6a E6EE887A 		vfma.f32	s15, s13, s16
 6923              	.LVL569:
 6924 0a6e E3EC017A 		fstmias	r3!, {s15}
 6925              	.LVL570:
 6926              	.LBE6237:
 6927              		.loc 1 100 0
 6928 0a72 8B42     		cmp	r3, r1
 6929 0a74 33D0     		beq	.L241
 6930              	.LVL571:
 6931              	.L243:
 6932              	.LBB6249:
 6933              	.LBB6246:
 6934              	.LBB6247:
 6935              		.loc 9 54 0
 6936 0a76 75EEA45A 		fadds	s11, s11, s9
 6937              	.LVL572:
 6938              	.LBE6247:
 6939              	.LBE6246:
 6940              		.loc 1 101 0
 6941 0a7a D3ED007A 		flds	s15, [r3]
 6942 0a7e 65EEA77A 		fmuls	s15, s11, s15
 6943              	.LVL573:
 6944              	.LBB6248:
 6945              	.LBB6243:
 6946              		.loc 4 103 0
 6947 0a82 BFEE007A 		fconsts	s14, #240
 6948              		.loc 4 102 0
 6949 0a86 F4EEC17A 		fcmpes	s15, s2
 6950 0a8a F1EE10FA 		fmstat
 6951 0a8e E6D4     		bmi	.L242
 6952              	.LVL574:
 6953              		.loc 4 104 0
 6954 0a90 F4EEE07A 		fcmpes	s15, s1
ARM GAS  /var/folders/28/j9jfyj_n4wz3qtvnym210h2c0000gn/T//cckC861L.s 			page 123


 6955 0a94 F1EE10FA 		fmstat
 6956 0a98 D3DD     		ble	.L380
 6957              		.loc 4 105 0
 6958 0a9a B7EE007A 		fconsts	s14, #112
 6959 0a9e DEE7     		b	.L242
 6960              	.LVL575:
 6961              	.L379:
 6962              	.LBE6243:
 6963              	.LBE6248:
 6964              	.LBE6249:
 6965              	.LBE6236:
 6966              	.LBE6258:
 6967              	.LBE6262:
 6968              	.LBE6193:
 6969              		.loc 2 210 0
 6970 0aa0 4FEA8E08 		lsl	r8, lr, #2
 6971 0aa4 06EB0802 		add	r2, r6, r8
 6972              	.LVL576:
 6973              	.LBB6266:
 6974              	.LBB6267:
 6975              	.LBB6268:
 6976              		.loc 7 703 0
 6977 0aa8 9642     		cmp	r6, r2
 6978 0aaa 05D0     		beq	.L233
 6979              		.loc 7 704 0
 6980 0aac 0021     		movs	r1, #0
 6981              	.LVL577:
 6982              		.loc 7 703 0
 6983 0aae 3346     		mov	r3, r6
 6984              	.LVL578:
 6985              	.L234:
 6986              		.loc 7 704 0
 6987 0ab0 43F8041B 		str	r1, [r3], #4	@ float
 6988              	.LVL579:
 6989              		.loc 7 703 0
 6990 0ab4 9A42     		cmp	r2, r3
 6991 0ab6 FBD1     		bne	.L234
 6992              	.LVL580:
 6993              	.L233:
 6994              	.LBE6268:
 6995              	.LBE6267:
 6996              	.LBE6266:
 6997              		.loc 2 214 0
 6998 0ab8 3B46     		mov	r3, r7
 6999              	.LBB6269:
 7000              		.loc 2 215 0
 7001 0aba 4FF0000B 		mov	fp, #0
 7002 0abe FCE6     		b	.L297
 7003              	.LVL581:
 7004              	.L376:
 7005              	.LBE6269:
 7006              	.LBB6270:
 7007              	.LBB6191:
 7008              	.LBB6189:
 7009              	.LBB6187:
 7010              	.LBB6185:
 7011              	.LBB6183:
ARM GAS  /var/folders/28/j9jfyj_n4wz3qtvnym210h2c0000gn/T//cckC861L.s 			page 124


 7012              		.loc 7 378 0
 7013 0ac0 0598     		ldr	r0, [sp, #20]
 7014              	.LVL582:
 7015              	.LBE6183:
 7016              	.LBE6185:
 7017              	.LBE6187:
 7018              	.LBE6189:
 7019              	.LBE6191:
 7020              	.LBE6270:
 7021              	.LBE12305:
 7022              		.loc 2 343 0
 7023 0ac2 0BB0     		add	sp, sp, #44
 7024              		.cfi_remember_state
 7025              		.cfi_def_cfa_offset 100
 7026              		@ sp needed
 7027 0ac4 BDEC108B 		fldmfdd	sp!, {d8-d15}
 7028              		.cfi_restore 94
 7029              		.cfi_restore 95
 7030              		.cfi_restore 92
 7031              		.cfi_restore 93
 7032              		.cfi_restore 90
 7033              		.cfi_restore 91
 7034              		.cfi_restore 88
 7035              		.cfi_restore 89
 7036              		.cfi_restore 86
 7037              		.cfi_restore 87
 7038              		.cfi_restore 84
 7039              		.cfi_restore 85
 7040              		.cfi_restore 82
 7041              		.cfi_restore 83
