ARM GAS  /var/folders/28/j9jfyj_n4wz3qtvnym210h2c0000gn/T//ccD1xmiq.s 			page 1


   1              		.syntax unified
   2              		.cpu cortex-m4
   3              		.eabi_attribute 27, 1
   4              		.eabi_attribute 28, 1
   5              		.fpu fpv4-sp-d16
   6              		.eabi_attribute 20, 1
   7              		.eabi_attribute 21, 1
   8              		.eabi_attribute 23, 3
   9              		.eabi_attribute 24, 1
  10              		.eabi_attribute 25, 1
  11              		.eabi_attribute 26, 1
  12              		.eabi_attribute 30, 2
  13              		.eabi_attribute 34, 1
  14              		.eabi_attribute 18, 4
  15              		.thumb
  16              		.file	"oscillator.cpp"
  17              		.text
  18              	.Ltext0:
  19              		.cfi_sections	.debug_frame
  20              		.align	2
  21              		.p2align 4,,15
  22              		.global	_ZN5warps10Oscillator10RenderSineEfPfS1_j
  23              		.thumb
  24              		.thumb_func
  25              		.type	_ZN5warps10Oscillator10RenderSineEfPfS1_j, %function
  26              	_ZN5warps10Oscillator10RenderSineEfPfS1_j:
  27              		.fnstart
  28              	.LFB203:
  29              		.file 1 "./mutable_instruments/warps/dsp/oscillator.cpp"
  30              		.loc 1 71 0
  31              		.cfi_startproc
  32              		@ args = 0, pretend = 0, frame = 0
  33              		@ frame_needed = 0, uses_anonymous_args = 0
  34              		@ link register save eliminated.
  35              	.LVL0:
  36              	.LBB134:
  37              	.LBB135:
  38              	.LBB136:
  39              		.file 2 "./mutable_instruments/warps/dsp/oscillator.h"
  40              		.loc 2 58 0
  41 0000 BEEECC0A 		vcvt.s32.f32	s0, s0, #8
  42              	.LVL1:
  43              	.LBE136:
  44              	.LBE135:
  45              	.LBE134:
  46              		.loc 1 71 0
  47 0004 F0B4     		push	{r4, r5, r6, r7}
  48              		.cfi_def_cfa_offset 16
  49              		.cfi_offset 4, -16
  50              		.cfi_offset 5, -12
  51              		.cfi_offset 6, -8
  52              		.cfi_offset 7, -4
  53              	.LBB159:
  54              	.LBB141:
  55              	.LBB139:
  56              		.loc 2 59 0
  57 0006 10EE104A 		fmrs	r4, s0	@ int
ARM GAS  /var/folders/28/j9jfyj_n4wz3qtvnym210h2c0000gn/T//ccD1xmiq.s 			page 2


  58              		.loc 2 61 0
  59 000a 334D     		ldr	r5, .L13
  60              		.loc 2 60 0
  61 000c 334E     		ldr	r6, .L13+4
  62              	.LBE139:
  63              	.LBE141:
  64              	.LBB142:
  65              	.LBB143:
  66              	.LBB144:
  67              		.file 3 "./mutable_instruments/stmlib/dsp/parameter_interpolator.h"
  68              		.loc 3 49 0
  69 000e D0ED025A 		flds	s11, [r0, #8]
  70              	.LBE144:
  71              	.LBE143:
  72              	.LBE142:
  73              		.loc 1 72 0
  74 0012 D0ED016A 		flds	s13, [r0, #4]
  75              	.LBB149:
  76              	.LBB140:
  77              		.loc 2 59 0
  78 0016 A4F5A044 		sub	r4, r4, #20480
  79              	.LBB137:
  80              	.LBB138:
  81              		.file 4 "./mutable_instruments/stmlib/dsp/dsp.h"
  82              		.loc 4 133 0
  83              	@ 133 "./mutable_instruments/stmlib/dsp/dsp.h" 1
  84 001a 04F30F04 		ssat r4, #16, r4
  85              	@ 0 "" 2
  86              		.thumb
  87              	.LBE138:
  88              	.LBE137:
  89              		.loc 2 59 0
  90 001e 04F50044 		add	r4, r4, #32768
  91              		.loc 2 60 0
  92 0022 2712     		asrs	r7, r4, #8
  93              	.LVL2:
  94              		.loc 2 61 0
  95 0024 E4B2     		uxtb	r4, r4
  96              	.LVL3:
  97 0026 05EB8404 		add	r4, r5, r4, lsl #2
  98              		.loc 2 60 0
  99 002a 06EB8706 		add	r6, r6, r7, lsl #2
 100              	.LBE140:
 101              	.LBE149:
 102              	.LBB150:
 103              	.LBB147:
 104              	.LBB145:
 105              		.loc 3 50 0
 106 002e 96ED007A 		flds	s14, [r6]
 107 0032 D4ED007A 		flds	s15, [r4]
 108 0036 B0EE656A 		fcpys	s12, s11
 109 003a 97EE276A 		vfnms.f32	s12, s14, s15
 110              	.LVL4:
 111              	.LBE145:
 112              	.LBE147:
 113              	.LBE150:
 114              		.loc 1 77 0
ARM GAS  /var/folders/28/j9jfyj_n4wz3qtvnym210h2c0000gn/T//ccD1xmiq.s 			page 3


 115 003e 5D1E     		subs	r5, r3, #1
 116              	.LBB151:
 117              	.LBB148:
 118              	.LBB146:
 119              		.loc 3 50 0
 120 0040 07EE103A 		fmsr	s14, r3	@ int
 121 0044 B8EE474A 		fuitos	s8, s14
 122 0048 86EE044A 		fdivs	s8, s12, s8
 123              	.LVL5:
 124              	.LBE146:
 125              	.LBE148:
 126              	.LBE151:
 127              		.loc 1 77 0
 128 004c DBB3     		cbz	r3, .L2
 129 004e 244E     		ldr	r6, .L13+8
 130              	.LBB152:
 131              		.loc 1 82 0
 132 0050 9FED245A 		flds	s10, .L13+12
 133              		.loc 1 85 0
 134 0054 9FED243A 		flds	s6, .L13+16
 135              		.loc 1 79 0
 136 0058 F7EE004A 		fconsts	s9, #112
 137              		.loc 1 83 0
 138 005c F6EE003A 		fconsts	s7, #96
 139              	.LVL6:
 140              	.L5:
 141              	.LBB153:
 142              	.LBB154:
 143              		.loc 3 54 0
 144 0060 75EE845A 		fadds	s11, s11, s8
 145              	.LVL7:
 146              	.LBE154:
 147              	.LBE153:
 148              		.loc 1 83 0
 149 0064 F1EC017A 		fldmias	r1!, {s15}
 150              	.LVL8:
 151              		.loc 1 78 0
 152 0068 76EEA56A 		fadds	s13, s13, s11
 153              	.LVL9:
 154              		.loc 1 83 0
 155 006c 67EEA37A 		fmuls	s15, s15, s7
 156              		.loc 1 79 0
 157 0070 F4EEE46A 		fcmpes	s13, s9
 158 0074 F1EE10FA 		fmstat
 159              		.loc 1 80 0
 160 0078 A8BF     		it	ge
 161 007a 76EEE46A 		fsubsge	s13, s13, s9
 162              	.LVL10:
 163              		.loc 1 83 0
 164 007e 67EE857A 		fmuls	s15, s15, s10
 165              		.loc 1 82 0
 166 0082 26EE857A 		fmuls	s14, s13, s10
 167              		.loc 1 83 0
 168 0086 FDEEE77A 		ftosizs	s15, s15
 169              		.loc 1 82 0
 170 008a BCEEC77A 		ftouizs	s14, s14
 171              		.loc 1 83 0
ARM GAS  /var/folders/28/j9jfyj_n4wz3qtvnym210h2c0000gn/T//ccD1xmiq.s 			page 4


 172 008e 17EE904A 		fmrs	r4, s15	@ int
 173              		.loc 1 82 0
 174 0092 17EE103A 		fmrs	r3, s14	@ int
 175              	.LVL11:
 176              		.loc 1 83 0
 177 0096 2344     		add	r3, r3, r4
 178              	.LVL12:
 179              		.loc 1 84 0
 180 0098 9C0D     		lsrs	r4, r3, #22
 181              	.LVL13:
 182              		.loc 1 85 0
 183 009a 9B02     		lsls	r3, r3, #10
 184              	.LVL14:
 185 009c 07EE903A 		fmsr	s15, r3	@ int
 186              	.LVL15:
 187              		.loc 1 86 0
 188 00a0 06EB8403 		add	r3, r6, r4, lsl #2
 189 00a4 93ED007A 		flds	s14, [r3]
 190              	.LVL16:
 191              		.loc 1 88 0
 192 00a8 93ED016A 		flds	s12, [r3, #4]
 193              		.loc 1 85 0
 194 00ac F8EE677A 		fuitos	s15, s15
 195              		.loc 1 88 0
 196 00b0 36EE476A 		fsubs	s12, s12, s14
 197              		.loc 1 85 0
 198 00b4 67EE837A 		fmuls	s15, s15, s6
 199              	.LBE152:
 200              		.loc 1 77 0
 201 00b8 013D     		subs	r5, r5, #1
 202              	.LVL17:
 203              	.LBB155:
 204              		.loc 1 88 0
 205 00ba A6EE277A 		vfma.f32	s14, s12, s15
 206              	.LVL18:
 207              	.LBE155:
 208              		.loc 1 77 0
 209 00be 6B1C     		adds	r3, r5, #1
 210              	.LVL19:
 211              	.LBB156:
 212              		.loc 1 88 0
 213 00c0 A2EC017A 		fstmias	r2!, {s14}
 214              	.LVL20:
 215              	.LBE156:
 216              		.loc 1 77 0
 217 00c4 CCD1     		bne	.L5
 218              	.LVL21:
 219              	.L2:
 220              	.LBE159:
 221              		.loc 1 92 0
 222 00c6 B7EE000A 		fconsts	s0, #112
 223              	.LBB160:
 224              		.loc 1 90 0
 225 00ca C0ED016A 		fsts	s13, [r0, #4]
 226              	.LVL22:
 227              	.LBB157:
 228              	.LBB158:
ARM GAS  /var/folders/28/j9jfyj_n4wz3qtvnym210h2c0000gn/T//ccD1xmiq.s 			page 5


 229              		.loc 3 44 0
 230 00ce C0ED025A 		fsts	s11, [r0, #8]
 231              	.LBE158:
 232              	.LBE157:
 233              	.LBE160:
 234              		.loc 1 92 0
 235 00d2 F0BC     		pop	{r4, r5, r6, r7}
 236              		.cfi_restore 7
 237              		.cfi_restore 6
 238              		.cfi_restore 5
 239              		.cfi_restore 4
 240              		.cfi_def_cfa_offset 0
 241              	.LVL23:
 242 00d4 7047     		bx	lr
 243              	.L14:
 244 00d6 00BF     		.align	2
 245              	.L13:
 246 00d8 00000000 		.word	_ZN5warps17lut_midi_to_f_lowE
 247 00dc 00000000 		.word	_ZN5warps18lut_midi_to_f_highE
 248 00e0 00000000 		.word	_ZN5warps7lut_sinE
 249 00e4 0000804F 		.word	1333788672
 250 00e8 0000802F 		.word	796917760
 251              		.cfi_endproc
 252              	.LFE203:
 253              		.cantunwind
 254              		.fnend
 255              		.size	_ZN5warps10Oscillator10RenderSineEfPfS1_j, .-_ZN5warps10Oscillator10RenderSineEfPfS1_j
 256              		.section	.text._ZN5warps10Oscillator14RenderPolyblepILNS_15OscillatorShapeE1EEEffPfS3_j,"axG",%pro
 257              		.align	2
 258              		.p2align 4,,15
 259              		.weak	_ZN5warps10Oscillator14RenderPolyblepILNS_15OscillatorShapeE1EEEffPfS3_j
 260              		.thumb
 261              		.thumb_func
 262              		.type	_ZN5warps10Oscillator14RenderPolyblepILNS_15OscillatorShapeE1EEEffPfS3_j, %function
 263              	_ZN5warps10Oscillator14RenderPolyblepILNS_15OscillatorShapeE1EEEffPfS3_j:
 264              		.fnstart
 265              	.LFB212:
 266              		.loc 1 95 0
 267              		.cfi_startproc
 268              		@ args = 0, pretend = 0, frame = 0
 269              		@ frame_needed = 0, uses_anonymous_args = 0
 270              		@ link register save eliminated.
 271              	.LVL24:
 272              	.LBB161:
 273              	.LBB162:
 274              	.LBB163:
 275              		.loc 2 58 0
 276 0000 BEEECC0A 		vcvt.s32.f32	s0, s0, #8
 277              	.LVL25:
 278              	.LBE163:
 279              	.LBE162:
 280              	.LBE161:
 281              		.loc 1 95 0
 282 0004 F0B4     		push	{r4, r5, r6, r7}
 283              		.cfi_def_cfa_offset 16
 284              		.cfi_offset 4, -16
 285              		.cfi_offset 5, -12
ARM GAS  /var/folders/28/j9jfyj_n4wz3qtvnym210h2c0000gn/T//ccD1xmiq.s 			page 6


 286              		.cfi_offset 6, -8
 287              		.cfi_offset 7, -4
 288              	.LBB218:
 289              	.LBB168:
 290              	.LBB166:
 291              		.loc 2 59 0
 292 0006 10EE104A 		fmrs	r4, s0	@ int
 293              		.loc 2 61 0
 294 000a 524D     		ldr	r5, .L39
 295              		.loc 2 60 0
 296 000c 524E     		ldr	r6, .L39+4
 297              	.LBE166:
 298              	.LBE168:
 299              	.LBB169:
 300              	.LBB170:
 301              	.LBB171:
 302              		.loc 3 49 0
 303 000e 90ED024A 		flds	s8, [r0, #8]
 304              	.LBE171:
 305              	.LBE170:
 306              	.LBE169:
 307              		.loc 1 100 0
 308 0012 D0ED016A 		flds	s13, [r0, #4]
 309              		.loc 1 106 0
 310 0016 90ED037A 		flds	s14, [r0, #12]
 311              		.loc 1 108 0
 312 001a D0ED045A 		flds	s11, [r0, #16]
 313              	.LBB180:
 314              	.LBB167:
 315              		.loc 2 59 0
 316 001e A4F5A044 		sub	r4, r4, #20480
 317              	.LBB164:
 318              	.LBB165:
 319              		.loc 4 133 0
 320              	@ 133 "./mutable_instruments/stmlib/dsp/dsp.h" 1
 321 0022 04F30F04 		ssat r4, #16, r4
 322              	@ 0 "" 2
 323              		.thumb
 324              	.LBE165:
 325              	.LBE164:
 326              		.loc 2 59 0
 327 0026 04F50044 		add	r4, r4, #32768
 328              		.loc 2 60 0
 329 002a 2712     		asrs	r7, r4, #8
 330              	.LVL26:
 331              		.loc 2 61 0
 332 002c E4B2     		uxtb	r4, r4
 333              	.LVL27:
 334 002e 05EB8404 		add	r4, r5, r4, lsl #2
 335              		.loc 2 60 0
 336 0032 06EB8706 		add	r6, r6, r7, lsl #2
 337              	.LBE167:
 338              	.LBE180:
 339              	.LBB181:
 340              	.LBB176:
 341              	.LBB172:
 342              		.loc 3 50 0
ARM GAS  /var/folders/28/j9jfyj_n4wz3qtvnym210h2c0000gn/T//ccD1xmiq.s 			page 7


 343 0036 96ED006A 		flds	s12, [r6]
 344 003a D4ED007A 		flds	s15, [r4]
 345              	.LBE172:
 346              	.LBE176:
 347              	.LBE181:
 348              		.loc 1 107 0
 349 003e 0578     		ldrb	r5, [r0]	@ zero_extendqisi2
 350              		.loc 1 109 0
 351 0040 4669     		ldr	r6, [r0, #20]	@ float
 352              	.LBB182:
 353              	.LBB177:
 354              	.LBB173:
 355              		.loc 3 50 0
 356 0042 B0EE445A 		fcpys	s10, s8
 357 0046 96EE275A 		vfnms.f32	s10, s12, s15
 358              	.LVL28:
 359              	.LBE173:
 360              	.LBE177:
 361              	.LBE182:
 362              		.loc 1 111 0
 363 004a 5C1E     		subs	r4, r3, #1
 364              	.LBB183:
 365              	.LBB178:
 366              	.LBB174:
 367              		.loc 3 50 0
 368 004c 06EE103A 		fmsr	s12, r3	@ int
 369 0050 B8EE461A 		fuitos	s2, s12
 370              	.LBE174:
 371              	.LBE178:
 372              	.LBE183:
 373              	.LBE218:
 374              		.loc 1 95 0
 375 0054 2DED028B 		fstmfdd	sp!, {d8}
 376              		.cfi_def_cfa_offset 24
 377              		.cfi_offset 80, -24
 378              		.cfi_offset 81, -20
 379              	.LBB219:
 380              	.LBB184:
 381              	.LBB179:
 382              	.LBB175:
 383              		.loc 3 50 0
 384 0058 85EE011A 		fdivs	s2, s10, s2
 385              	.LVL29:
 386              	.LBE175:
 387              	.LBE179:
 388              	.LBE184:
 389              		.loc 1 111 0
 390 005c 002B     		cmp	r3, #0
 391 005e 68D0     		beq	.L16
 392 0060 9FED3E8A 		flds	s16, .L39+8
 393              	.LBB185:
 394              		.loc 1 113 0
 395 0064 DFED3E1A 		flds	s3, .L39+12
 396              	.LBB186:
 397              		.loc 1 139 0
 398 0068 DFED3E0A 		flds	s1, .L39+16
 399              	.LBE186:
ARM GAS  /var/folders/28/j9jfyj_n4wz3qtvnym210h2c0000gn/T//ccD1xmiq.s 			page 8


 400              		.loc 1 115 0
 401 006c B7EE006A 		fconsts	s12, #112
 402              	.LBB207:
 403              	.LBB187:
 404              		.loc 1 123 0
 405 0070 B6EE005A 		fconsts	s10, #96
 406              	.LBB188:
 407              	.LBB189:
 408              	.LBB190:
 409              		.loc 2 85 0
 410 0074 BEEE000A 		fconsts	s0, #224
 411 0078 41E0     		b	.L23
 412              	.LVL30:
 413              	.L38:
 414              	.LBE190:
 415              	.LBE189:
 416              	.LBE188:
 417              		.loc 1 123 0 discriminator 1
 418 007a F4EEC56A 		fcmpes	s13, s10
 419 007e F1EE10FA 		fmstat
 420 0082 53DB     		blt	.L35
 421              	.LBB197:
 422              		.loc 1 124 0
 423 0084 76EEC54A 		fsubs	s9, s13, s10
 424              		.loc 1 127 0
 425 0088 0125     		movs	r5, #1
 426              	.LVL31:
 427              		.loc 1 124 0
 428 008a C4EEA74A 		fdivs	s9, s9, s15
 429              	.LVL32:
 430              	.LBB193:
 431              	.LBB191:
 432              		.loc 2 84 0
 433 008e 76EE643A 		fsubs	s7, s12, s9
 434              	.LBE191:
 435              	.LBE193:
 436              	.LBB194:
 437              	.LBB195:
 438              		.loc 2 81 0
 439 0092 24EE852A 		fmuls	s4, s9, s10
 440              	.LBE195:
 441              	.LBE194:
 442              	.LBB196:
 443              	.LBB192:
 444              		.loc 2 85 0
 445 0096 63EE802A 		fmuls	s5, s7, s0
 446              	.LBE192:
 447              	.LBE196:
 448              		.loc 1 125 0
 449 009a A2EE247A 		vfma.f32	s14, s4, s9
 450              	.LVL33:
 451              		.loc 1 126 0
 452 009e F0EE614A 		fcpys	s9, s3
 453              	.LVL34:
 454 00a2 E3EEA24A 		vfma.f32	s9, s7, s5
 455              	.LVL35:
 456              	.L18:
ARM GAS  /var/folders/28/j9jfyj_n4wz3qtvnym210h2c0000gn/T//ccD1xmiq.s 			page 9


 457              	.LBE197:
 458              	.LBE187:
 459              	.LBB198:
 460              		.loc 1 129 0
 461 00a6 F4EEC66A 		fcmpes	s13, s12
 462 00aa F1EE10FA 		fmstat
 463 00ae 0EDB     		blt	.L20
 464              	.LBB199:
 465              		.loc 1 130 0
 466 00b0 76EEC66A 		fsubs	s13, s13, s12
 467              	.LVL36:
 468              		.loc 1 134 0
 469 00b4 0025     		movs	r5, #0
 470              	.LVL37:
 471              		.loc 1 131 0
 472 00b6 C6EEA77A 		fdivs	s15, s13, s15
 473              	.LVL38:
 474              	.LBB200:
 475              	.LBB201:
 476              		.loc 2 84 0
 477 00ba 76EE673A 		fsubs	s7, s12, s15
 478              	.LBE201:
 479              	.LBE200:
 480              	.LBB203:
 481              	.LBB204:
 482              		.loc 2 81 0
 483 00be 27EE852A 		fmuls	s4, s15, s10
 484              	.LBE204:
 485              	.LBE203:
 486              	.LBB205:
 487              	.LBB202:
 488              		.loc 2 85 0
 489 00c2 63EE802A 		fmuls	s5, s7, s0
 490              	.LBE202:
 491              	.LBE205:
 492              		.loc 1 132 0
 493 00c6 A7EEC27A 		vfms.f32	s14, s15, s4
 494              	.LVL39:
 495              		.loc 1 133 0
 496 00ca E3EEE24A 		vfms.f32	s9, s7, s5
 497              	.LVL40:
 498              	.L20:
 499              	.LBE199:
 500              	.LBE198:
 501              	.LBE207:
 502              	.LBE185:
 503              		.loc 1 111 0
 504 00ce 013C     		subs	r4, r4, #1
 505              	.LVL41:
 506              	.LBB213:
 507              	.LBB208:
 508              		.loc 1 138 0
 509 00d0 37EE457A 		fsubs	s14, s14, s10
 510              	.LVL42:
 511              		.loc 1 139 0
 512 00d4 F0EE657A 		fcpys	s15, s11
 513 00d8 D7EE207A 		vfnms.f32	s15, s14, s1
ARM GAS  /var/folders/28/j9jfyj_n4wz3qtvnym210h2c0000gn/T//ccD1xmiq.s 			page 10


 514              		.loc 1 137 0
 515 00dc F4EEC56A 		fcmpes	s13, s10
 516              		.loc 1 139 0
 517 00e0 E7EE835A 		vfma.f32	s11, s15, s6
 518              	.LVL43:
 519              		.loc 1 137 0
 520 00e4 F1EE10FA 		fmstat
 521 00e8 54BF     		ite	pl
 522 00ea B0EE467A 		fcpyspl	s14, s12
 523 00ee B0EE617A 		fcpysmi	s14, s3
 524              	.LBE208:
 525              	.LBE213:
 526              		.loc 1 111 0
 527 00f2 631C     		adds	r3, r4, #1
 528              	.LBB214:
 529              	.LBB209:
 530              		.loc 1 140 0
 531 00f4 E2EC015A 		fstmias	r2!, {s11}
 532              	.LVL44:
 533              		.loc 1 137 0
 534 00f8 37EE247A 		fadds	s14, s14, s9
 535              	.LVL45:
 536              	.LBE209:
 537              	.LBE214:
 538              		.loc 1 111 0
 539 00fc 19D0     		beq	.L16
 540              	.LVL46:
 541              	.L23:
 542              	.LBB215:
 543              		.loc 1 115 0
 544 00fe F1EC017A 		fldmias	r1!, {s15}
 545              	.LVL47:
 546              	.LBB210:
 547              	.LBB211:
 548              		.loc 3 54 0
 549 0102 34EE014A 		fadds	s8, s8, s2
 550              	.LVL48:
 551              	.LBE211:
 552              	.LBE210:
 553              		.loc 1 115 0
 554 0106 77EE867A 		fadds	s15, s15, s12
 555 010a 67EE847A 		fmuls	s15, s15, s8
 556              	.LVL49:
 557              		.loc 1 117 0
 558 010e F5EEC07A 		fcmpezs	s15
 559 0112 F1EE10FA 		fmstat
 560              		.loc 1 118 0
 561 0116 9ABF     		itte	ls
 562 0118 DFED137A 		fldsls	s15, .L39+20
 563              	.LVL50:
 564 011c 9FED133A 		fldsls	s6, .L39+24
 565 0120 27EE883A 		fmulshi	s6, s15, s16
 566              		.loc 1 120 0
 567 0124 76EEA76A 		fadds	s13, s13, s15
 568              	.LVL51:
 569              	.LBB212:
 570              	.LBB206:
ARM GAS  /var/folders/28/j9jfyj_n4wz3qtvnym210h2c0000gn/T//ccD1xmiq.s 			page 11


 571              		.loc 1 123 0
 572 0128 002D     		cmp	r5, #0
 573 012a A6D0     		beq	.L38
 574              	.L35:
 575              	.LBE206:
 576              	.LBE212:
 577              		.loc 1 113 0
 578 012c DFED0C4A 		flds	s9, .L39+12
 579 0130 B9E7     		b	.L18
 580              	.LVL52:
 581              	.L16:
 582              	.LBE215:
 583              	.LBE219:
 584              		.loc 1 173 0
 585 0132 BDEC028B 		fldmfdd	sp!, {d8}
 586              		.cfi_restore 80
 587              		.cfi_restore 81
 588              		.cfi_def_cfa_offset 16
 589              	.LBB220:
 590              		.loc 1 164 0
 591 0136 0570     		strb	r5, [r0]
 592              		.loc 1 168 0
 593 0138 4661     		str	r6, [r0, #20]	@ float
 594              	.LVL53:
 595              	.LBE220:
 596              		.loc 1 173 0
 597 013a B7EE000A 		fconsts	s0, #112
 598              	.LBB221:
 599              		.loc 1 165 0
 600 013e C0ED016A 		fsts	s13, [r0, #4]
 601              		.loc 1 166 0
 602 0142 80ED037A 		fsts	s14, [r0, #12]
 603              		.loc 1 167 0
 604 0146 C0ED045A 		fsts	s11, [r0, #16]
 605              	.LBB216:
 606              	.LBB217:
 607              		.loc 3 44 0
 608 014a 80ED024A 		fsts	s8, [r0, #8]
 609              	.LBE217:
 610              	.LBE216:
 611              	.LBE221:
 612              		.loc 1 173 0
 613 014e F0BC     		pop	{r4, r5, r6, r7}
 614              		.cfi_restore 7
 615              		.cfi_restore 6
 616              		.cfi_restore 5
 617              		.cfi_restore 4
 618              		.cfi_def_cfa_offset 0
 619              	.LVL54:
 620 0150 7047     		bx	lr
 621              	.L40:
 622 0152 00BF     		.align	2
 623              	.L39:
 624 0154 00000000 		.word	_ZN5warps17lut_midi_to_f_lowE
 625 0158 00000000 		.word	_ZN5warps18lut_midi_to_f_highE
 626 015c 0000803D 		.word	1031798784
 627 0160 00000000 		.word	0
ARM GAS  /var/folders/28/j9jfyj_n4wz3qtvnym210h2c0000gn/T//ccD1xmiq.s 			page 12


 628 0164 00000043 		.word	1124073472
 629 0168 95BFD633 		.word	869711765
 630 016c 95BFD631 		.word	836157333
 631              		.cfi_endproc
 632              	.LFE212:
 633              		.cantunwind
 634              		.fnend
 635              		.size	_ZN5warps10Oscillator14RenderPolyblepILNS_15OscillatorShapeE1EEEffPfS3_j, .-_ZN5warps10Oscil
 636              		.section	.text._ZN5warps10Oscillator14RenderPolyblepILNS_15OscillatorShapeE2EEEffPfS3_j,"axG",%pro
 637              		.align	2
 638              		.p2align 4,,15
 639              		.weak	_ZN5warps10Oscillator14RenderPolyblepILNS_15OscillatorShapeE2EEEffPfS3_j
 640              		.thumb
 641              		.thumb_func
 642              		.type	_ZN5warps10Oscillator14RenderPolyblepILNS_15OscillatorShapeE2EEEffPfS3_j, %function
 643              	_ZN5warps10Oscillator14RenderPolyblepILNS_15OscillatorShapeE2EEEffPfS3_j:
 644              		.fnstart
 645              	.LFB213:
 646              		.loc 1 95 0
 647              		.cfi_startproc
 648              		@ args = 0, pretend = 0, frame = 0
 649              		@ frame_needed = 0, uses_anonymous_args = 0
 650              		@ link register save eliminated.
 651              	.LVL55:
 652              	.LBB222:
 653              	.LBB223:
 654              	.LBB224:
 655              		.loc 2 58 0
 656 0000 BEEECC0A 		vcvt.s32.f32	s0, s0, #8
 657              	.LVL56:
 658              	.LBE224:
 659              	.LBE223:
 660              	.LBE222:
 661              		.loc 1 95 0
 662 0004 F0B4     		push	{r4, r5, r6, r7}
 663              		.cfi_def_cfa_offset 16
 664              		.cfi_offset 4, -16
 665              		.cfi_offset 5, -12
 666              		.cfi_offset 6, -8
 667              		.cfi_offset 7, -4
 668              	.LBB268:
 669              	.LBB229:
 670              	.LBB227:
 671              		.loc 2 59 0
 672 0006 10EE104A 		fmrs	r4, s0	@ int
 673              		.loc 2 61 0
 674 000a 424D     		ldr	r5, .L58
 675              		.loc 2 60 0
 676 000c 424E     		ldr	r6, .L58+4
 677              	.LBE227:
 678              	.LBE229:
 679              	.LBB230:
 680              	.LBB231:
 681              	.LBB232:
 682              		.loc 3 49 0
 683 000e 90ED025A 		flds	s10, [r0, #8]
 684              	.LBE232:
ARM GAS  /var/folders/28/j9jfyj_n4wz3qtvnym210h2c0000gn/T//ccD1xmiq.s 			page 13


 685              	.LBE231:
 686              	.LBE230:
 687              		.loc 1 100 0
 688 0012 90ED017A 		flds	s14, [r0, #4]
 689              		.loc 1 106 0
 690 0016 90ED036A 		flds	s12, [r0, #12]
 691              		.loc 1 108 0
 692 001a D0ED046A 		flds	s13, [r0, #16]
 693              	.LBB241:
 694              	.LBB228:
 695              		.loc 2 59 0
 696 001e A4F5A044 		sub	r4, r4, #20480
 697              	.LBB225:
 698              	.LBB226:
 699              		.loc 4 133 0
 700              	@ 133 "./mutable_instruments/stmlib/dsp/dsp.h" 1
 701 0022 04F30F04 		ssat r4, #16, r4
 702              	@ 0 "" 2
 703              		.thumb
 704              	.LBE226:
 705              	.LBE225:
 706              		.loc 2 59 0
 707 0026 04F50044 		add	r4, r4, #32768
 708              		.loc 2 60 0
 709 002a 2712     		asrs	r7, r4, #8
 710              	.LVL57:
 711              		.loc 2 61 0
 712 002c E4B2     		uxtb	r4, r4
 713              	.LVL58:
 714 002e 05EB8404 		add	r4, r5, r4, lsl #2
 715              		.loc 2 60 0
 716 0032 06EB8706 		add	r6, r6, r7, lsl #2
 717              	.LBE228:
 718              	.LBE241:
 719              	.LBB242:
 720              	.LBB237:
 721              	.LBB233:
 722              		.loc 3 50 0
 723 0036 D6ED005A 		flds	s11, [r6]
 724 003a D4ED007A 		flds	s15, [r4]
 725              	.LBE233:
 726              	.LBE237:
 727              	.LBE242:
 728              		.loc 1 109 0
 729 003e 4569     		ldr	r5, [r0, #20]	@ float
 730              	.LBB243:
 731              	.LBB238:
 732              	.LBB234:
 733              		.loc 3 50 0
 734 0040 F0EE454A 		fcpys	s9, s10
 735 0044 D5EEA74A 		vfnms.f32	s9, s11, s15
 736              	.LVL59:
 737              	.LBE234:
 738              	.LBE238:
 739              	.LBE243:
 740              		.loc 1 111 0
 741 0048 5C1E     		subs	r4, r3, #1
ARM GAS  /var/folders/28/j9jfyj_n4wz3qtvnym210h2c0000gn/T//ccD1xmiq.s 			page 14


 742              	.LBB244:
 743              	.LBB239:
 744              	.LBB235:
 745              		.loc 3 50 0
 746 004a 05EE903A 		fmsr	s11, r3	@ int
 747 004e B8EE653A 		fuitos	s6, s11
 748              	.LBE235:
 749              	.LBE239:
 750              	.LBE244:
 751              	.LBE268:
 752              		.loc 1 95 0
 753 0052 2DED028B 		fstmfdd	sp!, {d8}
 754              		.cfi_def_cfa_offset 24
 755              		.cfi_offset 80, -24
 756              		.cfi_offset 81, -20
 757              	.LBB269:
 758              	.LBB245:
 759              	.LBB240:
 760              	.LBB236:
 761              		.loc 3 50 0
 762 0056 84EE833A 		fdivs	s6, s9, s6
 763              	.LVL60:
 764              	.LBE236:
 765              	.LBE240:
 766              	.LBE245:
 767              		.loc 1 111 0
 768 005a 002B     		cmp	r3, #0
 769 005c 4AD0     		beq	.L42
 770              	.LBB246:
 771              		.loc 1 118 0
 772 005e 9FED2F8A 		flds	s16, .L58+8
 773 0062 9FED2F1A 		flds	s2, .L58+12
 774              	.LBB247:
 775              		.loc 1 154 0
 776 0066 DFED2F1A 		flds	s3, .L58+16
 777              	.LBE247:
 778              		.loc 1 115 0
 779 006a F7EE005A 		fconsts	s11, #112
 780              	.LBB259:
 781              	.LBB248:
 782              	.LBB249:
 783              	.LBB250:
 784              	.LBB251:
 785              		.loc 2 81 0
 786 006e B6EE000A 		fconsts	s0, #96
 787              	.LBE251:
 788              	.LBE250:
 789              	.LBB252:
 790              	.LBB253:
 791              		.loc 2 85 0
 792 0072 FEEE000A 		fconsts	s1, #224
 793              	.LBE253:
 794              	.LBE252:
 795              	.LBE249:
 796              	.LBE248:
 797              		.loc 1 151 0
 798 0076 B0EE002A 		fconsts	s4, #0
ARM GAS  /var/folders/28/j9jfyj_n4wz3qtvnym210h2c0000gn/T//ccD1xmiq.s 			page 15


 799 007a FFEE002A 		fconsts	s5, #240
 800 007e 20E0     		b	.L47
 801              	.LVL61:
 802              	.L57:
 803              	.LBB257:
 804              	.LBB256:
 805              		.loc 1 143 0
 806 0080 37EE657A 		fsubs	s14, s14, s11
 807              	.LVL62:
 808              		.loc 1 144 0
 809 0084 C7EE277A 		fdivs	s15, s14, s15
 810              	.LVL63:
 811              	.LBB255:
 812              	.LBB254:
 813              		.loc 2 84 0
 814 0088 75EEE74A 		fsubs	s9, s11, s15
 815 008c 60EE673A 		fnmuls	s7, s0, s15
 816              		.loc 2 85 0
 817 0090 24EEA04A 		fmuls	s8, s9, s1
 818              	.LBE254:
 819              	.LBE255:
 820              		.loc 1 145 0
 821 0094 A3EEA76A 		vfma.f32	s12, s7, s15
 822              	.LVL64:
 823              		.loc 1 146 0
 824 0098 F0EE487A 		fcpys	s15, s16
 825              	.LVL65:
 826 009c E4EEC47A 		vfms.f32	s15, s9, s8
 827 00a0 F0EE674A 		fcpys	s9, s15
 828              	.LVL66:
 829              	.L45:
 830              	.LBE256:
 831              	.LBE257:
 832              		.loc 1 151 0
 833 00a4 F0EE627A 		fcpys	s15, s5
 834 00a8 E6EE027A 		vfma.f32	s15, s12, s4
 835              	.LBE259:
 836              	.LBE246:
 837              		.loc 1 111 0
 838 00ac 013C     		subs	r4, r4, #1
 839              	.LVL67:
 840 00ae 631C     		adds	r3, r4, #1
 841              	.LBB264:
 842              	.LBB260:
 843              		.loc 1 148 0
 844 00b0 34EE876A 		fadds	s12, s9, s14
 845              	.LVL68:
 846              		.loc 1 154 0
 847 00b4 77EEE67A 		fsubs	s15, s15, s13
 848 00b8 E7EEA16A 		vfma.f32	s13, s15, s3
 849              	.LVL69:
 850              		.loc 1 155 0
 851 00bc E2EC016A 		fstmias	r2!, {s13}
 852              	.LVL70:
 853              	.LBE260:
 854              	.LBE264:
 855              		.loc 1 111 0
ARM GAS  /var/folders/28/j9jfyj_n4wz3qtvnym210h2c0000gn/T//ccD1xmiq.s 			page 16


 856 00c0 18D0     		beq	.L42
 857              	.LVL71:
 858              	.L47:
 859              	.LBB265:
 860              		.loc 1 115 0
 861 00c2 F1EC017A 		fldmias	r1!, {s15}
 862              	.LVL72:
 863              	.LBB261:
 864              	.LBB262:
 865              		.loc 3 54 0
 866 00c6 35EE035A 		fadds	s10, s10, s6
 867              	.LVL73:
 868              	.LBE262:
 869              	.LBE261:
 870              		.loc 1 115 0
 871 00ca 77EEA57A 		fadds	s15, s15, s11
 872 00ce 67EE857A 		fmuls	s15, s15, s10
 873              	.LVL74:
 874              		.loc 1 118 0
 875 00d2 F5EE407A 		fcmpzs	s15
 876 00d6 F1EE10FA 		fmstat
 877 00da 98BF     		it	ls
 878 00dc F0EE417A 		fcpysls	s15, s2
 879              	.LVL75:
 880              		.loc 1 120 0
 881 00e0 37EE277A 		fadds	s14, s14, s15
 882              	.LVL76:
 883              	.LBB263:
 884              	.LBB258:
 885              		.loc 1 142 0
 886 00e4 B4EEE57A 		fcmpes	s14, s11
 887 00e8 F1EE10FA 		fmstat
 888 00ec C8DA     		bge	.L57
 889              	.LBE258:
 890              	.LBE263:
 891              		.loc 1 113 0
 892 00ee DFED0B4A 		flds	s9, .L58+8
 893 00f2 D7E7     		b	.L45
 894              	.LVL77:
 895              	.L42:
 896              	.LBE265:
 897              	.LBE269:
 898              		.loc 1 173 0
 899 00f4 BDEC028B 		fldmfdd	sp!, {d8}
 900              		.cfi_restore 80
 901              		.cfi_restore 81
 902              		.cfi_def_cfa_offset 16
 903              	.LBB270:
 904              		.loc 1 168 0
 905 00f8 4561     		str	r5, [r0, #20]	@ float
 906              	.LVL78:
 907              	.LBE270:
 908              		.loc 1 173 0
 909 00fa B7EE000A 		fconsts	s0, #112
 910              	.LBB271:
 911              		.loc 1 165 0
 912 00fe 80ED017A 		fsts	s14, [r0, #4]
ARM GAS  /var/folders/28/j9jfyj_n4wz3qtvnym210h2c0000gn/T//ccD1xmiq.s 			page 17


 913              		.loc 1 166 0
 914 0102 80ED036A 		fsts	s12, [r0, #12]
 915              		.loc 1 167 0
 916 0106 C0ED046A 		fsts	s13, [r0, #16]
 917              	.LBB266:
 918              	.LBB267:
 919              		.loc 3 44 0
 920 010a 80ED025A 		fsts	s10, [r0, #8]
 921              	.LBE267:
 922              	.LBE266:
 923              	.LBE271:
 924              		.loc 1 173 0
 925 010e F0BC     		pop	{r4, r5, r6, r7}
 926              		.cfi_restore 7
 927              		.cfi_restore 6
 928              		.cfi_restore 5
 929              		.cfi_restore 4
 930              		.cfi_def_cfa_offset 0
 931              	.LVL79:
 932 0110 7047     		bx	lr
 933              	.L59:
 934 0112 00BF     		.align	2
 935              	.L58:
 936 0114 00000000 		.word	_ZN5warps17lut_midi_to_f_lowE
 937 0118 00000000 		.word	_ZN5warps18lut_midi_to_f_highE
 938 011c 00000000 		.word	0
 939 0120 95BFD633 		.word	869711765
 940 0124 9A99993E 		.word	1050253722
 941              		.cfi_endproc
 942              	.LFE213:
 943              		.cantunwind
 944              		.fnend
 945              		.size	_ZN5warps10Oscillator14RenderPolyblepILNS_15OscillatorShapeE2EEEffPfS3_j, .-_ZN5warps10Oscil
 946              		.section	.text._ZN5warps10Oscillator14RenderPolyblepILNS_15OscillatorShapeE3EEEffPfS3_j,"axG",%pro
 947              		.align	2
 948              		.p2align 4,,15
 949              		.weak	_ZN5warps10Oscillator14RenderPolyblepILNS_15OscillatorShapeE3EEEffPfS3_j
 950              		.thumb
 951              		.thumb_func
 952              		.type	_ZN5warps10Oscillator14RenderPolyblepILNS_15OscillatorShapeE3EEEffPfS3_j, %function
 953              	_ZN5warps10Oscillator14RenderPolyblepILNS_15OscillatorShapeE3EEEffPfS3_j:
 954              		.fnstart
 955              	.LFB214:
 956              		.loc 1 95 0
 957              		.cfi_startproc
 958              		@ args = 0, pretend = 0, frame = 0
 959              		@ frame_needed = 0, uses_anonymous_args = 0
 960              		@ link register save eliminated.
 961              	.LVL80:
 962              	.LBB272:
 963              	.LBB273:
 964              	.LBB274:
 965              		.loc 2 58 0
 966 0000 BEEECC0A 		vcvt.s32.f32	s0, s0, #8
 967              	.LVL81:
 968              	.LBE274:
 969              	.LBE273:
ARM GAS  /var/folders/28/j9jfyj_n4wz3qtvnym210h2c0000gn/T//ccD1xmiq.s 			page 18


 970              	.LBE272:
 971              		.loc 1 95 0
 972 0004 F0B4     		push	{r4, r5, r6, r7}
 973              		.cfi_def_cfa_offset 16
 974              		.cfi_offset 4, -16
 975              		.cfi_offset 5, -12
 976              		.cfi_offset 6, -8
 977              		.cfi_offset 7, -4
 978              	.LBB318:
 979              	.LBB279:
 980              	.LBB277:
 981              		.loc 2 59 0
 982 0006 10EE104A 		fmrs	r4, s0	@ int
 983              		.loc 2 60 0
 984 000a 4A4E     		ldr	r6, .L76
 985              		.loc 2 61 0
 986 000c 4A4D     		ldr	r5, .L76+4
 987              	.LBE277:
 988              	.LBE279:
 989              	.LBB280:
 990              	.LBB281:
 991              	.LBB282:
 992              		.loc 3 49 0
 993 000e D0ED024A 		flds	s9, [r0, #8]
 994              	.LBE282:
 995              	.LBE281:
 996              	.LBE280:
 997              		.loc 1 100 0
 998 0012 90ED017A 		flds	s14, [r0, #4]
 999              		.loc 1 106 0
 1000 0016 D0ED035A 		flds	s11, [r0, #12]
 1001              		.loc 1 108 0
 1002 001a 90ED046A 		flds	s12, [r0, #16]
 1003              		.loc 1 109 0
 1004 001e D0ED056A 		flds	s13, [r0, #20]
 1005              	.LBB289:
 1006              	.LBB278:
 1007              		.loc 2 59 0
 1008 0022 A4F5A044 		sub	r4, r4, #20480
 1009              	.LBB275:
 1010              	.LBB276:
 1011              		.loc 4 133 0
 1012              	@ 133 "./mutable_instruments/stmlib/dsp/dsp.h" 1
 1013 0026 04F30F04 		ssat r4, #16, r4
 1014              	@ 0 "" 2
 1015              		.thumb
 1016              	.LBE276:
 1017              	.LBE275:
 1018              		.loc 2 59 0
 1019 002a 04F50044 		add	r4, r4, #32768
 1020              		.loc 2 60 0
 1021 002e 2712     		asrs	r7, r4, #8
 1022              	.LVL82:
 1023              		.loc 2 61 0
 1024 0030 E4B2     		uxtb	r4, r4
 1025              	.LVL83:
 1026 0032 05EB8404 		add	r4, r5, r4, lsl #2
ARM GAS  /var/folders/28/j9jfyj_n4wz3qtvnym210h2c0000gn/T//ccD1xmiq.s 			page 19


 1027              		.loc 2 60 0
 1028 0036 06EB8706 		add	r6, r6, r7, lsl #2
 1029              	.LBE278:
 1030              	.LBE289:
 1031              	.LBB290:
 1032              	.LBB286:
 1033              	.LBB283:
 1034              		.loc 3 50 0
 1035 003a 96ED005A 		flds	s10, [r6]
 1036 003e D4ED007A 		flds	s15, [r4]
 1037 0042 B0EE644A 		fcpys	s8, s9
 1038 0046 95EE274A 		vfnms.f32	s8, s10, s15
 1039              	.LVL84:
 1040              	.LBE283:
 1041              	.LBE286:
 1042              	.LBE290:
 1043              		.loc 1 111 0
 1044 004a 5C1E     		subs	r4, r3, #1
 1045              	.LBB291:
 1046              	.LBB287:
 1047              	.LBB284:
 1048              		.loc 3 50 0
 1049 004c 05EE103A 		fmsr	s10, r3	@ int
 1050 0050 F8EE452A 		fuitos	s5, s10
 1051              	.LBE284:
 1052              	.LBE287:
 1053              	.LBE291:
 1054              	.LBE318:
 1055              		.loc 1 95 0
 1056 0054 2DED028B 		fstmfdd	sp!, {d8}
 1057              		.cfi_def_cfa_offset 24
 1058              		.cfi_offset 80, -24
 1059              		.cfi_offset 81, -20
 1060              	.LBB319:
 1061              	.LBB292:
 1062              	.LBB288:
 1063              	.LBB285:
 1064              		.loc 3 50 0
 1065 0058 C4EE222A 		fdivs	s5, s8, s5
 1066              	.LVL85:
 1067              	.LBE285:
 1068              	.LBE288:
 1069              	.LBE292:
 1070              		.loc 1 111 0
 1071 005c 002B     		cmp	r3, #0
 1072 005e 64D0     		beq	.L67
 1073              	.LBB293:
 1074              		.loc 1 115 0
 1075 0060 B7EE005A 		fconsts	s10, #112
 1076              		.loc 1 118 0
 1077 0064 9FED358A 		flds	s16, .L76+8
 1078 0068 9FED351A 		flds	s2, .L76+12
 1079              	.LBB294:
 1080              	.LBB295:
 1081              	.LBB296:
 1082              	.LBB297:
 1083              	.LBB298:
ARM GAS  /var/folders/28/j9jfyj_n4wz3qtvnym210h2c0000gn/T//ccD1xmiq.s 			page 20


 1084              		.loc 2 81 0
 1085 006c B6EE000A 		fconsts	s0, #96
 1086              	.LBE298:
 1087              	.LBE297:
 1088              	.LBB299:
 1089              	.LBB300:
 1090              		.loc 2 85 0
 1091 0070 FEEE000A 		fconsts	s1, #224
 1092              	.LBE300:
 1093              	.LBE299:
 1094              	.LBE296:
 1095              	.LBE295:
 1096              		.loc 1 157 0
 1097 0074 F5EE001A 		fconsts	s3, #80
 1098              		.loc 1 158 0
 1099 0078 B1EE002A 		fconsts	s4, #16
 1100 007c 22E0     		b	.L66
 1101              	.LVL86:
 1102              	.L75:
 1103              	.LBB306:
 1104              	.LBB305:
 1105              		.loc 1 143 0
 1106 007e 37EE457A 		fsubs	s14, s14, s10
 1107              	.LVL87:
 1108              		.loc 1 144 0
 1109 0082 C7EE277A 		fdivs	s15, s14, s15
 1110              	.LVL88:
 1111 0086 20EE673A 		fnmuls	s6, s0, s15
 1112              	.LBB303:
 1113              	.LBB301:
 1114              		.loc 2 84 0
 1115 008a 35EE674A 		fsubs	s8, s10, s15
 1116              	.LBE301:
 1117              	.LBE303:
 1118              		.loc 1 145 0
 1119 008e E3EE275A 		vfma.f32	s11, s6, s15
 1120              	.LVL89:
 1121              	.LBB304:
 1122              	.LBB302:
 1123              		.loc 2 85 0
 1124 0092 64EE203A 		fmuls	s7, s8, s1
 1125              	.LBE302:
 1126              	.LBE304:
 1127              		.loc 1 145 0
 1128 0096 F0EE657A 		fcpys	s15, s11
 1129              	.LVL90:
 1130              		.loc 1 146 0
 1131 009a F0EE485A 		fcpys	s11, s16
 1132              	.LVL91:
 1133 009e E4EE635A 		vfms.f32	s11, s8, s7
 1134              	.LVL92:
 1135              	.L64:
 1136              	.LBE305:
 1137              	.LBE306:
 1138              	.LBE294:
 1139              	.LBE293:
 1140              		.loc 1 111 0
ARM GAS  /var/folders/28/j9jfyj_n4wz3qtvnym210h2c0000gn/T//ccD1xmiq.s 			page 21


 1141 00a2 013C     		subs	r4, r4, #1
 1142              	.LVL93:
 1143 00a4 631C     		adds	r3, r4, #1
 1144              	.LBB313:
 1145              	.LBB308:
 1146              		.loc 1 157 0
 1147 00a6 76EEE76A 		fsubs	s13, s13, s15
 1148              	.LVL94:
 1149              		.loc 1 148 0
 1150 00aa 75EE875A 		fadds	s11, s11, s14
 1151              	.LVL95:
 1152              		.loc 1 157 0
 1153 00ae 76EEC66A 		fsubs	s13, s13, s12
 1154 00b2 A6EEA16A 		vfma.f32	s12, s13, s3
 1155              	.LVL96:
 1156              	.LBE308:
 1157              	.LBE313:
 1158 00b6 F0EE676A 		fcpys	s13, s15
 1159              	.LBB314:
 1160              	.LBB309:
 1161              		.loc 1 158 0
 1162 00ba 26EE024A 		fmuls	s8, s12, s4
 1163 00be A2EC014A 		fstmias	r2!, {s8}
 1164              	.LVL97:
 1165              	.LBE309:
 1166              	.LBE314:
 1167              		.loc 1 111 0
 1168 00c2 1AD0     		beq	.L74
 1169              	.LVL98:
 1170              	.L66:
 1171              	.LBB315:
 1172              		.loc 1 115 0
 1173 00c4 F1EC017A 		fldmias	r1!, {s15}
 1174              	.LVL99:
 1175              	.LBB310:
 1176              	.LBB311:
 1177              		.loc 3 54 0
 1178 00c8 74EEA24A 		fadds	s9, s9, s5
 1179              	.LVL100:
 1180              	.LBE311:
 1181              	.LBE310:
 1182              		.loc 1 115 0
 1183 00cc 77EE857A 		fadds	s15, s15, s10
 1184 00d0 67EEA47A 		fmuls	s15, s15, s9
 1185              	.LVL101:
 1186              		.loc 1 118 0
 1187 00d4 F5EE407A 		fcmpzs	s15
 1188 00d8 F1EE10FA 		fmstat
 1189 00dc 98BF     		it	ls
 1190 00de F0EE417A 		fcpysls	s15, s2
 1191              	.LVL102:
 1192              		.loc 1 120 0
 1193 00e2 37EE277A 		fadds	s14, s14, s15
 1194              	.LVL103:
 1195              	.LBB312:
 1196              	.LBB307:
 1197              		.loc 1 142 0
ARM GAS  /var/folders/28/j9jfyj_n4wz3qtvnym210h2c0000gn/T//ccD1xmiq.s 			page 22


 1198 00e6 B4EEC57A 		fcmpes	s14, s10
 1199 00ea F1EE10FA 		fmstat
 1200 00ee C6DA     		bge	.L75
 1201 00f0 F0EE657A 		fcpys	s15, s11
 1202              	.LVL104:
 1203              	.LBE307:
 1204              	.LBE312:
 1205              		.loc 1 113 0
 1206 00f4 DFED115A 		flds	s11, .L76+8
 1207              	.LVL105:
 1208 00f8 D3E7     		b	.L64
 1209              	.LVL106:
 1210              	.L74:
 1211 00fa D0ED026A 		flds	s13, [r0, #8]
 1212              	.LVL107:
 1213              	.L61:
 1214              	.LBE315:
 1215              		.loc 1 172 0
 1216 00fe 9FED115A 		flds	s10, .L76+16
 1217 0102 9FED110A 		flds	s0, .L76+20
 1218              		.loc 1 165 0
 1219 0106 80ED017A 		fsts	s14, [r0, #4]
 1220              	.LBE319:
 1221              		.loc 1 173 0
 1222 010a BDEC028B 		fldmfdd	sp!, {d8}
 1223              		.cfi_remember_state
 1224              		.cfi_restore 80
 1225              		.cfi_restore 81
 1226              		.cfi_def_cfa_offset 16
 1227              	.LBB320:
 1228              		.loc 1 172 0
 1229 010e 36EE857A 		fadds	s14, s13, s10
 1230              	.LVL108:
 1231              		.loc 1 166 0
 1232 0112 C0ED035A 		fsts	s11, [r0, #12]
 1233              	.LBE320:
 1234              		.loc 1 173 0
 1235 0116 80EE070A 		fdivs	s0, s0, s14
 1236 011a F0BC     		pop	{r4, r5, r6, r7}
 1237              		.cfi_restore 7
 1238              		.cfi_restore 6
 1239              		.cfi_restore 5
 1240              		.cfi_restore 4
 1241              		.cfi_def_cfa_offset 0
 1242              	.LVL109:
 1243              	.LBB321:
 1244              		.loc 1 167 0
 1245 011c 80ED046A 		fsts	s12, [r0, #16]
 1246              		.loc 1 168 0
 1247 0120 C0ED057A 		fsts	s15, [r0, #20]
 1248              	.LVL110:
 1249              	.LBB316:
 1250              	.LBB317:
 1251              		.loc 3 44 0
 1252 0124 C0ED024A 		fsts	s9, [r0, #8]
 1253              	.LBE317:
 1254              	.LBE316:
ARM GAS  /var/folders/28/j9jfyj_n4wz3qtvnym210h2c0000gn/T//ccD1xmiq.s 			page 23


 1255              	.LBE321:
 1256              		.loc 1 173 0
 1257 0128 7047     		bx	lr
 1258              	.LVL111:
 1259              	.L67:
 1260              		.cfi_restore_state
 1261              	.LBB322:
 1262              		.loc 1 109 0
 1263 012a F0EE667A 		fcpys	s15, s13
 1264              		.loc 1 111 0
 1265 012e F0EE646A 		fcpys	s13, s9
 1266              	.LVL112:
 1267 0132 E4E7     		b	.L61
 1268              	.L77:
 1269              		.align	2
 1270              	.L76:
 1271 0134 00000000 		.word	_ZN5warps18lut_midi_to_f_highE
 1272 0138 00000000 		.word	_ZN5warps17lut_midi_to_f_lowE
 1273 013c 00000000 		.word	0
 1274 0140 95BFD633 		.word	869711765
 1275 0144 17B75139 		.word	961656599
 1276 0148 CDCCCC3C 		.word	1020054733
 1277              	.LBE322:
 1278              		.cfi_endproc
 1279              	.LFE214:
 1280              		.cantunwind
 1281              		.fnend
 1282              		.size	_ZN5warps10Oscillator14RenderPolyblepILNS_15OscillatorShapeE3EEEffPfS3_j, .-_ZN5warps10Oscil
 1283              		.text
 1284              		.align	2
 1285 00ec AFF30080 		.p2align 4,,15
 1286              		.global	_ZN5warps10Oscillator4InitEf
 1287              		.thumb
 1288              		.thumb_func
 1289              		.type	_ZN5warps10Oscillator4InitEf, %function
 1290              	_ZN5warps10Oscillator4InitEf:
 1291              		.fnstart
 1292              	.LFB201:
 1293              		.loc 1 42 0
 1294              		.cfi_startproc
 1295              		@ args = 0, pretend = 0, frame = 0
 1296              		@ frame_needed = 0, uses_anonymous_args = 0
 1297              		@ link register save eliminated.
 1298              	.LVL113:
 1299              		.loc 1 43 0
 1300 00f0 F7EE007A 		fconsts	s15, #112
 1301 00f4 87EE800A 		fdivs	s0, s15, s0
 1302              	.LVL114:
 1303              		.loc 1 51 0
 1304 00f8 0023     		movs	r3, #0
 1305              		.loc 1 42 0
 1306 00fa 10B4     		push	{r4}
 1307              		.cfi_def_cfa_offset 4
 1308              		.cfi_offset 4, -4
 1309              		.loc 1 51 0
 1310 00fc 0370     		strb	r3, [r0]
 1311              	.LBB323:
ARM GAS  /var/folders/28/j9jfyj_n4wz3qtvnym210h2c0000gn/T//ccD1xmiq.s 			page 24


 1312              	.LBB324:
 1313              	.LBB325:
 1314              		.file 5 "./mutable_instruments/stmlib/dsp/filter.h"
 1315              		.loc 5 220 0
 1316 00fe 0C4C     		ldr	r4, .L80
 1317              		.loc 5 221 0
 1318 0100 0C49     		ldr	r1, .L80+4
 1319              		.loc 5 222 0
 1320 0102 0D4A     		ldr	r2, .L80+8
 1321              		.loc 5 220 0
 1322 0104 0462     		str	r4, [r0, #32]	@ float
 1323              	.LBE325:
 1324              	.LBE324:
 1325              	.LBE323:
 1326              		.loc 1 45 0
 1327 0106 0023     		movs	r3, #0
 1328              	.LBB332:
 1329              	.LBB328:
 1330              	.LBB326:
 1331              		.loc 5 221 0
 1332 0108 4162     		str	r1, [r0, #36]	@ float
 1333              	.LBE326:
 1334              	.LBE328:
 1335              	.LBE332:
 1336              		.loc 1 47 0
 1337 010a DFED0C7A 		flds	s15, .L80+12
 1338              		.loc 1 43 0
 1339 010e 80ED070A 		fsts	s0, [r0, #28]
 1340              		.loc 1 47 0
 1341 0112 20EE270A 		fmuls	s0, s0, s15
 1342              	.LBB333:
 1343              	.LBB329:
 1344              	.LBB327:
 1345              		.loc 5 222 0
 1346 0116 8262     		str	r2, [r0, #40]	@ float
 1347              	.LBE327:
 1348              	.LBE329:
 1349              	.LBE333:
 1350              		.loc 1 47 0
 1351 0118 80ED020A 		fsts	s0, [r0, #8]
 1352              		.loc 1 45 0
 1353 011c C360     		str	r3, [r0, #12]	@ float
 1354              		.loc 1 46 0
 1355 011e 4360     		str	r3, [r0, #4]	@ float
 1356              		.loc 1 48 0
 1357 0120 4361     		str	r3, [r0, #20]	@ float
 1358              		.loc 1 49 0
 1359 0122 0361     		str	r3, [r0, #16]	@ float
 1360              		.loc 1 53 0
 1361 0124 8361     		str	r3, [r0, #24]	@ float
 1362              	.LVL115:
 1363              	.LBB334:
 1364              	.LBB330:
 1365              	.LBB331:
 1366              		.loc 5 184 0
 1367 0126 0363     		str	r3, [r0, #48]	@ float
 1368 0128 C362     		str	r3, [r0, #44]	@ float
ARM GAS  /var/folders/28/j9jfyj_n4wz3qtvnym210h2c0000gn/T//ccD1xmiq.s 			page 25


 1369              	.LBE331:
 1370              	.LBE330:
 1371              	.LBE334:
 1372              		.loc 1 56 0
 1373 012a 5DF8044B 		ldr	r4, [sp], #4
 1374              		.cfi_restore 4
 1375              		.cfi_def_cfa_offset 0
 1376 012e 7047     		bx	lr
 1377              	.L81:
 1378              		.align	2
 1379              	.L80:
 1380 0130 22BA003D 		.word	1023457826
 1381 0134 0AD7233C 		.word	1008981770
 1382 0138 CAAA7F3F 		.word	1065331402
 1383 013c 0000C842 		.word	1120403456
 1384              		.cfi_endproc
 1385              	.LFE201:
 1386              		.cantunwind
 1387              		.fnend
 1388              		.size	_ZN5warps10Oscillator4InitEf, .-_ZN5warps10Oscillator4InitEf
 1389              		.align	2
 1390              		.p2align 4,,15
 1391              		.global	_ZN5warps10Oscillator6RenderENS_15OscillatorShapeEfPfS2_j
 1392              		.thumb
 1393              		.thumb_func
 1394              		.type	_ZN5warps10Oscillator6RenderENS_15OscillatorShapeEfPfS2_j, %function
 1395              	_ZN5warps10Oscillator6RenderENS_15OscillatorShapeEfPfS2_j:
 1396              		.fnstart
 1397              	.LFB202:
 1398              		.loc 1 63 0
 1399              		.cfi_startproc
 1400              		@ args = 4, pretend = 0, frame = 0
 1401              		@ frame_needed = 0, uses_anonymous_args = 0
 1402              		@ link register save eliminated.
 1403              	.LVL116:
 1404 0140 70B4     		push	{r4, r5, r6}
 1405              		.cfi_def_cfa_offset 12
 1406              		.cfi_offset 4, -12
 1407              		.cfi_offset 5, -8
 1408              		.cfi_offset 6, -4
 1409              		.loc 1 64 0
 1410 0142 0F4D     		ldr	r5, .L87
 1411              		.loc 1 63 0
 1412 0144 039E     		ldr	r6, [sp, #12]
 1413              		.loc 1 64 0
 1414 0146 05EBC104 		add	r4, r5, r1, lsl #3
 1415 014a 6468     		ldr	r4, [r4, #4]
 1416 014c 14F0010F 		tst	r4, #1
 1417 0150 0BD0     		beq	.L86
 1418              		.loc 1 64 0 is_stmt 0 discriminator 2
 1419 0152 6410     		asrs	r4, r4, #1
 1420 0154 55F83110 		ldr	r1, [r5, r1, lsl #3]
 1421              	.LVL117:
 1422 0158 0559     		ldr	r5, [r0, r4]
 1423 015a 6D58     		ldr	r5, [r5, r1]
 1424 015c 2044     		add	r0, r0, r4
 1425              	.LVL118:
ARM GAS  /var/folders/28/j9jfyj_n4wz3qtvnym210h2c0000gn/T//ccD1xmiq.s 			page 26


 1426 015e 1146     		mov	r1, r2
 1427 0160 AC46     		mov	ip, r5
 1428 0162 1A46     		mov	r2, r3
 1429              	.LVL119:
 1430 0164 3346     		mov	r3, r6
 1431              	.LVL120:
 1432              		.loc 1 65 0 is_stmt 1 discriminator 2
 1433 0166 70BC     		pop	{r4, r5, r6}
 1434              		.cfi_remember_state
 1435              		.cfi_restore 6
 1436              		.cfi_restore 5
 1437              		.cfi_restore 4
 1438              		.cfi_def_cfa_offset 0
 1439              	.LVL121:
 1440              		.loc 1 64 0 discriminator 2
 1441 0168 6047     		bx	ip
 1442              	.LVL122:
 1443              	.L86:
 1444              		.cfi_restore_state
 1445              		.loc 1 64 0 is_stmt 0 discriminator 1
 1446 016a 55F83150 		ldr	r5, [r5, r1, lsl #3]
 1447 016e 00EB6400 		add	r0, r0, r4, asr #1
 1448              	.LVL123:
 1449 0172 1146     		mov	r1, r2
 1450              	.LVL124:
 1451 0174 AC46     		mov	ip, r5
 1452 0176 1A46     		mov	r2, r3
 1453              	.LVL125:
 1454 0178 3346     		mov	r3, r6
 1455              	.LVL126:
 1456              		.loc 1 65 0 is_stmt 1 discriminator 1
 1457 017a 70BC     		pop	{r4, r5, r6}
 1458              		.cfi_restore 4
 1459              		.cfi_restore 5
 1460              		.cfi_restore 6
 1461              		.cfi_def_cfa_offset 0
 1462              	.LVL127:
 1463              		.loc 1 64 0 discriminator 1
 1464 017c 6047     		bx	ip
 1465              	.LVL128:
 1466              	.L88:
 1467 017e 00BF     		.align	2
 1468              	.L87:
 1469 0180 00000000 		.word	.LANCHOR0
 1470              		.cfi_endproc
 1471              	.LFE202:
 1472              		.cantunwind
 1473              		.fnend
 1474              		.size	_ZN5warps10Oscillator6RenderENS_15OscillatorShapeEfPfS2_j, .-_ZN5warps10Oscillator6RenderENS
 1475              		.align	2
 1476 0184 AFF30080 		.p2align 4,,15
 1476      AFF30080 
 1476      AFF30080 
 1477              		.global	_ZN5warps10Oscillator4DuckEPKfS2_Pfj
 1478              		.thumb
 1479              		.thumb_func
 1480              		.type	_ZN5warps10Oscillator4DuckEPKfS2_Pfj, %function
ARM GAS  /var/folders/28/j9jfyj_n4wz3qtvnym210h2c0000gn/T//ccD1xmiq.s 			page 27


 1481              	_ZN5warps10Oscillator4DuckEPKfS2_Pfj:
 1482              		.fnstart
 1483              	.LFB205:
 1484              		.loc 1 178 0
 1485              		.cfi_startproc
 1486              		@ args = 4, pretend = 0, frame = 0
 1487              		@ frame_needed = 0, uses_anonymous_args = 0
 1488              		@ link register save eliminated.
 1489              	.LVL129:
 1490 0190 10B4     		push	{r4}
 1491              		.cfi_def_cfa_offset 4
 1492              		.cfi_offset 4, -4
 1493              		.loc 1 178 0
 1494 0192 019C     		ldr	r4, [sp, #4]
 1495              	.LBB335:
 1496              		.loc 1 179 0
 1497 0194 90ED060A 		flds	s0, [r0, #24]
 1498              	.LVL130:
 1499              	.LBB336:
 1500              		.loc 1 180 0
 1501 0198 9CB3     		cbz	r4, .L90
 1502              	.LBB337:
 1503              		.loc 1 182 0
 1504 019a DFED1C3A 		flds	s7, .L102
 1505 019e 9FED1C4A 		flds	s8, .L102+4
 1506 01a2 DFED1C4A 		flds	s9, .L102+8
 1507              		.loc 1 183 0
 1508 01a6 9FED1C5A 		flds	s10, .L102+12
 1509 01aa 02EB8404 		add	r4, r2, r4, lsl #2
 1510 01ae B1EE407A 		fnegs	s14, s0
 1511 01b2 F7EE005A 		fconsts	s11, #112
 1512              	.LVL131:
 1513              	.L94:
 1514              		.loc 1 181 0
 1515 01b6 F2EC017A 		fldmias	r2!, {s15}
 1516              		.loc 1 187 0
 1517 01ba B1EC016A 		fldmias	r1!, {s12}
 1518              		.loc 1 181 0
 1519 01be A7EEA77A 		vfma.f32	s14, s15, s15
 1520              	.LVL132:
 1521              		.loc 1 187 0
 1522 01c2 36EE676A 		fsubs	s12, s12, s15
 1523              		.loc 1 182 0
 1524 01c6 B5EEC07A 		fcmpezs	s14
 1525 01ca F1EE10FA 		fmstat
 1526 01ce D4BF     		ite	le
 1527 01d0 F0EE646A 		fcpysle	s13, s9
 1528 01d4 F0EE446A 		fcpysgt	s13, s8
 1529 01d8 A6EE870A 		vfma.f32	s0, s13, s14
 1530              	.LVL133:
 1531              		.loc 1 183 0
 1532 01dc F0EE656A 		fcpys	s13, s11
 1533 01e0 B1EE407A 		fnegs	s14, s0
 1534              	.LVL134:
 1535 01e4 E7EE056A 		vfma.f32	s13, s14, s10
 1536              	.LVL135:
 1537              		.loc 1 185 0
ARM GAS  /var/folders/28/j9jfyj_n4wz3qtvnym210h2c0000gn/T//ccD1xmiq.s 			page 28


 1538 01e8 F5EE406A 		fcmpzs	s13
 1539 01ec F1EE10FA 		fmstat
 1540 01f0 98BF     		it	ls
 1541 01f2 F0EE636A 		fcpysls	s13, s7
 1542              	.LVL136:
 1543              		.loc 1 187 0
 1544 01f6 E6EE267A 		vfma.f32	s15, s12, s13
 1545              	.LBE337:
 1546              		.loc 1 180 0
 1547 01fa A242     		cmp	r2, r4
 1548              	.LBB338:
 1549              		.loc 1 187 0
 1550 01fc E3EC017A 		fstmias	r3!, {s15}
 1551              	.LBE338:
 1552              		.loc 1 180 0
 1553 0200 D9D1     		bne	.L94
 1554              	.LVL137:
 1555              	.L90:
 1556              	.LBE336:
 1557              		.loc 1 189 0
 1558 0202 80ED060A 		fsts	s0, [r0, #24]
 1559              	.LBE335:
 1560              		.loc 1 191 0
 1561 0206 5DF8044B 		ldr	r4, [sp], #4
 1562              		.cfi_restore 4
 1563              		.cfi_def_cfa_offset 0
 1564              	.LVL138:
 1565 020a 7047     		bx	lr
 1566              	.L103:
 1567              		.align	2
 1568              	.L102:
 1569 020c 00000000 		.word	0
 1570 0210 0AD7233C 		.word	1008981770
 1571 0214 17B7D138 		.word	953267991
 1572 0218 00000042 		.word	1107296256
 1573              		.cfi_endproc
 1574              	.LFE205:
 1575              		.cantunwind
 1576              		.fnend
 1577              		.size	_ZN5warps10Oscillator4DuckEPKfS2_Pfj, .-_ZN5warps10Oscillator4DuckEPKfS2_Pfj
 1578              		.align	2
 1579 021c AFF30080 		.p2align 4,,15
 1580              		.global	_ZN5warps10Oscillator11RenderNoiseEfPfS1_j
 1581              		.thumb
 1582              		.thumb_func
 1583              		.type	_ZN5warps10Oscillator11RenderNoiseEfPfS1_j, %function
 1584              	_ZN5warps10Oscillator11RenderNoiseEfPfS1_j:
 1585              		.fnstart
 1586              	.LFB206:
 1587              		.loc 1 197 0
 1588              		.cfi_startproc
 1589              		@ args = 0, pretend = 0, frame = 0
 1590              		@ frame_needed = 0, uses_anonymous_args = 0
 1591              	.LVL139:
 1592 0220 F0B5     		push	{r4, r5, r6, r7, lr}
 1593              		.cfi_def_cfa_offset 20
 1594              		.cfi_offset 4, -20
ARM GAS  /var/folders/28/j9jfyj_n4wz3qtvnym210h2c0000gn/T//ccD1xmiq.s 			page 29


 1595              		.cfi_offset 5, -16
 1596              		.cfi_offset 6, -12
 1597              		.cfi_offset 7, -8
 1598              		.cfi_offset 14, -4
 1599 0222 2DED028B 		fstmfdd	sp!, {d8}
 1600              		.cfi_def_cfa_offset 28
 1601              		.cfi_offset 80, -28
 1602              		.cfi_offset 81, -24
 1603 0226 0446     		mov	r4, r0
 1604 0228 83B0     		sub	sp, sp, #12
 1605              		.cfi_def_cfa_offset 40
 1606              		.loc 1 197 0
 1607 022a B0EE408A 		fcpys	s16, s0
 1608 022e 1546     		mov	r5, r2
 1609              	.LBB356:
 1610              	.LBB357:
 1611              		.loc 1 198 0
 1612 0230 1E46     		mov	r6, r3
 1613 0232 0BB3     		cbz	r3, .L109
 1614 0234 DFF868C1 		ldr	ip, .L120+40
 1615              	.LBB358:
 1616              	.LBB359:
 1617              	.LBB360:
 1618              		.file 6 "./mutable_instruments/stmlib/utils/random.h"
 1619              		.loc 6 45 0
 1620 0238 DFF868E1 		ldr	lr, .L120+44
 1621 023c DCF80030 		ldr	r3, [ip]
 1622              	.LVL140:
 1623              	.LBE360:
 1624              	.LBE359:
 1625              		.loc 1 199 0
 1626 0240 9FED4D6A 		flds	s12, .L120
 1627 0244 05EB8607 		add	r7, r5, r6, lsl #2
 1628              		.loc 1 200 0
 1629 0248 F0EE006A 		fconsts	s13, #0
 1630 024c BFEE007A 		fconsts	s14, #240
 1631              	.LVL141:
 1632              	.L108:
 1633              	.LBB362:
 1634              	.LBB361:
 1635              		.loc 6 45 0
 1636 0250 0EFB03F0 		mul	r0, lr, r3
 1637 0254 494B     		ldr	r3, .L120+4
 1638 0256 0344     		add	r3, r3, r0
 1639              	.LVL142:
 1640              	.LBE361:
 1641              	.LBE362:
 1642              		.loc 1 199 0
 1643 0258 07EE903A 		fmsr	s15, r3	@ int
 1644 025c F8EE677A 		fuitos	s15, s15
 1645              		.loc 1 200 0
 1646 0260 F0EE475A 		fcpys	s11, s14
 1647              		.loc 1 199 0
 1648 0264 67EE867A 		fmuls	s15, s15, s12
 1649              		.loc 1 200 0
 1650 0268 E7EEA65A 		vfma.f32	s11, s15, s13
 1651 026c E2EC015A 		fstmias	r2!, {s11}
ARM GAS  /var/folders/28/j9jfyj_n4wz3qtvnym210h2c0000gn/T//ccD1xmiq.s 			page 30


 1652              	.LBE358:
 1653              		.loc 1 198 0
 1654 0270 BA42     		cmp	r2, r7
 1655 0272 EDD1     		bne	.L108
 1656 0274 CCF80030 		str	r3, [ip]
 1657              	.LVL143:
 1658              	.L109:
 1659              	.LBE357:
 1660              		.loc 1 202 0
 1661 0278 0A46     		mov	r2, r1
 1662 027a 2046     		mov	r0, r4
 1663 027c 2946     		mov	r1, r5
 1664              	.LVL144:
 1665 027e 2B46     		mov	r3, r5
 1666 0280 0096     		str	r6, [sp]
 1667 0282 FFF7FEFF 		bl	_ZN5warps10Oscillator4DuckEPKfS2_Pfj
 1668              	.LVL145:
 1669              	.LBB363:
 1670              	.LBB364:
 1671              		.loc 2 58 0
 1672 0286 BEEECC8A 		vcvt.s32.f32	s16, s16, #8
 1673              	.LVL146:
 1674              		.loc 2 60 0
 1675 028a 3D49     		ldr	r1, .L120+8
 1676              		.loc 2 61 0
 1677 028c 3D4A     		ldr	r2, .L120+12
 1678              	.LBE364:
 1679              	.LBE363:
 1680              	.LBB368:
 1681              	.LBB369:
 1682              	.LBB370:
 1683              	.LBB371:
 1684              		.loc 5 136 0
 1685 028e DFED3E2A 		flds	s5, .L120+16
 1686 0292 9FED3E3A 		flds	s6, .L120+20
 1687 0296 DFED3E3A 		flds	s7, .L120+24
 1688 029a 9FED3E4A 		flds	s8, .L120+28
 1689 029e 9FED3E5A 		flds	s10, .L120+32
 1690 02a2 9FED3E7A 		flds	s14, .L120+36
 1691              	.LBE371:
 1692              	.LBE370:
 1693              	.LBE369:
 1694              	.LBE368:
 1695              	.LBB380:
 1696              	.LBB381:
 1697              		.loc 5 278 0
 1698 02a6 D4ED0B5A 		flds	s11, [r4, #44]
 1699              		.loc 5 279 0
 1700 02aa D4ED0C6A 		flds	s13, [r4, #48]
 1701              	.LBE381:
 1702              	.LBE380:
 1703              	.LBB387:
 1704              	.LBB367:
 1705              		.loc 2 59 0
 1706 02ae 18EE103A 		fmrs	r3, s16	@ int
 1707 02b2 A3F5A043 		sub	r3, r3, #20480
 1708              	.LBB365:
ARM GAS  /var/folders/28/j9jfyj_n4wz3qtvnym210h2c0000gn/T//ccD1xmiq.s 			page 31


 1709              	.LBB366:
 1710              		.loc 4 133 0
 1711              	@ 133 "./mutable_instruments/stmlib/dsp/dsp.h" 1
 1712 02b6 03F30F03 		ssat r3, #16, r3
 1713              	@ 0 "" 2
 1714              	.LVL147:
 1715              		.thumb
 1716              	.LBE366:
 1717              	.LBE365:
 1718              		.loc 2 59 0
 1719 02ba 03F50043 		add	r3, r3, #32768
 1720              	.LVL148:
 1721              		.loc 2 60 0
 1722 02be 1812     		asrs	r0, r3, #8
 1723              	.LVL149:
 1724              		.loc 2 61 0
 1725 02c0 DBB2     		uxtb	r3, r3
 1726              	.LVL150:
 1727 02c2 02EB8303 		add	r3, r2, r3, lsl #2
 1728              		.loc 2 60 0
 1729 02c6 01EB8001 		add	r1, r1, r0, lsl #2
 1730              		.loc 2 61 0
 1731 02ca 93ED006A 		flds	s12, [r3]
 1732 02ce D1ED007A 		flds	s15, [r1]
 1733 02d2 67EE867A 		fmuls	s15, s15, s12
 1734              	.LBE367:
 1735              	.LBE387:
 1736              		.loc 1 203 0
 1737 02d6 B1EE006A 		fconsts	s12, #16
 1738 02da 67EE867A 		fmuls	s15, s15, s12
 1739              	.LVL151:
 1740              	.LBB388:
 1741              	.LBB378:
 1742              		.loc 5 221 0
 1743 02de F7EE004A 		fconsts	s9, #112
 1744              	.LBB375:
 1745              	.LBB372:
 1746              		.loc 5 135 0
 1747 02e2 27EEA76A 		fmuls	s12, s15, s15
 1748              	.LVL152:
 1749              	.LBE372:
 1750              	.LBE375:
 1751              		.loc 5 221 0
 1752 02e6 C4ED094A 		fsts	s9, [r4, #36]
 1753              	.LBB376:
 1754              	.LBB373:
 1755              		.loc 5 136 0
 1756 02ea A6EE223A 		vfma.f32	s6, s12, s5
 1757              	.LBE373:
 1758              	.LBE376:
 1759              	.LBE378:
 1760              	.LBE388:
 1761              	.LBB389:
 1762              	.LBB384:
 1763              		.loc 5 281 0
 1764 02ee 731E     		subs	r3, r6, #1
 1765              	.LBE384:
ARM GAS  /var/folders/28/j9jfyj_n4wz3qtvnym210h2c0000gn/T//ccD1xmiq.s 			page 32


 1766              	.LBE389:
 1767              	.LBB390:
 1768              	.LBB379:
 1769              	.LBB377:
 1770              	.LBB374:
 1771              		.loc 5 136 0
 1772 02f0 E6EE033A 		vfma.f32	s7, s12, s6
 1773 02f4 A6EE234A 		vfma.f32	s8, s12, s7
 1774 02f8 A6EE045A 		vfma.f32	s10, s12, s8
 1775 02fc A6EE057A 		vfma.f32	s14, s12, s10
 1776 0300 27EE877A 		fmuls	s14, s15, s14
 1777              	.LBE374:
 1778              	.LBE377:
 1779              		.loc 5 222 0
 1780 0304 77EE247A 		fadds	s15, s14, s9
 1781              	.LVL153:
 1782              		.loc 5 220 0
 1783 0308 84ED087A 		fsts	s14, [r4, #32]
 1784              		.loc 5 222 0
 1785 030c E7EE077A 		vfma.f32	s15, s14, s14
 1786 0310 84EEA75A 		fdivs	s10, s9, s15
 1787 0314 84ED0A5A 		fsts	s10, [r4, #40]
 1788              	.LVL154:
 1789              	.LBE379:
 1790              	.LBE390:
 1791              	.LBB391:
 1792              	.LBB385:
 1793              		.loc 5 281 0
 1794 0318 36B9     		cbnz	r6, .L107
 1795 031a 22E0     		b	.L106
 1796              	.LVL155:
 1797              	.L119:
 1798 031c D4ED094A 		flds	s9, [r4, #36]
 1799 0320 94ED087A 		flds	s14, [r4, #32]
 1800 0324 94ED0A5A 		flds	s10, [r4, #40]
 1801              	.LVL156:
 1802              	.L107:
 1803              	.LBB382:
 1804              		.loc 5 282 0
 1805 0328 D5ED007A 		flds	s15, [r5]
 1806 032c B1EE656A 		fnegs	s12, s11
 1807 0330 E6EE247A 		vfma.f32	s15, s12, s9
 1808              	.LBE382:
 1809              		.loc 5 281 0
 1810 0334 013B     		subs	r3, r3, #1
 1811              	.LVL157:
 1812 0336 5A1C     		adds	r2, r3, #1
 1813              	.LBB383:
 1814              		.loc 5 282 0
 1815 0338 E6EE077A 		vfma.f32	s15, s12, s14
 1816              		.loc 5 283 0
 1817 033c B0EE656A 		fcpys	s12, s11
 1818              		.loc 5 282 0
 1819 0340 77EEE67A 		fsubs	s15, s15, s13
 1820 0344 67EE857A 		fmuls	s15, s15, s10
 1821              	.LVL158:
 1822              		.loc 5 283 0
ARM GAS  /var/folders/28/j9jfyj_n4wz3qtvnym210h2c0000gn/T//ccD1xmiq.s 			page 33


 1823 0348 A7EE876A 		vfma.f32	s12, s15, s14
 1824              	.LVL159:
 1825              		.loc 5 285 0
 1826 034c E6EE076A 		vfma.f32	s13, s12, s14
 1827              	.LVL160:
 1828              		.loc 5 284 0
 1829 0350 F0EE465A 		fcpys	s11, s12
 1830              	.LVL161:
 1831              		.loc 5 299 0
 1832 0354 E5EC016A 		fstmias	r5!, {s13}
 1833              	.LVL162:
 1834              		.loc 5 284 0
 1835 0358 E7EE875A 		vfma.f32	s11, s15, s14
 1836              	.LVL163:
 1837              		.loc 5 286 0
 1838 035c E6EE076A 		vfma.f32	s13, s12, s14
 1839              	.LVL164:
 1840              	.LBE383:
 1841              		.loc 5 281 0
 1842 0360 DCD1     		bne	.L119
 1843              	.LVL165:
 1844              	.L106:
 1845              	.LBE385:
 1846              	.LBE391:
 1847              	.LBE356:
 1848              		.loc 1 206 0
 1849 0362 B7EE000A 		fconsts	s0, #112
 1850              	.LBB393:
 1851              	.LBB392:
 1852              	.LBB386:
 1853              		.loc 5 303 0
 1854 0366 C4ED0B5A 		fsts	s11, [r4, #44]
 1855              		.loc 5 304 0
 1856 036a C4ED0C6A 		fsts	s13, [r4, #48]
 1857              	.LBE386:
 1858              	.LBE392:
 1859              	.LBE393:
 1860              		.loc 1 206 0
 1861 036e 03B0     		add	sp, sp, #12
 1862              		.cfi_def_cfa_offset 28
 1863              		@ sp needed
 1864 0370 BDEC028B 		fldmfdd	sp!, {d8}
 1865              		.cfi_restore 80
 1866              		.cfi_restore 81
 1867              		.cfi_def_cfa_offset 20
 1868 0374 F0BD     		pop	{r4, r5, r6, r7, pc}
 1869              	.LVL166:
 1870              	.L121:
 1871 0376 00BF     		.align	2
 1872              	.L120:
 1873 0378 0000802F 		.word	796917760
 1874 037c 5FF36E3C 		.word	1013904223
 1875 0380 00000000 		.word	_ZN5warps18lut_midi_to_f_highE
 1876 0384 00000000 		.word	_ZN5warps17lut_midi_to_f_lowE
 1877 0388 28FE2E45 		.word	1160707624
 1878 038c 94ECAC42 		.word	1118629012
 1879 0390 93342143 		.word	1126249619
ARM GAS  /var/folders/28/j9jfyj_n4wz3qtvnym210h2c0000gn/T//ccD1xmiq.s 			page 34


 1880 0394 66482342 		.word	1109608550
 1881 0398 A95D2541 		.word	1092967849
 1882 039c DB0F4940 		.word	1078530011
 1883 03a0 00000000 		.word	_ZN6stmlib6Random10rng_state_E
 1884 03a4 0D661900 		.word	1664525
 1885              		.cfi_endproc
 1886              	.LFE206:
 1887              		.cantunwind
 1888              		.fnend
 1889              		.size	_ZN5warps10Oscillator11RenderNoiseEfPfS1_j, .-_ZN5warps10Oscillator11RenderNoiseEfPfS1_j
 1890              		.global	_ZN5warps10Oscillator9fn_table_E
 1891              		.data
 1892              		.align	2
 1893              		.set	.LANCHOR0,. + 0
 1894              		.type	_ZN5warps10Oscillator9fn_table_E, %object
 1895              		.size	_ZN5warps10Oscillator9fn_table_E, 40
 1896              	_ZN5warps10Oscillator9fn_table_E:
 1897 0000 00000000 		.word	_ZN5warps10Oscillator10RenderSineEfPfS1_j
 1898 0004 00000000 		.word	0
 1899 0008 00000000 		.word	_ZN5warps10Oscillator14RenderPolyblepILNS_15OscillatorShapeE1EEEffPfS3_j
 1900 000c 00000000 		.word	0
 1901 0010 00000000 		.word	_ZN5warps10Oscillator14RenderPolyblepILNS_15OscillatorShapeE2EEEffPfS3_j
 1902 0014 00000000 		.word	0
 1903 0018 00000000 		.word	_ZN5warps10Oscillator14RenderPolyblepILNS_15OscillatorShapeE3EEEffPfS3_j
 1904 001c 00000000 		.word	0
 1905 0020 00000000 		.word	_ZN5warps10Oscillator11RenderNoiseEfPfS1_j
 1906 0024 00000000 		.word	0
 1907              		.text
 1908              	.Letext0:
 1909              		.file 7 "/Applications/axoloti_runtime/platform_osx/arm-none-eabi/include/machine/_default_types.h
 1910              		.file 8 "/Applications/axoloti_runtime/platform_osx/arm-none-eabi/include/sys/_stdint.h"
 1911              		.file 9 "/Applications/axoloti_runtime/platform_osx/lib/gcc/arm-none-eabi/4.9.3/include/stddef.h"
 1912              		.file 10 "/Applications/axoloti_runtime/platform_osx/arm-none-eabi/include/c++/4.9.3/cstdio"
 1913              		.file 11 "./mutable_instruments/stmlib/stmlib.h"
 1914              		.file 12 "/Applications/axoloti_runtime/platform_osx/arm-none-eabi/include/c++/4.9.3/bits/cpp_type
 1915              		.file 13 "/Applications/axoloti_runtime/platform_osx/arm-none-eabi/include/sys/lock.h"
 1916              		.file 14 "/Applications/axoloti_runtime/platform_osx/arm-none-eabi/include/sys/_types.h"
 1917              		.file 15 "/Applications/axoloti_runtime/platform_osx/arm-none-eabi/include/sys/reent.h"
 1918              		.file 16 "/Applications/axoloti_runtime/platform_osx/arm-none-eabi/include/stdio.h"
 1919              		.file 17 "./mutable_instruments/warps/dsp/parameters.h"
 1920              		.file 18 "./mutable_instruments/warps/resources.h"
 1921              		.file 19 "<built-in>"