ARM GAS  /var/folders/28/j9jfyj_n4wz3qtvnym210h2c0000gn/T//ccKOcmhz.s 			page 1


   1              		.syntax unified
   2              		.cpu cortex-m4
   3              		.eabi_attribute 27, 1
   4              		.eabi_attribute 28, 1
   5              		.fpu fpv4-sp-d16
   6              		.eabi_attribute 20, 1
   7              		.eabi_attribute 21, 1
   8              		.eabi_attribute 23, 3
   9              		.eabi_attribute 24, 1
  10              		.eabi_attribute 25, 1
  11              		.eabi_attribute 26, 1
  12              		.eabi_attribute 30, 2
  13              		.eabi_attribute 34, 1
  14              		.eabi_attribute 18, 4
  15              		.thumb
  16              		.file	"patch.c"
  17              		.text
  18              	.Ltext0:
  19              		.cfi_sections	.debug_frame
  20              		.align	2
  21              		.p2align 4,,15
  22              		.thumb
  23              		.thumb_func
  24              		.type	GetNumberOfThreads, %function
  25              	GetNumberOfThreads:
  26              	.LFB131:
  27              		.file 1 "patch.c"
  28              		.loc 1 67 0
  29              		.cfi_startproc
  30              		@ args = 0, pretend = 0, frame = 0
  31              		@ frame_needed = 0, uses_anonymous_args = 0
  32              	.LVL0:
  33 0000 10B5     		push	{r4, lr}
  34              		.cfi_def_cfa_offset 8
  35              		.cfi_offset 4, -8
  36              		.cfi_offset 14, -4
  37              		.loc 1 70 0
  38 0002 FFF7FEFF 		bl	chRegFirstThread
  39              	.LVL1:
  40              		.loc 1 71 0
  41 0006 0124     		movs	r4, #1
  42 0008 20B1     		cbz	r0, .L2
  43              	.LVL2:
  44              	.L3:
  45              		.loc 1 73 0
  46 000a FFF7FEFF 		bl	chRegNextThread
  47              	.LVL3:
  48              		.loc 1 72 0
  49 000e 0134     		adds	r4, r4, #1
  50              	.LVL4:
  51              		.loc 1 71 0
  52 0010 0028     		cmp	r0, #0
  53 0012 FAD1     		bne	.L3
  54              	.LVL5:
  55              	.L2:
  56              		.loc 1 79 0
  57 0014 2046     		mov	r0, r4
ARM GAS  /var/folders/28/j9jfyj_n4wz3qtvnym210h2c0000gn/T//ccKOcmhz.s 			page 2


  58              	.LVL6:
  59 0016 10BD     		pop	{r4, pc}
  60              		.cfi_endproc
  61              	.LFE131:
  62              		.size	GetNumberOfThreads, .-GetNumberOfThreads
  63              		.align	2
  64 0018 AFF30080 		.p2align 4,,15
  64      AFF30080 
  65              		.global	InitPatch0
  66              		.thumb
  67              		.thumb_func
  68              		.type	InitPatch0, %function
  69              	InitPatch0:
  70              	.LFB130:
  71              		.loc 1 35 0
  72              		.cfi_startproc
  73              		@ args = 0, pretend = 0, frame = 0
  74              		@ frame_needed = 0, uses_anonymous_args = 0
  75              		@ link register save eliminated.
  76              		.loc 1 37 0
  77 0020 094B     		ldr	r3, .L9
  78              		.loc 1 36 0
  79 0022 0A49     		ldr	r1, .L9+4
  80              		.loc 1 37 0
  81 0024 0022     		movs	r2, #0
  82              		.loc 1 36 0
  83 0026 0120     		movs	r0, #1
  84 0028 0870     		strb	r0, [r1]
  85              		.loc 1 37 0
  86 002a 1A60     		str	r2, [r3]
  87              		.loc 1 38 0
  88 002c 5A60     		str	r2, [r3, #4]
  89              		.loc 1 39 0
  90 002e 9A60     		str	r2, [r3, #8]
  91              		.loc 1 40 0
  92 0030 DA60     		str	r2, [r3, #12]
  93              		.loc 1 41 0
  94 0032 1A61     		str	r2, [r3, #16]
  95              		.loc 1 42 0
  96 0034 9A61     		str	r2, [r3, #24]
  97              		.loc 1 43 0
  98 0036 5A61     		str	r2, [r3, #20]
  99              		.loc 1 44 0
 100 0038 DA61     		str	r2, [r3, #28]
 101              		.loc 1 45 0
 102 003a 5A62     		str	r2, [r3, #36]
 103              		.loc 1 46 0
 104 003c DA62     		str	r2, [r3, #44]
 105              		.loc 1 47 0
 106 003e 1A63     		str	r2, [r3, #48]
 107              		.loc 1 48 0
 108 0040 5A63     		str	r2, [r3, #52]
 109              		.loc 1 49 0
 110 0042 1A62     		str	r2, [r3, #32]
 111 0044 7047     		bx	lr
 112              	.L10:
 113 0046 00BF     		.align	2
ARM GAS  /var/folders/28/j9jfyj_n4wz3qtvnym210h2c0000gn/T//ccKOcmhz.s 			page 3


 114              	.L9:
 115 0048 00000000 		.word	patchMeta
 116 004c 00000000 		.word	patchStatus
 117              		.cfi_endproc
 118              	.LFE130:
 119              		.size	InitPatch0, .-InitPatch0
 120              		.align	2
 121              		.p2align 4,,15
 122              		.global	CheckStackOverflow
 123              		.thumb
 124              		.thumb_func
 125              		.type	CheckStackOverflow, %function
 126              	CheckStackOverflow:
 127              	.LFB132:
 128              		.loc 1 81 0
 129              		.cfi_startproc
 130              		@ args = 0, pretend = 0, frame = 0
 131              		@ frame_needed = 0, uses_anonymous_args = 0
 132 0050 08B5     		push	{r3, lr}
 133              		.cfi_def_cfa_offset 8
 134              		.cfi_offset 3, -8
 135              		.cfi_offset 14, -4
 136              		.loc 1 84 0
 137 0052 FFF7FEFF 		bl	chRegFirstThread
 138              	.LVL7:
 139              		.loc 1 86 0
 140 0056 FFF7FEFF 		bl	chRegNextThread
 141              	.LVL8:
 142              		.loc 1 89 0
 143 005a E0B1     		cbz	r0, .L11
 144              	.L18:
 145              	.LVL9:
 146 005c 00F13F03 		add	r3, r0, #63
 147              	.LBB2:
 148              		.loc 1 91 0
 149 0060 0022     		movs	r2, #0
 150              		.loc 1 92 0
 151 0062 02E0     		b	.L14
 152              	.LVL10:
 153              	.L16:
 154              		.loc 1 93 0
 155 0064 0132     		adds	r2, r2, #1
 156              	.LVL11:
 157              		.loc 1 95 0
 158 0066 202A     		cmp	r2, #32
 159 0068 0BD0     		beq	.L15
 160              	.LVL12:
 161              	.L14:
 162              		.loc 1 92 0
 163 006a 13F8011F 		ldrb	r1, [r3, #1]!	@ zero_extendqisi2
 164 006e 5529     		cmp	r1, #85
 165 0070 F8D0     		beq	.L16
 166              	.LVL13:
 167              	.LBE2:
 168              	.LBB3:
 169              		.loc 1 104 0
 170 0072 8169     		ldr	r1, [r0, #24]
ARM GAS  /var/folders/28/j9jfyj_n4wz3qtvnym210h2c0000gn/T//ccKOcmhz.s 			page 4


 171              	.LVL14:
 172              		.loc 1 105 0
 173 0074 81B1     		cbz	r1, .L31
 174              		.loc 1 106 0
 175 0076 4AB1     		cbz	r2, .L20
 176              		.loc 1 107 0
 177 0078 0D48     		ldr	r0, .L33
 178              	.LVL15:
 179              	.LBE3:
 180              		.loc 1 118 0
 181 007a BDE80840 		pop	{r3, lr}
 182              		.cfi_remember_state
 183              		.cfi_restore 14
 184              		.cfi_restore 3
 185              		.cfi_def_cfa_offset 0
 186              	.LBB4:
 187              		.loc 1 107 0
 188 007e FFF7FEBF 		b	LogTextMessage
 189              	.LVL16:
 190              	.L15:
 191              		.cfi_restore_state
 192              	.LBE4:
 193              	.LBB5:
 194              		.loc 1 101 0
 195 0082 FFF7FEFF 		bl	chRegNextThread
 196              	.LVL17:
 197              	.LBE5:
 198              		.loc 1 89 0
 199 0086 0028     		cmp	r0, #0
 200 0088 E8D1     		bne	.L18
 201 008a 08BD     		pop	{r3, pc}
 202              	.LVL18:
 203              	.L20:
 204              	.LBB6:
 205              		.loc 1 109 0
 206 008c 0948     		ldr	r0, .L33+4
 207              	.LVL19:
 208              	.LBE6:
 209              		.loc 1 118 0
 210 008e BDE80840 		pop	{r3, lr}
 211              		.cfi_remember_state
 212              		.cfi_restore 14
 213              		.cfi_restore 3
 214              		.cfi_def_cfa_offset 0
 215              	.LBB7:
 216              		.loc 1 109 0
 217 0092 FFF7FEBF 		b	LogTextMessage
 218              	.LVL20:
 219              	.L11:
 220              		.cfi_restore_state
 221 0096 08BD     		pop	{r3, pc}
 222              	.LVL21:
 223              	.L31:
 224              		.loc 1 111 0
 225 0098 22B9     		cbnz	r2, .L32
 226              		.loc 1 114 0
 227 009a 0748     		ldr	r0, .L33+8
ARM GAS  /var/folders/28/j9jfyj_n4wz3qtvnym210h2c0000gn/T//ccKOcmhz.s 			page 5


 228              	.LVL22:
 229              	.LBE7:
 230              		.loc 1 118 0
 231 009c BDE80840 		pop	{r3, lr}
 232              		.cfi_remember_state
 233              		.cfi_restore 14
 234              		.cfi_restore 3
 235              		.cfi_def_cfa_offset 0
 236              	.LBB8:
 237              		.loc 1 114 0
 238 00a0 FFF7FEBF 		b	LogTextMessage
 239              	.LVL23:
 240              	.L32:
 241              		.cfi_restore_state
 242              		.loc 1 112 0
 243 00a4 1146     		mov	r1, r2
 244              	.LVL24:
 245 00a6 0548     		ldr	r0, .L33+12
 246              	.LVL25:
 247              	.LBE8:
 248              		.loc 1 118 0
 249 00a8 BDE80840 		pop	{r3, lr}
 250              		.cfi_restore 14
 251              		.cfi_restore 3
 252              		.cfi_def_cfa_offset 0
 253              	.LBB9:
 254              		.loc 1 112 0
 255 00ac FFF7FEBF 		b	LogTextMessage
 256              	.LVL26:
 257              	.L34:
 258              		.align	2
 259              	.L33:
 260 00b0 00000000 		.word	.LC0
 261 00b4 20000000 		.word	.LC1
 262 00b8 5C000000 		.word	.LC3
 263 00bc 3C000000 		.word	.LC2
 264              	.LBE9:
 265              		.cfi_endproc
 266              	.LFE132:
 267              		.size	CheckStackOverflow, .-CheckStackOverflow
 268              		.align	2
 269              		.p2align 4,,15
 270              		.thumb
 271              		.thumb_func
 272              		.type	StopPatch1, %function
 273              	StopPatch1:
 274              	.LFB133:
 275              		.loc 1 120 0
 276              		.cfi_startproc
 277              		@ args = 0, pretend = 0, frame = 0
 278              		@ frame_needed = 0, uses_anonymous_args = 0
 279 00c0 70B5     		push	{r4, r5, r6, lr}
 280              		.cfi_def_cfa_offset 16
 281              		.cfi_offset 4, -16
 282              		.cfi_offset 5, -12
 283              		.cfi_offset 6, -8
 284              		.cfi_offset 14, -4
ARM GAS  /var/folders/28/j9jfyj_n4wz3qtvnym210h2c0000gn/T//ccKOcmhz.s 			page 6


 285              		.loc 1 121 0
 286 00c2 174C     		ldr	r4, .L45
 287 00c4 6368     		ldr	r3, [r4, #4]
 288 00c6 1BB3     		cbz	r3, .L37
 289              	.LBB10:
 290              		.loc 1 122 0
 291 00c8 FFF7FEFF 		bl	CheckStackOverflow
 292              	.LVL27:
 293              		.loc 1 128 0
 294 00cc 154D     		ldr	r5, .L45+4
 295              		.loc 1 123 0
 296 00ce 6368     		ldr	r3, [r4, #4]
 297 00d0 9847     		blx	r3
 298              	.LVL28:
 299              		.loc 1 126 0
 300 00d2 FFF795FF 		bl	GetNumberOfThreads
 301              	.LVL29:
 302              		.loc 1 128 0
 303 00d6 2B68     		ldr	r3, [r5]
 304 00d8 9842     		cmp	r0, r3
 305 00da 19D0     		beq	.L37
 306              		.loc 1 129 0
 307 00dc 3220     		movs	r0, #50
 308              	.LVL30:
 309 00de FFF7FEFF 		bl	chThdSleep
 310              	.LVL31:
 311              		.loc 1 130 0
 312 00e2 FFF78DFF 		bl	GetNumberOfThreads
 313              	.LVL32:
 314 00e6 1324     		movs	r4, #19
 315 00e8 0346     		mov	r3, r0
 316              	.LVL33:
 317              	.L43:
 318              		.loc 1 128 0 discriminator 1
 319 00ea 2A68     		ldr	r2, [r5]
 320 00ec 0D4E     		ldr	r6, .L45+4
 321 00ee 9A42     		cmp	r2, r3
 322              		.loc 1 129 0 discriminator 1
 323 00f0 4FF03200 		mov	r0, #50
 324              	.LVL34:
 325              		.loc 1 128 0 discriminator 1
 326 00f4 0CD0     		beq	.L37
 327              		.loc 1 129 0
 328 00f6 FFF7FEFF 		bl	chThdSleep
 329              	.LVL35:
 330              		.loc 1 130 0
 331 00fa FFF781FF 		bl	GetNumberOfThreads
 332              	.LVL36:
 333              		.loc 1 128 0
 334 00fe 013C     		subs	r4, r4, #1
 335              	.LVL37:
 336              		.loc 1 130 0
 337 0100 0346     		mov	r3, r0
 338              	.LVL38:
 339              		.loc 1 128 0
 340 0102 F2D1     		bne	.L43
 341              		.loc 1 132 0
ARM GAS  /var/folders/28/j9jfyj_n4wz3qtvnym210h2c0000gn/T//ccKOcmhz.s 			page 7


 342 0104 3268     		ldr	r2, [r6]
 343 0106 8242     		cmp	r2, r0
 344 0108 02D0     		beq	.L37
 345              		.loc 1 133 0
 346 010a 0748     		ldr	r0, .L45+8
 347              	.LVL39:
 348 010c FFF7FEFF 		bl	LogTextMessage
 349              	.LVL40:
 350              	.L37:
 351              	.LBE10:
 352              		.loc 1 136 0
 353 0110 FFF7FEFF 		bl	UIGoSafe
 354              	.LVL41:
 355              		.loc 1 137 0
 356 0114 FFF7FEFF 		bl	InitPatch0
 357              	.LVL42:
 358              		.loc 1 139 0
 359 0118 BDE87040 		pop	{r4, r5, r6, lr}
 360              		.cfi_restore 14
 361              		.cfi_restore 6
 362              		.cfi_restore 5
 363              		.cfi_restore 4
 364              		.cfi_def_cfa_offset 0
 365              		.loc 1 138 0
 366 011c FFF7FEBF 		b	sysmon_enable_blinker
 367              	.LVL43:
 368              	.L46:
 369              		.align	2
 370              	.L45:
 371 0120 00000000 		.word	patchMeta
 372 0124 00000000 		.word	.LANCHOR0
 373 0128 78000000 		.word	.LC4
 374              		.cfi_endproc
 375              	.LFE133:
 376              		.size	StopPatch1, .-StopPatch1
 377              		.align	2
 378 012c AFF30080 		.p2align 4,,15
 379              		.thumb
 380              		.thumb_func
 381              		.type	StartPatch1, %function
 382              	StartPatch1:
 383              	.LFB134:
 384              		.loc 1 141 0
 385              		.cfi_startproc
 386              		@ args = 0, pretend = 0, frame = 0
 387              		@ frame_needed = 0, uses_anonymous_args = 0
 388 0130 F8B5     		push	{r3, r4, r5, r6, r7, lr}
 389              		.cfi_def_cfa_offset 24
 390              		.cfi_offset 3, -24
 391              		.cfi_offset 4, -20
 392              		.cfi_offset 5, -16
 393              		.cfi_offset 6, -12
 394              		.cfi_offset 7, -8
 395              		.cfi_offset 14, -4
 396              		.loc 1 142 0
 397 0132 FFF7FEFF 		bl	KVP_ClearObjects
 398              	.LVL44:
ARM GAS  /var/folders/28/j9jfyj_n4wz3qtvnym210h2c0000gn/T//ccKOcmhz.s 			page 8


 399              		.loc 1 143 0
 400 0136 FFF7FEFF 		bl	sdcard_attemptMountIfUnmounted
 401              	.LVL45:
 402              		.loc 1 145 0
 403 013a FFF7FEFF 		bl	adc_configpads
 404              	.LVL46:
 405              		.loc 1 147 0
 406 013e 1A49     		ldr	r1, .L56
 407 0140 4FF08053 		mov	r3, #268435456
 408              		.loc 1 149 0
 409 0144 0022     		movs	r2, #0
 410              	.LVL47:
 411              	.L48:
 412 0146 43F8042B 		str	r2, [r3], #4
 413              	.LVL48:
 414              		.loc 1 147 0
 415 014a 8B42     		cmp	r3, r1
 416              		.loc 1 149 0
 417 014c 4FF00004 		mov	r4, #0
 418              		.loc 1 147 0
 419 0150 F9D1     		bne	.L48
 420              		.loc 1 150 0
 421 0152 164D     		ldr	r5, .L56+4
 422              		.loc 1 151 0
 423 0154 164F     		ldr	r7, .L56+8
 424              		.loc 1 150 0
 425 0156 AC60     		str	r4, [r5, #8]
 426              		.loc 1 151 0
 427 0158 FFF752FF 		bl	GetNumberOfThreads
 428              	.LVL49:
 429              		.loc 1 152 0
 430 015c 154E     		ldr	r6, .L56+12
 431 015e 2E60     		str	r6, [r5]
 432              		.loc 1 151 0
 433 0160 3860     		str	r0, [r7]
 434              		.loc 1 153 0
 435 0162 FFF7FEFF 		bl	GetFirmwareID
 436              	.LVL50:
 437 0166 B047     		blx	r6
 438              	.LVL51:
 439              		.loc 1 154 0
 440 0168 AB68     		ldr	r3, [r5, #8]
 441 016a 3BB1     		cbz	r3, .L54
 442              		.loc 1 159 0
 443 016c FFF7FEFF 		bl	sdram_get_free
 444              	.LVL52:
 445              		.loc 1 160 0
 446 0170 061E     		subs	r6, r0, #0
 447 0172 0CDB     		blt	.L55
 448              		.loc 1 167 0
 449 0174 104B     		ldr	r3, .L56+16
 450              		.loc 1 168 0
 451 0176 2046     		mov	r0, r4
 452              	.LVL53:
 453              		.loc 1 167 0
 454 0178 1C70     		strb	r4, [r3]
 455              		.loc 1 169 0
ARM GAS  /var/folders/28/j9jfyj_n4wz3qtvnym210h2c0000gn/T//ccKOcmhz.s 			page 9


 456 017a F8BD     		pop	{r3, r4, r5, r6, r7, pc}
 457              	.LVL54:
 458              	.L54:
 459              	.LBB13:
 460              	.LBB14:
 461              		.loc 1 155 0
 462 017c 381D     		adds	r0, r7, #4
 463 017e FFF7FEFF 		bl	report_patchLoadFail
 464              	.LVL55:
 465              		.loc 1 156 0
 466 0182 0D4B     		ldr	r3, .L56+16
 467 0184 0322     		movs	r2, #3
 468 0186 1A70     		strb	r2, [r3]
 469 0188 4FF0FF30 		mov	r0, #-1
 470 018c F8BD     		pop	{r3, r4, r5, r6, r7, pc}
 471              	.LVL56:
 472              	.L55:
 473              	.LBE14:
 474              	.LBE13:
 475              		.loc 1 161 0
 476 018e FFF797FF 		bl	StopPatch1
 477              	.LVL57:
 478              		.loc 1 162 0
 479 0192 094B     		ldr	r3, .L56+16
 480              		.loc 1 163 0
 481 0194 2C62     		str	r4, [r5, #32]
 482              		.loc 1 164 0
 483 0196 381D     		adds	r0, r7, #4
 484              		.loc 1 162 0
 485 0198 0322     		movs	r2, #3
 486              		.loc 1 164 0
 487 019a 7142     		negs	r1, r6
 488              		.loc 1 162 0
 489 019c 1A70     		strb	r2, [r3]
 490              		.loc 1 164 0
 491 019e FFF7FEFF 		bl	report_patchLoadSDRamOverflow
 492              	.LVL58:
 493              		.loc 1 165 0
 494 01a2 4FF0FF30 		mov	r0, #-1
 495 01a6 F8BD     		pop	{r3, r4, r5, r6, r7, pc}
 496              	.LVL59:
 497              	.L57:
 498              		.align	2
 499              	.L56:
 500 01a8 00C00010 		.word	268484608
 501 01ac 00000000 		.word	patchMeta
 502 01b0 00000000 		.word	.LANCHOR0
 503 01b4 01100120 		.word	536940545
 504 01b8 00000000 		.word	patchStatus
 505              		.cfi_endproc
 506              	.LFE134:
 507              		.size	StartPatch1, .-StartPatch1
 508              		.align	2
 509 01bc AFF30080 		.p2align 4,,15
 510              		.thumb
 511              		.thumb_func
 512              		.type	ThreadDSP, %function
ARM GAS  /var/folders/28/j9jfyj_n4wz3qtvnym210h2c0000gn/T//ccKOcmhz.s 			page 10


 513              	ThreadDSP:
 514              	.LFB135:
 515              		.loc 1 171 0
 516              		.cfi_startproc
 517              		@ args = 0, pretend = 0, frame = 56
 518              		@ frame_needed = 0, uses_anonymous_args = 0
 519              	.LVL60:
 520 01c0 2DE9F04F 		push	{r4, r5, r6, r7, r8, r9, r10, fp, lr}
 521              		.cfi_def_cfa_offset 36
 522              		.cfi_offset 4, -36
 523              		.cfi_offset 5, -32
 524              		.cfi_offset 6, -28
 525              		.cfi_offset 7, -24
 526              		.cfi_offset 8, -20
 527              		.cfi_offset 9, -16
 528              		.cfi_offset 10, -12
 529              		.cfi_offset 11, -8
 530              		.cfi_offset 14, -4
 531              		.loc 1 174 0
 532 01c4 994B     		ldr	r3, .L127
 533 01c6 9A4A     		ldr	r2, .L127+4
 534 01c8 9B69     		ldr	r3, [r3, #24]
 535 01ca 9A4C     		ldr	r4, .L127+8
 536 01cc 9A61     		str	r2, [r3, #24]
 537              		.loc 1 171 0
 538 01ce 8FB0     		sub	sp, sp, #60
 539              		.cfi_def_cfa_offset 96
 540              		.loc 1 176 0
 541 01d0 FFF7FEFF 		bl	codec_clearbuffer
 542              	.LVL61:
 543 01d4 984D     		ldr	r5, .L127+12
 544 01d6 DFF88CA2 		ldr	r10, .L127+56
 545 01da DFF88C92 		ldr	r9, .L127+60
 546 01de DFF88CB2 		ldr	fp, .L127+64
 547              	.LBB15:
 548              	.LBB16:
 549              		.loc 1 215 0
 550 01e2 DFF88C82 		ldr	r8, .L127+68
 551              		.loc 1 216 0
 552 01e6 954F     		ldr	r7, .L127+16
 553              	.L59:
 554              	.LBE16:
 555              		.loc 1 179 0
 556 01e8 0720     		movs	r0, #7
 557 01ea FFF7FEFF 		bl	chEvtWaitOne
 558              	.LVL62:
 559              		.loc 1 180 0
 560 01ee 0128     		cmp	r0, #1
 561 01f0 0CD0     		beq	.L114
 562              	.L60:
 563              		.loc 1 226 0
 564 01f2 0228     		cmp	r0, #2
 565 01f4 3DD0     		beq	.L115
 566              	.L82:
 567              		.loc 1 326 0
 568 01f6 0428     		cmp	r0, #4
 569 01f8 F6D1     		bne	.L59
ARM GAS  /var/folders/28/j9jfyj_n4wz3qtvnym210h2c0000gn/T//ccKOcmhz.s 			page 11


 570              		.loc 1 328 0
 571 01fa FFF7FEFF 		bl	codec_clearbuffer
 572              	.LVL63:
 573              	.L110:
 574              		.loc 1 329 0
 575 01fe FFF797FF 		bl	StartPatch1
 576              	.LVL64:
 577              		.loc 1 179 0
 578 0202 0720     		movs	r0, #7
 579 0204 FFF7FEFF 		bl	chEvtWaitOne
 580              	.LVL65:
 581              		.loc 1 180 0
 582 0208 0128     		cmp	r0, #1
 583 020a F2D1     		bne	.L60
 584              	.L114:
 585              	.LBB17:
 586              		.loc 1 182 0
 587 020c 8C4B     		ldr	r3, .L127+20
 588 020e 0090     		str	r0, [sp]
 589 0210 5B68     		ldr	r3, [r3, #4]
 590 0212 6364     		str	r3, [r4, #68]
 591              		.loc 1 183 0
 592 0214 FFF7FEFF 		bl	watchdog_feed
 593              	.LVL66:
 594              		.loc 1 184 0
 595 0218 2A78     		ldrb	r2, [r5]	@ zero_extendqisi2
 596              		.loc 1 182 0
 597 021a 864E     		ldr	r6, .L127+8
 598              		.loc 1 184 0
 599 021c 864B     		ldr	r3, .L127+12
 600 021e 0098     		ldr	r0, [sp]
 601 0220 002A     		cmp	r2, #0
 602 0222 77D0     		beq	.L116
 603              		.loc 1 205 0
 604 0224 1A78     		ldrb	r2, [r3]	@ zero_extendqisi2
 605 0226 022A     		cmp	r2, #2
 606 0228 00F09C80 		beq	.L117
 607              		.loc 1 211 0
 608 022c 1B78     		ldrb	r3, [r3]	@ zero_extendqisi2
 609 022e 012B     		cmp	r3, #1
 610 0230 00F0A480 		beq	.L118
 611              	.LVL67:
 612              	.L62:
 613              		.loc 1 214 0
 614 0234 FFF7FEFF 		bl	adc_convert
 615              	.LVL68:
 616              		.loc 1 215 0
 617 0238 814B     		ldr	r3, .L127+20
 618 023a 626C     		ldr	r2, [r4, #68]
 619 023c 5B68     		ldr	r3, [r3, #4]
 620 023e 9B1A     		subs	r3, r3, r2
 621 0240 DB08     		lsrs	r3, r3, #3
 622 0242 A8FB0323 		umull	r2, r3, r8, r3
 623 0246 5B08     		lsrs	r3, r3, #1
 624              		.loc 1 216 0
 625 0248 6422     		movs	r2, #100
 626 024a 02FB03F2 		mul	r2, r2, r3
ARM GAS  /var/folders/28/j9jfyj_n4wz3qtvnym210h2c0000gn/T//ccKOcmhz.s 			page 12


 627 024e A7FB0201 		umull	r0, r1, r7, r2
 628 0252 521A     		subs	r2, r2, r1
 629 0254 01EB5202 		add	r2, r1, r2, lsr #1
 630 0258 120A     		lsrs	r2, r2, #8
 631              		.loc 1 217 0
 632 025a 632A     		cmp	r2, #99
 633              		.loc 1 215 0
 634 025c CAF80030 		str	r3, [r10]
 635              		.loc 1 216 0
 636 0260 C9F80020 		str	r2, [r9]
 637              		.loc 1 217 0
 638 0264 C0D9     		bls	.L59
 639              		.loc 1 221 0
 640 0266 FFF7FEFF 		bl	codec_clearbuffer
 641              	.LVL69:
 642              		.loc 1 223 0
 643 026a 0120     		movs	r0, #1
 644 026c FFF7FEFF 		bl	chThdSleep
 645              	.LVL70:
 646 0270 BAE7     		b	.L59
 647              	.LVL71:
 648              	.L115:
 649              	.LBE17:
 650              		.loc 1 228 0
 651 0272 FFF7FEFF 		bl	codec_clearbuffer
 652              	.LVL72:
 653              		.loc 1 229 0
 654 0276 FFF723FF 		bl	StopPatch1
 655              	.LVL73:
 656              		.loc 1 231 0
 657 027a 2379     		ldrb	r3, [r4, #4]	@ zero_extendqisi2
 658              		.loc 1 230 0
 659 027c 0122     		movs	r2, #1
 660 027e 2A70     		strb	r2, [r5]
 661              		.loc 1 231 0
 662 0280 002B     		cmp	r3, #0
 663 0282 4FD1     		bne	.L119
 664              		.loc 1 235 0
 665 0284 9BF90030 		ldrsb	r3, [fp]
 666 0288 991C     		adds	r1, r3, #2
 667 028a 7AD0     		beq	.L120
 668              		.loc 1 244 0
 669 028c 0133     		adds	r3, r3, #1
 670 028e 54D0     		beq	.L121
 671              	.LBB18:
 672              		.loc 1 253 0
 673 0290 04A8     		add	r0, sp, #16
 674 0292 6C49     		ldr	r1, .L127+24
 675 0294 FFF7FEFF 		bl	f_open
 676              	.LVL74:
 677              		.loc 1 254 0
 678 0298 0028     		cmp	r0, #0
 679 029a 5FD1     		bne	.L122
 680              	.LVL75:
 681              	.L71:
 682              		.loc 1 256 0
 683 029c 04A8     		add	r0, sp, #16
ARM GAS  /var/folders/28/j9jfyj_n4wz3qtvnym210h2c0000gn/T//ccKOcmhz.s 			page 13


 684 029e 6A49     		ldr	r1, .L127+28
 685 02a0 4FF46042 		mov	r2, #57344
 686 02a4 03AB     		add	r3, sp, #12
 687 02a6 FFF7FEFF 		bl	f_read
 688              	.LVL76:
 689              		.loc 1 257 0
 690 02aa 0028     		cmp	r0, #0
 691 02ac 41D1     		bne	.L74
 692              		.loc 1 261 0
 693 02ae 04A8     		add	r0, sp, #16
 694              	.LVL77:
 695 02b0 FFF7FEFF 		bl	f_close
 696              	.LVL78:
 697              		.loc 1 262 0
 698 02b4 0028     		cmp	r0, #0
 699 02b6 3CD1     		bne	.L74
 700              	.LVL79:
 701              		.loc 1 271 0
 702 02b8 039B     		ldr	r3, [sp, #12]
 703              		.loc 1 273 0
 704 02ba 9BF90010 		ldrsb	r1, [fp]
 705              		.loc 1 271 0
 706 02be 93B1     		cbz	r3, .L76
 707              		.loc 1 273 0
 708 02c0 0029     		cmp	r1, #0
 709 02c2 00F0AC80 		beq	.L123
 710 02c6 013B     		subs	r3, r3, #1
 711 02c8 5F4A     		ldr	r2, .L127+28
 712 02ca 02E0     		b	.L79
 713              	.LVL80:
 714              	.L86:
 715 02cc 8842     		cmp	r0, r1
 716 02ce 65D0     		beq	.L124
 717 02d0 3346     		mov	r3, r6
 718              	.LVL81:
 719              	.L79:
 720              		.loc 1 310 0
 721 02d2 12F8016B 		ldrb	r6, [r2], #1	@ zero_extendqisi2
 722              	.LVL82:
 723 02d6 0A2E     		cmp	r6, #10
 724              		.loc 1 311 0
 725 02d8 08BF     		it	eq
 726 02da 0130     		addeq	r0, r0, #1
 727              	.LVL83:
 728 02dc 5E1E     		subs	r6, r3, #1
 729              		.loc 1 313 0
 730 02de 9646     		mov	lr, r2
 731              	.LVL84:
 732              		.loc 1 271 0
 733 02e0 002B     		cmp	r3, #0
 734 02e2 F3D1     		bne	.L86
 735 02e4 0393     		str	r3, [sp, #12]
 736              	.LVL85:
 737              	.L76:
 738              	.LBB19:
 739              		.loc 1 317 0
 740 02e6 5948     		ldr	r0, .L127+32
ARM GAS  /var/folders/28/j9jfyj_n4wz3qtvnym210h2c0000gn/T//ccKOcmhz.s 			page 14


 741 02e8 FFF7FEFF 		bl	LogTextMessage
 742              	.LVL86:
 743              	.L111:
 744              		.loc 1 319 0
 745 02ec 584B     		ldr	r3, .L127+36
 746 02ee 93E80700 		ldmia	r3, {r0, r1, r2}
 747 02f2 584B     		ldr	r3, .L127+40
 748 02f4 03C3     		stmia	r3!, {r0, r1}
 749 02f6 23F8022B 		strh	r2, [r3], #2	@ movhi
 750 02fa 1846     		mov	r0, r3
 751 02fc 120C     		lsrs	r2, r2, #16
 752              		.loc 1 318 0
 753 02fe FF23     		movs	r3, #255
 754              		.loc 1 319 0
 755 0300 00F80A29 		strb	r2, [r0], #-10
 756              		.loc 1 318 0
 757 0304 8BF80030 		strb	r3, [fp]
 758              		.loc 1 320 0
 759 0308 FFF7FEFF 		bl	sdcard_loadPatch1
 760              	.LVL87:
 761              		.loc 1 321 0
 762 030c 0028     		cmp	r0, #0
 763 030e 7FF46BAF 		bne	.L59
 764 0312 74E7     		b	.L110
 765              	.LVL88:
 766              	.L116:
 767              	.LBE19:
 768              	.LBE18:
 769              	.LBB24:
 770              		.loc 1 195 0
 771 0314 504B     		ldr	r3, .L127+44
 772 0316 D6F8C810 		ldr	r1, [r6, #200]
 773 031a 9B68     		ldr	r3, [r3, #8]
 774 031c 06F14800 		add	r0, r6, #72
 775 0320 9847     		blx	r3
 776              	.LVL89:
 777 0322 87E7     		b	.L62
 778              	.LVL90:
 779              	.L119:
 780              	.LBE24:
 781              	.LBB25:
 782              		.loc 1 232 0
 783 0324 4B48     		ldr	r0, .L127+40
 784 0326 FFF7FEFF 		bl	sdcard_loadPatch1
 785              	.LVL91:
 786              		.loc 1 233 0
 787 032a 0028     		cmp	r0, #0
 788 032c 7FF45CAF 		bne	.L59
 789 0330 65E7     		b	.L110
 790              	.LVL92:
 791              	.L74:
 792              	.LBE25:
 793              	.LBB26:
 794              		.loc 1 263 0
 795 0332 4449     		ldr	r1, .L127+24
 796 0334 FFF7FEFF 		bl	report_fatfs_error
 797              	.LVL93:
ARM GAS  /var/folders/28/j9jfyj_n4wz3qtvnym210h2c0000gn/T//ccKOcmhz.s 			page 15


 798              		.loc 1 264 0
 799 0338 56E7     		b	.L59
 800              	.L121:
 801              	.LBE26:
 802              	.LBB27:
 803              		.loc 1 245 0
 804 033a 454B     		ldr	r3, .L127+36
 805 033c 93E80700 		ldmia	r3, {r0, r1, r2}
 806 0340 444B     		ldr	r3, .L127+40
 807 0342 03C3     		stmia	r3!, {r0, r1}
 808 0344 23F8022B 		strh	r2, [r3], #2	@ movhi
 809 0348 1846     		mov	r0, r3
 810 034a 120C     		lsrs	r2, r2, #16
 811 034c 00F80A29 		strb	r2, [r0], #-10
 812              		.loc 1 246 0
 813 0350 FFF7FEFF 		bl	sdcard_loadPatch1
 814              	.LVL94:
 815              		.loc 1 247 0
 816 0354 0028     		cmp	r0, #0
 817 0356 7FF447AF 		bne	.L59
 818 035a 50E7     		b	.L110
 819              	.LVL95:
 820              	.L122:
 821              	.LBE27:
 822              	.LBB28:
 823              		.loc 1 255 0
 824 035c 3949     		ldr	r1, .L127+24
 825 035e FFF7FEFF 		bl	report_fatfs_error
 826              	.LVL96:
 827 0362 9BE7     		b	.L71
 828              	.LVL97:
 829              	.L117:
 830 0364 8DE80900 		stmia	sp, {r0, r3}
 831              	.LVL98:
 832              	.LBE28:
 833              	.LBB29:
 834              		.loc 1 206 0
 835 0368 FFF7FEFF 		bl	codec_clearbuffer
 836              	.LVL99:
 837              		.loc 1 207 0
 838 036c FFF7A8FE 		bl	StopPatch1
 839              	.LVL100:
 840              		.loc 1 208 0
 841 0370 9DE80900 		ldmia	sp, {r0, r3}
 842 0374 1870     		strb	r0, [r3]
 843              		.loc 1 209 0
 844 0376 FFF7FEFF 		bl	codec_clearbuffer
 845              	.LVL101:
 846 037a 5BE7     		b	.L62
 847              	.LVL102:
 848              	.L118:
 849              		.loc 1 212 0
 850 037c FFF7FEFF 		bl	codec_clearbuffer
 851              	.LVL103:
 852 0380 58E7     		b	.L62
 853              	.LVL104:
 854              	.L120:
ARM GAS  /var/folders/28/j9jfyj_n4wz3qtvnym210h2c0000gn/T//ccKOcmhz.s 			page 16


 855              	.LBE29:
 856              		.loc 1 237 0
 857 0382 3148     		ldr	r0, .L127+28
 858 0384 3549     		ldr	r1, .L127+48
 859 0386 4FF43042 		mov	r2, #45056
 860 038a FFF7FEFF 		bl	memcpy
 861              	.LVL105:
 862              		.loc 1 240 0
 863 038e 2E4B     		ldr	r3, .L127+28
 864 0390 1B68     		ldr	r3, [r3]
 865 0392 013B     		subs	r3, r3, #1
 866              		.loc 1 239 0
 867 0394 0333     		adds	r3, r3, #3
 868 0396 3FF627AF 		bhi	.L59
 869 039a 30E7     		b	.L110
 870              	.LVL106:
 871              	.L124:
 872 039c 0393     		str	r3, [sp, #12]
 873              	.LVL107:
 874              	.L77:
 875              	.LBB30:
 876              	.LBB20:
 877              		.loc 1 278 0
 878 039e 9EF80020 		ldrb	r2, [lr]	@ zero_extendqisi2
 879 03a2 0A2A     		cmp	r2, #10
 880 03a4 08BF     		it	eq
 881 03a6 7046     		moveq	r0, lr
 882 03a8 11D0     		beq	.L89
 883 03aa 0EF10102 		add	r2, lr, #1
 884 03ae 02E0     		b	.L81
 885              	.LVL108:
 886              	.L125:
 887              		.loc 1 278 0 is_stmt 0 discriminator 1
 888 03b0 002B     		cmp	r3, #0
 889 03b2 3FF419AF 		beq	.L59
 890              	.LVL109:
 891              	.L81:
 892              		.loc 1 278 0
 893 03b6 1178     		ldrb	r1, [r2]	@ zero_extendqisi2
 894 03b8 0A29     		cmp	r1, #10
 895              		.loc 1 279 0 is_stmt 1
 896 03ba 1046     		mov	r0, r2
 897              	.LVL110:
 898              		.loc 1 280 0
 899 03bc 03F1FF33 		add	r3, r3, #-1
 900 03c0 02F10102 		add	r2, r2, #1
 901              	.LVL111:
 902              		.loc 1 278 0
 903 03c4 F4D1     		bne	.L125
 904 03c6 0393     		str	r3, [sp, #12]
 905              		.loc 1 282 0
 906 03c8 002B     		cmp	r3, #0
 907 03ca 3FF40DAF 		beq	.L59
 908              	.LVL112:
 909              	.L89:
 910              	.LBB21:
 911              		.loc 1 285 0
ARM GAS  /var/folders/28/j9jfyj_n4wz3qtvnym210h2c0000gn/T//ccKOcmhz.s 			page 17


 912 03ce 7026     		movs	r6, #112
 913              		.loc 1 286 0
 914 03d0 6122     		movs	r2, #97
 915              		.loc 1 285 0
 916 03d2 00F8036C 		strb	r6, [r0, #-3]
 917              		.loc 1 286 0
 918 03d6 00F8022C 		strb	r2, [r0, #-2]
 919              		.loc 1 287 0
 920 03da 7426     		movs	r6, #116
 921              		.loc 1 288 0
 922 03dc 6322     		movs	r2, #99
 923              		.loc 1 287 0
 924 03de 00F8016C 		strb	r6, [r0, #-1]
 925              		.loc 1 288 0
 926 03e2 0270     		strb	r2, [r0]
 927              		.loc 1 289 0
 928 03e4 6826     		movs	r6, #104
 929              		.loc 1 290 0
 930 03e6 2E22     		movs	r2, #46
 931              		.loc 1 289 0
 932 03e8 4670     		strb	r6, [r0, #1]
 933              		.loc 1 290 0
 934 03ea 8270     		strb	r2, [r0, #2]
 935              		.loc 1 291 0
 936 03ec 6226     		movs	r6, #98
 937              		.loc 1 292 0
 938 03ee 6922     		movs	r2, #105
 939              		.loc 1 291 0
 940 03f0 C670     		strb	r6, [r0, #3]
 941              		.loc 1 292 0
 942 03f2 0271     		strb	r2, [r0, #4]
 943              		.loc 1 284 0
 944 03f4 2F23     		movs	r3, #47
 945              		.loc 1 294 0
 946 03f6 0022     		movs	r2, #0
 947              		.loc 1 293 0
 948 03f8 6E26     		movs	r6, #110
 949              		.loc 1 284 0
 950 03fa 00F8043C 		strb	r3, [r0, #-4]
 951              	.LVL113:
 952              		.loc 1 293 0
 953 03fe 4671     		strb	r6, [r0, #5]
 954              		.loc 1 294 0
 955 0400 8271     		strb	r2, [r0, #6]
 956              		.loc 1 296 0
 957 0402 7146     		mov	r1, lr
 958 0404 1648     		ldr	r0, .L127+52
 959              	.LVL114:
 960              		.loc 1 295 0
 961 0406 2371     		strb	r3, [r4, #4]
 962              		.loc 1 296 0
 963 0408 FFF7FEFF 		bl	strcpy
 964              	.LVL115:
 965              		.loc 1 297 0
 966 040c 1148     		ldr	r0, .L127+40
 967 040e FFF7FEFF 		bl	sdcard_loadPatch1
 968              	.LVL116:
ARM GAS  /var/folders/28/j9jfyj_n4wz3qtvnym210h2c0000gn/T//ccKOcmhz.s 			page 18


 969              		.loc 1 298 0
 970 0412 38B1     		cbz	r0, .L126
 971              	.LVL117:
 972              	.L84:
 973              		.loc 1 301 0
 974 0414 2B78     		ldrb	r3, [r5]	@ zero_extendqisi2
 975 0416 002B     		cmp	r3, #0
 976 0418 3FF4E6AE 		beq	.L59
 977 041c 66E7     		b	.L111
 978              	.LVL118:
 979              	.L123:
 980              	.LBE21:
 981              	.LBE20:
 982              		.loc 1 273 0
 983 041e DFF828E0 		ldr	lr, .L127+28
 984 0422 BCE7     		b	.L77
 985              	.LVL119:
 986              	.L126:
 987              	.LBB23:
 988              	.LBB22:
 989              		.loc 1 299 0
 990 0424 FFF784FE 		bl	StartPatch1
 991              	.LVL120:
 992 0428 F4E7     		b	.L84
 993              	.L128:
 994 042a 00BF     		.align	2
 995              	.L127:
 996 042c 00000000 		.word	rlist
 997 0430 B4000000 		.word	.LC5
 998 0434 00000000 		.word	.LANCHOR0
 999 0438 00000000 		.word	patchStatus
 1000 043c 610F9C89 		.word	-1986261151
 1001 0440 001000E0 		.word	-536866816
 1002 0444 C4000000 		.word	.LC7
 1003 0448 00100120 		.word	536940544
 1004 044c D0000000 		.word	.LC8
 1005 0450 B8000000 		.word	.LC6
 1006 0454 04000000 		.word	.LANCHOR0+4
 1007 0458 00000000 		.word	patchMeta
 1008 045c 00000E08 		.word	135135232
 1009 0460 05000000 		.word	.LANCHOR0+5
 1010 0464 00000000 		.word	DspTime
 1011 0468 00000000 		.word	dspLoadPct
 1012 046c 00000000 		.word	.LANCHOR1
 1013 0470 19866118 		.word	409044505
 1014              	.LBE22:
 1015              	.LBE23:
 1016              	.LBE30:
 1017              	.LBE15:
 1018              		.cfi_endproc
 1019              	.LFE135:
 1020              		.size	ThreadDSP, .-ThreadDSP
 1021              		.align	2
 1022 0474 AFF30080 		.p2align 4,,15
 1022      AFF30080 
 1022      AFF30080 
 1023              		.global	StopPatch
ARM GAS  /var/folders/28/j9jfyj_n4wz3qtvnym210h2c0000gn/T//ccKOcmhz.s 			page 19


 1024              		.thumb
 1025              		.thumb_func
 1026              		.type	StopPatch, %function
 1027              	StopPatch:
 1028              	.LFB136:
 1029              		.loc 1 335 0
 1030              		.cfi_startproc
 1031              		@ args = 0, pretend = 0, frame = 0
 1032              		@ frame_needed = 0, uses_anonymous_args = 0
 1033 0480 70B5     		push	{r4, r5, r6, lr}
 1034              		.cfi_def_cfa_offset 16
 1035              		.cfi_offset 4, -16
 1036              		.cfi_offset 5, -12
 1037              		.cfi_offset 6, -8
 1038              		.cfi_offset 14, -4
 1039              		.loc 1 336 0
 1040 0482 084D     		ldr	r5, .L134
 1041 0484 2B78     		ldrb	r3, [r5]	@ zero_extendqisi2
 1042 0486 63B9     		cbnz	r3, .L129
 1043              		.loc 1 337 0
 1044 0488 0223     		movs	r3, #2
 1045 048a 2B70     		strb	r3, [r5]
 1046              	.L131:
 1047              		.loc 1 339 0
 1048 048c 0120     		movs	r0, #1
 1049 048e FFF7FEFF 		bl	chThdSleep
 1050              	.LVL121:
 1051              		.loc 1 340 0
 1052 0492 2C78     		ldrb	r4, [r5]	@ zero_extendqisi2
 1053 0494 034E     		ldr	r6, .L134
 1054 0496 E4B2     		uxtb	r4, r4
 1055 0498 012C     		cmp	r4, #1
 1056 049a F7D1     		bne	.L131
 1057              		.loc 1 343 0
 1058 049c FFF710FE 		bl	StopPatch1
 1059              	.LVL122:
 1060              		.loc 1 344 0
 1061 04a0 3470     		strb	r4, [r6]
 1062              	.L129:
 1063 04a2 70BD     		pop	{r4, r5, r6, pc}
 1064              	.L135:
 1065              		.align	2
 1066              	.L134:
 1067 04a4 00000000 		.word	patchStatus
 1068              		.cfi_endproc
 1069              	.LFE136:
 1070              		.size	StopPatch, .-StopPatch
 1071              		.align	2
 1072 04a8 AFF30080 		.p2align 4,,15
 1072      AFF30080 
 1073              		.global	StartPatch
 1074              		.thumb
 1075              		.thumb_func
 1076              		.type	StartPatch, %function
 1077              	StartPatch:
 1078              	.LFB137:
 1079              		.loc 1 348 0
ARM GAS  /var/folders/28/j9jfyj_n4wz3qtvnym210h2c0000gn/T//ccKOcmhz.s 			page 20


 1080              		.cfi_startproc
 1081              		@ args = 0, pretend = 0, frame = 0
 1082              		@ frame_needed = 0, uses_anonymous_args = 0
 1083 04b0 38B5     		push	{r3, r4, r5, lr}
 1084              		.cfi_def_cfa_offset 16
 1085              		.cfi_offset 3, -16
 1086              		.cfi_offset 4, -12
 1087              		.cfi_offset 5, -8
 1088              		.cfi_offset 14, -4
 1089              		.loc 1 349 0
 1090 04b2 124B     		ldr	r3, .L154
 1091              		.loc 1 350 0
 1092 04b4 124C     		ldr	r4, .L154+4
 1093              		.loc 1 349 0
 1094 04b6 D3F8CC00 		ldr	r0, [r3, #204]
 1095 04ba 0421     		movs	r1, #4
 1096 04bc FFF7FEFF 		bl	chEvtSignal
 1097              	.LVL123:
 1098              		.loc 1 350 0
 1099 04c0 2378     		ldrb	r3, [r4]	@ zero_extendqisi2
 1100 04c2 6BB1     		cbz	r3, .L140
 1101 04c4 2378     		ldrb	r3, [r4]	@ zero_extendqisi2
 1102 04c6 032B     		cmp	r3, #3
 1103 04c8 0AD0     		beq	.L140
 1104 04ca 2546     		mov	r5, r4
 1105 04cc 02E0     		b	.L146
 1106              	.L152:
 1107              		.loc 1 350 0 is_stmt 0 discriminator 1
 1108 04ce 2B78     		ldrb	r3, [r5]	@ zero_extendqisi2
 1109 04d0 032B     		cmp	r3, #3
 1110 04d2 05D0     		beq	.L140
 1111              	.L146:
 1112              		.loc 1 351 0 is_stmt 1
 1113 04d4 0120     		movs	r0, #1
 1114 04d6 FFF7FEFF 		bl	chThdSleep
 1115              	.LVL124:
 1116              		.loc 1 350 0
 1117 04da 2378     		ldrb	r3, [r4]	@ zero_extendqisi2
 1118 04dc 002B     		cmp	r3, #0
 1119 04de F6D1     		bne	.L152
 1120              	.L140:
 1121              		.loc 1 353 0
 1122 04e0 2378     		ldrb	r3, [r4]	@ zero_extendqisi2
 1123 04e2 074A     		ldr	r2, .L154+4
 1124 04e4 032B     		cmp	r3, #3
 1125 04e6 01D0     		beq	.L153
 1126              		.loc 1 358 0
 1127 04e8 0020     		movs	r0, #0
 1128 04ea 38BD     		pop	{r3, r4, r5, pc}
 1129              	.L153:
 1130              		.loc 1 354 0
 1131 04ec 0123     		movs	r3, #1
 1132 04ee 1370     		strb	r3, [r2]
 1133              		.loc 1 355 0
 1134 04f0 1178     		ldrb	r1, [r2]	@ zero_extendqisi2
 1135 04f2 0448     		ldr	r0, .L154+8
 1136 04f4 FFF7FEFF 		bl	LogTextMessage
ARM GAS  /var/folders/28/j9jfyj_n4wz3qtvnym210h2c0000gn/T//ccKOcmhz.s 			page 21


 1137              	.LVL125:
 1138              		.loc 1 358 0
 1139 04f8 0020     		movs	r0, #0
 1140 04fa 38BD     		pop	{r3, r4, r5, pc}
 1141              	.L155:
 1142              		.align	2
 1143              	.L154:
 1144 04fc 00000000 		.word	.LANCHOR0
 1145 0500 00000000 		.word	patchStatus
 1146 0504 EC000000 		.word	.LC9
 1147              		.cfi_endproc
 1148              	.LFE137:
 1149              		.size	StartPatch, .-StartPatch
 1150              		.align	2
 1151 0508 AFF30080 		.p2align 4,,15
 1151      AFF30080 
 1152              		.global	start_dsp_thread
 1153              		.thumb
 1154              		.thumb_func
 1155              		.type	start_dsp_thread, %function
 1156              	start_dsp_thread:
 1157              	.LFB138:
 1158              		.loc 1 360 0
 1159              		.cfi_startproc
 1160              		@ args = 0, pretend = 0, frame = 0
 1161              		@ frame_needed = 0, uses_anonymous_args = 0
 1162 0510 10B5     		push	{r4, lr}
 1163              		.cfi_def_cfa_offset 8
 1164              		.cfi_offset 4, -8
 1165              		.cfi_offset 14, -4
 1166              		.loc 1 361 0
 1167 0512 094C     		ldr	r4, .L160
 1168 0514 D4F8CC30 		ldr	r3, [r4, #204]
 1169              		.loc 1 360 0
 1170 0518 82B0     		sub	sp, sp, #8
 1171              		.cfi_def_cfa_offset 16
 1172              		.loc 1 361 0
 1173 051a 0BB1     		cbz	r3, .L159
 1174              		.loc 1 364 0
 1175 051c 02B0     		add	sp, sp, #8
 1176              		.cfi_remember_state
 1177              		.cfi_def_cfa_offset 8
 1178              		@ sp needed
 1179 051e 10BD     		pop	{r4, pc}
 1180              	.L159:
 1181              		.cfi_restore_state
 1182              		.loc 1 362 0
 1183 0520 0093     		str	r3, [sp]
 1184 0522 41F67051 		movw	r1, #7536
 1185 0526 054B     		ldr	r3, .L160+4
 1186 0528 0548     		ldr	r0, .L160+8
 1187 052a 7F22     		movs	r2, #127
 1188 052c FFF7FEFF 		bl	chThdCreateStatic
 1189              	.LVL126:
 1190 0530 C4F8CC00 		str	r0, [r4, #204]
 1191              		.loc 1 364 0
 1192 0534 02B0     		add	sp, sp, #8
ARM GAS  /var/folders/28/j9jfyj_n4wz3qtvnym210h2c0000gn/T//ccKOcmhz.s 			page 22


 1193              		.cfi_def_cfa_offset 8
 1194              		@ sp needed
 1195 0536 10BD     		pop	{r4, pc}
 1196              	.L161:
 1197              		.align	2
 1198              	.L160:
 1199 0538 00000000 		.word	.LANCHOR0
 1200 053c 00000000 		.word	ThreadDSP
 1201 0540 00000000 		.word	.LANCHOR2
 1202              		.cfi_endproc
 1203              	.LFE138:
 1204              		.size	start_dsp_thread, .-start_dsp_thread
 1205              		.align	2
 1206 0544 AFF30080 		.p2align 4,,15
 1206      AFF30080 
 1206      AFF30080 
 1207              		.global	computebufI
 1208              		.thumb
 1209              		.thumb_func
 1210              		.type	computebufI, %function
 1211              	computebufI:
 1212              	.LFB139:
 1213              		.loc 1 366 0
 1214              		.cfi_startproc
 1215              		@ args = 0, pretend = 0, frame = 0
 1216              		@ frame_needed = 0, uses_anonymous_args = 0
 1217              	.LVL127:
 1218 0550 10B5     		push	{r4, lr}
 1219              		.cfi_def_cfa_offset 8
 1220              		.cfi_offset 4, -8
 1221              		.cfi_offset 14, -4
 1222 0552 0C4A     		ldr	r2, .L166
 1223 0554 031F     		subs	r3, r0, #4
 1224 0556 7C30     		adds	r0, r0, #124
 1225              	.LVL128:
 1226              	.L163:
 1227              		.loc 1 369 0 discriminator 3
 1228 0558 53F8044F 		ldr	r4, [r3, #4]!
 1229 055c 42F8044F 		str	r4, [r2, #4]!
 1230              		.loc 1 368 0 discriminator 3
 1231 0560 8342     		cmp	r3, r0
 1232 0562 F9D1     		bne	.L163
 1233              		.loc 1 371 0
 1234 0564 084A     		ldr	r2, .L166+4
 1235              	.LBB31:
 1236              		.loc 1 372 0
 1237 0566 2023     		movs	r3, #32
 1238              	.LBE31:
 1239              		.loc 1 371 0
 1240 0568 C2F8C810 		str	r1, [r2, #200]
 1241              	.LBB32:
 1242              		.loc 1 372 0
 1243              	@ 372 "patch.c" 1
 1244 056c 83F31188 		msr     BASEPRI, r3
 1245              	@ 0 "" 2
 1246              		.thumb
 1247              	.LBE32:
ARM GAS  /var/folders/28/j9jfyj_n4wz3qtvnym210h2c0000gn/T//ccKOcmhz.s 			page 23


 1248              		.loc 1 374 0
 1249 0570 0121     		movs	r1, #1
 1250              	.LVL129:
 1251 0572 D2F8CC00 		ldr	r0, [r2, #204]
 1252              	.LVL130:
 1253 0576 FFF7FEFF 		bl	chEvtSignalI
 1254              	.LVL131:
 1255              	.LBB33:
 1256              		.loc 1 375 0
 1257 057a 0023     		movs	r3, #0
 1258              	@ 375 "patch.c" 1
 1259 057c 83F31188 		msr     BASEPRI, r3
 1260              	@ 0 "" 2
 1261              		.thumb
 1262 0580 10BD     		pop	{r4, pc}
 1263              	.L167:
 1264 0582 00BF     		.align	2
 1265              	.L166:
 1266 0584 44000000 		.word	.LANCHOR0+68
 1267 0588 00000000 		.word	.LANCHOR0
 1268              	.LBE33:
 1269              		.cfi_endproc
 1270              	.LFE139:
 1271              		.size	computebufI, .-computebufI
 1272              		.align	2
 1273 058c AFF30080 		.p2align 4,,15
 1274              		.global	MidiInMsgHandler
 1275              		.thumb
 1276              		.thumb_func
 1277              		.type	MidiInMsgHandler, %function
 1278              	MidiInMsgHandler:
 1279              	.LFB140:
 1280              		.loc 1 379 0
 1281              		.cfi_startproc
 1282              		@ args = 4, pretend = 0, frame = 0
 1283              		@ frame_needed = 0, uses_anonymous_args = 0
 1284              		@ link register save eliminated.
 1285              	.LVL132:
 1286 0590 30B4     		push	{r4, r5}
 1287              		.cfi_def_cfa_offset 8
 1288              		.cfi_offset 4, -8
 1289              		.cfi_offset 5, -4
 1290              		.loc 1 380 0
 1291 0592 064C     		ldr	r4, .L172
 1292              		.loc 1 379 0
 1293 0594 9DF80850 		ldrb	r5, [sp, #8]	@ zero_extendqisi2
 1294              		.loc 1 380 0
 1295 0598 2478     		ldrb	r4, [r4]	@ zero_extendqisi2
 1296 059a 0CB1     		cbz	r4, .L171
 1297              		.loc 1 383 0
 1298 059c 30BC     		pop	{r4, r5}
 1299              		.cfi_remember_state
 1300              		.cfi_restore 5
 1301              		.cfi_restore 4
 1302              		.cfi_def_cfa_offset 0
 1303              	.LVL133:
 1304 059e 7047     		bx	lr
ARM GAS  /var/folders/28/j9jfyj_n4wz3qtvnym210h2c0000gn/T//ccKOcmhz.s 			page 24


 1305              	.LVL134:
 1306              	.L171:
 1307              		.cfi_restore_state
 1308              		.loc 1 381 0
 1309 05a0 034C     		ldr	r4, .L172+4
 1310 05a2 0295     		str	r5, [sp, #8]
 1311              	.LVL135:
 1312 05a4 E468     		ldr	r4, [r4, #12]
 1313 05a6 A446     		mov	ip, r4
 1314              		.loc 1 383 0
 1315 05a8 30BC     		pop	{r4, r5}
 1316              		.cfi_restore 5
 1317              		.cfi_restore 4
 1318              		.cfi_def_cfa_offset 0
 1319              		.loc 1 381 0
 1320 05aa 6047     		bx	ip	@ indirect register sibling call
 1321              	.LVL136:
 1322              	.L173:
 1323              		.align	2
 1324              	.L172:
 1325 05ac 00000000 		.word	patchStatus
 1326 05b0 00000000 		.word	patchMeta
 1327              		.cfi_endproc
 1328              	.LFE140:
 1329              		.size	MidiInMsgHandler, .-MidiInMsgHandler
 1330              		.align	2
 1331 05b4 AFF30080 		.p2align 4,,15
 1331      AFF30080 
 1331      AFF30080 
 1332              		.global	LoadPatch
 1333              		.thumb
 1334              		.thumb_func
 1335              		.type	LoadPatch, %function
 1336              	LoadPatch:
 1337              	.LFB141:
 1338              		.loc 1 385 0
 1339              		.cfi_startproc
 1340              		@ args = 0, pretend = 0, frame = 0
 1341              		@ frame_needed = 0, uses_anonymous_args = 0
 1342              	.LVL137:
 1343 05c0 10B5     		push	{r4, lr}
 1344              		.cfi_def_cfa_offset 8
 1345              		.cfi_offset 4, -8
 1346              		.cfi_offset 14, -4
 1347              		.loc 1 386 0
 1348 05c2 074C     		ldr	r4, .L176
 1349              		.loc 1 385 0
 1350 05c4 0146     		mov	r1, r0
 1351              		.loc 1 386 0
 1352 05c6 201D     		adds	r0, r4, #4
 1353              	.LVL138:
 1354 05c8 FFF7FEFF 		bl	strcpy
 1355              	.LVL139:
 1356              		.loc 1 387 0
 1357 05cc 054B     		ldr	r3, .L176+4
 1358              		.loc 1 388 0
 1359 05ce D4F8CC00 		ldr	r0, [r4, #204]
ARM GAS  /var/folders/28/j9jfyj_n4wz3qtvnym210h2c0000gn/T//ccKOcmhz.s 			page 25


 1360              		.loc 1 387 0
 1361 05d2 FD22     		movs	r2, #253
 1362              		.loc 1 388 0
 1363 05d4 0221     		movs	r1, #2
 1364              		.loc 1 389 0
 1365 05d6 BDE81040 		pop	{r4, lr}
 1366              		.cfi_restore 14
 1367              		.cfi_restore 4
 1368              		.cfi_def_cfa_offset 0
 1369              		.loc 1 387 0
 1370 05da 1A70     		strb	r2, [r3]
 1371              		.loc 1 388 0
 1372 05dc FFF7FEBF 		b	chEvtSignal
 1373              	.LVL140:
 1374              	.L177:
 1375              		.align	2
 1376              	.L176:
 1377 05e0 00000000 		.word	.LANCHOR0
 1378 05e4 00000000 		.word	.LANCHOR1
 1379              		.cfi_endproc
 1380              	.LFE141:
 1381              		.size	LoadPatch, .-LoadPatch
 1382              		.align	2
 1383 05e8 AFF30080 		.p2align 4,,15
 1383      AFF30080 
 1384              		.global	LoadPatchStartSD
 1385              		.thumb
 1386              		.thumb_func
 1387              		.type	LoadPatchStartSD, %function
 1388              	LoadPatchStartSD:
 1389              	.LFB142:
 1390              		.loc 1 391 0
 1391              		.cfi_startproc
 1392              		@ args = 0, pretend = 0, frame = 0
 1393              		@ frame_needed = 0, uses_anonymous_args = 0
 1394 05f0 38B5     		push	{r3, r4, r5, lr}
 1395              		.cfi_def_cfa_offset 16
 1396              		.cfi_offset 3, -16
 1397              		.cfi_offset 4, -12
 1398              		.cfi_offset 5, -8
 1399              		.cfi_offset 14, -4
 1400              		.loc 1 392 0
 1401 05f2 0B4B     		ldr	r3, .L180
 1402 05f4 0B4C     		ldr	r4, .L180+4
 1403              		.loc 1 393 0
 1404 05f6 0C4D     		ldr	r5, .L180+8
 1405              		.loc 1 392 0
 1406 05f8 93E80700 		ldmia	r3, {r0, r1, r2}
 1407 05fc 231D     		adds	r3, r4, #4
 1408 05fe 03C3     		stmia	r3!, {r0, r1}
 1409 0600 23F8022B 		strh	r2, [r3], #2	@ movhi
 1410 0604 120C     		lsrs	r2, r2, #16
 1411              		.loc 1 394 0
 1412 0606 D4F8CC00 		ldr	r0, [r4, #204]
 1413              		.loc 1 392 0
 1414 060a 1A70     		strb	r2, [r3]
 1415              		.loc 1 394 0
ARM GAS  /var/folders/28/j9jfyj_n4wz3qtvnym210h2c0000gn/T//ccKOcmhz.s 			page 26


 1416 060c 0221     		movs	r1, #2
 1417              		.loc 1 393 0
 1418 060e FF23     		movs	r3, #255
 1419 0610 2B70     		strb	r3, [r5]
 1420              		.loc 1 394 0
 1421 0612 FFF7FEFF 		bl	chEvtSignal
 1422              	.LVL141:
 1423              		.loc 1 395 0
 1424 0616 3220     		movs	r0, #50
 1425              		.loc 1 396 0
 1426 0618 BDE83840 		pop	{r3, r4, r5, lr}
 1427              		.cfi_restore 14
 1428              		.cfi_restore 5
 1429              		.cfi_restore 4
 1430              		.cfi_restore 3
 1431              		.cfi_def_cfa_offset 0
 1432              		.loc 1 395 0
 1433 061c FFF7FEBF 		b	chThdSleep
 1434              	.LVL142:
 1435              	.L181:
 1436              		.align	2
 1437              	.L180:
 1438 0620 00010000 		.word	.LC10
 1439 0624 00000000 		.word	.LANCHOR0
 1440 0628 00000000 		.word	.LANCHOR1
 1441              		.cfi_endproc
 1442              	.LFE142:
 1443              		.size	LoadPatchStartSD, .-LoadPatchStartSD
 1444              		.align	2
 1445 062c AFF30080 		.p2align 4,,15
 1446              		.global	LoadPatchStartFlash
 1447              		.thumb
 1448              		.thumb_func
 1449              		.type	LoadPatchStartFlash, %function
 1450              	LoadPatchStartFlash:
 1451              	.LFB143:
 1452              		.loc 1 398 0
 1453              		.cfi_startproc
 1454              		@ args = 0, pretend = 0, frame = 0
 1455              		@ frame_needed = 0, uses_anonymous_args = 0
 1456              		@ link register save eliminated.
 1457              		.loc 1 400 0
 1458 0630 044A     		ldr	r2, .L183
 1459              		.loc 1 399 0
 1460 0632 054B     		ldr	r3, .L183+4
 1461              		.loc 1 400 0
 1462 0634 D2F8CC00 		ldr	r0, [r2, #204]
 1463 0638 0221     		movs	r1, #2
 1464              		.loc 1 399 0
 1465 063a FE22     		movs	r2, #254
 1466 063c 1A70     		strb	r2, [r3]
 1467              		.loc 1 400 0
 1468 063e FFF7FEBF 		b	chEvtSignal
 1469              	.LVL143:
 1470              	.L184:
 1471 0642 00BF     		.align	2
 1472              	.L183:
ARM GAS  /var/folders/28/j9jfyj_n4wz3qtvnym210h2c0000gn/T//ccKOcmhz.s 			page 27


 1473 0644 00000000 		.word	.LANCHOR0
 1474 0648 00000000 		.word	.LANCHOR1
 1475              		.cfi_endproc
 1476              	.LFE143:
 1477              		.size	LoadPatchStartFlash, .-LoadPatchStartFlash
 1478              		.align	2
 1479 064c AFF30080 		.p2align 4,,15
 1480              		.global	LoadPatchIndexed
 1481              		.thumb
 1482              		.thumb_func
 1483              		.type	LoadPatchIndexed, %function
 1484              	LoadPatchIndexed:
 1485              	.LFB144:
 1486              		.loc 1 403 0
 1487              		.cfi_startproc
 1488              		@ args = 0, pretend = 0, frame = 0
 1489              		@ frame_needed = 0, uses_anonymous_args = 0
 1490              		@ link register save eliminated.
 1491              	.LVL144:
 1492              		.loc 1 404 0
 1493 0650 044A     		ldr	r2, .L186
 1494              		.loc 1 405 0
 1495 0652 054B     		ldr	r3, .L186+4
 1496              		.loc 1 404 0
 1497 0654 1070     		strb	r0, [r2]
 1498              		.loc 1 406 0
 1499 0656 0221     		movs	r1, #2
 1500              		.loc 1 405 0
 1501 0658 0022     		movs	r2, #0
 1502              		.loc 1 406 0
 1503 065a D3F8CC00 		ldr	r0, [r3, #204]
 1504              	.LVL145:
 1505              		.loc 1 405 0
 1506 065e 1A71     		strb	r2, [r3, #4]
 1507              		.loc 1 406 0
 1508 0660 FFF7FEBF 		b	chEvtSignal
 1509              	.LVL146:
 1510              	.L187:
 1511              		.align	2
 1512              	.L186:
 1513 0664 00000000 		.word	.LANCHOR1
 1514 0668 00000000 		.word	.LANCHOR0
 1515              		.cfi_endproc
 1516              	.LFE144:
 1517              		.size	LoadPatchIndexed, .-LoadPatchIndexed
 1518              		.align	2
 1519 066c AFF30080 		.p2align 4,,15
 1520              		.global	GetIndexOfCurrentPatch
 1521              		.thumb
 1522              		.thumb_func
 1523              		.type	GetIndexOfCurrentPatch, %function
 1524              	GetIndexOfCurrentPatch:
 1525              	.LFB145:
 1526              		.loc 1 409 0
 1527              		.cfi_startproc
 1528              		@ args = 0, pretend = 0, frame = 0
 1529              		@ frame_needed = 0, uses_anonymous_args = 0
ARM GAS  /var/folders/28/j9jfyj_n4wz3qtvnym210h2c0000gn/T//ccKOcmhz.s 			page 28


 1530              		@ link register save eliminated.
 1531              		.loc 1 410 0
 1532 0670 014B     		ldr	r3, .L189
 1533              		.loc 1 411 0
 1534 0672 93F90000 		ldrsb	r0, [r3]
 1535 0676 7047     		bx	lr
 1536              	.L190:
 1537              		.align	2
 1538              	.L189:
 1539 0678 00000000 		.word	.LANCHOR1
 1540              		.cfi_endproc
 1541              	.LFE145:
 1542              		.size	GetIndexOfCurrentPatch, .-GetIndexOfCurrentPatch
 1543              		.global	loadPatchIndex
 1544              		.global	loadFName
 1545              		.comm	DspTime,4,4
 1546              		.comm	dspLoadPct,4,4
 1547              		.comm	patchStatus,1,1
 1548              		.comm	patchMeta,56,4
 1549              		.data
 1550              		.set	.LANCHOR1,. + 0
 1551              		.type	loadPatchIndex, %object
 1552              		.size	loadPatchIndex, 1
 1553              	loadPatchIndex:
 1554 0000 FB       		.byte	-5
 1555              		.section	.rodata.str1.4,"aMS",%progbits,1
 1556              		.align	2
 1557              	.LC0:
 1558 0000 54687265 		.ascii	"Thread %s : stack critical %d\000"
 1558      61642025 
 1558      73203A20 
 1558      73746163 
 1558      6B206372 
 1559 001e 0000     		.space	2
 1560              	.LC1:
 1561 0020 54687265 		.ascii	"Thread %s : stack overflow\000"
 1561      61642025 
 1561      73203A20 
 1561      73746163 
 1561      6B206F76 
 1562 003b 00       		.space	1
 1563              	.LC2:
 1564 003c 54687265 		.ascii	"Thread ?? : stack critical %d\000"
 1564      6164203F 
 1564      3F203A20 
 1564      73746163 
 1564      6B206372 
 1565 005a 0000     		.space	2
 1566              	.LC3:
 1567 005c 54687265 		.ascii	"Thread ?? : stack overflow\000"
 1567      6164203F 
 1567      3F203A20 
 1567      73746163 
 1567      6B206F76 
 1568 0077 00       		.space	1
 1569              	.LC4:
 1570 0078 6572726F 		.ascii	"error: patch stopped but did not terminate its thre"
ARM GAS  /var/folders/28/j9jfyj_n4wz3qtvnym210h2c0000gn/T//ccKOcmhz.s 			page 29


 1570      723A2070 
 1570      61746368 
 1570      2073746F 
 1570      70706564 
 1571 00ab 61642873 		.ascii	"ad(s)\000"
 1571      2900
 1572 00b1 000000   		.space	3
 1573              	.LC5:
 1574 00b4 64737000 		.ascii	"dsp\000"
 1575              	.LC6:
 1576 00b8 2F737461 		.ascii	"/start.bin\000"
 1576      72742E62 
 1576      696E00
 1577 00c3 00       		.space	1
 1578              	.LC7:
 1579 00c4 2F696E64 		.ascii	"/index.axb\000"
 1579      65782E61 
 1579      786200
 1580 00cf 00       		.space	1
 1581              	.LC8:
 1582 00d0 70617463 		.ascii	"patch load out-of-range %d\000"
 1582      68206C6F 
 1582      6164206F 
 1582      75742D6F 
 1582      662D7261 
 1583 00eb 00       		.space	1
 1584              	.LC9:
 1585 00ec 70617463 		.ascii	"patch start failed\000"
 1585      68207374 
 1585      61727420 
 1585      6661696C 
 1585      656400
 1586 00ff 00       		.space	1
 1587              	.LC10:
 1588 0100 2F535441 		.ascii	"/START.BIN\000"
 1588      52542E42 
 1588      494E00
 1589              		.section	.ccmramend,"aw",%progbits
 1590              		.align	3
 1591              		.set	.LANCHOR2,. + 0
 1592              		.type	waThreadDSP, %object
 1593              		.size	waThreadDSP, 7536
 1594              	waThreadDSP:
 1595 0000 00000000 		.space	7536
 1595      00000000 
 1595      00000000 
 1595      00000000 
 1595      00000000 
 1596              		.bss
 1597              		.align	2
 1598              		.set	.LANCHOR0,. + 0
 1599              		.type	nThreadsBeforePatch, %object
 1600              		.size	nThreadsBeforePatch, 4
 1601              	nThreadsBeforePatch:
 1602 0000 00000000 		.space	4
 1603              		.type	loadFName, %object
 1604              		.size	loadFName, 64
ARM GAS  /var/folders/28/j9jfyj_n4wz3qtvnym210h2c0000gn/T//ccKOcmhz.s 			page 30


 1605              	loadFName:
 1606 0004 00000000 		.space	64
 1606      00000000 
 1606      00000000 
 1606      00000000 
 1606      00000000 
 1607              		.type	tStart.8422, %object
 1608              		.size	tStart.8422, 4
 1609              	tStart.8422:
 1610 0044 00000000 		.space	4
 1611              		.type	inbuf, %object
 1612              		.size	inbuf, 128
 1613              	inbuf:
 1614 0048 00000000 		.space	128
 1614      00000000 
 1614      00000000 
 1614      00000000 
 1614      00000000 
 1615              		.type	outbuf, %object
 1616              		.size	outbuf, 4
 1617              	outbuf:
 1618 00c8 00000000 		.space	4
 1619              		.type	pThreadDSP, %object
 1620              		.size	pThreadDSP, 4
 1621              	pThreadDSP:
 1622 00cc 00000000 		.space	4
 1623              		.text
 1624              	.Letext0:
 1625              		.file 2 "/Applications/axoloti_runtime/platform_osx/lib/gcc/arm-none-eabi/4.9.3/include/stddef.h"
 1626              		.file 3 "/Applications/axoloti_runtime/platform_osx/arm-none-eabi/include/machine/_default_types.h
 1627              		.file 4 "/Applications/axoloti_runtime/platform_osx/arm-none-eabi/include/sys/_stdint.h"
 1628              		.file 5 "/Applications/Axoloti.app/Contents/Java/chibios/os/ports/GCC/ARMCMx/chtypes.h"
 1629              		.file 6 "/Applications/Axoloti.app/Contents/Java/chibios/os/kernel/include/chlists.h"
 1630              		.file 7 "/Applications/Axoloti.app/Contents/Java/chibios/os/kernel/include/chthreads.h"
 1631              		.file 8 "/Applications/Axoloti.app/Contents/Java/chibios/os/ports/GCC/ARMCMx/chcore_v7m.h"
 1632              		.file 9 "/Applications/Axoloti.app/Contents/Java/chibios/os/ports/common/ARMCMx/nvic.h"
 1633              		.file 10 "/Applications/Axoloti.app/Contents/Java/chibios/os/kernel/include/chschd.h"
 1634              		.file 11 "/Applications/Axoloti.app/Contents/Java/chibios/os/kernel/include/chsem.h"
 1635              		.file 12 "/Applications/Axoloti.app/Contents/Java/chibios/os/kernel/include/chmtx.h"
 1636              		.file 13 "parameters.h"
 1637              		.file 14 "/Applications/Axoloti.app/Contents/Java/chibios/ext/fatfs/src/integer.h"
 1638              		.file 15 "/Applications/Axoloti.app/Contents/Java/chibios/ext/fatfs/src/ff.h"
 1639              		.file 16 "midi.h"
 1640              		.file 17 "patch.h"
 1641              		.file 18 "/Applications/Axoloti.app/Contents/Java/CMSIS//Include/core_cm4.h"
 1642              		.file 19 "pconnection.h"
 1643              		.file 20 "ui.h"
 1644              		.file 21 "sysmon.h"
 1645              		.file 22 "exceptions.h"
 1646              		.file 23 "sdcard.h"
 1647              		.file 24 "axoloti_board.h"
 1648              		.file 25 "/Applications/Axoloti.app/Contents/Java/chibios/os/kernel/include/chregistry.h"
 1649              		.file 26 "axoloti_memory.h"
 1650              		.file 27 "watchdog.h"
 1651              		.file 28 "codec.h"
 1652              		.file 29 "/Applications/axoloti_runtime/platform_osx/arm-none-eabi/include/string.h"
 1653              		.file 30 "/Applications/Axoloti.app/Contents/Java/chibios/os/kernel/include/chevents.h"
ARM GAS  /var/folders/28/j9jfyj_n4wz3qtvnym210h2c0000gn/T//ccKOcmhz.s 			page 31

