ARM GAS  /var/folders/28/j9jfyj_n4wz3qtvnym210h2c0000gn/T//cc7hJqmk.s 			page 1


   1              		.syntax unified
   2              		.cpu cortex-m4
   3              		.eabi_attribute 27, 1
   4              		.eabi_attribute 28, 1
   5              		.fpu fpv4-sp-d16
   6              		.eabi_attribute 20, 1
   7              		.eabi_attribute 21, 1
   8              		.eabi_attribute 23, 3
   9              		.eabi_attribute 24, 1
  10              		.eabi_attribute 25, 1
  11              		.eabi_attribute 26, 1
  12              		.eabi_attribute 30, 2
  13              		.eabi_attribute 34, 1
  14              		.eabi_attribute 18, 4
  15              		.thumb
  16              		.file	"serial_lld.c"
  17              		.text
  18              	.Ltext0:
  19              		.cfi_sections	.debug_frame
  20              		.align	2
  21              		.p2align 4,,15
  22              		.thumb
  23              		.thumb_func
  24              		.type	notify1, %function
  25              	notify1:
  26              	.LFB134:
  27              		.file 1 "/Applications/Axoloti.app/Contents/Java/chibios/os/hal/platforms/STM32/USARTv1/serial_lld
  28              		.loc 1 209 0
  29              		.cfi_startproc
  30              		@ args = 0, pretend = 0, frame = 0
  31              		@ frame_needed = 0, uses_anonymous_args = 0
  32              		@ link register save eliminated.
  33              	.LVL0:
  34              		.loc 1 212 0
  35 0000 034A     		ldr	r2, .L2
  36 0002 9389     		ldrh	r3, [r2, #12]
  37 0004 9BB2     		uxth	r3, r3
  38 0006 43F08003 		orr	r3, r3, #128
  39 000a 9381     		strh	r3, [r2, #12]	@ movhi
  40 000c 7047     		bx	lr
  41              	.L3:
  42 000e 00BF     		.align	2
  43              	.L2:
  44 0010 00100140 		.word	1073811456
  45              		.cfi_endproc
  46              	.LFE134:
  47              		.size	notify1, .-notify1
  48              		.align	2
  49 0014 AFF30080 		.p2align 4,,15
  49      AFF30080 
  49      AFF30080 
  50              		.thumb
  51              		.thumb_func
  52              		.type	notify2, %function
  53              	notify2:
  54              	.LFB135:
  55              		.loc 1 217 0
ARM GAS  /var/folders/28/j9jfyj_n4wz3qtvnym210h2c0000gn/T//cc7hJqmk.s 			page 2


  56              		.cfi_startproc
  57              		@ args = 0, pretend = 0, frame = 0
  58              		@ frame_needed = 0, uses_anonymous_args = 0
  59              		@ link register save eliminated.
  60              	.LVL1:
  61              		.loc 1 220 0
  62 0020 034A     		ldr	r2, .L5
  63 0022 9389     		ldrh	r3, [r2, #12]
  64 0024 9BB2     		uxth	r3, r3
  65 0026 43F08003 		orr	r3, r3, #128
  66 002a 9381     		strh	r3, [r2, #12]	@ movhi
  67 002c 7047     		bx	lr
  68              	.L6:
  69 002e 00BF     		.align	2
  70              	.L5:
  71 0030 00440040 		.word	1073759232
  72              		.cfi_endproc
  73              	.LFE135:
  74              		.size	notify2, .-notify2
  75              		.align	2
  76 0034 AFF30080 		.p2align 4,,15
  76      AFF30080 
  76      AFF30080 
  77              		.thumb
  78              		.thumb_func
  79              		.type	notify3, %function
  80              	notify3:
  81              	.LFB136:
  82              		.loc 1 225 0
  83              		.cfi_startproc
  84              		@ args = 0, pretend = 0, frame = 0
  85              		@ frame_needed = 0, uses_anonymous_args = 0
  86              		@ link register save eliminated.
  87              	.LVL2:
  88              		.loc 1 228 0
  89 0040 034A     		ldr	r2, .L8
  90 0042 9389     		ldrh	r3, [r2, #12]
  91 0044 9BB2     		uxth	r3, r3
  92 0046 43F08003 		orr	r3, r3, #128
  93 004a 9381     		strh	r3, [r2, #12]	@ movhi
  94 004c 7047     		bx	lr
  95              	.L9:
  96 004e 00BF     		.align	2
  97              	.L8:
  98 0050 00480040 		.word	1073760256
  99              		.cfi_endproc
 100              	.LFE136:
 101              		.size	notify3, .-notify3
 102              		.align	2
 103 0054 AFF30080 		.p2align 4,,15
 103      AFF30080 
 103      AFF30080 
 104              		.thumb
 105              		.thumb_func
 106              		.type	notify6, %function
 107              	notify6:
 108              	.LFB137:
ARM GAS  /var/folders/28/j9jfyj_n4wz3qtvnym210h2c0000gn/T//cc7hJqmk.s 			page 3


 109              		.loc 1 249 0
 110              		.cfi_startproc
 111              		@ args = 0, pretend = 0, frame = 0
 112              		@ frame_needed = 0, uses_anonymous_args = 0
 113              		@ link register save eliminated.
 114              	.LVL3:
 115              		.loc 1 252 0
 116 0060 034A     		ldr	r2, .L11
 117 0062 9389     		ldrh	r3, [r2, #12]
 118 0064 9BB2     		uxth	r3, r3
 119 0066 43F08003 		orr	r3, r3, #128
 120 006a 9381     		strh	r3, [r2, #12]	@ movhi
 121 006c 7047     		bx	lr
 122              	.L12:
 123 006e 00BF     		.align	2
 124              	.L11:
 125 0070 00140140 		.word	1073812480
 126              		.cfi_endproc
 127              	.LFE137:
 128              		.size	notify6, .-notify6
 129              		.align	2
 130 0074 AFF30080 		.p2align 4,,15
 130      AFF30080 
 130      AFF30080 
 131              		.thumb
 132              		.thumb_func
 133              		.type	serve_interrupt, %function
 134              	serve_interrupt:
 135              	.LFB133:
 136              		.loc 1 154 0
 137              		.cfi_startproc
 138              		@ args = 0, pretend = 0, frame = 0
 139              		@ frame_needed = 0, uses_anonymous_args = 0
 140              	.LVL4:
 141 0080 2DE9F041 		push	{r4, r5, r6, r7, r8, lr}
 142              		.cfi_def_cfa_offset 24
 143              		.cfi_offset 4, -24
 144              		.cfi_offset 5, -20
 145              		.cfi_offset 6, -16
 146              		.cfi_offset 7, -12
 147              		.cfi_offset 8, -8
 148              		.cfi_offset 14, -4
 149              		.loc 1 155 0
 150 0084 D0F89450 		ldr	r5, [r0, #148]
 151              	.LVL5:
 152              		.loc 1 156 0
 153 0088 AF89     		ldrh	r7, [r5, #12]
 154              		.loc 1 157 0
 155 008a 2C88     		ldrh	r4, [r5]
 156 008c A4B2     		uxth	r4, r4
 157              		.loc 1 160 0
 158 008e E205     		lsls	r2, r4, #23
 159              		.loc 1 154 0
 160 0090 0646     		mov	r6, r0
 161              		.loc 1 156 0
 162 0092 BFB2     		uxth	r7, r7
 163              	.LVL6:
ARM GAS  /var/folders/28/j9jfyj_n4wz3qtvnym210h2c0000gn/T//cc7hJqmk.s 			page 4


 164              		.loc 1 160 0
 165 0094 52D4     		bmi	.L63
 166              	.LVL7:
 167              	.L14:
 168              	.LBB16:
 169              		.loc 1 168 0
 170 0096 2023     		movs	r3, #32
 171              	@ 168 "/Applications/Axoloti.app/Contents/Java/chibios/os/hal/platforms/STM32/USARTv1/serial_lld.c"
 172 0098 83F31188 		msr     BASEPRI, r3
 173              	@ 0 "" 2
 174              		.thumb
 175              	.LBE16:
 176              		.loc 1 169 0
 177 009c 14F02F0F 		tst	r4, #47
 178 00a0 2ED0     		beq	.L15
 179              	.LBB17:
 180              	.LBB18:
 181              	.LBB19:
 182              		.loc 1 146 0
 183 00a2 06F10408 		add	r8, r6, #4
 184 00a6 08E0     		b	.L22
 185              	.L16:
 186              	.LBE19:
 187              	.LBE18:
 188              		.loc 1 176 0
 189 00a8 A988     		ldrh	r1, [r5, #4]
 190              		.loc 1 177 0
 191 00aa A006     		lsls	r0, r4, #26
 192              		.loc 1 176 0
 193 00ac 89B2     		uxth	r1, r1
 194              	.LVL8:
 195              		.loc 1 177 0
 196 00ae 1ED4     		bmi	.L64
 197              	.L21:
 198              		.loc 1 179 0
 199 00b0 2C88     		ldrh	r4, [r5]
 200              	.LVL9:
 201 00b2 A4B2     		uxth	r4, r4
 202              	.LVL10:
 203              	.LBE17:
 204              		.loc 1 169 0
 205 00b4 14F02F0F 		tst	r4, #47
 206 00b8 22D0     		beq	.L15
 207              	.LVL11:
 208              	.L22:
 209              	.LBB22:
 210              		.loc 1 174 0
 211 00ba 2307     		lsls	r3, r4, #28
 212 00bc F4D0     		beq	.L16
 213              	.LVL12:
 214              	.LBB21:
 215              	.LBB20:
 216              		.loc 1 139 0
 217 00be 14F0080F 		tst	r4, #8
 218 00c2 0CBF     		ite	eq
 219 00c4 0021     		moveq	r1, #0
 220 00c6 8021     		movne	r1, #128
ARM GAS  /var/folders/28/j9jfyj_n4wz3qtvnym210h2c0000gn/T//cc7hJqmk.s 			page 5


 221              	.LVL13:
 222              		.loc 1 140 0
 223 00c8 E007     		lsls	r0, r4, #31
 224              		.loc 1 141 0
 225 00ca 48BF     		it	mi
 226 00cc 41F02001 		orrmi	r1, r1, #32
 227              	.LVL14:
 228              		.loc 1 142 0
 229 00d0 A207     		lsls	r2, r4, #30
 230              		.loc 1 143 0
 231 00d2 48BF     		it	mi
 232 00d4 41F04001 		orrmi	r1, r1, #64
 233              	.LVL15:
 234              		.loc 1 144 0
 235 00d8 6307     		lsls	r3, r4, #29
 236              		.loc 1 145 0
 237 00da 48BF     		it	mi
 238 00dc 41F48071 		orrmi	r1, r1, #256
 239              	.LVL16:
 240              		.loc 1 146 0
 241 00e0 4046     		mov	r0, r8
 242 00e2 FFF7FEFF 		bl	chEvtBroadcastFlagsI
 243              	.LVL17:
 244              	.LBE20:
 245              	.LBE21:
 246              		.loc 1 176 0
 247 00e6 A988     		ldrh	r1, [r5, #4]
 248              		.loc 1 177 0
 249 00e8 A006     		lsls	r0, r4, #26
 250              		.loc 1 176 0
 251 00ea 89B2     		uxth	r1, r1
 252              	.LVL18:
 253              		.loc 1 177 0
 254 00ec E0D5     		bpl	.L21
 255              	.LVL19:
 256              	.L64:
 257              		.loc 1 178 0
 258 00ee C9B2     		uxtb	r1, r1
 259 00f0 3046     		mov	r0, r6
 260 00f2 FFF7FEFF 		bl	sdIncomingDataI
 261              	.LVL20:
 262              		.loc 1 179 0
 263 00f6 2C88     		ldrh	r4, [r5]
 264              	.LVL21:
 265 00f8 A4B2     		uxth	r4, r4
 266              	.LVL22:
 267              	.LBE22:
 268              		.loc 1 169 0
 269 00fa 14F02F0F 		tst	r4, #47
 270 00fe DCD1     		bne	.L22
 271              	.L15:
 272              	.LBB23:
 273              		.loc 1 181 0
 274 0100 0023     		movs	r3, #0
 275              	@ 181 "/Applications/Axoloti.app/Contents/Java/chibios/os/hal/platforms/STM32/USARTv1/serial_lld.c"
 276 0102 83F31188 		msr     BASEPRI, r3
 277              	@ 0 "" 2
ARM GAS  /var/folders/28/j9jfyj_n4wz3qtvnym210h2c0000gn/T//cc7hJqmk.s 			page 6


 278              		.thumb
 279              	.LBE23:
 280              		.loc 1 184 0
 281 0106 3906     		lsls	r1, r7, #24
 282 0108 01D5     		bpl	.L23
 283              		.loc 1 184 0 is_stmt 0 discriminator 1
 284 010a 2206     		lsls	r2, r4, #24
 285 010c 25D4     		bmi	.L65
 286              	.L23:
 287              		.loc 1 198 0 is_stmt 1
 288 010e 6306     		lsls	r3, r4, #25
 289 0110 12D5     		bpl	.L13
 290              	.LBB24:
 291              		.loc 1 199 0
 292 0112 2023     		movs	r3, #32
 293              	@ 199 "/Applications/Axoloti.app/Contents/Java/chibios/os/hal/platforms/STM32/USARTv1/serial_lld.c"
 294 0114 83F31188 		msr     BASEPRI, r3
 295              	@ 0 "" 2
 296              		.thumb
 297              	.LBE24:
 298              		.loc 1 200 0
 299 0118 726C     		ldr	r2, [r6, #68]
 300 011a B36C     		ldr	r3, [r6, #72]
 301 011c 9A42     		cmp	r2, r3
 302 011e 2BD0     		beq	.L66
 303              	.L27:
 304              		.loc 1 202 0
 305 0120 27F04007 		bic	r7, r7, #64
 306              	.LVL23:
 307 0124 BFB2     		uxth	r7, r7
 308              		.loc 1 203 0
 309 0126 4FF6BF72 		movw	r2, #65471
 310              		.loc 1 202 0
 311 012a AF81     		strh	r7, [r5, #12]	@ movhi
 312              	.LBB25:
 313              		.loc 1 204 0
 314 012c 0023     		movs	r3, #0
 315              	.LBE25:
 316              		.loc 1 203 0
 317 012e 2A80     		strh	r2, [r5]	@ movhi
 318              	.LBB26:
 319              		.loc 1 204 0
 320              	@ 204 "/Applications/Axoloti.app/Contents/Java/chibios/os/hal/platforms/STM32/USARTv1/serial_lld.c"
 321 0130 83F31188 		msr     BASEPRI, r3
 322              	@ 0 "" 2
 323              		.thumb
 324 0134 BDE8F081 		pop	{r4, r5, r6, r7, r8, pc}
 325              	.LVL24:
 326              	.L13:
 327 0138 BDE8F081 		pop	{r4, r5, r6, r7, r8, pc}
 328              	.LVL25:
 329              	.L63:
 330              	.LBE26:
 331              	.LBB27:
 332              		.loc 1 161 0
 333 013c 2023     		movs	r3, #32
 334              	@ 161 "/Applications/Axoloti.app/Contents/Java/chibios/os/hal/platforms/STM32/USARTv1/serial_lld.c"
ARM GAS  /var/folders/28/j9jfyj_n4wz3qtvnym210h2c0000gn/T//cc7hJqmk.s 			page 7


 335 013e 83F31188 		msr     BASEPRI, r3
 336              	@ 0 "" 2
 337              		.thumb
 338              	.LBE27:
 339              		.loc 1 162 0
 340 0142 4FF40071 		mov	r1, #512
 341 0146 0430     		adds	r0, r0, #4
 342              	.LVL26:
 343 0148 FFF7FEFF 		bl	chEvtBroadcastFlagsI
 344              	.LVL27:
 345              	.LBB28:
 346              		.loc 1 163 0
 347 014c 0023     		movs	r3, #0
 348              	@ 163 "/Applications/Axoloti.app/Contents/Java/chibios/os/hal/platforms/STM32/USARTv1/serial_lld.c"
 349 014e 83F31188 		msr     BASEPRI, r3
 350              	@ 0 "" 2
 351              		.thumb
 352              	.LBE28:
 353              		.loc 1 164 0
 354 0152 4FF6FF63 		movw	r3, #65279
 355 0156 2B80     		strh	r3, [r5]	@ movhi
 356 0158 9DE7     		b	.L14
 357              	.L65:
 358              	.LBB29:
 359              	.LBB30:
 360              		.loc 1 186 0
 361 015a 2023     		movs	r3, #32
 362              	@ 186 "/Applications/Axoloti.app/Contents/Java/chibios/os/hal/platforms/STM32/USARTv1/serial_lld.c"
 363 015c 83F31188 		msr     BASEPRI, r3
 364              	@ 0 "" 2
 365              		.thumb
 366              	.LBE30:
 367              		.loc 1 187 0
 368 0160 06F13000 		add	r0, r6, #48
 369 0164 FFF7FEFF 		bl	chOQGetI
 370              	.LVL28:
 371              		.loc 1 188 0
 372 0168 0028     		cmp	r0, #0
 373 016a 0DDB     		blt	.L67
 374              		.loc 1 193 0
 375 016c 80B2     		uxth	r0, r0
 376              	.LVL29:
 377 016e A880     		strh	r0, [r5, #4]	@ movhi
 378              	.L25:
 379              	.LBB31:
 380              		.loc 1 194 0
 381 0170 0023     		movs	r3, #0
 382              	@ 194 "/Applications/Axoloti.app/Contents/Java/chibios/os/hal/platforms/STM32/USARTv1/serial_lld.c"
 383 0172 83F31188 		msr     BASEPRI, r3
 384              	@ 0 "" 2
 385              		.thumb
 386 0176 CAE7     		b	.L23
 387              	.L66:
 388              	.LBE31:
 389              	.LBE29:
 390              		.loc 1 200 0 discriminator 1
 391 0178 B36B     		ldr	r3, [r6, #56]
ARM GAS  /var/folders/28/j9jfyj_n4wz3qtvnym210h2c0000gn/T//cc7hJqmk.s 			page 8


 392 017a 002B     		cmp	r3, #0
 393 017c D0D0     		beq	.L27
 394              		.loc 1 201 0
 395 017e 301D     		adds	r0, r6, #4
 396 0180 1021     		movs	r1, #16
 397 0182 FFF7FEFF 		bl	chEvtBroadcastFlagsI
 398              	.LVL30:
 399 0186 CBE7     		b	.L27
 400              	.LVL31:
 401              	.L67:
 402              	.LBB32:
 403              		.loc 1 189 0
 404 0188 301D     		adds	r0, r6, #4
 405              	.LVL32:
 406 018a 0821     		movs	r1, #8
 407 018c FFF7FEFF 		bl	chEvtBroadcastFlagsI
 408              	.LVL33:
 409              		.loc 1 190 0
 410 0190 27F0C003 		bic	r3, r7, #192
 411 0194 43F04003 		orr	r3, r3, #64
 412 0198 AB81     		strh	r3, [r5, #12]	@ movhi
 413 019a E9E7     		b	.L25
 414              	.LBE32:
 415              		.cfi_endproc
 416              	.LFE133:
 417              		.size	serve_interrupt, .-serve_interrupt
 418              		.align	2
 419 019c AFF30080 		.p2align 4,,15
 420              		.global	VectorD4
 421              		.thumb
 422              		.thumb_func
 423              		.type	VectorD4, %function
 424              	VectorD4:
 425              	.LFB138:
 426              		.loc 1 269 0
 427              		.cfi_startproc
 428              		@ args = 0, pretend = 0, frame = 0
 429              		@ frame_needed = 0, uses_anonymous_args = 0
 430 01a0 08B5     		push	{r3, lr}
 431              		.cfi_def_cfa_offset 8
 432              		.cfi_offset 3, -8
 433              		.cfi_offset 14, -4
 434              		.loc 1 273 0
 435 01a2 0348     		ldr	r0, .L70
 436 01a4 FFF76CFF 		bl	serve_interrupt
 437              	.LVL34:
 438              		.loc 1 276 0
 439 01a8 BDE80840 		pop	{r3, lr}
 440              		.cfi_restore 14
 441              		.cfi_restore 3
 442              		.cfi_def_cfa_offset 0
 443              		.loc 1 275 0
 444 01ac FFF7FEBF 		b	_port_irq_epilogue
 445              	.LVL35:
 446              	.L71:
 447              		.align	2
 448              	.L70:
ARM GAS  /var/folders/28/j9jfyj_n4wz3qtvnym210h2c0000gn/T//cc7hJqmk.s 			page 9


 449 01b0 00000000 		.word	SD1
 450              		.cfi_endproc
 451              	.LFE138:
 452              		.size	VectorD4, .-VectorD4
 453              		.align	2
 454 01b4 AFF30080 		.p2align 4,,15
 454      AFF30080 
 454      AFF30080 
 455              		.global	VectorD8
 456              		.thumb
 457              		.thumb_func
 458              		.type	VectorD8, %function
 459              	VectorD8:
 460              	.LFB139:
 461              		.loc 1 288 0
 462              		.cfi_startproc
 463              		@ args = 0, pretend = 0, frame = 0
 464              		@ frame_needed = 0, uses_anonymous_args = 0
 465 01c0 08B5     		push	{r3, lr}
 466              		.cfi_def_cfa_offset 8
 467              		.cfi_offset 3, -8
 468              		.cfi_offset 14, -4
 469              		.loc 1 292 0
 470 01c2 0348     		ldr	r0, .L74
 471 01c4 FFF75CFF 		bl	serve_interrupt
 472              	.LVL36:
 473              		.loc 1 295 0
 474 01c8 BDE80840 		pop	{r3, lr}
 475              		.cfi_restore 14
 476              		.cfi_restore 3
 477              		.cfi_def_cfa_offset 0
 478              		.loc 1 294 0
 479 01cc FFF7FEBF 		b	_port_irq_epilogue
 480              	.LVL37:
 481              	.L75:
 482              		.align	2
 483              	.L74:
 484 01d0 00000000 		.word	SD2
 485              		.cfi_endproc
 486              	.LFE139:
 487              		.size	VectorD8, .-VectorD8
 488              		.align	2
 489 01d4 AFF30080 		.p2align 4,,15
 489      AFF30080 
 489      AFF30080 
 490              		.global	VectorDC
 491              		.thumb
 492              		.thumb_func
 493              		.type	VectorDC, %function
 494              	VectorDC:
 495              	.LFB140:
 496              		.loc 1 307 0
 497              		.cfi_startproc
 498              		@ args = 0, pretend = 0, frame = 0
 499              		@ frame_needed = 0, uses_anonymous_args = 0
 500 01e0 08B5     		push	{r3, lr}
 501              		.cfi_def_cfa_offset 8
ARM GAS  /var/folders/28/j9jfyj_n4wz3qtvnym210h2c0000gn/T//cc7hJqmk.s 			page 10


 502              		.cfi_offset 3, -8
 503              		.cfi_offset 14, -4
 504              		.loc 1 311 0
 505 01e2 0348     		ldr	r0, .L78
 506 01e4 FFF74CFF 		bl	serve_interrupt
 507              	.LVL38:
 508              		.loc 1 314 0
 509 01e8 BDE80840 		pop	{r3, lr}
 510              		.cfi_restore 14
 511              		.cfi_restore 3
 512              		.cfi_def_cfa_offset 0
 513              		.loc 1 313 0
 514 01ec FFF7FEBF 		b	_port_irq_epilogue
 515              	.LVL39:
 516              	.L79:
 517              		.align	2
 518              	.L78:
 519 01f0 00000000 		.word	SD3
 520              		.cfi_endproc
 521              	.LFE140:
 522              		.size	VectorDC, .-VectorDC
 523              		.align	2
 524 01f4 AFF30080 		.p2align 4,,15
 524      AFF30080 
 524      AFF30080 
 525              		.global	Vector15C
 526              		.thumb
 527              		.thumb_func
 528              		.type	Vector15C, %function
 529              	Vector15C:
 530              	.LFB141:
 531              		.loc 1 364 0
 532              		.cfi_startproc
 533              		@ args = 0, pretend = 0, frame = 0
 534              		@ frame_needed = 0, uses_anonymous_args = 0
 535 0200 08B5     		push	{r3, lr}
 536              		.cfi_def_cfa_offset 8
 537              		.cfi_offset 3, -8
 538              		.cfi_offset 14, -4
 539              		.loc 1 368 0
 540 0202 0348     		ldr	r0, .L82
 541 0204 FFF73CFF 		bl	serve_interrupt
 542              	.LVL40:
 543              		.loc 1 371 0
 544 0208 BDE80840 		pop	{r3, lr}
 545              		.cfi_restore 14
 546              		.cfi_restore 3
 547              		.cfi_def_cfa_offset 0
 548              		.loc 1 370 0
 549 020c FFF7FEBF 		b	_port_irq_epilogue
 550              	.LVL41:
 551              	.L83:
 552              		.align	2
 553              	.L82:
 554 0210 00000000 		.word	SD6
 555              		.cfi_endproc
 556              	.LFE141:
ARM GAS  /var/folders/28/j9jfyj_n4wz3qtvnym210h2c0000gn/T//cc7hJqmk.s 			page 11


 557              		.size	Vector15C, .-Vector15C
 558              		.align	2
 559 0214 AFF30080 		.p2align 4,,15
 559      AFF30080 
 559      AFF30080 
 560              		.global	sd_lld_init
 561              		.thumb
 562              		.thumb_func
 563              		.type	sd_lld_init, %function
 564              	sd_lld_init:
 565              	.LFB142:
 566              		.loc 1 383 0
 567              		.cfi_startproc
 568              		@ args = 0, pretend = 0, frame = 0
 569              		@ frame_needed = 0, uses_anonymous_args = 0
 570 0220 F8B5     		push	{r3, r4, r5, r6, r7, lr}
 571              		.cfi_def_cfa_offset 24
 572              		.cfi_offset 3, -24
 573              		.cfi_offset 4, -20
 574              		.cfi_offset 5, -16
 575              		.cfi_offset 6, -12
 576              		.cfi_offset 7, -8
 577              		.cfi_offset 14, -4
 578              		.loc 1 386 0
 579 0222 124F     		ldr	r7, .L86
 580              		.loc 1 391 0
 581 0224 124E     		ldr	r6, .L86+4
 582              		.loc 1 386 0
 583 0226 134A     		ldr	r2, .L86+8
 584              		.loc 1 396 0
 585 0228 134D     		ldr	r5, .L86+12
 586              		.loc 1 411 0
 587 022a 144C     		ldr	r4, .L86+16
 588              		.loc 1 386 0
 589 022c 3846     		mov	r0, r7
 590 022e 0021     		movs	r1, #0
 591 0230 FFF7FEFF 		bl	sdObjectInit
 592              	.LVL42:
 593              		.loc 1 387 0
 594 0234 124B     		ldr	r3, .L86+20
 595              		.loc 1 391 0
 596 0236 134A     		ldr	r2, .L86+24
 597              		.loc 1 387 0
 598 0238 C7F89430 		str	r3, [r7, #148]
 599              		.loc 1 391 0
 600 023c 3046     		mov	r0, r6
 601 023e 0021     		movs	r1, #0
 602 0240 FFF7FEFF 		bl	sdObjectInit
 603              	.LVL43:
 604              		.loc 1 392 0
 605 0244 104B     		ldr	r3, .L86+28
 606              		.loc 1 396 0
 607 0246 114A     		ldr	r2, .L86+32
 608              		.loc 1 392 0
 609 0248 C6F89430 		str	r3, [r6, #148]
 610              		.loc 1 396 0
 611 024c 2846     		mov	r0, r5
ARM GAS  /var/folders/28/j9jfyj_n4wz3qtvnym210h2c0000gn/T//cc7hJqmk.s 			page 12


 612 024e 0021     		movs	r1, #0
 613 0250 FFF7FEFF 		bl	sdObjectInit
 614              	.LVL44:
 615              		.loc 1 397 0
 616 0254 0E4B     		ldr	r3, .L86+36
 617              		.loc 1 411 0
 618 0256 0F4A     		ldr	r2, .L86+40
 619              		.loc 1 397 0
 620 0258 C5F89430 		str	r3, [r5, #148]
 621              		.loc 1 411 0
 622 025c 2046     		mov	r0, r4
 623 025e 0021     		movs	r1, #0
 624 0260 FFF7FEFF 		bl	sdObjectInit
 625              	.LVL45:
 626              		.loc 1 412 0
 627 0264 0C4B     		ldr	r3, .L86+44
 628 0266 C4F89430 		str	r3, [r4, #148]
 629 026a F8BD     		pop	{r3, r4, r5, r6, r7, pc}
 630              	.L87:
 631              		.align	2
 632              	.L86:
 633 026c 00000000 		.word	SD1
 634 0270 00000000 		.word	SD2
 635 0274 00000000 		.word	notify1
 636 0278 00000000 		.word	SD3
 637 027c 00000000 		.word	SD6
 638 0280 00100140 		.word	1073811456
 639 0284 00000000 		.word	notify2
 640 0288 00440040 		.word	1073759232
 641 028c 00000000 		.word	notify3
 642 0290 00480040 		.word	1073760256
 643 0294 00000000 		.word	notify6
 644 0298 00140140 		.word	1073812480
 645              		.cfi_endproc
 646              	.LFE142:
 647              		.size	sd_lld_init, .-sd_lld_init
 648              		.align	2
 649 029c AFF30080 		.p2align 4,,15
 650              		.global	sd_lld_start
 651              		.thumb
 652              		.thumb_func
 653              		.type	sd_lld_start, %function
 654              	sd_lld_start:
 655              	.LFB143:
 656              		.loc 1 426 0
 657              		.cfi_startproc
 658              		@ args = 0, pretend = 0, frame = 0
 659              		@ frame_needed = 0, uses_anonymous_args = 0
 660              	.LVL46:
 661 02a0 38B5     		push	{r3, r4, r5, lr}
 662              		.cfi_def_cfa_offset 16
 663              		.cfi_offset 3, -16
 664              		.cfi_offset 4, -12
 665              		.cfi_offset 5, -8
 666              		.cfi_offset 14, -4
 667              		.loc 1 429 0
 668 02a2 344C     		ldr	r4, .L104
ARM GAS  /var/folders/28/j9jfyj_n4wz3qtvnym210h2c0000gn/T//cc7hJqmk.s 			page 13


 669              		.loc 1 431 0
 670 02a4 037A     		ldrb	r3, [r0, #8]	@ zero_extendqisi2
 671              		.loc 1 429 0
 672 02a6 0029     		cmp	r1, #0
 673 02a8 18BF     		it	ne
 674 02aa 0C46     		movne	r4, r1
 675              	.LVL47:
 676              		.loc 1 431 0
 677 02ac 012B     		cmp	r3, #1
 678              		.loc 1 426 0
 679 02ae 0546     		mov	r5, r0
 680              		.loc 1 431 0
 681 02b0 24D0     		beq	.L100
 682              	.LVL48:
 683              	.L91:
 684 02b2 D5F89430 		ldr	r3, [r5, #148]
 685              	.LVL49:
 686              	.LBB35:
 687              	.LBB36:
 688              		.loc 1 97 0
 689 02b6 304A     		ldr	r2, .L104+4
 690 02b8 9342     		cmp	r3, r2
 691 02ba 35D0     		beq	.L96
 692 02bc 02F58062 		add	r2, r2, #1024
 693 02c0 9342     		cmp	r3, r2
 694 02c2 31D0     		beq	.L96
 695              		.loc 1 103 0
 696 02c4 2168     		ldr	r1, [r4]
 697 02c6 2D4A     		ldr	r2, .L104+8
 698 02c8 B2FBF1F2 		udiv	r2, r2, r1
 699 02cc 92B2     		uxth	r2, r2
 700 02ce 1A81     		strh	r2, [r3, #8]	@ movhi
 701              	.L98:
 702              		.loc 1 108 0
 703 02d0 A288     		ldrh	r2, [r4, #4]
 704              		.loc 1 106 0
 705 02d2 E088     		ldrh	r0, [r4, #6]
 706              		.loc 1 107 0
 707 02d4 2189     		ldrh	r1, [r4, #8]
 708              		.loc 1 108 0
 709 02d6 42F40452 		orr	r2, r2, #8448
 710              		.loc 1 106 0
 711 02da 40F04000 		orr	r0, r0, #64
 712              		.loc 1 108 0
 713 02de 42F02C02 		orr	r2, r2, #44
 714              		.loc 1 107 0
 715 02e2 41F00101 		orr	r1, r1, #1
 716              		.loc 1 108 0
 717 02e6 92B2     		uxth	r2, r2
 718              		.loc 1 106 0
 719 02e8 80B2     		uxth	r0, r0
 720              		.loc 1 107 0
 721 02ea 89B2     		uxth	r1, r1
 722              		.loc 1 111 0
 723 02ec 0024     		movs	r4, #0
 724              	.LVL50:
 725              		.loc 1 106 0
ARM GAS  /var/folders/28/j9jfyj_n4wz3qtvnym210h2c0000gn/T//cc7hJqmk.s 			page 14


 726 02ee 1882     		strh	r0, [r3, #16]	@ movhi
 727              		.loc 1 107 0
 728 02f0 9982     		strh	r1, [r3, #20]	@ movhi
 729              		.loc 1 108 0
 730 02f2 9A81     		strh	r2, [r3, #12]	@ movhi
 731              		.loc 1 111 0
 732 02f4 1C80     		strh	r4, [r3]	@ movhi
 733              		.loc 1 112 0
 734 02f6 1A88     		ldrh	r2, [r3]
 735              		.loc 1 113 0
 736 02f8 9B88     		ldrh	r3, [r3, #4]
 737              	.LVL51:
 738 02fa 38BD     		pop	{r3, r4, r5, pc}
 739              	.LVL52:
 740              	.L100:
 741              	.LBE36:
 742              	.LBE35:
 743              		.loc 1 433 0
 744 02fc 204B     		ldr	r3, .L104+12
 745 02fe 9842     		cmp	r0, r3
 746 0300 2DD0     		beq	.L101
 747              		.loc 1 440 0
 748 0302 204B     		ldr	r3, .L104+16
 749 0304 9842     		cmp	r0, r3
 750 0306 16D0     		beq	.L102
 751              		.loc 1 447 0
 752 0308 1F4B     		ldr	r3, .L104+20
 753 030a 9842     		cmp	r0, r3
 754 030c 1DD0     		beq	.L103
 755              		.loc 1 468 0
 756 030e 1F4B     		ldr	r3, .L104+24
 757 0310 9842     		cmp	r0, r3
 758 0312 CED1     		bne	.L91
 759              		.loc 1 469 0
 760 0314 1E4A     		ldr	r2, .L104+28
 761 0316 536C     		ldr	r3, [r2, #68]
 762 0318 43F02003 		orr	r3, r3, #32
 763 031c 5364     		str	r3, [r2, #68]
 764              		.loc 1 470 0
 765 031e 4720     		movs	r0, #71
 766              	.LVL53:
 767 0320 C021     		movs	r1, #192
 768 0322 FFF7FEFF 		bl	nvicEnableVector
 769              	.LVL54:
 770 0326 C4E7     		b	.L91
 771              	.LVL55:
 772              	.L96:
 773              	.LBB38:
 774              	.LBB37:
 775              		.loc 1 101 0
 776 0328 2168     		ldr	r1, [r4]
 777 032a 1A4A     		ldr	r2, .L104+32
 778 032c B2FBF1F2 		udiv	r2, r2, r1
 779 0330 92B2     		uxth	r2, r2
 780 0332 1A81     		strh	r2, [r3, #8]	@ movhi
 781 0334 CCE7     		b	.L98
 782              	.LVL56:
ARM GAS  /var/folders/28/j9jfyj_n4wz3qtvnym210h2c0000gn/T//cc7hJqmk.s 			page 15


 783              	.L102:
 784              	.LBE37:
 785              	.LBE38:
 786              		.loc 1 441 0
 787 0336 164A     		ldr	r2, .L104+28
 788 0338 136C     		ldr	r3, [r2, #64]
 789 033a 43F40033 		orr	r3, r3, #131072
 790 033e 1364     		str	r3, [r2, #64]
 791              		.loc 1 442 0
 792 0340 2620     		movs	r0, #38
 793              	.LVL57:
 794 0342 C021     		movs	r1, #192
 795 0344 FFF7FEFF 		bl	nvicEnableVector
 796              	.LVL58:
 797 0348 B3E7     		b	.L91
 798              	.LVL59:
 799              	.L103:
 800              		.loc 1 448 0
 801 034a 114A     		ldr	r2, .L104+28
 802 034c 136C     		ldr	r3, [r2, #64]
 803 034e 43F48023 		orr	r3, r3, #262144
 804 0352 1364     		str	r3, [r2, #64]
 805              		.loc 1 449 0
 806 0354 2720     		movs	r0, #39
 807              	.LVL60:
 808 0356 C021     		movs	r1, #192
 809 0358 FFF7FEFF 		bl	nvicEnableVector
 810              	.LVL61:
 811 035c A9E7     		b	.L91
 812              	.LVL62:
 813              	.L101:
 814              		.loc 1 434 0
 815 035e 0C4A     		ldr	r2, .L104+28
 816 0360 536C     		ldr	r3, [r2, #68]
 817 0362 43F01003 		orr	r3, r3, #16
 818 0366 5364     		str	r3, [r2, #68]
 819              		.loc 1 435 0
 820 0368 2520     		movs	r0, #37
 821              	.LVL63:
 822 036a C021     		movs	r1, #192
 823 036c FFF7FEFF 		bl	nvicEnableVector
 824              	.LVL64:
 825 0370 9FE7     		b	.L91
 826              	.L105:
 827 0372 00BF     		.align	2
 828              	.L104:
 829 0374 00000000 		.word	.LANCHOR0
 830 0378 00100140 		.word	1073811456
 831 037c 80DE8002 		.word	42000000
 832 0380 00000000 		.word	SD1
 833 0384 00000000 		.word	SD2
 834 0388 00000000 		.word	SD3
 835 038c 00000000 		.word	SD6
 836 0390 00380240 		.word	1073887232
 837 0394 00BD0105 		.word	84000000
 838              		.cfi_endproc
 839              	.LFE143:
ARM GAS  /var/folders/28/j9jfyj_n4wz3qtvnym210h2c0000gn/T//cc7hJqmk.s 			page 16


 840              		.size	sd_lld_start, .-sd_lld_start
 841              		.align	2
 842 0398 AFF30080 		.p2align 4,,15
 842      AFF30080 
 843              		.global	sd_lld_stop
 844              		.thumb
 845              		.thumb_func
 846              		.type	sd_lld_stop, %function
 847              	sd_lld_stop:
 848              	.LFB144:
 849              		.loc 1 487 0
 850              		.cfi_startproc
 851              		@ args = 0, pretend = 0, frame = 0
 852              		@ frame_needed = 0, uses_anonymous_args = 0
 853              		@ link register save eliminated.
 854              	.LVL65:
 855              		.loc 1 489 0
 856 03a0 037A     		ldrb	r3, [r0, #8]	@ zero_extendqisi2
 857 03a2 022B     		cmp	r3, #2
 858 03a4 00D0     		beq	.L113
 859              	.L106:
 860 03a6 7047     		bx	lr
 861              	.L113:
 862              		.loc 1 492 0
 863 03a8 1849     		ldr	r1, .L117
 864              		.loc 1 490 0
 865 03aa D0F89430 		ldr	r3, [r0, #148]
 866              	.LVL66:
 867              	.LBB39:
 868              	.LBB40:
 869              		.loc 1 124 0
 870 03ae 0022     		movs	r2, #0
 871              	.LBE40:
 872              	.LBE39:
 873              		.loc 1 492 0
 874 03b0 8842     		cmp	r0, r1
 875              	.LBB42:
 876              	.LBB41:
 877              		.loc 1 124 0
 878 03b2 9A81     		strh	r2, [r3, #12]	@ movhi
 879              		.loc 1 125 0
 880 03b4 1A82     		strh	r2, [r3, #16]	@ movhi
 881              		.loc 1 126 0
 882 03b6 9A82     		strh	r2, [r3, #20]	@ movhi
 883              	.LBE41:
 884              	.LBE42:
 885              		.loc 1 492 0
 886 03b8 10D0     		beq	.L114
 887              		.loc 1 499 0
 888 03ba 154B     		ldr	r3, .L117+4
 889              	.LVL67:
 890 03bc 9842     		cmp	r0, r3
 891 03be 15D0     		beq	.L115
 892              		.loc 1 506 0
 893 03c0 144B     		ldr	r3, .L117+8
 894 03c2 9842     		cmp	r0, r3
 895 03c4 1AD0     		beq	.L116
ARM GAS  /var/folders/28/j9jfyj_n4wz3qtvnym210h2c0000gn/T//cc7hJqmk.s 			page 17


 896              		.loc 1 527 0
 897 03c6 144B     		ldr	r3, .L117+12
 898 03c8 9842     		cmp	r0, r3
 899 03ca ECD1     		bne	.L106
 900              		.loc 1 528 0
 901 03cc 134A     		ldr	r2, .L117+16
 902 03ce 536C     		ldr	r3, [r2, #68]
 903 03d0 23F02003 		bic	r3, r3, #32
 904 03d4 5364     		str	r3, [r2, #68]
 905              		.loc 1 529 0
 906 03d6 4720     		movs	r0, #71
 907              	.LVL68:
 908 03d8 FFF7FEBF 		b	nvicDisableVector
 909              	.LVL69:
 910              	.L114:
 911              		.loc 1 493 0
 912 03dc 0F4A     		ldr	r2, .L117+16
 913 03de 536C     		ldr	r3, [r2, #68]
 914              	.LVL70:
 915 03e0 23F01003 		bic	r3, r3, #16
 916 03e4 5364     		str	r3, [r2, #68]
 917              		.loc 1 494 0
 918 03e6 2520     		movs	r0, #37
 919              	.LVL71:
 920 03e8 FFF7FEBF 		b	nvicDisableVector
 921              	.LVL72:
 922              	.L115:
 923              		.loc 1 500 0
 924 03ec 0B4A     		ldr	r2, .L117+16
 925 03ee 136C     		ldr	r3, [r2, #64]
 926 03f0 23F40033 		bic	r3, r3, #131072
 927 03f4 1364     		str	r3, [r2, #64]
 928              		.loc 1 501 0
 929 03f6 2620     		movs	r0, #38
 930              	.LVL73:
 931 03f8 FFF7FEBF 		b	nvicDisableVector
 932              	.LVL74:
 933              	.L116:
 934              		.loc 1 507 0
 935 03fc 074A     		ldr	r2, .L117+16
 936 03fe 136C     		ldr	r3, [r2, #64]
 937 0400 23F48023 		bic	r3, r3, #262144
 938 0404 1364     		str	r3, [r2, #64]
 939              		.loc 1 508 0
 940 0406 2720     		movs	r0, #39
 941              	.LVL75:
 942 0408 FFF7FEBF 		b	nvicDisableVector
 943              	.LVL76:
 944              	.L118:
 945              		.align	2
 946              	.L117:
 947 040c 00000000 		.word	SD1
 948 0410 00000000 		.word	SD2
 949 0414 00000000 		.word	SD3
 950 0418 00000000 		.word	SD6
 951 041c 00380240 		.word	1073887232
 952              		.cfi_endproc
ARM GAS  /var/folders/28/j9jfyj_n4wz3qtvnym210h2c0000gn/T//cc7hJqmk.s 			page 18


 953              	.LFE144:
 954              		.size	sd_lld_stop, .-sd_lld_stop
 955              		.comm	SD6,152,4
 956              		.comm	SD3,152,4
 957              		.comm	SD2,152,4
 958              		.comm	SD1,152,4
 959              		.section	.rodata
 960              		.align	2
 961              		.set	.LANCHOR0,. + 0
 962              		.type	default_config, %object
 963              		.size	default_config, 12
 964              	default_config:
 965 0000 00960000 		.word	38400
 966 0004 0000     		.short	0
 967 0006 0040     		.short	16384
 968 0008 0000     		.short	0
 969 000a 0000     		.space	2
 970              		.text
 971              	.Letext0:
 972              		.file 2 "/Applications/axoloti_runtime/platform_osx/lib/gcc/arm-none-eabi/4.9.3/include/stddef.h"
 973              		.file 3 "/Applications/axoloti_runtime/platform_osx/arm-none-eabi/include/machine/_default_types.h
 974              		.file 4 "/Applications/axoloti_runtime/platform_osx/arm-none-eabi/include/sys/_stdint.h"
 975              		.file 5 "/Applications/Axoloti.app/Contents/Java/chibios/os/ports/GCC/ARMCMx/chtypes.h"
 976              		.file 6 "/Applications/Axoloti.app/Contents/Java/chibios/os/kernel/include/chlists.h"
 977              		.file 7 "/Applications/Axoloti.app/Contents/Java/chibios/os/kernel/include/chthreads.h"
 978              		.file 8 "/Applications/Axoloti.app/Contents/Java/chibios/os/ports/GCC/ARMCMx/chcore_v7m.h"
 979              		.file 9 "/Applications/Axoloti.app/Contents/Java/chibios/os/kernel/include/chmtx.h"
 980              		.file 10 "/Applications/Axoloti.app/Contents/Java/chibios/os/kernel/include/chevents.h"
 981              		.file 11 "/Applications/Axoloti.app/Contents/Java/chibios/os/kernel/include/chqueues.h"
 982              		.file 12 "/Applications/Axoloti.app/Contents/Java/chibios/os/hal/platforms/STM32F4xx/stm32f4xx.h"
 983              		.file 13 "/Applications/Axoloti.app/Contents/Java/chibios/os/hal/include/serial.h"
 984              		.file 14 "/Applications/Axoloti.app/Contents/Java/chibios/os/hal/platforms/STM32/USARTv1/serial_ll
 985              		.file 15 "/Applications/Axoloti.app/Contents/Java/chibios/os/ports/common/ARMCMx/nvic.h"
 986              		.file 16 "/Applications/Axoloti.app/Contents/Java/CMSIS//Include/core_cm4.h"