ARM GAS  /var/folders/28/j9jfyj_n4wz3qtvnym210h2c0000gn/T//cc7hJqmk.s 			page 1


   1              		.syntax unified
   2              		.cpu cortex-m4
   3              		.eabi_attribute 27, 1
   4              		.eabi_attribute 28, 1
   5              		.fpu fpv4-sp-d16
   6              		.eabi_attribute 20, 1
   7              		.eabi_attribute 21, 1
   8              		.eabi_attribute 23, 3
   9              		.eabi_attribute 24, 1
  10              		.eabi_attribute 25, 1
  11              		.eabi_attribute 26, 1
  12              		.eabi_attribute 30, 2
  13              		.eabi_attribute 34, 1
  14              		.eabi_attribute 18, 4
  15              		.thumb
  16              		.file	"serial_lld.c"
  17              		.text
  18              	.Ltext0:
  19              		.cfi_sections	.debug_frame
  20              		.align	2
  21              		.p2align 4,,15
  22              		.thumb
  23              		.thumb_func
  24              		.type	notify1, %function
  25              	notify1:
  26              	.LFB134:
  27              		.file 1 "/Applications/Axoloti.app/Contents/Java/chibios/os/hal/platforms/STM32/USARTv1/serial_lld
  28              		.loc 1 209 0
  29              		.cfi_startproc
  30              		@ args = 0, pretend = 0, frame = 0
  31              		@ frame_needed = 0, uses_anonymous_args = 0
  32              		@ link register save eliminated.
  33              	.LVL0:
  34              		.loc 1 212 0
  35 0000 034A     		ldr	r2, .L2
  36 0002 9389     		ldrh	r3, [r2, #12]
  37 0004 9BB2     		uxth	r3, r3
  38 0006 43F08003 		orr	r3, r3, #128
  39 000a 9381     		strh	r3, [r2, #12]	@ movhi
  40 000c 7047     		bx	lr
  41              	.L3:
  42 000e 00BF     		.align	2
  43              	.L2:
  44 0010 00100140 		.word	1073811456
  45              		.cfi_endproc
  46              	.LFE134:
  47              		.size	notify1, .-notify1
  48              		.align	2
  49 0014 AFF30080 		.p2align 4,,15
  49      AFF30080 
  49      AFF30080 
  50              		.thumb
  51              		.thumb_func
  52              		.type	notify2, %function
  53              	notify2:
  54              	.LFB135:
  55              		.loc 1 217 0
ARM GAS  /var/folders/28/j9jfyj_n4wz3qtvnym210h2c0000gn/T//cc7hJqmk.s 			page 2


  56              		.cfi_startproc
  57              		@ args = 0, pretend = 0, frame = 0
  58              		@ frame_needed = 0, uses_anonymous_args = 0
  59              		@ link register save eliminated.
  60              	.LVL1:
  61              		.loc 1 220 0
  62 0020 034A     		ldr	r2, .L5
  63 0022 9389     		ldrh	r3, [r2, #12]
  64 0024 9BB2     		uxth	r3, r3
  65 0026 43F08003 		orr	r3, r3, #128
  66 002a 9381     		strh	r3, [r2, #12]	@ movhi
  67 002c 7047     		bx	lr
  68              	.L6:
  69 002e 00BF     		.align	2
  70              	.L5:
  71 0030 00440040 		.word	1073759232
  72              		.cfi_endproc
  73              	.LFE135:
  74              		.size	notify2, .-notify2
  75              		.align	2
  76 0034 AFF30080 		.p2align 4,,15
  76      AFF30080 
  76      AFF30080 
  77              		.thumb
  78              		.thumb_func
  79              		.type	notify3, %function
  80              	notify3:
  81              	.LFB136:
  82              		.loc 1 225 0
  83              		.cfi_startproc
  84              		@ args = 0, pretend = 0, frame = 0
  85              		@ frame_needed = 0, uses_anonymous_args = 0
  86              		@ link register save eliminated.
  87              	.LVL2:
  88              		.loc 1 228 0
  89 0040 034A     		ldr	r2, .L8
  90 0042 9389     		ldrh	r3, [r2, #12]
  91 0044 9BB2     		uxth	r3, r3
  92 0046 43F08003 		orr	r3, r3, #128
  93 004a 9381     		strh	r3, [r2, #12]	@ movhi
  94 004c 7047     		bx	lr
  95              	.L9:
  96 004e 00BF     		.align	2
  97              	.L8:
  98 0050 00480040 		.word	1073760256
  99              		.cfi_endproc
 100              	.LFE136:
 101              		.size	notify3, .-notify3
 102              		.align	2
 103 0054 AFF30080 		.p2align 4,,15
 103      AFF30080 
 103      AFF30080 
 104              		.thumb
 105              		.thumb_func
 106              		.type	notify6, %function
 107              	notify6:
 108              	.LFB137:
ARM GAS  /var/folders/28/j9jfyj_n4wz3qtvnym210h2c0000gn/T//cc7hJqmk.s 			page 3


 109              		.loc 1 249 0
 110              		.cfi_startproc
 111              		@ args = 0, pretend = 0, frame = 0
 112              		@ frame_needed = 0, uses_anonymous_args = 0
 113              		@ link register save eliminated.
 114              	.LVL3:
 115              		.loc 1 252 0
 116 0060 034A     		ldr	r2, .L11
 117 0062 9389     		ldrh	r3, [r2, #12]
 118 0064 9BB2     		uxth	r3, r3
 119 0066 43F08003 		orr	r3, r3, #128
 120 006a 9381     		strh	r3, [r2, #12]	@ movhi
 121 006c 7047     		bx	lr
 122              	.L12:
 123 006e 00BF     		.align	2
 124              	.L11:
 125 0070 00140140 		.word	1073812480
 126              		.cfi_endproc
 127              	.LFE137:
 128              		.size	notify6, .-notify6
 129              		.align	2
 130 0074 AFF30080 		.p2align 4,,15
 130      AFF30080 
 130      AFF30080 
 131              		.thumb
 132              		.thumb_func
 133              		.type	serve_interrupt, %function
 134              	serve_interrupt:
 135              	.LFB133:
 136              		.loc 1 154 0
 137              		.cfi_startproc
 138              		@ args = 0, pretend = 0, frame = 0
 139              		@ frame_needed = 0, uses_anonymous_args = 0
 140              	.LVL4:
 141 0080 2DE9F041 		push	{r4, r5, r6, r7, r8, lr}
 142              		.cfi_def_cfa_offset 24
 143              		.cfi_offset 4, -24
 144              		.cfi_offset 5, -20
 145              		.cfi_offset 6, -16
 146              		.cfi_offset 7, -12
 147              		.cfi_offset 8, -8
 148              		.cfi_offset 14, -4
 149              		.loc 1 155 0
 150 0084 D0F89450 		ldr	r5, [r0, #148]
 151              	.LVL5:
 152              		.loc 1 156 0
 153 0088 AF89     		ldrh	r7, [r5, #12]
 154              		.loc 1 157 0
 155 008a 2C88     		ldrh	r4, [r5]
 156 008c A4B2     		uxth	r4, r4
 157              		.loc 1 160 0
 158 008e E205     		lsls	r2, r4, #23
 159              		.loc 1 154 0
 160 0090 0646     		mov	r6, r0
 161              		.loc 1 156 0
 162 0092 BFB2     		uxth	r7, r7
 163              	.LVL6:
ARM GAS  /var/folders/28/j9jfyj_n4wz3qtvnym210h2c0000gn/T//cc7hJqmk.s 			page 4


 164              		.loc 1 160 0
 165 0094 52D4     		bmi	.L63
 166              	.LVL7:
 167              	.L14:
 168              	.LBB16:
 169              		.loc 1 168 0
 170 0096 2023     		movs	r3, #32
 171              	@ 168 "/Applications/Axoloti.app/Contents/Java/chibios/os/hal/platforms/STM32/USARTv1/serial_lld.c"
 172 0098 83F31188 		msr     BASEPRI, r3
 173              	@ 0 "" 2
 174              		.thumb
 175              	.LBE16:
 176              		.loc 1 169 0
 177 009c 14F02F0F 		tst	r4, #47
 178 00a0 2ED0     		beq	.L15
 179              	.LBB17:
 180              	.LBB18:
 181              	.LBB19:
 182              		.loc 1 146 0
 183 00a2 06F10408 		add	r8, r6, #4
 184 00a6 08E0     		b	.L22
 185              	.L16:
 186              	.LBE19:
 187              	.LBE18:
 188              		.loc 1 176 0
 189 00a8 A988     		ldrh	r1, [r5, #4]
 190              		.loc 1 177 0
 191 00aa A006     		lsls	r0, r4, #26
 192              		.loc 1 176 0
 193 00ac 89B2     		uxth	r1, r1
 194              	.LVL8:
 195              		.loc 1 177 0
 196 00ae 1ED4     		bmi	.L64
 197              	.L21:
 198              		.loc 1 179 0
 199 00b0 2C88     		ldrh	r4, [r5]
 200              	.LVL9:
 201 00b2 A4B2     		uxth	r4, r4
 202              	.LVL10:
 203              	.LBE17:
 204              		.loc 1 169 0
 205 00b4 14F02F0F 		tst	r4, #47
 206 00b8 22D0     		beq	.L15
 207              	.LVL11:
 208              	.L22:
 209              	.LBB22:
 210              		.loc 1 174 0
 211 00ba 2307     		lsls	r3, r4, #28
 212 00bc F4D0     		beq	.L16
 213              	.LVL12:
 214              	.LBB21:
 215              	.LBB20:
 216              		.loc 1 139 0
 217 00be 14F0080F 		tst	r4, #8
 218 00c2 0CBF     		ite	eq
 219 00c4 0021     		moveq	r1, #0
 220 00c6 8021     		movne	r1, #128
ARM GAS  /var/folders/28/j9jfyj_n4wz3qtvnym210h2c0000gn/T//cc7hJqmk.s 			page 5


 221              	.LVL13:
 222              		.loc 1 140 0
 223 00c8 E007     		lsls	r0, r4, #31
 224              		.loc 1 141 0
 225 00ca 48BF     		it	mi
 226 00cc 41F02001 		orrmi	r1, r1, #32
 227              	.LVL14:
 228              		.loc 1 142 0
 229 00d0 A207     		lsls	r2, r4, #30
 230              		.loc 1 143 0
 231 00d2 48BF     		it	mi
 232 00d4 41F04001 		orrmi	r1, r1, #64
 233              	.LVL15:
 234              		.loc 1 144 0
 235 00d8 6307     		lsls	r3, r4, #29
 236              		.loc 1 145 0
 237 00da 48BF     		it	mi
 238 00dc 41F48071 		orrmi	r1, r1, #256
 239              	.LVL16:
 240              		.loc 1 146 0
 241 00e0 4046     		mov	r0, r8
 242 00e2 FFF7FEFF 		bl	chEvtBroadcastFlagsI
 243              	.LVL17:
 244              	.LBE20:
 245              	.LBE21:
 246              		.loc 1 176 0
 247 00e6 A988     		ldrh	r1, [r5, #4]
 248              		.loc 1 177 0
 249 00e8 A006     		lsls	r0, r4, #26
 250              		.loc 1 176 0
 251 00ea 89B2     		uxth	r1, r1
 252              	.LVL18:
 253              		.loc 1 177 0
 254 00ec E0D5     		bpl	.L21
 255              	.LVL19:
 256              	.L64:
 257              		.loc 1 178 0
 258 00ee C9B2     		uxtb	r1, r1
 259 00f0 3046     		mov	r0, r6
 260 00f2 FFF7FEFF 		bl	sdIncomingDataI
 261              	.LVL20:
 262              		.loc 1 179 0
 263 00f6 2C88     		ldrh	r4, [r5]
 264              	.LVL21:
 265 00f8 A4B2     		uxth	r4, r4
 266              	.LVL22:
 267              	.LBE22:
 268              		.loc 1 169 0
 269 00fa 14F02F0F 		tst	r4, #47
 270 00fe DCD1     		bne	.L22
 271              	.L15:
 272              	.LBB23:
 273              		.loc 1 181 0
 274 0100 0023     		movs	r3, #0
 275              	@ 181 "/Applications/Axoloti.app/Contents/Java/chibios/os/hal/platforms/STM32/USARTv1/serial_lld.c"
 276 0102 83F31188 		msr     BASEPRI, r3
 277              	@ 0 "" 2
ARM GAS  /var/folders/28/j9jfyj_n4wz3qtvnym210h2c0000gn/T//cc7hJqmk.s 			page 6


 278              		.thumb
 279              	.LBE23:
 280              		.loc 1 184 0
 281 0106 3906     		lsls	r1, r7, #24
 282 0108 01D5     		bpl	.L23
 283              		.loc 1 184 0 is_stmt 0 discriminator 1
 284 010a 2206     		lsls	r2, r4, #24
 285 010c 25D4     		bmi	.L65
 286              	.L23:
 287              		.loc 1 198 0 is_stmt 1
 288 010e 6306     		lsls	r3, r4, #25
 289 0110 12D5     		bpl	.L13
 290              	.LBB24:
 291              		.loc 1 199 0
 292 0112 2023     		movs	r3, #32
 293              	@ 199 "/Applications/Axoloti.app/Contents/Java/chibios/os/hal/platforms/STM32/USARTv1/serial_lld.c"
 294 0114 83F31188 		msr     BASEPRI, r3
 295              	@ 0 "" 2
 296              		.thumb
 297              	.LBE24:
 298              		.loc 1 200 0
 299 0118 726C     		ldr	r2, [r6, #68]
 300 011a B36C     		ldr	r3, [r6, #72]
 301 011c 9A42     		cmp	r2, r3
 302 011e 2BD0     		beq	.L66
 303              	.L27:
 304              		.loc 1 202 0
 305 0120 27F04007 		bic	r7, r7, #64
 306              	.LVL23:
 307 0124 BFB2     		uxth	r7, r7
 308              		.loc 1 203 0
 309 0126 4FF6BF72 		movw	r2, #65471
 310              		.loc 1 202 0
 311 012a AF81     		strh	r7, [r5, #12]	@ movhi
 312              	.LBB25:
 313              		.loc 1 204 0
 314 012c 0023     		movs	r3, #0
 315              	.LBE25:
 316              		.loc 1 203 0
 317 012e 2A80     		strh	r2, [r5]	@ movhi
 318              	.LBB26:
 319              		.loc 1 204 0
 320              	@ 204 "/Applications/Axoloti.app/Contents/Java/chibios/os/hal/platforms/STM32/USARTv1/serial_lld.c"
 321 0130 83F31188 		msr     BASEPRI, r3
 322              	@ 0 "" 2
 323              		.thumb
 324 0134 BDE8F081 		pop	{r4, r5, r6, r7, r8, pc}
 325              	.LVL24:
 326              	.L13:
 327 0138 BDE8F081 		pop	{r4, r5, r6, r7, r8, pc}
 328              	.LVL25:
 329              	.L63:
 330              	.LBE26:
 331              	.LBB27:
 332              		.loc 1 161 0
 333 013c 2023     		movs	r3, #32
 334              	@ 161 "/Applications/Axoloti.app/Contents/Java/chibios/os/hal/platforms/STM32/USARTv1/serial_lld.c"
ARM GAS  /var/folders/28/j9jfyj_n4wz3qtvnym210h2c0000gn/T//cc7hJqmk.s 			page 7


 335 013e 83F31188 		msr     BASEPRI, r3
 336              	@ 0 "" 2
 337              		.thumb
 338              	.LBE27:
 339              		.loc 1 162 0
 340 0142 4FF40071 		mov	r1, #512
 341 0146 0430     		adds	r0, r0, #4
 342              	.LVL26:
 343 0148 FFF7FEFF 		bl	chEvtBroadcastFlagsI
 344              	.LVL27:
 345              	.LBB28:
 346              		.loc 1 163 0
 347 014c 0023     		movs	r3, #0
 348              	@ 163 "/Applications/Axoloti.app/Contents/Java/chibios/os/hal/platforms/STM32/USARTv1/serial_lld.c"
 349 014e 83F31188 		msr     BASEPRI, r3
 350              	@ 0 "" 2
 351              		.thumb
 352              	.LBE28:
 353              		.loc 1 164 0
 354 0152 4FF6FF63 		movw	r3, #65279
 355 0156 2B80     		strh	r3, [r5]	@ movhi
 356 0158 9DE7     		b	.L14
 357              	.L65:
 358              	.LBB29:
 359              	.LBB30:
 360              		.loc 1 186 0
 361 015a 2023     		movs	r3, #32
 362              	@ 186 "/Applications/Axoloti.app/Contents/Java/chibios/os/hal/platforms/STM32/USARTv1/serial_lld.c"
 363 015c 83F31188 		msr     BASEPRI, r3
 364              	@ 0 "" 2
 365              		.thumb
 366              	.LBE30:
 367              		.loc 1 187 0
 368 0160 06F13000 		add	r0, r6, #48
 369 0164 FFF7FEFF 		bl	chOQGetI
 370              	.LVL28:
 371              		.loc 1 188 0
 372 0168 0028     		cmp	r0, #0
 373 016a 0DDB     		blt	.L67
 374              		.loc 1 193 0
 375 016c 80B2     		uxth	r0, r0
 376              	.LVL29:
 377 016e A880     		strh	r0, [r5, #4]	@ movhi
 378              	.L25:
 379              	.LBB31:
 380              		.loc 1 194 0
 381 0170 0023     		movs	r3, #0
 382              	@ 194 "/Applications/Axoloti.app/Contents/Java/chibios/os/hal/platforms/STM32/USARTv1/serial_lld.c"
 383 0172 83F31188 		msr     BASEPRI, r3
 384              	@ 0 "" 2
 385              		.thumb
 386 0176 CAE7     		b	.L23
 387              	.L66:
 388              	.LBE31:
 389              	.LBE29:
 390              		.loc 1 200 0 discriminator 1
 391 0178 B36B     		ldr	r3, [r6, #56]
ARM GAS  /var/folders/28/j9jfyj_n4wz3qtvnym210h2c0000gn/T//cc7hJqmk.s 			page 8


 392 017a 002B     		cmp	r3, #0
 393 017c D0D0     		beq	.L27
 394              		.loc 1 201 0
 395 017e 301D     		adds	r0, r6, #4
 396 0180 1021     		movs	r1, #16
 397 0182 FFF7FEFF 		bl	chEvtBroadcastFlagsI
 398              	.LVL30:
 399 0186 CBE7     		b	.L27
 400              	.LVL31:
 401              	.L67:
 402              	.LBB32:
 403              		.loc 1 189 0
 404 0188 301D     		adds	r0, r6, #4
 405              	.LVL32:
 406 018a 0821     		movs	r1, #8
 407 018c FFF7FEFF 		bl	chEvtBroadcastFlagsI
 408              	.LVL33:
 409              		.loc 1 190 0
 410 0190 27F0C003 		bic	r3, r7, #192
 411 0194 43F04003 		orr	r3, r3, #64
 412 0198 AB81     		strh	r3, [r5, #12]	@ movhi
 413 019a E9E7     		b	.L25
 414              	.LBE32:
 415              		.cfi_endproc
 416              	.LFE133:
 417              		.size	serve_interrupt, .-serve_interrupt
 418              		.align	2
 419 019c AFF30080 		.p2align 4,,15
 420              		.global	VectorD4
 421              		.thumb
 422              		.thumb_func
 423              		.type	VectorD4, %function
 424              	VectorD4:
 425              	.LFB138:
 426              		.loc 1 269 0
 427              		.cfi_startproc
 428              		@ args = 0, pretend = 0, frame = 0
 429              		@ frame_needed = 0, uses_anonymous_args = 0
 430 01a0 08B5     		push	{r3, lr}
 431              		.cfi_def_cfa_offset 8
 432              		.cfi_offset 3, -8
 433              		.cfi_offset 14, -4
 434              		.loc 1 273 0
 435 01a2 0348     		ldr	r0, .L70
 436 01a4 FFF76CFF 		bl	serve_interrupt
 437              	.LVL34:
 438              		.loc 1 276 0
 439 01a8 BDE80840 		pop	{r3, lr}
 440              		.cfi_restore 14
 441              		.cfi_restore 3
 442              		.cfi_def_cfa_offset 0
 443              		.loc 1 275 0
 444 01ac FFF7FEBF 		b	_port_irq_epilogue
 445              	.LVL35:
 446              	.L71:
 447              		.align	2
 448              	.L70:
ARM GAS  /var/folders/28/j9jfyj_n4wz3qtvnym210h2c0000gn/T//cc7hJqmk.s 			page 9


 449 01b0 00000000 		.word	SD1
 450              		.cfi_endproc
 451              	.LFE138:
 452              		.size	VectorD4, .-VectorD4
 453              		.align	2
 454 01b4 AFF30080 		.p2align 4,,15
 454      AFF30080 
 454      AFF30080 
 455              		.global	VectorD8
 456              		.thumb
 457              		.thumb_func
 458              		.type	VectorD8, %function
 459              	VectorD8:
 460              	.LFB139:
 461              		.loc 1 288 0
 462              		.cfi_startproc
 463              		@ args = 0, pretend = 0, frame = 0
 464              		@ frame_needed = 0, uses_anonymous_args = 0
 465 01c0 08B5     		push	{r3, lr}
 466              		.cfi_def_cfa_offset 8
 467              		.cfi_offset 3, -8
 468              		.cfi_offset 14, -4
 469              		.loc 1 292 0
 470 01c2 0348     		ldr	r0, .L74
 471 01c4 FFF75CFF 		bl	serve_interrupt
 472              	.LVL36:
 473              		.loc 1 295 0
 474 01c8 BDE80840 		pop	{r3, lr}
 475              		.cfi_restore 14
 476              		.cfi_restore 3
 477              		.cfi_def_cfa_offset 0
 478              		.loc 1 294 0
 479 01cc FFF7FEBF 		b	_port_irq_epilogue
 480              	.LVL37:
 481              	.L75:
 482              		.align	2
 483              	.L74:
 484 01d0 00000000 		.word	SD2
 485              		.cfi_endproc
 486              	.LFE139:
 487              		.size	VectorD8, .-VectorD8
 488              		.align	2
 489 01d4 AFF30080 		.p2align 4,,15
 489      AFF30080 
 489      AFF30080 
 490              		.global	VectorDC
 491              		.thumb
 492              		.thumb_func
 493              		.type	VectorDC, %function
 494              	VectorDC:
 495              	.LFB140:
 496              		.loc 1 307 0
 497              		.cfi_startproc
 498              		@ args = 0, pretend = 0, frame = 0
 499              		@ frame_needed = 0, uses_anonymous_args = 0
 500 01e0 08B5     		push	{r3, lr}
 501              		.cfi_def_cfa_offset 8
ARM GAS  /var/folders/28/j9jfyj_n4wz3qtvnym210h2c0000gn/T//cc7hJqmk.s 			page 10


 502              		.cfi_offset 3, -8
 503              		.cfi_offset 14, -4
 504              		.loc 1 311 0
 505 01e2 0348     		ldr	r0, .L78
 506 01e4 FFF74CFF 		bl	serve_interrupt
 507              	.LVL38:
 508              		.loc 1 314 0
 509 01e8 BDE80840 		pop	{r3, lr}
 510              		.cfi_restore 14
 511              		.cfi_restore 3
 512              		.cfi_def_cfa_offset 0
 513              		.loc 1 313 0
 514 01ec FFF7FEBF 		b	_port_irq_epilogue
 515              	.LVL39:
 516              	.L79:
 517              		.align	2
 518              	.L78:
 519 01f0 00000000 		.word	SD3
 520              		.cfi_endproc
 521              	.LFE140:
 522              		.size	VectorDC, .-VectorDC
 523              		.align	2
 524 01f4 AFF30080 		.p2align 4,,15
 524      AFF30080 
 524      AFF30080 
 525              		.global	Vector15C
 526              		.thumb
 527              		.thumb_func
 528              		.type	Vector15C, %function
 529              	Vector15C:
 530              	.LFB141:
 531              		.loc 1 364 0
 532              		.cfi_startproc
 533              		@ args = 0, pretend = 0, frame = 0
 534              		@ frame_needed = 0, uses_anonymous_args = 0
 535 0200 08B5     		push	{r3, lr}
 536              		.cfi_def_cfa_offset 8
 537              		.cfi_offset 3, -8
 538              		.cfi_offset 14, -4
 539              		.loc 1 368 0
 540 0202 0348     		ldr	r0, .L82
 541 0204 FFF73CFF 		bl	serve_interrupt
 542              	.LVL40:
 543              		.loc 1 371 0
 544 0208 BDE80840 		pop	{r3, lr}
 545              		.cfi_restore 14
 546              		.cfi_restore 3
 547              		.cfi_def_cfa_offset 0
 548              		.loc 1 370 0
 549 020c FFF7FEBF 		b	_port_irq_epilogue
 550              	.LVL41:
 551              	.L83:
 552              		.align	2
 553              	.L82:
 554 0210 00000000 		.word	SD6
 555              		.cfi_endproc
 556              	.LFE141:
ARM GAS  /var/folders/28/j9jfyj_n4wz3qtvnym210h2c0000gn/T//cc7hJqmk.s 			page 11


 557              		.size	Vector15C, .-Vector15C
 558              		.align	2
 559 0214 AFF30080 		.p2align 4,,15
 559      AFF30080 
 559      AFF30080 
 560              		.global	sd_lld_init
 561              		.thumb
 562              		.thumb_func
 563              		.type	sd_lld_init, %function
 564              	sd_lld_init:
 565              	.LFB142:
 566              		.loc 1 383 0
 567              		.cfi_startproc
 568              		@ args = 0, pretend = 0, frame = 0
 569              		@ frame_needed = 0, uses_anonymous_args = 0
 570 0220 F8B5     		push	{r3, r4, r5, r6, r7, lr}
 571              		.cfi_def_cfa_offset 24
 572              		.cfi_offset 3, -24
 573              		.cfi_offset 4, -20
 574              		.cfi_offset 5, -16
 575              		.cfi_offset 6, -12
 576              		.cfi_offset 7, -8
 577              		.cfi_offset 14, -4
 578              		.loc 1 386 0
 579 0222 124F     		ldr	r7, .L86
 580              		.loc 1 391 0
 581 0224 124E     		ldr	r6, .L86+4
 582              		.loc 1 386 0
 583 0226 134A     		ldr	r2, .L86+8
 584              		.loc 1 396 0
 585 0228 134D     		ldr	r5, .L86+12
 586              		.loc 1 411 0
 587 022a 144C     		ldr	r4, .L86+16
 588              		.loc 1 386 0
 589 022c 3846     		mov	r0, r7
 590 022e 0021     		movs	r1, #0
 591 0230 FFF7FEFF 		bl	sdObjectInit
 592              	.LVL42:
 593              		.loc 1 387 0
 594 0234 124B     		ldr	r3, .L86+20
 595              		.loc 1 391 0
 596 0236 134A     		ldr	r2, .L86+24
 597              		.loc 1 387 0
 598 0238 C7F89430 		str	r3, [r7, #148]
 599              		.loc 1 391 0
 600 023c 3046     		mov	r0, r6
 601 023e 0021     		movs	r1, #0
 602 0240 FFF7FEFF 		bl	sdObjectInit
 603              	.LVL43:
 604              		.loc 1 392 0
 605 0244 104B     		ldr	r3, .L86+28
 606              		.loc 1 396 0
 607 0246 114A     		ldr	r2, .L86+32
 608              		.loc 1 392 0
 609 0248 C6F89430 		str	r3, [r6, #148]
 610              		.loc 1 396 0
 611 024c 2846     		mov	r0, r5
ARM GAS  /var/folders/28/j9jfyj_n4wz3qtvnym210h2c0000gn/T//cc7hJqmk.s 			page 12


 612 024e 0021     		movs	r1, #0
 613 0250 FFF7FEFF 		bl	sdObjectInit
 614              	.LVL44:
 615              		.loc 1 397 0
 616 0254 0E4B     		ldr	r3, .L86+36
 617              		.loc 1 411 0
 618 0256 0F4A     		ldr	r2, .L86+40
 619              		.loc 1 397 0
 620 0258 C5F89430 		str	r3, [r5, #148]
 621              		.loc 1 411 0
 622 025c 2046     		mov	r0, r4
 623 025e 0021     		movs	r1, #0
 624 0260 FFF7FEFF 		bl	sdObjectInit
 625              	.LVL45:
 626              		.loc 1 412 0
 627 0264 0C4B     		ldr	r3, .L86+44
 628 0266 C4F89430 		str	r3, [r4, #148]
 629 026a F8BD     		pop	{r3, r4, r5, r6, r7, pc}
 630              	.L87:
 631              		.align	2
 632              	.L86:
 633 026c 00000000 		.word	SD1
 634 0270 00000000 		.word	SD2
 635 0274 00000000 		.word	notify1
 636 0278 00000000 		.word	SD3
 637 027c 00000000 		.word	SD6
 638 0280 00100140 		.word	1073811456
 639 0284 00000000 		.word	notify2
 640 0288 00440040 		.word	1073759232
 641 028c 00000000 		.word	notify3
 642 0290 00480040 		.word	1073760256
 643 0294 00000000 		.word	notify6
 644 0298 00140140 		.word	1073812480
 645              		.cfi_endproc
 646              	.LFE142:
 647              		.size	sd_lld_init, .-sd_lld_init
 648              		.align	2
 649 029c AFF30080 		.p2align 4,,15
 650              		.global	sd_lld_start
 651              		.thumb
 652              		.thumb_func
 653              		.type	sd_lld_start, %function
 654              	sd_lld_start:
 655              	.LFB143:
 656              		.loc 1 426 0
 657              		.cfi_startproc
 658              		@ args = 0, pretend = 0, frame = 0
 659              		@ frame_needed = 0, uses_anonymous_args = 0
 660              	.LVL46:
 661 02a0 38B5     		push	{r3, r4, r5, lr}
 662              		.cfi_def_cfa_offset 16
 663              		.cfi_offset 3, -16
 664              		.cfi_offset 4, -12
 665              		.cfi_offset 5, -8
 666              		.cfi_offset 14, -4
 667              		.loc 1 429 0
 668 02a2 344C     		ldr	r4, .L104
ARM GAS  /var/folders/28/j9jfyj_n4wz3qtvnym210h2c0000gn/T//cc7hJqmk.s 			page 13


 669              		.loc 1 431 0
 670 02a4 037A     		ldrb	r3, [r0, #8]	@ zero_extendqisi2
 671              		.loc 1 429 0
 672 02a6 0029     		cmp	r1, #0
 673 02a8 18BF     		it	ne
 674 02aa 0C46     		movne	r4, r1
 675              	.LVL47:
 676              		.loc 1 431 0
 677 02ac 012B     		cmp	r3, #1
 678              		.loc 1 426 0
 679 02ae 0546     		mov	r5, r0
 680              		.loc 1 431 0
 681 02b0 24D0     		beq	.L100
 682              	.LVL48:
 683              	.L91:
 684 02b2 D5F89430 		ldr	r3, [r5, #148]
 685              	.LVL49:
 686              	.LBB35:
 687              	.LBB36:
 688              		.loc 1 97 0
 689 02b6 304A     		ldr	r2, .L104+4
 690 02b8 9342     		cmp	r3, r2
 691 02ba 35D0     		beq	.L96
 692 02bc 02F58062 		add	r2, r2, #1024
 693 02c0 9342     		cmp	r3, r2
 694 02c2 31D0     		beq	.L96
 695              		.loc 1 103 0
 696 02c4 2168     		ldr	r1, [r4]
 697 02c6 2D4A     		ldr	r2, .L104+8
 698 02c8 B2FBF1F2 		udiv	r2, r2, r1
 699 02cc 92B2     		uxth	r2, r2
 700 02ce 1A81     		strh	r2, [r3, #8]	@ movhi
 701              	.L98:
 702              		.loc 1 108 0
 703 02d0 A288     		ldrh	r2, [r4, #4]
 704              		.loc 1 106 0
 705 02d2 E088     		ldrh	r0, [r4, #6]
 706              		.loc 1 107 0
 707 02d4 2189     		ldrh	r1, [r4, #8]
 708              		.loc 1 108 0
 709 02d6 42F40452 		orr	r2, r2, #8448
 710              		.loc 1 106 0
 711 02da 40F04000 		orr	r0, r0, #64
 712              		.loc 1 108 0
 713 02de 42F02C02 		orr	r2, r2, #44
 714              		.loc 1 107 0
 715 02e2 41F00101 		orr	r1, r1, #1
 716              		.loc 1 108 0
 717 02e6 92B2     		uxth	r2, r2
 718              		.loc 1 106 0
 719 02e8 80B2     		uxth	r0, r0
 720              		.loc 1 107 0
 721 02ea 89B2     		uxth	r1, r1
 722              		.loc 1 111 0
 723 02ec 0024     		movs	r4, #0
 724              	.LVL50:
 725              		.loc 1 106 0
ARM GAS  /var/folders/28/j9jfyj_n4wz3qtvnym210h2c0000gn/T//cc7hJqmk.s 			page 14


 726 02ee 1882     		strh	r0, [r3, #16]	@ movhi
 727              		.loc 1 107 0
 728 02f0 9982     		strh	r1, [r3, #20]	@ movhi
 729              		.loc 1 108 0
 730 02f2 9A81     		strh	r2, [r3, #12]	@ movhi
 731              		.loc 1 111 0
 732 02f4 1C80     		strh	r4, [r3]	@ movhi
 733              		.loc 1 112 0
 734 02f6 1A88     		ldrh	r2, [r3]
 735              		.loc 1 113 0
 736 02f8 9B88     		ldrh	r3, [r3, #4]
 737              	.LVL51:
 738 02fa 38BD     		pop	{r3, r4, r5, pc}
 739              	.LVL52:
 740              	.L100:
 741              	.LBE36:
 742              	.LBE35:
 743              		.loc 1 433 0
 744 02fc 204B     		ldr	r3, .L104+12
 745 02fe 9842     		cmp	r0, r3
 746 0300 2DD0     		beq	.L101
 747              		.loc 1 440 0
 748 0302 204B     		ldr	r3, .L104+16
 749 0304 9842     		cmp	r0, r3
 750 0306 16D0     		beq	.L102
 751              		.loc 1 447 0
 752 0308 1F4B     		ldr	r3, .L104+20
 753 030a 9842     		cmp	r0, r3
 754 030c 1DD0     		beq	.L103
 755              		.loc 1 468 0
 756 030e 1F4B     		ldr	r3, .L104+24
 757 0310 9842     		cmp	r0, r3
 758 0312 CED1     		bne	.L91
 759              		.loc 1 469 0
 760 0314 1E4A     		ldr	r2, .L104+28
 761 0316 536C     		ldr	r3, [r2, #68]
 762 0318 43F02003 		orr	r3, r3, #32
 763 031c 5364     		str	r3, [r2, #68]
 764              		.loc 1 470 0
 765 031e 4720     		movs	r0, #71
 766              	.LVL53:
 767 0320 C021     		movs	r1, #192
 768 0322 FFF7FEFF 		bl	nvicEnableVector
 769              	.LVL54:
 770 0326 C4E7     		b	.L91
 771              	.LVL55:
 772              	.L96:
 773              	.LBB38:
 774              	.LBB37:
 775              		.loc 1 101 0
 776 0328 2168     		ldr	r1, [r4]
 777 032a 1A4A     		ldr	r2, .L104+32
 778 032c B2FBF1F2 		udiv	r2, r2, r1
 779 0330 92B2     		uxth	r2, r2
 780 0332 1A81     		strh	r2, [r3, #8]	@ movhi
 781 0334 CCE7     		b	.L98
 782              	.LVL56:
ARM GAS  /var/folders/28/j9jfyj_n4wz3qtvnym210h2c0000gn/T//cc7hJqmk.s 			page 15


 783              	.L102:
 784              	.LBE37:
 785              	.LBE38:
 786              		.loc 1 441 0
 787 0336 164A     		ldr	r2, .L104+28
 788 0338 136C     		ldr	r3, [r2, #64]
 789 033a 43F40033 		orr	r3, r3, #131072
 790 033e 1364     		str	r3, [r2, #64]
 791              		.loc 1 442 0
 792 0340 2620     		movs	r0, #38
 793              	.LVL57:
 794 0342 C021     		movs	r1, #192
 795 0344 FFF7FEFF 		bl	nvicEnableVector
 796              	.LVL58:
 797 0348 B3E7     		b	.L91
 798              	.LVL59:
 799              	.L103:
 800              		.loc 1 448 0
 801 034a 114A     		ldr	r2, .L104+28
 802 034c 136C     		ldr	r3, [r2, #64]
 803 034e 43F48023 		orr	r3, r3, #262144
 804 0352 1364     		str	r3, [r2, #64]
 805              		.loc 1 449 0
 806 0354 2720     		movs	r0, #39
 807              	.LVL60:
 808 0356 C021     		movs	r1, #192
 809 0358 FFF7FEFF 		bl	nvicEnableVector
 810              	.LVL61:
 811 035c A9E7     		b	.L91
 812              	.LVL62:
 813              	.L101:
 814              		.loc 1 434 0
 815 035e 0C4A     		ldr	r2, .L104+28
 816 0360 536C     		ldr	r3, [r2, #68]
 817 0362 43F01003 		orr	r3, r3, #16
 818 0366 5364     		str	r3, [r2, #68]
 819              		.loc 1 435 0
 820 0368 2520     		movs	r0, #37
 821              	.LVL63:
 822 036a C021     		movs	r1, #192
 823 036c FFF7FEFF 		bl	nvicEnableVector
 824              	.LVL64:
 825 0370 9FE7     		b	.L91
 826              	.L105:
 827 0372 00BF     		.align	2
 828              	.L104:
 829 0374 00000000 		.word	.LANCHOR0
 830 0378 00100140 		.word	1073811456
 831 037c 80DE8002 		.word	42000000
 832 0380 00000000 		.word	SD1
 833 0384 00000000 		.word	SD2
 834 0388 00000000 		.word	SD3
 835 038c 00000000 		.word	SD6
 836 0390 00380240 		.word	1073887232
 837 0394 00BD0105 		.word	84000000
 838              		.cfi_endproc
 839              	.LFE143:
ARM GAS  /var/folders/28/j9jfyj_n4wz3qtvnym210h2c0000gn/T//cc7hJqmk.s 			page 16


 840              		.size	sd_lld_start, .-sd_lld_start
 841              		.align	2
 842 0398 AFF30080 		.p2align 4,,15
 842      AFF30080 
 843              		.global	sd_lld_stop
 844              		.thumb
 845              		.thumb_func
 846              		.type	sd_lld_stop, %function
 847              	sd_lld_stop:
 848              	.LFB144:
 849              		.loc 1 487 0
 850              		.cfi_startproc
 851              		@ args = 0, pretend = 0, frame = 0
 852              		@ frame_needed = 0, uses_anonymous_args = 0
 853              		@ link register save eliminated.
 854              	.LVL65:
 855              		.loc 1 489 0
 856 03a0 037A     		ldrb	r3, [r0, #8]	@ zero_extendqisi2
 857 03a2 022B     		cmp	r3, #2
 858 03a4 00D0     		beq	.L113
 859              	.L106:
 860 03a6 7047     		bx	lr
 861              	.L113:
 862              		.loc 1 492 0
 863 03a8 1849     		ldr	r1, .L117
 864              		.loc 1 490 0
 865 03aa D0F89430 		ldr	r3, [r0, #148]
 866              	.LVL66:
 867              	.LBB39:
 868              	.LBB40:
 869              		.loc 1 124 0
 870 03ae 0022     		movs	r2, #0
 871              	.LBE40:
 872              	.LBE39:
 873              		.loc 1 492 0
 874 03b0 8842     		cmp	r0, r1
 875              	.LBB42:
 876              	.LBB41:
 877              		.loc 1 124 0
 878 03b2 9A81     		strh	r2, [r3, #12]	@ movhi
 879              		.loc 1 125 0
 880 03b4 1A82     		strh	r2, [r3, #16]	@ movhi
 881              		.loc 1 126 0
 882 03b6 9A82     		strh	r2, [r3, #20]	@ movhi
 883              	.LBE41:
 884              	.LBE42:
 885              		.loc 1 492 0
 886 03b8 10D0     		beq	.L114
 887              		.loc 1 499 0
 888 03ba 154B     		ldr	r3, .L117+4
 889              	.LVL67:
 890 03bc 9842     		cmp	r0, r3
 891 03be 15D0     		beq	.L115
 892              		.loc 1 506 0
 893 03c0 144B     		ldr	r3, .L117+8
 894 03c2 9842     		cmp	r0, r3
 895 03c4 1AD0     		beq	.L116
ARM GAS  /var/folders/28/j9jfyj_n4wz3qtvnym210h2c0000gn/T//cc7hJqmk.s 			page 17


 896              		.loc 1 527 0
 897 03c6 144B     		ldr	r3, .L117+12
 898 03c8 9842     		cmp	r0, r3
 899 03ca ECD1     		bne	.L106
 900              		.loc 1 528 0
 901 03cc 134A     		ldr	r2, .L117+16
 902 03ce 536C     		ldr	r3, [r2, #68]
 903 03d0 23F02003 		bic	r3, r3, #32
 904 03d4 5364     		str	r3, [r2, #68]
 905              		.loc 1 529 0
 906 03d6 4720     		movs	r0, #71
 907              	.LVL68:
 908 03d8 FFF7FEBF 		b	nvicDisableVector
 909              	.LVL69:
 910              	.L114:
 911              		.loc 1 493 0
 912 03dc 0F4A     		ldr	r2, .L117+16
 913 03de 536C     		ldr	r3, [r2, #68]
 914              	.LVL70:
 915 03e0 23F01003 		bic	r3, r3, #16
 916 03e4 5364     		str	r3, [r2, #68]
 917              		.loc 1 494 0
 918 03e6 2520     		movs	r0, #37
 919              	.LVL71:
 920 03e8 FFF7FEBF 		b	nvicDisableVector
 921              	.LVL72:
 922              	.L115:
 923              		.loc 1 500 0
 924 03ec 0B4A     		ldr	r2, .L117+16
 925 03ee 136C     		ldr	r3, [r2, #64]
 926 03f0 23F40033 		bic	r3, r3, #131072
 927 03f4 1364     		str	r3, [r2, #64]
 928              		.loc 1 501 0
 929 03f6 2620     		movs	r0, #38
 930              	.LVL73:
 931 03f8 FFF7FEBF 		b	nvicDisableVector
 932              	.LVL74:
 933              	.L116:
 934              		.loc 1 507 0
 935 03fc 074A     		ldr	r2, .L117+16
 936 03fe 136C     		ldr	r3, [r2, #64]
 937 0400 23F48023 		bic	r3, r3, #262144
 938 0404 1364     		str	r3, [r2, #64]
 939              		.loc 1 508 0
 940 0406 2720     		movs	r0, #39
 941              	.LVL75:
 942 0408 FFF7FEBF 		b	nvicDisableVector
 943              	.LVL76:
 944              	.L118:
 945              		.align	2
 946              	.L117:
 947 040c 00000000 		.word	SD1
 948 0410 00000000 		.word	SD2
 949 0414 00000000 		.word	SD3
 950 0418 00000000 		.word	SD6
 951 041c 00380240 		.word	1073887232
 952              		.cfi_endproc
ARM GAS  /var/folders/28/j9jfyj_n4wz3qtvnym210h2c0000gn/T//cc7hJqmk.s 			page 18


 953              	.LFE144:
 954              		.size	sd_lld_stop, .-sd_lld_stop
 955              		.comm	SD6,152,4
 956              		.comm	SD3,152,4
 957              		.comm	SD2,152,4
 958              		.comm	SD1,152,4
 959              		.section	.rodata
 960              		.align	2
 961              		.set	.LANCHOR0,. + 0
 962              		.type	default_config, %object
 963              		.size	default_config, 12
 964              	default_config:
 965 0000 00960000 		.word	38400
 966 0004 0000     		.short	0
 967 0006 0040     		.short	16384
 968 0008 0000     		.short	0
 969 000a 0000     		.space	2
 970              		.text
 971              	.Letext0:
 972              		.file 2 "/Applications/axoloti_runtime/platform_osx/lib/gcc/arm-none-eabi/4.9.3/include/stddef.h"
 973              		.file 3 "/Applications/axoloti_runtime/platform_osx/arm-none-eabi/include/machine/_default_types.h
 974              		.file 4 "/Applications/axoloti_runtime/platform_osx/arm-none-eabi/include/sys/_stdint.h"
 975              		.file 5 "/Applications/Axoloti.app/Contents/Java/chibios/os/ports/GCC/ARMCMx/chtypes.h"
 976              		.file 6 "/Applications/Axoloti.app/Contents/Java/chibios/os/kernel/include/chlists.h"
 977              		.file 7 "/Applications/Axoloti.app/Contents/Java/chibios/os/kernel/include/chthreads.h"
 978              		.file 8 "/Applications/Axoloti.app/Contents/Java/chibios/os/ports/GCC/ARMCMx/chcore_v7m.h"
 979              		.file 9 "/Applications/Axoloti.app/Contents/Java/chibios/os/kernel/include/chmtx.h"
 980              		.file 10 "/Applications/Axoloti.app/Contents/Java/chibios/os/kernel/include/chevents.h"
 981              		.file 11 "/Applications/Axoloti.app/Contents/Java/chibios/os/kernel/include/chqueues.h"
 982              		.file 12 "/Applications/Axoloti.app/Contents/Java/chibios/os/hal/platforms/STM32F4xx/stm32f4xx.h"
 983              		.file 13 "/Applications/Axoloti.app/Contents/Java/chibios/os/hal/include/serial.h"
 984              		.file 14 "/Applications/Axoloti.app/Contents/Java/chibios/os/hal/platforms/STM32/USARTv1/serial_ll
 985              		.file 15 "/Applications/Axoloti.app/Contents/Java/chibios/os/ports/common/ARMCMx/nvic.h"
 986              		.file 16 "/Applications/Axoloti.app/Contents/Java/CMSIS//Include/core_cm4.h"
 987              		.section	.debug_info,"",%progbits
 988              	.Ldebug_info0:
 989 0000 7B110000 		.4byte	0x117b
 990 0004 0400     		.2byte	0x4
 991 0006 00000000 		.4byte	.Ldebug_abbrev0
 992 000a 04       		.byte	0x4
 993 000b 01       		.uleb128 0x1
 994 000c 9C040000 		.4byte	.LASF152
 995 0010 01       		.byte	0x1
 996 0011 5F000000 		.4byte	.LASF153
 997 0015 ED060000 		.4byte	.LASF154
 998 0019 00000000 		.4byte	.Ltext0
 999 001d 20040000 		.4byte	.Letext0-.Ltext0
 1000 0021 00000000 		.4byte	.Ldebug_line0
 1001 0025 02       		.uleb128 0x2
 1002 0026 04       		.byte	0x4
 1003 0027 05       		.byte	0x5
 1004 0028 696E7400 		.ascii	"int\000"
 1005 002c 03       		.uleb128 0x3
 1006 002d 11000000 		.4byte	.LASF2
 1007 0031 02       		.byte	0x2
 1008 0032 D4       		.byte	0xd4
 1009 0033 37000000 		.4byte	0x37
ARM GAS  /var/folders/28/j9jfyj_n4wz3qtvnym210h2c0000gn/T//cc7hJqmk.s 			page 19


 1010 0037 04       		.uleb128 0x4
 1011 0038 04       		.byte	0x4
 1012 0039 07       		.byte	0x7
 1013 003a 03020000 		.4byte	.LASF0
 1014 003e 04       		.uleb128 0x4
 1015 003f 01       		.byte	0x1
 1016 0040 06       		.byte	0x6
 1017 0041 05010000 		.4byte	.LASF1
 1018 0045 03       		.uleb128 0x3
 1019 0046 2B000000 		.4byte	.LASF3
 1020 004a 03       		.byte	0x3
 1021 004b 1D       		.byte	0x1d
 1022 004c 50000000 		.4byte	0x50
 1023 0050 04       		.uleb128 0x4
 1024 0051 01       		.byte	0x1
 1025 0052 08       		.byte	0x8
 1026 0053 0D040000 		.4byte	.LASF4
 1027 0057 04       		.uleb128 0x4
 1028 0058 02       		.byte	0x2
 1029 0059 05       		.byte	0x5
 1030 005a 4F040000 		.4byte	.LASF5
 1031 005e 03       		.uleb128 0x3
 1032 005f 1F060000 		.4byte	.LASF6
 1033 0063 03       		.byte	0x3
 1034 0064 2B       		.byte	0x2b
 1035 0065 69000000 		.4byte	0x69
 1036 0069 04       		.uleb128 0x4
 1037 006a 02       		.byte	0x2
 1038 006b 07       		.byte	0x7
 1039 006c BD010000 		.4byte	.LASF7
 1040 0070 03       		.uleb128 0x3
 1041 0071 4F060000 		.4byte	.LASF8
 1042 0075 03       		.byte	0x3
 1043 0076 3F       		.byte	0x3f
 1044 0077 7B000000 		.4byte	0x7b
 1045 007b 04       		.uleb128 0x4
 1046 007c 04       		.byte	0x4
 1047 007d 05       		.byte	0x5
 1048 007e 61010000 		.4byte	.LASF9
 1049 0082 03       		.uleb128 0x3
 1050 0083 D0010000 		.4byte	.LASF10
 1051 0087 03       		.byte	0x3
 1052 0088 41       		.byte	0x41
 1053 0089 8D000000 		.4byte	0x8d
 1054 008d 04       		.uleb128 0x4
 1055 008e 04       		.byte	0x4
 1056 008f 07       		.byte	0x7
 1057 0090 EC050000 		.4byte	.LASF11
 1058 0094 04       		.uleb128 0x4
 1059 0095 08       		.byte	0x8
 1060 0096 05       		.byte	0x5
 1061 0097 F7000000 		.4byte	.LASF12
 1062 009b 04       		.uleb128 0x4
 1063 009c 08       		.byte	0x8
 1064 009d 07       		.byte	0x7
 1065 009e 3F000000 		.4byte	.LASF13
 1066 00a2 03       		.uleb128 0x3
ARM GAS  /var/folders/28/j9jfyj_n4wz3qtvnym210h2c0000gn/T//cc7hJqmk.s 			page 20


 1067 00a3 B6060000 		.4byte	.LASF14
 1068 00a7 04       		.byte	0x4
 1069 00a8 14       		.byte	0x14
 1070 00a9 45000000 		.4byte	0x45
 1071 00ad 03       		.uleb128 0x3
 1072 00ae 10020000 		.4byte	.LASF15
 1073 00b2 04       		.byte	0x4
 1074 00b3 1A       		.byte	0x1a
 1075 00b4 5E000000 		.4byte	0x5e
 1076 00b8 03       		.uleb128 0x3
 1077 00b9 05040000 		.4byte	.LASF16
 1078 00bd 04       		.byte	0x4
 1079 00be 1F       		.byte	0x1f
 1080 00bf 70000000 		.4byte	0x70
 1081 00c3 03       		.uleb128 0x3
 1082 00c4 C4050000 		.4byte	.LASF17
 1083 00c8 04       		.byte	0x4
 1084 00c9 20       		.byte	0x20
 1085 00ca 82000000 		.4byte	0x82
 1086 00ce 03       		.uleb128 0x3
 1087 00cf 27010000 		.4byte	.LASF18
 1088 00d3 05       		.byte	0x5
 1089 00d4 2B       		.byte	0x2b
 1090 00d5 D9000000 		.4byte	0xd9
 1091 00d9 04       		.uleb128 0x4
 1092 00da 01       		.byte	0x1
 1093 00db 02       		.byte	0x2
 1094 00dc FF030000 		.4byte	.LASF19
 1095 00e0 03       		.uleb128 0x3
 1096 00e1 9D020000 		.4byte	.LASF20
 1097 00e5 05       		.byte	0x5
 1098 00e6 2C       		.byte	0x2c
 1099 00e7 A2000000 		.4byte	0xa2
 1100 00eb 03       		.uleb128 0x3
 1101 00ec 7D010000 		.4byte	.LASF21
 1102 00f0 05       		.byte	0x5
 1103 00f1 2D       		.byte	0x2d
 1104 00f2 A2000000 		.4byte	0xa2
 1105 00f6 03       		.uleb128 0x3
 1106 00f7 36010000 		.4byte	.LASF22
 1107 00fb 05       		.byte	0x5
 1108 00fc 2F       		.byte	0x2f
 1109 00fd A2000000 		.4byte	0xa2
 1110 0101 03       		.uleb128 0x3
 1111 0102 EF030000 		.4byte	.LASF23
 1112 0106 05       		.byte	0x5
 1113 0107 30       		.byte	0x30
 1114 0108 C3000000 		.4byte	0xc3
 1115 010c 03       		.uleb128 0x3
 1116 010d 68020000 		.4byte	.LASF24
 1117 0111 05       		.byte	0x5
 1118 0112 31       		.byte	0x31
 1119 0113 B8000000 		.4byte	0xb8
 1120 0117 03       		.uleb128 0x3
 1121 0118 BB020000 		.4byte	.LASF25
 1122 011c 05       		.byte	0x5
 1123 011d 33       		.byte	0x33
ARM GAS  /var/folders/28/j9jfyj_n4wz3qtvnym210h2c0000gn/T//cc7hJqmk.s 			page 21


 1124 011e C3000000 		.4byte	0xc3
 1125 0122 03       		.uleb128 0x3
 1126 0123 81060000 		.4byte	.LASF26
 1127 0127 05       		.byte	0x5
 1128 0128 34       		.byte	0x34
 1129 0129 C3000000 		.4byte	0xc3
 1130 012d 03       		.uleb128 0x3
 1131 012e 3A060000 		.4byte	.LASF27
 1132 0132 05       		.byte	0x5
 1133 0133 35       		.byte	0x35
 1134 0134 C3000000 		.4byte	0xc3
 1135 0138 03       		.uleb128 0x3
 1136 0139 95040000 		.4byte	.LASF28
 1137 013d 06       		.byte	0x6
 1138 013e 2A       		.byte	0x2a
 1139 013f 43010000 		.4byte	0x143
 1140 0143 05       		.uleb128 0x5
 1141 0144 95040000 		.4byte	.LASF28
 1142 0148 40       		.byte	0x40
 1143 0149 07       		.byte	0x7
 1144 014a 5E       		.byte	0x5e
 1145 014b 1C020000 		.4byte	0x21c
 1146 014f 06       		.uleb128 0x6
 1147 0150 35030000 		.4byte	.LASF29
 1148 0154 07       		.byte	0x7
 1149 0155 5F       		.byte	0x5f
 1150 0156 3D020000 		.4byte	0x23d
 1151 015a 00       		.byte	0
 1152 015b 06       		.uleb128 0x6
 1153 015c DE030000 		.4byte	.LASF30
 1154 0160 07       		.byte	0x7
 1155 0161 61       		.byte	0x61
 1156 0162 3D020000 		.4byte	0x23d
 1157 0166 04       		.byte	0x4
 1158 0167 06       		.uleb128 0x6
 1159 0168 C9060000 		.4byte	.LASF31
 1160 016c 07       		.byte	0x7
 1161 016d 63       		.byte	0x63
 1162 016e 01010000 		.4byte	0x101
 1163 0172 08       		.byte	0x8
 1164 0173 06       		.uleb128 0x6
 1165 0174 60070000 		.4byte	.LASF32
 1166 0178 07       		.byte	0x7
 1167 0179 64       		.byte	0x64
 1168 017a C7030000 		.4byte	0x3c7
 1169 017e 0C       		.byte	0xc
 1170 017f 06       		.uleb128 0x6
 1171 0180 AD010000 		.4byte	.LASF33
 1172 0184 07       		.byte	0x7
 1173 0185 66       		.byte	0x66
 1174 0186 3D020000 		.4byte	0x23d
 1175 018a 10       		.byte	0x10
 1176 018b 06       		.uleb128 0x6
 1177 018c 44030000 		.4byte	.LASF34
 1178 0190 07       		.byte	0x7
 1179 0191 67       		.byte	0x67
 1180 0192 3D020000 		.4byte	0x23d
ARM GAS  /var/folders/28/j9jfyj_n4wz3qtvnym210h2c0000gn/T//cc7hJqmk.s 			page 22


 1181 0196 14       		.byte	0x14
 1182 0197 06       		.uleb128 0x6
 1183 0198 99060000 		.4byte	.LASF35
 1184 019c 07       		.byte	0x7
 1185 019d 6E       		.byte	0x6e
 1186 019e DD040000 		.4byte	0x4dd
 1187 01a2 18       		.byte	0x18
 1188 01a3 06       		.uleb128 0x6
 1189 01a4 3D040000 		.4byte	.LASF36
 1190 01a8 07       		.byte	0x7
 1191 01a9 79       		.byte	0x79
 1192 01aa EB000000 		.4byte	0xeb
 1193 01ae 1C       		.byte	0x1c
 1194 01af 06       		.uleb128 0x6
 1195 01b0 74040000 		.4byte	.LASF37
 1196 01b4 07       		.byte	0x7
 1197 01b5 7D       		.byte	0x7d
 1198 01b6 E0000000 		.4byte	0xe0
 1199 01ba 1D       		.byte	0x1d
 1200 01bb 06       		.uleb128 0x6
 1201 01bc 59040000 		.4byte	.LASF38
 1202 01c0 07       		.byte	0x7
 1203 01c1 88       		.byte	0x88
 1204 01c2 F6000000 		.4byte	0xf6
 1205 01c6 1E       		.byte	0x1e
 1206 01c7 07       		.uleb128 0x7
 1207 01c8 705F7500 		.ascii	"p_u\000"
 1208 01cc 07       		.byte	0x7
 1209 01cd B4       		.byte	0xb4
 1210 01ce A8040000 		.4byte	0x4a8
 1211 01d2 20       		.byte	0x20
 1212 01d3 06       		.uleb128 0x6
 1213 01d4 66070000 		.4byte	.LASF39
 1214 01d8 07       		.byte	0x7
 1215 01d9 B9       		.byte	0xb9
 1216 01da 63020000 		.4byte	0x263
 1217 01de 24       		.byte	0x24
 1218 01df 06       		.uleb128 0x6
 1219 01e0 29020000 		.4byte	.LASF40
 1220 01e4 07       		.byte	0x7
 1221 01e5 BF       		.byte	0xbf
 1222 01e6 43020000 		.4byte	0x243
 1223 01ea 28       		.byte	0x28
 1224 01eb 06       		.uleb128 0x6
 1225 01ec 35070000 		.4byte	.LASF41
 1226 01f0 07       		.byte	0x7
 1227 01f1 C3       		.byte	0xc3
 1228 01f2 0C010000 		.4byte	0x10c
 1229 01f6 30       		.byte	0x30
 1230 01f7 06       		.uleb128 0x6
 1231 01f8 A5050000 		.4byte	.LASF42
 1232 01fc 07       		.byte	0x7
 1233 01fd C9       		.byte	0xc9
 1234 01fe 17010000 		.4byte	0x117
 1235 0202 34       		.byte	0x34
 1236 0203 06       		.uleb128 0x6
 1237 0204 45040000 		.4byte	.LASF43
ARM GAS  /var/folders/28/j9jfyj_n4wz3qtvnym210h2c0000gn/T//cc7hJqmk.s 			page 23


 1238 0208 07       		.byte	0x7
 1239 0209 D0       		.byte	0xd0
 1240 020a EF040000 		.4byte	0x4ef
 1241 020e 38       		.byte	0x38
 1242 020f 06       		.uleb128 0x6
 1243 0210 44060000 		.4byte	.LASF44
 1244 0214 07       		.byte	0x7
 1245 0215 D4       		.byte	0xd4
 1246 0216 01010000 		.4byte	0x101
 1247 021a 3C       		.byte	0x3c
 1248 021b 00       		.byte	0
 1249 021c 08       		.uleb128 0x8
 1250 021d 08       		.byte	0x8
 1251 021e 06       		.byte	0x6
 1252 021f 61       		.byte	0x61
 1253 0220 3D020000 		.4byte	0x23d
 1254 0224 06       		.uleb128 0x6
 1255 0225 35030000 		.4byte	.LASF29
 1256 0229 06       		.byte	0x6
 1257 022a 62       		.byte	0x62
 1258 022b 3D020000 		.4byte	0x23d
 1259 022f 00       		.byte	0
 1260 0230 06       		.uleb128 0x6
 1261 0231 DE030000 		.4byte	.LASF30
 1262 0235 06       		.byte	0x6
 1263 0236 64       		.byte	0x64
 1264 0237 3D020000 		.4byte	0x23d
 1265 023b 04       		.byte	0x4
 1266 023c 00       		.byte	0
 1267 023d 09       		.uleb128 0x9
 1268 023e 04       		.byte	0x4
 1269 023f 38010000 		.4byte	0x138
 1270 0243 03       		.uleb128 0x3
 1271 0244 4C030000 		.4byte	.LASF45
 1272 0248 06       		.byte	0x6
 1273 0249 66       		.byte	0x66
 1274 024a 1C020000 		.4byte	0x21c
 1275 024e 08       		.uleb128 0x8
 1276 024f 04       		.byte	0x4
 1277 0250 06       		.byte	0x6
 1278 0251 6B       		.byte	0x6b
 1279 0252 63020000 		.4byte	0x263
 1280 0256 06       		.uleb128 0x6
 1281 0257 35030000 		.4byte	.LASF29
 1282 025b 06       		.byte	0x6
 1283 025c 6D       		.byte	0x6d
 1284 025d 3D020000 		.4byte	0x23d
 1285 0261 00       		.byte	0
 1286 0262 00       		.byte	0
 1287 0263 03       		.uleb128 0x3
 1288 0264 AF020000 		.4byte	.LASF46
 1289 0268 06       		.byte	0x6
 1290 0269 70       		.byte	0x70
 1291 026a 4E020000 		.4byte	0x24e
 1292 026e 03       		.uleb128 0x3
 1293 026f DB010000 		.4byte	.LASF47
 1294 0273 08       		.byte	0x8
ARM GAS  /var/folders/28/j9jfyj_n4wz3qtvnym210h2c0000gn/T//cc7hJqmk.s 			page 24


 1295 0274 E5       		.byte	0xe5
 1296 0275 79020000 		.4byte	0x279
 1297 0279 0A       		.uleb128 0xa
 1298 027a 04       		.byte	0x4
 1299 027b 0B       		.uleb128 0xb
 1300 027c 71060000 		.4byte	.LASF48
 1301 0280 64       		.byte	0x64
 1302 0281 08       		.byte	0x8
 1303 0282 0C01     		.2byte	0x10c
 1304 0284 C7030000 		.4byte	0x3c7
 1305 0288 0C       		.uleb128 0xc
 1306 0289 73313600 		.ascii	"s16\000"
 1307 028d 08       		.byte	0x8
 1308 028e 0E01     		.2byte	0x10e
 1309 0290 6E020000 		.4byte	0x26e
 1310 0294 00       		.byte	0
 1311 0295 0C       		.uleb128 0xc
 1312 0296 73313700 		.ascii	"s17\000"
 1313 029a 08       		.byte	0x8
 1314 029b 0F01     		.2byte	0x10f
 1315 029d 6E020000 		.4byte	0x26e
 1316 02a1 04       		.byte	0x4
 1317 02a2 0C       		.uleb128 0xc
 1318 02a3 73313800 		.ascii	"s18\000"
 1319 02a7 08       		.byte	0x8
 1320 02a8 1001     		.2byte	0x110
 1321 02aa 6E020000 		.4byte	0x26e
 1322 02ae 08       		.byte	0x8
 1323 02af 0C       		.uleb128 0xc
 1324 02b0 73313900 		.ascii	"s19\000"
 1325 02b4 08       		.byte	0x8
 1326 02b5 1101     		.2byte	0x111
 1327 02b7 6E020000 		.4byte	0x26e
 1328 02bb 0C       		.byte	0xc
 1329 02bc 0C       		.uleb128 0xc
 1330 02bd 73323000 		.ascii	"s20\000"
 1331 02c1 08       		.byte	0x8
 1332 02c2 1201     		.2byte	0x112
 1333 02c4 6E020000 		.4byte	0x26e
 1334 02c8 10       		.byte	0x10
 1335 02c9 0C       		.uleb128 0xc
 1336 02ca 73323100 		.ascii	"s21\000"
 1337 02ce 08       		.byte	0x8
 1338 02cf 1301     		.2byte	0x113
 1339 02d1 6E020000 		.4byte	0x26e
 1340 02d5 14       		.byte	0x14
 1341 02d6 0C       		.uleb128 0xc
 1342 02d7 73323200 		.ascii	"s22\000"
 1343 02db 08       		.byte	0x8
 1344 02dc 1401     		.2byte	0x114
 1345 02de 6E020000 		.4byte	0x26e
 1346 02e2 18       		.byte	0x18
 1347 02e3 0C       		.uleb128 0xc
 1348 02e4 73323300 		.ascii	"s23\000"
 1349 02e8 08       		.byte	0x8
 1350 02e9 1501     		.2byte	0x115
 1351 02eb 6E020000 		.4byte	0x26e
ARM GAS  /var/folders/28/j9jfyj_n4wz3qtvnym210h2c0000gn/T//cc7hJqmk.s 			page 25


 1352 02ef 1C       		.byte	0x1c
 1353 02f0 0C       		.uleb128 0xc
 1354 02f1 73323400 		.ascii	"s24\000"
 1355 02f5 08       		.byte	0x8
 1356 02f6 1601     		.2byte	0x116
 1357 02f8 6E020000 		.4byte	0x26e
 1358 02fc 20       		.byte	0x20
 1359 02fd 0C       		.uleb128 0xc
 1360 02fe 73323500 		.ascii	"s25\000"
 1361 0302 08       		.byte	0x8
 1362 0303 1701     		.2byte	0x117
 1363 0305 6E020000 		.4byte	0x26e
 1364 0309 24       		.byte	0x24
 1365 030a 0C       		.uleb128 0xc
 1366 030b 73323600 		.ascii	"s26\000"
 1367 030f 08       		.byte	0x8
 1368 0310 1801     		.2byte	0x118
 1369 0312 6E020000 		.4byte	0x26e
 1370 0316 28       		.byte	0x28
 1371 0317 0C       		.uleb128 0xc
 1372 0318 73323700 		.ascii	"s27\000"
 1373 031c 08       		.byte	0x8
 1374 031d 1901     		.2byte	0x119
 1375 031f 6E020000 		.4byte	0x26e
 1376 0323 2C       		.byte	0x2c
 1377 0324 0C       		.uleb128 0xc
 1378 0325 73323800 		.ascii	"s28\000"
 1379 0329 08       		.byte	0x8
 1380 032a 1A01     		.2byte	0x11a
 1381 032c 6E020000 		.4byte	0x26e
 1382 0330 30       		.byte	0x30
 1383 0331 0C       		.uleb128 0xc
 1384 0332 73323900 		.ascii	"s29\000"
 1385 0336 08       		.byte	0x8
 1386 0337 1B01     		.2byte	0x11b
 1387 0339 6E020000 		.4byte	0x26e
 1388 033d 34       		.byte	0x34
 1389 033e 0C       		.uleb128 0xc
 1390 033f 73333000 		.ascii	"s30\000"
 1391 0343 08       		.byte	0x8
 1392 0344 1C01     		.2byte	0x11c
 1393 0346 6E020000 		.4byte	0x26e
 1394 034a 38       		.byte	0x38
 1395 034b 0C       		.uleb128 0xc
 1396 034c 73333100 		.ascii	"s31\000"
 1397 0350 08       		.byte	0x8
 1398 0351 1D01     		.2byte	0x11d
 1399 0353 6E020000 		.4byte	0x26e
 1400 0357 3C       		.byte	0x3c
 1401 0358 0C       		.uleb128 0xc
 1402 0359 723400   		.ascii	"r4\000"
 1403 035c 08       		.byte	0x8
 1404 035d 1F01     		.2byte	0x11f
 1405 035f 6E020000 		.4byte	0x26e
 1406 0363 40       		.byte	0x40
 1407 0364 0C       		.uleb128 0xc
 1408 0365 723500   		.ascii	"r5\000"
ARM GAS  /var/folders/28/j9jfyj_n4wz3qtvnym210h2c0000gn/T//cc7hJqmk.s 			page 26


 1409 0368 08       		.byte	0x8
 1410 0369 2001     		.2byte	0x120
 1411 036b 6E020000 		.4byte	0x26e
 1412 036f 44       		.byte	0x44
 1413 0370 0C       		.uleb128 0xc
 1414 0371 723600   		.ascii	"r6\000"
 1415 0374 08       		.byte	0x8
 1416 0375 2101     		.2byte	0x121
 1417 0377 6E020000 		.4byte	0x26e
 1418 037b 48       		.byte	0x48
 1419 037c 0C       		.uleb128 0xc
 1420 037d 723700   		.ascii	"r7\000"
 1421 0380 08       		.byte	0x8
 1422 0381 2201     		.2byte	0x122
 1423 0383 6E020000 		.4byte	0x26e
 1424 0387 4C       		.byte	0x4c
 1425 0388 0C       		.uleb128 0xc
 1426 0389 723800   		.ascii	"r8\000"
 1427 038c 08       		.byte	0x8
 1428 038d 2301     		.2byte	0x123
 1429 038f 6E020000 		.4byte	0x26e
 1430 0393 50       		.byte	0x50
 1431 0394 0C       		.uleb128 0xc
 1432 0395 723900   		.ascii	"r9\000"
 1433 0398 08       		.byte	0x8
 1434 0399 2401     		.2byte	0x124
 1435 039b 6E020000 		.4byte	0x26e
 1436 039f 54       		.byte	0x54
 1437 03a0 0C       		.uleb128 0xc
 1438 03a1 72313000 		.ascii	"r10\000"
 1439 03a5 08       		.byte	0x8
 1440 03a6 2501     		.2byte	0x125
 1441 03a8 6E020000 		.4byte	0x26e
 1442 03ac 58       		.byte	0x58
 1443 03ad 0C       		.uleb128 0xc
 1444 03ae 72313100 		.ascii	"r11\000"
 1445 03b2 08       		.byte	0x8
 1446 03b3 2601     		.2byte	0x126
 1447 03b5 6E020000 		.4byte	0x26e
 1448 03b9 5C       		.byte	0x5c
 1449 03ba 0C       		.uleb128 0xc
 1450 03bb 6C7200   		.ascii	"lr\000"
 1451 03be 08       		.byte	0x8
 1452 03bf 2701     		.2byte	0x127
 1453 03c1 6E020000 		.4byte	0x26e
 1454 03c5 60       		.byte	0x60
 1455 03c6 00       		.byte	0
 1456 03c7 0B       		.uleb128 0xb
 1457 03c8 69060000 		.4byte	.LASF49
 1458 03cc 04       		.byte	0x4
 1459 03cd 08       		.byte	0x8
 1460 03ce 3101     		.2byte	0x131
 1461 03d0 E2030000 		.4byte	0x3e2
 1462 03d4 0C       		.uleb128 0xc
 1463 03d5 72313300 		.ascii	"r13\000"
 1464 03d9 08       		.byte	0x8
 1465 03da 3201     		.2byte	0x132
ARM GAS  /var/folders/28/j9jfyj_n4wz3qtvnym210h2c0000gn/T//cc7hJqmk.s 			page 27


 1466 03dc E2030000 		.4byte	0x3e2
 1467 03e0 00       		.byte	0
 1468 03e1 00       		.byte	0
 1469 03e2 09       		.uleb128 0x9
 1470 03e3 04       		.byte	0x4
 1471 03e4 7B020000 		.4byte	0x27b
 1472 03e8 0D       		.uleb128 0xd
 1473 03e9 C3000000 		.4byte	0xc3
 1474 03ed 04       		.uleb128 0x4
 1475 03ee 04       		.byte	0x4
 1476 03ef 07       		.byte	0x7
 1477 03f0 15030000 		.4byte	.LASF50
 1478 03f4 05       		.uleb128 0x5
 1479 03f5 28030000 		.4byte	.LASF51
 1480 03f9 10       		.byte	0x10
 1481 03fa 09       		.byte	0x9
 1482 03fb 2C       		.byte	0x2c
 1483 03fc 25040000 		.4byte	0x425
 1484 0400 06       		.uleb128 0x6
 1485 0401 2E010000 		.4byte	.LASF52
 1486 0405 09       		.byte	0x9
 1487 0406 2D       		.byte	0x2d
 1488 0407 43020000 		.4byte	0x243
 1489 040b 00       		.byte	0
 1490 040c 06       		.uleb128 0x6
 1491 040d 4E070000 		.4byte	.LASF53
 1492 0411 09       		.byte	0x9
 1493 0412 2F       		.byte	0x2f
 1494 0413 3D020000 		.4byte	0x23d
 1495 0417 08       		.byte	0x8
 1496 0418 06       		.uleb128 0x6
 1497 0419 33060000 		.4byte	.LASF54
 1498 041d 09       		.byte	0x9
 1499 041e 31       		.byte	0x31
 1500 041f 25040000 		.4byte	0x425
 1501 0423 0C       		.byte	0xc
 1502 0424 00       		.byte	0
 1503 0425 09       		.uleb128 0x9
 1504 0426 04       		.byte	0x4
 1505 0427 F4030000 		.4byte	0x3f4
 1506 042b 03       		.uleb128 0x3
 1507 042c 28030000 		.4byte	.LASF51
 1508 0430 09       		.byte	0x9
 1509 0431 33       		.byte	0x33
 1510 0432 F4030000 		.4byte	0x3f4
 1511 0436 03       		.uleb128 0x3
 1512 0437 D0060000 		.4byte	.LASF55
 1513 043b 0A       		.byte	0xa
 1514 043c 2C       		.byte	0x2c
 1515 043d 41040000 		.4byte	0x441
 1516 0441 05       		.uleb128 0x5
 1517 0442 D0060000 		.4byte	.LASF55
 1518 0446 10       		.byte	0x10
 1519 0447 0A       		.byte	0xa
 1520 0448 31       		.byte	0x31
 1521 0449 7E040000 		.4byte	0x47e
 1522 044d 06       		.uleb128 0x6
ARM GAS  /var/folders/28/j9jfyj_n4wz3qtvnym210h2c0000gn/T//cc7hJqmk.s 			page 28


 1523 044e 7C040000 		.4byte	.LASF56
 1524 0452 0A       		.byte	0xa
 1525 0453 32       		.byte	0x32
 1526 0454 7E040000 		.4byte	0x47e
 1527 0458 00       		.byte	0
 1528 0459 06       		.uleb128 0x6
 1529 045a 28040000 		.4byte	.LASF57
 1530 045e 0A       		.byte	0xa
 1531 045f 35       		.byte	0x35
 1532 0460 3D020000 		.4byte	0x23d
 1533 0464 04       		.byte	0x4
 1534 0465 06       		.uleb128 0x6
 1535 0466 6C030000 		.4byte	.LASF58
 1536 046a 0A       		.byte	0xa
 1537 046b 37       		.byte	0x37
 1538 046c 17010000 		.4byte	0x117
 1539 0470 08       		.byte	0x8
 1540 0471 06       		.uleb128 0x6
 1541 0472 34040000 		.4byte	.LASF59
 1542 0476 0A       		.byte	0xa
 1543 0477 3A       		.byte	0x3a
 1544 0478 22010000 		.4byte	0x122
 1545 047c 0C       		.byte	0xc
 1546 047d 00       		.byte	0
 1547 047e 09       		.uleb128 0x9
 1548 047f 04       		.byte	0x4
 1549 0480 36040000 		.4byte	0x436
 1550 0484 05       		.uleb128 0x5
 1551 0485 F1010000 		.4byte	.LASF60
 1552 0489 04       		.byte	0x4
 1553 048a 0A       		.byte	0xa
 1554 048b 41       		.byte	0x41
 1555 048c 9D040000 		.4byte	0x49d
 1556 0490 06       		.uleb128 0x6
 1557 0491 A0060000 		.4byte	.LASF61
 1558 0495 0A       		.byte	0xa
 1559 0496 42       		.byte	0x42
 1560 0497 7E040000 		.4byte	0x47e
 1561 049b 00       		.byte	0
 1562 049c 00       		.byte	0
 1563 049d 03       		.uleb128 0x3
 1564 049e F1010000 		.4byte	.LASF60
 1565 04a2 0A       		.byte	0xa
 1566 04a3 45       		.byte	0x45
 1567 04a4 84040000 		.4byte	0x484
 1568 04a8 0E       		.uleb128 0xe
 1569 04a9 04       		.byte	0x4
 1570 04aa 07       		.byte	0x7
 1571 04ab 96       		.byte	0x96
 1572 04ac DD040000 		.4byte	0x4dd
 1573 04b0 0F       		.uleb128 0xf
 1574 04b1 18000000 		.4byte	.LASF62
 1575 04b5 07       		.byte	0x7
 1576 04b6 9D       		.byte	0x9d
 1577 04b7 0C010000 		.4byte	0x10c
 1578 04bb 0F       		.uleb128 0xf
 1579 04bc 56000000 		.4byte	.LASF63
ARM GAS  /var/folders/28/j9jfyj_n4wz3qtvnym210h2c0000gn/T//cc7hJqmk.s 			page 29


 1580 04c0 07       		.byte	0x7
 1581 04c1 A4       		.byte	0xa4
 1582 04c2 0C010000 		.4byte	0x10c
 1583 04c6 0F       		.uleb128 0xf
 1584 04c7 DE060000 		.4byte	.LASF64
 1585 04cb 07       		.byte	0x7
 1586 04cc AB       		.byte	0xab
 1587 04cd 79020000 		.4byte	0x279
 1588 04d1 0F       		.uleb128 0xf
 1589 04d2 6D040000 		.4byte	.LASF65
 1590 04d6 07       		.byte	0x7
 1591 04d7 B2       		.byte	0xb2
 1592 04d8 17010000 		.4byte	0x117
 1593 04dc 00       		.byte	0
 1594 04dd 09       		.uleb128 0x9
 1595 04de 04       		.byte	0x4
 1596 04df E3040000 		.4byte	0x4e3
 1597 04e3 10       		.uleb128 0x10
 1598 04e4 E8040000 		.4byte	0x4e8
 1599 04e8 04       		.uleb128 0x4
 1600 04e9 01       		.byte	0x1
 1601 04ea 08       		.byte	0x8
 1602 04eb 03060000 		.4byte	.LASF66
 1603 04ef 09       		.uleb128 0x9
 1604 04f0 04       		.byte	0x4
 1605 04f1 2B040000 		.4byte	0x42b
 1606 04f5 09       		.uleb128 0x9
 1607 04f6 04       		.byte	0x4
 1608 04f7 FB040000 		.4byte	0x4fb
 1609 04fb 11       		.uleb128 0x11
 1610 04fc 0C010000 		.4byte	0x10c
 1611 0500 0A050000 		.4byte	0x50a
 1612 0504 12       		.uleb128 0x12
 1613 0505 79020000 		.4byte	0x279
 1614 0509 00       		.byte	0
 1615 050a 03       		.uleb128 0x3
 1616 050b E9020000 		.4byte	.LASF67
 1617 050f 0B       		.byte	0xb
 1618 0510 37       		.byte	0x37
 1619 0511 15050000 		.4byte	0x515
 1620 0515 05       		.uleb128 0x5
 1621 0516 E9020000 		.4byte	.LASF67
 1622 051a 24       		.byte	0x24
 1623 051b 0B       		.byte	0xb
 1624 051c 45       		.byte	0x45
 1625 051d 82050000 		.4byte	0x582
 1626 0521 06       		.uleb128 0x6
 1627 0522 E5000000 		.4byte	.LASF68
 1628 0526 0B       		.byte	0xb
 1629 0527 46       		.byte	0x46
 1630 0528 43020000 		.4byte	0x243
 1631 052c 00       		.byte	0
 1632 052d 06       		.uleb128 0x6
 1633 052e 1E030000 		.4byte	.LASF69
 1634 0532 0B       		.byte	0xb
 1635 0533 47       		.byte	0x47
 1636 0534 2C000000 		.4byte	0x2c
ARM GAS  /var/folders/28/j9jfyj_n4wz3qtvnym210h2c0000gn/T//cc7hJqmk.s 			page 30


 1637 0538 08       		.byte	0x8
 1638 0539 06       		.uleb128 0x6
 1639 053a 8F010000 		.4byte	.LASF70
 1640 053e 0B       		.byte	0xb
 1641 053f 48       		.byte	0x48
 1642 0540 A4050000 		.4byte	0x5a4
 1643 0544 0C       		.byte	0xc
 1644 0545 06       		.uleb128 0x6
 1645 0546 93060000 		.4byte	.LASF71
 1646 054a 0B       		.byte	0xb
 1647 054b 49       		.byte	0x49
 1648 054c A4050000 		.4byte	0x5a4
 1649 0550 10       		.byte	0x10
 1650 0551 06       		.uleb128 0x6
 1651 0552 55020000 		.4byte	.LASF72
 1652 0556 0B       		.byte	0xb
 1653 0557 4B       		.byte	0x4b
 1654 0558 A4050000 		.4byte	0x5a4
 1655 055c 14       		.byte	0x14
 1656 055d 06       		.uleb128 0x6
 1657 055e F7030000 		.4byte	.LASF73
 1658 0562 0B       		.byte	0xb
 1659 0563 4C       		.byte	0x4c
 1660 0564 A4050000 		.4byte	0x5a4
 1661 0568 18       		.byte	0x18
 1662 0569 06       		.uleb128 0x6
 1663 056a AD060000 		.4byte	.LASF74
 1664 056e 0B       		.byte	0xb
 1665 056f 4D       		.byte	0x4d
 1666 0570 82050000 		.4byte	0x582
 1667 0574 1C       		.byte	0x1c
 1668 0575 06       		.uleb128 0x6
 1669 0576 47070000 		.4byte	.LASF75
 1670 057a 0B       		.byte	0xb
 1671 057b 4E       		.byte	0x4e
 1672 057c 79020000 		.4byte	0x279
 1673 0580 20       		.byte	0x20
 1674 0581 00       		.byte	0
 1675 0582 03       		.uleb128 0x3
 1676 0583 DF020000 		.4byte	.LASF76
 1677 0587 0B       		.byte	0xb
 1678 0588 3A       		.byte	0x3a
 1679 0589 8D050000 		.4byte	0x58d
 1680 058d 09       		.uleb128 0x9
 1681 058e 04       		.byte	0x4
 1682 058f 93050000 		.4byte	0x593
 1683 0593 13       		.uleb128 0x13
 1684 0594 9E050000 		.4byte	0x59e
 1685 0598 12       		.uleb128 0x12
 1686 0599 9E050000 		.4byte	0x59e
 1687 059d 00       		.byte	0
 1688 059e 09       		.uleb128 0x9
 1689 059f 04       		.byte	0x4
 1690 05a0 0A050000 		.4byte	0x50a
 1691 05a4 09       		.uleb128 0x9
 1692 05a5 04       		.byte	0x4
 1693 05a6 A2000000 		.4byte	0xa2
ARM GAS  /var/folders/28/j9jfyj_n4wz3qtvnym210h2c0000gn/T//cc7hJqmk.s 			page 31


 1694 05aa 03       		.uleb128 0x3
 1695 05ab BE060000 		.4byte	.LASF77
 1696 05af 0B       		.byte	0xb
 1697 05b0 82       		.byte	0x82
 1698 05b1 0A050000 		.4byte	0x50a
 1699 05b5 03       		.uleb128 0x3
 1700 05b6 1F000000 		.4byte	.LASF78
 1701 05ba 0B       		.byte	0xb
 1702 05bb F5       		.byte	0xf5
 1703 05bc 0A050000 		.4byte	0x50a
 1704 05c0 11       		.uleb128 0x11
 1705 05c1 2C000000 		.4byte	0x2c
 1706 05c5 D9050000 		.4byte	0x5d9
 1707 05c9 12       		.uleb128 0x12
 1708 05ca 79020000 		.4byte	0x279
 1709 05ce 12       		.uleb128 0x12
 1710 05cf D9050000 		.4byte	0x5d9
 1711 05d3 12       		.uleb128 0x12
 1712 05d4 2C000000 		.4byte	0x2c
 1713 05d8 00       		.byte	0
 1714 05d9 09       		.uleb128 0x9
 1715 05da 04       		.byte	0x4
 1716 05db DF050000 		.4byte	0x5df
 1717 05df 10       		.uleb128 0x10
 1718 05e0 A2000000 		.4byte	0xa2
 1719 05e4 09       		.uleb128 0x9
 1720 05e5 04       		.byte	0x4
 1721 05e6 C0050000 		.4byte	0x5c0
 1722 05ea 11       		.uleb128 0x11
 1723 05eb 2C000000 		.4byte	0x2c
 1724 05ef 03060000 		.4byte	0x603
 1725 05f3 12       		.uleb128 0x12
 1726 05f4 79020000 		.4byte	0x279
 1727 05f8 12       		.uleb128 0x12
 1728 05f9 A4050000 		.4byte	0x5a4
 1729 05fd 12       		.uleb128 0x12
 1730 05fe 2C000000 		.4byte	0x2c
 1731 0602 00       		.byte	0
 1732 0603 09       		.uleb128 0x9
 1733 0604 04       		.byte	0x4
 1734 0605 EA050000 		.4byte	0x5ea
 1735 0609 11       		.uleb128 0x11
 1736 060a 0C010000 		.4byte	0x10c
 1737 060e 1D060000 		.4byte	0x61d
 1738 0612 12       		.uleb128 0x12
 1739 0613 79020000 		.4byte	0x279
 1740 0617 12       		.uleb128 0x12
 1741 0618 A2000000 		.4byte	0xa2
 1742 061c 00       		.byte	0
 1743 061d 09       		.uleb128 0x9
 1744 061e 04       		.byte	0x4
 1745 061f 09060000 		.4byte	0x609
 1746 0623 14       		.uleb128 0x14
 1747 0624 C3000000 		.4byte	0xc3
 1748 0628 33060000 		.4byte	0x633
 1749 062c 15       		.uleb128 0x15
 1750 062d ED030000 		.4byte	0x3ed
ARM GAS  /var/folders/28/j9jfyj_n4wz3qtvnym210h2c0000gn/T//cc7hJqmk.s 			page 32


 1751 0631 01       		.byte	0x1
 1752 0632 00       		.byte	0
 1753 0633 0D       		.uleb128 0xd
 1754 0634 AD000000 		.4byte	0xad
 1755 0638 0D       		.uleb128 0xd
 1756 0639 B8000000 		.4byte	0xb8
 1757 063d 16       		.uleb128 0x16
 1758 063e 90       		.byte	0x90
 1759 063f 0C       		.byte	0xc
 1760 0640 5804     		.2byte	0x458
 1761 0642 E6070000 		.4byte	0x7e6
 1762 0646 0C       		.uleb128 0xc
 1763 0647 435200   		.ascii	"CR\000"
 1764 064a 0C       		.byte	0xc
 1765 064b 5A04     		.2byte	0x45a
 1766 064d E8030000 		.4byte	0x3e8
 1767 0651 00       		.byte	0
 1768 0652 17       		.uleb128 0x17
 1769 0653 B5010000 		.4byte	.LASF79
 1770 0657 0C       		.byte	0xc
 1771 0658 5B04     		.2byte	0x45b
 1772 065a E8030000 		.4byte	0x3e8
 1773 065e 04       		.byte	0x4
 1774 065f 17       		.uleb128 0x17
 1775 0660 30070000 		.4byte	.LASF80
 1776 0664 0C       		.byte	0xc
 1777 0665 5C04     		.2byte	0x45c
 1778 0667 E8030000 		.4byte	0x3e8
 1779 066b 08       		.byte	0x8
 1780 066c 0C       		.uleb128 0xc
 1781 066d 43495200 		.ascii	"CIR\000"
 1782 0671 0C       		.byte	0xc
 1783 0672 5D04     		.2byte	0x45d
 1784 0674 E8030000 		.4byte	0x3e8
 1785 0678 0C       		.byte	0xc
 1786 0679 17       		.uleb128 0x17
 1787 067a 11010000 		.4byte	.LASF81
 1788 067e 0C       		.byte	0xc
 1789 067f 5E04     		.2byte	0x45e
 1790 0681 E8030000 		.4byte	0x3e8
 1791 0685 10       		.byte	0x10
 1792 0686 17       		.uleb128 0x17
 1793 0687 2A060000 		.4byte	.LASF82
 1794 068b 0C       		.byte	0xc
 1795 068c 5F04     		.2byte	0x45f
 1796 068e E8030000 		.4byte	0x3e8
 1797 0692 14       		.byte	0x14
 1798 0693 17       		.uleb128 0x17
 1799 0694 8C040000 		.4byte	.LASF83
 1800 0698 0C       		.byte	0xc
 1801 0699 6004     		.2byte	0x460
 1802 069b E8030000 		.4byte	0x3e8
 1803 069f 18       		.byte	0x18
 1804 06a0 17       		.uleb128 0x17
 1805 06a1 AC030000 		.4byte	.LASF84
 1806 06a5 0C       		.byte	0xc
 1807 06a6 6104     		.2byte	0x461
ARM GAS  /var/folders/28/j9jfyj_n4wz3qtvnym210h2c0000gn/T//cc7hJqmk.s 			page 33


 1808 06a8 C3000000 		.4byte	0xc3
 1809 06ac 1C       		.byte	0x1c
 1810 06ad 17       		.uleb128 0x17
 1811 06ae 63030000 		.4byte	.LASF85
 1812 06b2 0C       		.byte	0xc
 1813 06b3 6204     		.2byte	0x462
 1814 06b5 E8030000 		.4byte	0x3e8
 1815 06b9 20       		.byte	0x20
 1816 06ba 17       		.uleb128 0x17
 1817 06bb 6A010000 		.4byte	.LASF86
 1818 06bf 0C       		.byte	0xc
 1819 06c0 6304     		.2byte	0x463
 1820 06c2 E8030000 		.4byte	0x3e8
 1821 06c6 24       		.byte	0x24
 1822 06c7 17       		.uleb128 0x17
 1823 06c8 B6030000 		.4byte	.LASF87
 1824 06cc 0C       		.byte	0xc
 1825 06cd 6404     		.2byte	0x464
 1826 06cf 23060000 		.4byte	0x623
 1827 06d3 28       		.byte	0x28
 1828 06d4 17       		.uleb128 0x17
 1829 06d5 E5060000 		.4byte	.LASF88
 1830 06d9 0C       		.byte	0xc
 1831 06da 6504     		.2byte	0x465
 1832 06dc E8030000 		.4byte	0x3e8
 1833 06e0 30       		.byte	0x30
 1834 06e1 17       		.uleb128 0x17
 1835 06e2 61060000 		.4byte	.LASF89
 1836 06e6 0C       		.byte	0xc
 1837 06e7 6604     		.2byte	0x466
 1838 06e9 E8030000 		.4byte	0x3e8
 1839 06ed 34       		.byte	0x34
 1840 06ee 17       		.uleb128 0x17
 1841 06ef 3C030000 		.4byte	.LASF90
 1842 06f3 0C       		.byte	0xc
 1843 06f4 6704     		.2byte	0x467
 1844 06f6 E8030000 		.4byte	0x3e8
 1845 06fa 38       		.byte	0x38
 1846 06fb 17       		.uleb128 0x17
 1847 06fc C0030000 		.4byte	.LASF91
 1848 0700 0C       		.byte	0xc
 1849 0701 6804     		.2byte	0x468
 1850 0703 C3000000 		.4byte	0xc3
 1851 0707 3C       		.byte	0x3c
 1852 0708 17       		.uleb128 0x17
 1853 0709 59060000 		.4byte	.LASF92
 1854 070d 0C       		.byte	0xc
 1855 070e 6904     		.2byte	0x469
 1856 0710 E8030000 		.4byte	0x3e8
 1857 0714 40       		.byte	0x40
 1858 0715 17       		.uleb128 0x17
 1859 0716 84040000 		.4byte	.LASF93
 1860 071a 0C       		.byte	0xc
 1861 071b 6A04     		.2byte	0x46a
 1862 071d E8030000 		.4byte	0x3e8
 1863 0721 44       		.byte	0x44
 1864 0722 17       		.uleb128 0x17
ARM GAS  /var/folders/28/j9jfyj_n4wz3qtvnym210h2c0000gn/T//cc7hJqmk.s 			page 34


 1865 0723 CA030000 		.4byte	.LASF94
 1866 0727 0C       		.byte	0xc
 1867 0728 6B04     		.2byte	0x46b
 1868 072a 23060000 		.4byte	0x623
 1869 072e 48       		.byte	0x48
 1870 072f 17       		.uleb128 0x17
 1871 0730 C8000000 		.4byte	.LASF95
 1872 0734 0C       		.byte	0xc
 1873 0735 6C04     		.2byte	0x46c
 1874 0737 E8030000 		.4byte	0x3e8
 1875 073b 50       		.byte	0x50
 1876 073c 17       		.uleb128 0x17
 1877 073d 59030000 		.4byte	.LASF96
 1878 0741 0C       		.byte	0xc
 1879 0742 6D04     		.2byte	0x46d
 1880 0744 E8030000 		.4byte	0x3e8
 1881 0748 54       		.byte	0x54
 1882 0749 17       		.uleb128 0x17
 1883 074a 63040000 		.4byte	.LASF97
 1884 074e 0C       		.byte	0xc
 1885 074f 6E04     		.2byte	0x46e
 1886 0751 E8030000 		.4byte	0x3e8
 1887 0755 58       		.byte	0x58
 1888 0756 17       		.uleb128 0x17
 1889 0757 D4030000 		.4byte	.LASF98
 1890 075b 0C       		.byte	0xc
 1891 075c 6F04     		.2byte	0x46f
 1892 075e C3000000 		.4byte	0xc3
 1893 0762 5C       		.byte	0x5c
 1894 0763 17       		.uleb128 0x17
 1895 0764 73010000 		.4byte	.LASF99
 1896 0768 0C       		.byte	0xc
 1897 0769 7004     		.2byte	0x470
 1898 076b E8030000 		.4byte	0x3e8
 1899 076f 60       		.byte	0x60
 1900 0770 17       		.uleb128 0x17
 1901 0771 A5020000 		.4byte	.LASF100
 1902 0775 0C       		.byte	0xc
 1903 0776 7104     		.2byte	0x471
 1904 0778 E8030000 		.4byte	0x3e8
 1905 077c 64       		.byte	0x64
 1906 077d 17       		.uleb128 0x17
 1907 077e BA050000 		.4byte	.LASF101
 1908 0782 0C       		.byte	0xc
 1909 0783 7204     		.2byte	0x472
 1910 0785 23060000 		.4byte	0x623
 1911 0789 68       		.byte	0x68
 1912 078a 17       		.uleb128 0x17
 1913 078b A8060000 		.4byte	.LASF102
 1914 078f 0C       		.byte	0xc
 1915 0790 7304     		.2byte	0x473
 1916 0792 E8030000 		.4byte	0x3e8
 1917 0796 70       		.byte	0x70
 1918 0797 0C       		.uleb128 0xc
 1919 0798 43535200 		.ascii	"CSR\000"
 1920 079c 0C       		.byte	0xc
 1921 079d 7404     		.2byte	0x474
ARM GAS  /var/folders/28/j9jfyj_n4wz3qtvnym210h2c0000gn/T//cc7hJqmk.s 			page 35


 1922 079f E8030000 		.4byte	0x3e8
 1923 07a3 74       		.byte	0x74
 1924 07a4 17       		.uleb128 0x17
 1925 07a5 E5030000 		.4byte	.LASF103
 1926 07a9 0C       		.byte	0xc
 1927 07aa 7504     		.2byte	0x475
 1928 07ac 23060000 		.4byte	0x623
 1929 07b0 78       		.byte	0x78
 1930 07b1 17       		.uleb128 0x17
 1931 07b2 8D060000 		.4byte	.LASF104
 1932 07b6 0C       		.byte	0xc
 1933 07b7 7604     		.2byte	0x476
 1934 07b9 E8030000 		.4byte	0x3e8
 1935 07bd 80       		.byte	0x80
 1936 07be 17       		.uleb128 0x17
 1937 07bf 5D020000 		.4byte	.LASF105
 1938 07c3 0C       		.byte	0xc
 1939 07c4 7704     		.2byte	0x477
 1940 07c6 E8030000 		.4byte	0x3e8
 1941 07ca 84       		.byte	0x84
 1942 07cb 17       		.uleb128 0x17
 1943 07cc 99030000 		.4byte	.LASF106
 1944 07d0 0C       		.byte	0xc
 1945 07d1 7804     		.2byte	0x478
 1946 07d3 E8030000 		.4byte	0x3e8
 1947 07d7 88       		.byte	0x88
 1948 07d8 17       		.uleb128 0x17
 1949 07d9 EF000000 		.4byte	.LASF107
 1950 07dd 0C       		.byte	0xc
 1951 07de 7904     		.2byte	0x479
 1952 07e0 E8030000 		.4byte	0x3e8
 1953 07e4 8C       		.byte	0x8c
 1954 07e5 00       		.byte	0
 1955 07e6 18       		.uleb128 0x18
 1956 07e7 40010000 		.4byte	.LASF108
 1957 07eb 0C       		.byte	0xc
 1958 07ec 7B04     		.2byte	0x47b
 1959 07ee 3D060000 		.4byte	0x63d
 1960 07f2 16       		.uleb128 0x16
 1961 07f3 1C       		.byte	0x1c
 1962 07f4 0C       		.byte	0xc
 1963 07f5 2905     		.2byte	0x529
 1964 07f7 B0080000 		.4byte	0x8b0
 1965 07fb 0C       		.uleb128 0xc
 1966 07fc 535200   		.ascii	"SR\000"
 1967 07ff 0C       		.byte	0xc
 1968 0800 2B05     		.2byte	0x52b
 1969 0802 33060000 		.4byte	0x633
 1970 0806 00       		.byte	0
 1971 0807 17       		.uleb128 0x17
 1972 0808 AC030000 		.4byte	.LASF84
 1973 080c 0C       		.byte	0xc
 1974 080d 2C05     		.2byte	0x52c
 1975 080f AD000000 		.4byte	0xad
 1976 0813 02       		.byte	0x2
 1977 0814 0C       		.uleb128 0xc
 1978 0815 445200   		.ascii	"DR\000"
ARM GAS  /var/folders/28/j9jfyj_n4wz3qtvnym210h2c0000gn/T//cc7hJqmk.s 			page 36


 1979 0818 0C       		.byte	0xc
 1980 0819 2D05     		.2byte	0x52d
 1981 081b 33060000 		.4byte	0x633
 1982 081f 04       		.byte	0x4
 1983 0820 17       		.uleb128 0x17
 1984 0821 B6030000 		.4byte	.LASF87
 1985 0825 0C       		.byte	0xc
 1986 0826 2E05     		.2byte	0x52e
 1987 0828 AD000000 		.4byte	0xad
 1988 082c 06       		.byte	0x6
 1989 082d 0C       		.uleb128 0xc
 1990 082e 42525200 		.ascii	"BRR\000"
 1991 0832 0C       		.byte	0xc
 1992 0833 2F05     		.2byte	0x52f
 1993 0835 33060000 		.4byte	0x633
 1994 0839 08       		.byte	0x8
 1995 083a 17       		.uleb128 0x17
 1996 083b C0030000 		.4byte	.LASF91
 1997 083f 0C       		.byte	0xc
 1998 0840 3005     		.2byte	0x530
 1999 0842 AD000000 		.4byte	0xad
 2000 0846 0A       		.byte	0xa
 2001 0847 0C       		.uleb128 0xc
 2002 0848 43523100 		.ascii	"CR1\000"
 2003 084c 0C       		.byte	0xc
 2004 084d 3105     		.2byte	0x531
 2005 084f 33060000 		.4byte	0x633
 2006 0853 0C       		.byte	0xc
 2007 0854 17       		.uleb128 0x17
 2008 0855 CA030000 		.4byte	.LASF94
 2009 0859 0C       		.byte	0xc
 2010 085a 3205     		.2byte	0x532
 2011 085c AD000000 		.4byte	0xad
 2012 0860 0E       		.byte	0xe
 2013 0861 0C       		.uleb128 0xc
 2014 0862 43523200 		.ascii	"CR2\000"
 2015 0866 0C       		.byte	0xc
 2016 0867 3305     		.2byte	0x533
 2017 0869 33060000 		.4byte	0x633
 2018 086d 10       		.byte	0x10
 2019 086e 17       		.uleb128 0x17
 2020 086f D4030000 		.4byte	.LASF98
 2021 0873 0C       		.byte	0xc
 2022 0874 3405     		.2byte	0x534
 2023 0876 AD000000 		.4byte	0xad
 2024 087a 12       		.byte	0x12
 2025 087b 0C       		.uleb128 0xc
 2026 087c 43523300 		.ascii	"CR3\000"
 2027 0880 0C       		.byte	0xc
 2028 0881 3505     		.2byte	0x535
 2029 0883 33060000 		.4byte	0x633
 2030 0887 14       		.byte	0x14
 2031 0888 17       		.uleb128 0x17
 2032 0889 BA050000 		.4byte	.LASF101
 2033 088d 0C       		.byte	0xc
 2034 088e 3605     		.2byte	0x536
 2035 0890 AD000000 		.4byte	0xad
ARM GAS  /var/folders/28/j9jfyj_n4wz3qtvnym210h2c0000gn/T//cc7hJqmk.s 			page 37


 2036 0894 16       		.byte	0x16
 2037 0895 17       		.uleb128 0x17
 2038 0896 1A010000 		.4byte	.LASF109
 2039 089a 0C       		.byte	0xc
 2040 089b 3705     		.2byte	0x537
 2041 089d 33060000 		.4byte	0x633
 2042 08a1 18       		.byte	0x18
 2043 08a2 17       		.uleb128 0x17
 2044 08a3 E5030000 		.4byte	.LASF103
 2045 08a7 0C       		.byte	0xc
 2046 08a8 3805     		.2byte	0x538
 2047 08aa AD000000 		.4byte	0xad
 2048 08ae 1A       		.byte	0x1a
 2049 08af 00       		.byte	0
 2050 08b0 18       		.uleb128 0x18
 2051 08b1 88020000 		.4byte	.LASF110
 2052 08b5 0C       		.byte	0xc
 2053 08b6 3905     		.2byte	0x539
 2054 08b8 F2070000 		.4byte	0x7f2
 2055 08bc 11       		.uleb128 0x11
 2056 08bd 0C010000 		.4byte	0x10c
 2057 08c1 D5080000 		.4byte	0x8d5
 2058 08c5 12       		.uleb128 0x12
 2059 08c6 79020000 		.4byte	0x279
 2060 08ca 12       		.uleb128 0x12
 2061 08cb A2000000 		.4byte	0xa2
 2062 08cf 12       		.uleb128 0x12
 2063 08d0 2D010000 		.4byte	0x12d
 2064 08d4 00       		.byte	0
 2065 08d5 09       		.uleb128 0x9
 2066 08d6 04       		.byte	0x4
 2067 08d7 BC080000 		.4byte	0x8bc
 2068 08db 11       		.uleb128 0x11
 2069 08dc 0C010000 		.4byte	0x10c
 2070 08e0 EF080000 		.4byte	0x8ef
 2071 08e4 12       		.uleb128 0x12
 2072 08e5 79020000 		.4byte	0x279
 2073 08e9 12       		.uleb128 0x12
 2074 08ea 2D010000 		.4byte	0x12d
 2075 08ee 00       		.byte	0
 2076 08ef 09       		.uleb128 0x9
 2077 08f0 04       		.byte	0x4
 2078 08f1 DB080000 		.4byte	0x8db
 2079 08f5 11       		.uleb128 0x11
 2080 08f6 2C000000 		.4byte	0x2c
 2081 08fa 13090000 		.4byte	0x913
 2082 08fe 12       		.uleb128 0x12
 2083 08ff 79020000 		.4byte	0x279
 2084 0903 12       		.uleb128 0x12
 2085 0904 D9050000 		.4byte	0x5d9
 2086 0908 12       		.uleb128 0x12
 2087 0909 2C000000 		.4byte	0x2c
 2088 090d 12       		.uleb128 0x12
 2089 090e 2D010000 		.4byte	0x12d
 2090 0912 00       		.byte	0
 2091 0913 09       		.uleb128 0x9
 2092 0914 04       		.byte	0x4
ARM GAS  /var/folders/28/j9jfyj_n4wz3qtvnym210h2c0000gn/T//cc7hJqmk.s 			page 38


 2093 0915 F5080000 		.4byte	0x8f5
 2094 0919 11       		.uleb128 0x11
 2095 091a 2C000000 		.4byte	0x2c
 2096 091e 37090000 		.4byte	0x937
 2097 0922 12       		.uleb128 0x12
 2098 0923 79020000 		.4byte	0x279
 2099 0927 12       		.uleb128 0x12
 2100 0928 A4050000 		.4byte	0x5a4
 2101 092c 12       		.uleb128 0x12
 2102 092d 2C000000 		.4byte	0x2c
 2103 0931 12       		.uleb128 0x12
 2104 0932 2D010000 		.4byte	0x12d
 2105 0936 00       		.byte	0
 2106 0937 09       		.uleb128 0x9
 2107 0938 04       		.byte	0x4
 2108 0939 19090000 		.4byte	0x919
 2109 093d 19       		.uleb128 0x19
 2110 093e 01       		.byte	0x1
 2111 093f 0D       		.byte	0xd
 2112 0940 64       		.byte	0x64
 2113 0941 58090000 		.4byte	0x958
 2114 0945 1A       		.uleb128 0x1a
 2115 0946 B0050000 		.4byte	.LASF111
 2116 094a 00       		.sleb128 0
 2117 094b 1A       		.uleb128 0x1a
 2118 094c 1F010000 		.4byte	.LASF112
 2119 0950 01       		.sleb128 1
 2120 0951 1A       		.uleb128 0x1a
 2121 0952 78060000 		.4byte	.LASF113
 2122 0956 02       		.sleb128 2
 2123 0957 00       		.byte	0
 2124 0958 03       		.uleb128 0x3
 2125 0959 56070000 		.4byte	.LASF114
 2126 095d 0D       		.byte	0xd
 2127 095e 68       		.byte	0x68
 2128 095f 3D090000 		.4byte	0x93d
 2129 0963 03       		.uleb128 0x3
 2130 0964 CD050000 		.4byte	.LASF115
 2131 0968 0D       		.byte	0xd
 2132 0969 6D       		.byte	0x6d
 2133 096a 6E090000 		.4byte	0x96e
 2134 096e 05       		.uleb128 0x5
 2135 096f CD050000 		.4byte	.LASF115
 2136 0973 98       		.byte	0x98
 2137 0974 0D       		.byte	0xd
 2138 0975 87       		.byte	0x87
 2139 0976 D9090000 		.4byte	0x9d9
 2140 097a 07       		.uleb128 0x7
 2141 097b 766D7400 		.ascii	"vmt\000"
 2142 097f 0D       		.byte	0xd
 2143 0980 89       		.byte	0x89
 2144 0981 8A0A0000 		.4byte	0xa8a
 2145 0985 00       		.byte	0
 2146 0986 06       		.uleb128 0x6
 2147 0987 4F020000 		.4byte	.LASF116
 2148 098b 0D       		.byte	0xd
 2149 098c 8A       		.byte	0x8a
ARM GAS  /var/folders/28/j9jfyj_n4wz3qtvnym210h2c0000gn/T//cc7hJqmk.s 			page 39


 2150 098d 9D040000 		.4byte	0x49d
 2151 0991 04       		.byte	0x4
 2152 0992 06       		.uleb128 0x6
 2153 0993 5B010000 		.4byte	.LASF117
 2154 0997 0D       		.byte	0xd
 2155 0998 8A       		.byte	0x8a
 2156 0999 58090000 		.4byte	0x958
 2157 099d 08       		.byte	0x8
 2158 099e 06       		.uleb128 0x6
 2159 099f 2E030000 		.4byte	.LASF118
 2160 09a3 0D       		.byte	0xd
 2161 09a4 8A       		.byte	0x8a
 2162 09a5 AA050000 		.4byte	0x5aa
 2163 09a9 0C       		.byte	0xc
 2164 09aa 06       		.uleb128 0x6
 2165 09ab 6E020000 		.4byte	.LASF119
 2166 09af 0D       		.byte	0xd
 2167 09b0 8A       		.byte	0x8a
 2168 09b1 B5050000 		.4byte	0x5b5
 2169 09b5 30       		.byte	0x30
 2170 09b6 07       		.uleb128 0x7
 2171 09b7 696200   		.ascii	"ib\000"
 2172 09ba 0D       		.byte	0xd
 2173 09bb 8A       		.byte	0x8a
 2174 09bc 950A0000 		.4byte	0xa95
 2175 09c0 54       		.byte	0x54
 2176 09c1 07       		.uleb128 0x7
 2177 09c2 6F6200   		.ascii	"ob\000"
 2178 09c5 0D       		.byte	0xd
 2179 09c6 8A       		.byte	0x8a
 2180 09c7 950A0000 		.4byte	0xa95
 2181 09cb 74       		.byte	0x74
 2182 09cc 06       		.uleb128 0x6
 2183 09cd FD010000 		.4byte	.LASF120
 2184 09d1 0D       		.byte	0xd
 2185 09d2 8A       		.byte	0x8a
 2186 09d3 A50A0000 		.4byte	0xaa5
 2187 09d7 94       		.byte	0x94
 2188 09d8 00       		.byte	0
 2189 09d9 08       		.uleb128 0x8
 2190 09da 0C       		.byte	0xc
 2191 09db 0E       		.byte	0xe
 2192 09dc D7       		.byte	0xd7
 2193 09dd 120A0000 		.4byte	0xa12
 2194 09e1 06       		.uleb128 0x6
 2195 09e2 D0020000 		.4byte	.LASF121
 2196 09e6 0E       		.byte	0xe
 2197 09e7 DB       		.byte	0xdb
 2198 09e8 C3000000 		.4byte	0xc3
 2199 09ec 00       		.byte	0
 2200 09ed 07       		.uleb128 0x7
 2201 09ee 63723100 		.ascii	"cr1\000"
 2202 09f2 0E       		.byte	0xe
 2203 09f3 E0       		.byte	0xe0
 2204 09f4 AD000000 		.4byte	0xad
 2205 09f8 04       		.byte	0x4
 2206 09f9 07       		.uleb128 0x7
ARM GAS  /var/folders/28/j9jfyj_n4wz3qtvnym210h2c0000gn/T//cc7hJqmk.s 			page 40


 2207 09fa 63723200 		.ascii	"cr2\000"
 2208 09fe 0E       		.byte	0xe
 2209 09ff E4       		.byte	0xe4
 2210 0a00 AD000000 		.4byte	0xad
 2211 0a04 06       		.byte	0x6
 2212 0a05 07       		.uleb128 0x7
 2213 0a06 63723300 		.ascii	"cr3\000"
 2214 0a0a 0E       		.byte	0xe
 2215 0a0b E8       		.byte	0xe8
 2216 0a0c AD000000 		.4byte	0xad
 2217 0a10 08       		.byte	0x8
 2218 0a11 00       		.byte	0
 2219 0a12 03       		.uleb128 0x3
 2220 0a13 74030000 		.4byte	.LASF122
 2221 0a17 0E       		.byte	0xe
 2222 0a18 E9       		.byte	0xe9
 2223 0a19 D9090000 		.4byte	0x9d9
 2224 0a1d 05       		.uleb128 0x5
 2225 0a1e 19020000 		.4byte	.LASF123
 2226 0a22 20       		.byte	0x20
 2227 0a23 0D       		.byte	0xd
 2228 0a24 7C       		.byte	0x7c
 2229 0a25 8A0A0000 		.4byte	0xa8a
 2230 0a29 06       		.uleb128 0x6
 2231 0a2a FF020000 		.4byte	.LASF124
 2232 0a2e 0D       		.byte	0xd
 2233 0a2f 7D       		.byte	0x7d
 2234 0a30 E4050000 		.4byte	0x5e4
 2235 0a34 00       		.byte	0
 2236 0a35 06       		.uleb128 0x6
 2237 0a36 FE050000 		.4byte	.LASF125
 2238 0a3a 0D       		.byte	0xd
 2239 0a3b 7D       		.byte	0x7d
 2240 0a3c 03060000 		.4byte	0x603
 2241 0a40 04       		.byte	0x4
 2242 0a41 07       		.uleb128 0x7
 2243 0a42 70757400 		.ascii	"put\000"
 2244 0a46 0D       		.byte	0xd
 2245 0a47 7D       		.byte	0x7d
 2246 0a48 1D060000 		.4byte	0x61d
 2247 0a4c 08       		.byte	0x8
 2248 0a4d 07       		.uleb128 0x7
 2249 0a4e 67657400 		.ascii	"get\000"
 2250 0a52 0D       		.byte	0xd
 2251 0a53 7D       		.byte	0x7d
 2252 0a54 F5040000 		.4byte	0x4f5
 2253 0a58 0C       		.byte	0xc
 2254 0a59 06       		.uleb128 0x6
 2255 0a5a 05030000 		.4byte	.LASF126
 2256 0a5e 0D       		.byte	0xd
 2257 0a5f 7D       		.byte	0x7d
 2258 0a60 D5080000 		.4byte	0x8d5
 2259 0a64 10       		.byte	0x10
 2260 0a65 06       		.uleb128 0x6
 2261 0a66 4A020000 		.4byte	.LASF127
 2262 0a6a 0D       		.byte	0xd
 2263 0a6b 7D       		.byte	0x7d
ARM GAS  /var/folders/28/j9jfyj_n4wz3qtvnym210h2c0000gn/T//cc7hJqmk.s 			page 41


 2264 0a6c EF080000 		.4byte	0x8ef
 2265 0a70 14       		.byte	0x14
 2266 0a71 06       		.uleb128 0x6
 2267 0a72 96020000 		.4byte	.LASF128
 2268 0a76 0D       		.byte	0xd
 2269 0a77 7D       		.byte	0x7d
 2270 0a78 13090000 		.4byte	0x913
 2271 0a7c 18       		.byte	0x18
 2272 0a7d 06       		.uleb128 0x6
 2273 0a7e DF000000 		.4byte	.LASF129
 2274 0a82 0D       		.byte	0xd
 2275 0a83 7D       		.byte	0x7d
 2276 0a84 37090000 		.4byte	0x937
 2277 0a88 1C       		.byte	0x1c
 2278 0a89 00       		.byte	0
 2279 0a8a 09       		.uleb128 0x9
 2280 0a8b 04       		.byte	0x4
 2281 0a8c 900A0000 		.4byte	0xa90
 2282 0a90 10       		.uleb128 0x10
 2283 0a91 1D0A0000 		.4byte	0xa1d
 2284 0a95 14       		.uleb128 0x14
 2285 0a96 A2000000 		.4byte	0xa2
 2286 0a9a A50A0000 		.4byte	0xaa5
 2287 0a9e 15       		.uleb128 0x15
 2288 0a9f ED030000 		.4byte	0x3ed
 2289 0aa3 1F       		.byte	0x1f
 2290 0aa4 00       		.byte	0
 2291 0aa5 09       		.uleb128 0x9
 2292 0aa6 04       		.byte	0x4
 2293 0aa7 B0080000 		.4byte	0x8b0
 2294 0aab 09       		.uleb128 0x9
 2295 0aac 04       		.byte	0x4
 2296 0aad B5050000 		.4byte	0x5b5
 2297 0ab1 1B       		.uleb128 0x1b
 2298 0ab2 0A030000 		.4byte	.LASF131
 2299 0ab6 01       		.byte	0x1
 2300 0ab7 5C       		.byte	0x5c
 2301 0ab8 01       		.byte	0x1
 2302 0ab9 DD0A0000 		.4byte	0xadd
 2303 0abd 1C       		.uleb128 0x1c
 2304 0abe 73647000 		.ascii	"sdp\000"
 2305 0ac2 01       		.byte	0x1
 2306 0ac3 5C       		.byte	0x5c
 2307 0ac4 DD0A0000 		.4byte	0xadd
 2308 0ac8 1D       		.uleb128 0x1d
 2309 0ac9 18060000 		.4byte	.LASF130
 2310 0acd 01       		.byte	0x1
 2311 0ace 5C       		.byte	0x5c
 2312 0acf E30A0000 		.4byte	0xae3
 2313 0ad3 1E       		.uleb128 0x1e
 2314 0ad4 7500     		.ascii	"u\000"
 2315 0ad6 01       		.byte	0x1
 2316 0ad7 5D       		.byte	0x5d
 2317 0ad8 A50A0000 		.4byte	0xaa5
 2318 0adc 00       		.byte	0
 2319 0add 09       		.uleb128 0x9
 2320 0ade 04       		.byte	0x4
ARM GAS  /var/folders/28/j9jfyj_n4wz3qtvnym210h2c0000gn/T//cc7hJqmk.s 			page 42


 2321 0adf 63090000 		.4byte	0x963
 2322 0ae3 09       		.uleb128 0x9
 2323 0ae4 04       		.byte	0x4
 2324 0ae5 E90A0000 		.4byte	0xae9
 2325 0ae9 10       		.uleb128 0x10
 2326 0aea 120A0000 		.4byte	0xa12
 2327 0aee 1B       		.uleb128 0x1b
 2328 0aef E4010000 		.4byte	.LASF132
 2329 0af3 01       		.byte	0x1
 2330 0af4 7A       		.byte	0x7a
 2331 0af5 01       		.byte	0x1
 2332 0af6 040B0000 		.4byte	0xb04
 2333 0afa 1C       		.uleb128 0x1c
 2334 0afb 7500     		.ascii	"u\000"
 2335 0afd 01       		.byte	0x1
 2336 0afe 7A       		.byte	0x7a
 2337 0aff A50A0000 		.4byte	0xaa5
 2338 0b03 00       		.byte	0
 2339 0b04 1F       		.uleb128 0x1f
 2340 0b05 81030000 		.4byte	.LASF133
 2341 0b09 01       		.byte	0x1
 2342 0b0a D1       		.byte	0xd1
 2343 0b0b 00000000 		.4byte	.LFB134
 2344 0b0f 14000000 		.4byte	.LFE134-.LFB134
 2345 0b13 01       		.uleb128 0x1
 2346 0b14 9C       		.byte	0x9c
 2347 0b15 260B0000 		.4byte	0xb26
 2348 0b19 20       		.uleb128 0x20
 2349 0b1a 717000   		.ascii	"qp\000"
 2350 0b1d 01       		.byte	0x1
 2351 0b1e D1       		.byte	0xd1
 2352 0b1f 9E050000 		.4byte	0x59e
 2353 0b23 01       		.uleb128 0x1
 2354 0b24 50       		.byte	0x50
 2355 0b25 00       		.byte	0
 2356 0b26 1F       		.uleb128 0x1f
 2357 0b27 89030000 		.4byte	.LASF134
 2358 0b2b 01       		.byte	0x1
 2359 0b2c D9       		.byte	0xd9
 2360 0b2d 20000000 		.4byte	.LFB135
 2361 0b31 14000000 		.4byte	.LFE135-.LFB135
 2362 0b35 01       		.uleb128 0x1
 2363 0b36 9C       		.byte	0x9c
 2364 0b37 480B0000 		.4byte	0xb48
 2365 0b3b 20       		.uleb128 0x20
 2366 0b3c 717000   		.ascii	"qp\000"
 2367 0b3f 01       		.byte	0x1
 2368 0b40 D9       		.byte	0xd9
 2369 0b41 9E050000 		.4byte	0x59e
 2370 0b45 01       		.uleb128 0x1
 2371 0b46 50       		.byte	0x50
 2372 0b47 00       		.byte	0
 2373 0b48 1F       		.uleb128 0x1f
 2374 0b49 91030000 		.4byte	.LASF135
 2375 0b4d 01       		.byte	0x1
 2376 0b4e E1       		.byte	0xe1
 2377 0b4f 40000000 		.4byte	.LFB136
ARM GAS  /var/folders/28/j9jfyj_n4wz3qtvnym210h2c0000gn/T//cc7hJqmk.s 			page 43


 2378 0b53 14000000 		.4byte	.LFE136-.LFB136
 2379 0b57 01       		.uleb128 0x1
 2380 0b58 9C       		.byte	0x9c
 2381 0b59 6A0B0000 		.4byte	0xb6a
 2382 0b5d 20       		.uleb128 0x20
 2383 0b5e 717000   		.ascii	"qp\000"
 2384 0b61 01       		.byte	0x1
 2385 0b62 E1       		.byte	0xe1
 2386 0b63 9E050000 		.4byte	0x59e
 2387 0b67 01       		.uleb128 0x1
 2388 0b68 50       		.byte	0x50
 2389 0b69 00       		.byte	0
 2390 0b6a 1F       		.uleb128 0x1f
 2391 0b6b A4030000 		.4byte	.LASF136
 2392 0b6f 01       		.byte	0x1
 2393 0b70 F9       		.byte	0xf9
 2394 0b71 60000000 		.4byte	.LFB137
 2395 0b75 14000000 		.4byte	.LFE137-.LFB137
 2396 0b79 01       		.uleb128 0x1
 2397 0b7a 9C       		.byte	0x9c
 2398 0b7b 8C0B0000 		.4byte	0xb8c
 2399 0b7f 20       		.uleb128 0x20
 2400 0b80 717000   		.ascii	"qp\000"
 2401 0b83 01       		.byte	0x1
 2402 0b84 F9       		.byte	0xf9
 2403 0b85 9E050000 		.4byte	0x59e
 2404 0b89 01       		.uleb128 0x1
 2405 0b8a 50       		.byte	0x50
 2406 0b8b 00       		.byte	0
 2407 0b8c 1B       		.uleb128 0x1b
 2408 0b8d 35000000 		.4byte	.LASF137
 2409 0b91 01       		.byte	0x1
 2410 0b92 87       		.byte	0x87
 2411 0b93 01       		.byte	0x1
 2412 0b94 B90B0000 		.4byte	0xbb9
 2413 0b98 1C       		.uleb128 0x1c
 2414 0b99 73647000 		.ascii	"sdp\000"
 2415 0b9d 01       		.byte	0x1
 2416 0b9e 87       		.byte	0x87
 2417 0b9f DD0A0000 		.4byte	0xadd
 2418 0ba3 1C       		.uleb128 0x1c
 2419 0ba4 737200   		.ascii	"sr\000"
 2420 0ba7 01       		.byte	0x1
 2421 0ba8 87       		.byte	0x87
 2422 0ba9 AD000000 		.4byte	0xad
 2423 0bad 1E       		.uleb128 0x1e
 2424 0bae 73747300 		.ascii	"sts\000"
 2425 0bb2 01       		.byte	0x1
 2426 0bb3 88       		.byte	0x88
 2427 0bb4 22010000 		.4byte	0x122
 2428 0bb8 00       		.byte	0
 2429 0bb9 1F       		.uleb128 0x1f
 2430 0bba 95050000 		.4byte	.LASF138
 2431 0bbe 01       		.byte	0x1
 2432 0bbf 9A       		.byte	0x9a
 2433 0bc0 80000000 		.4byte	.LFB133
 2434 0bc4 1C010000 		.4byte	.LFE133-.LFB133
ARM GAS  /var/folders/28/j9jfyj_n4wz3qtvnym210h2c0000gn/T//cc7hJqmk.s 			page 44


 2435 0bc8 01       		.uleb128 0x1
 2436 0bc9 9C       		.byte	0x9c
 2437 0bca B20D0000 		.4byte	0xdb2
 2438 0bce 21       		.uleb128 0x21
 2439 0bcf 73647000 		.ascii	"sdp\000"
 2440 0bd3 01       		.byte	0x1
 2441 0bd4 9A       		.byte	0x9a
 2442 0bd5 DD0A0000 		.4byte	0xadd
 2443 0bd9 00000000 		.4byte	.LLST0
 2444 0bdd 22       		.uleb128 0x22
 2445 0bde 7500     		.ascii	"u\000"
 2446 0be0 01       		.byte	0x1
 2447 0be1 9B       		.byte	0x9b
 2448 0be2 A50A0000 		.4byte	0xaa5
 2449 0be6 01       		.uleb128 0x1
 2450 0be7 55       		.byte	0x55
 2451 0be8 23       		.uleb128 0x23
 2452 0be9 63723100 		.ascii	"cr1\000"
 2453 0bed 01       		.byte	0x1
 2454 0bee 9C       		.byte	0x9c
 2455 0bef AD000000 		.4byte	0xad
 2456 0bf3 34000000 		.4byte	.LLST1
 2457 0bf7 23       		.uleb128 0x23
 2458 0bf8 737200   		.ascii	"sr\000"
 2459 0bfb 01       		.byte	0x1
 2460 0bfc 9D       		.byte	0x9d
 2461 0bfd AD000000 		.4byte	0xad
 2462 0c01 52000000 		.4byte	.LLST2
 2463 0c05 24       		.uleb128 0x24
 2464 0c06 96000000 		.4byte	.LBB16
 2465 0c0a 06000000 		.4byte	.LBE16-.LBB16
 2466 0c0e 200C0000 		.4byte	0xc20
 2467 0c12 22       		.uleb128 0x22
 2468 0c13 746D7000 		.ascii	"tmp\000"
 2469 0c17 01       		.byte	0x1
 2470 0c18 A8       		.byte	0xa8
 2471 0c19 C3000000 		.4byte	0xc3
 2472 0c1d 01       		.uleb128 0x1
 2473 0c1e 53       		.byte	0x53
 2474 0c1f 00       		.byte	0
 2475 0c20 25       		.uleb128 0x25
 2476 0c21 00000000 		.4byte	.Ldebug_ranges0+0
 2477 0c25 880C0000 		.4byte	0xc88
 2478 0c29 23       		.uleb128 0x23
 2479 0c2a 6200     		.ascii	"b\000"
 2480 0c2c 01       		.byte	0x1
 2481 0c2d AB       		.byte	0xab
 2482 0c2e A2000000 		.4byte	0xa2
 2483 0c32 7B000000 		.4byte	.LLST3
 2484 0c36 26       		.uleb128 0x26
 2485 0c37 8C0B0000 		.4byte	0xb8c
 2486 0c3b A2000000 		.4byte	.LBB18
 2487 0c3f 18000000 		.4byte	.Ldebug_ranges0+0x18
 2488 0c43 01       		.byte	0x1
 2489 0c44 AF       		.byte	0xaf
 2490 0c45 770C0000 		.4byte	0xc77
 2491 0c49 27       		.uleb128 0x27
ARM GAS  /var/folders/28/j9jfyj_n4wz3qtvnym210h2c0000gn/T//cc7hJqmk.s 			page 45


 2492 0c4a A30B0000 		.4byte	0xba3
 2493 0c4e 99000000 		.4byte	.LLST4
 2494 0c52 28       		.uleb128 0x28
 2495 0c53 980B0000 		.4byte	0xb98
 2496 0c57 29       		.uleb128 0x29
 2497 0c58 18000000 		.4byte	.Ldebug_ranges0+0x18
 2498 0c5c 2A       		.uleb128 0x2a
 2499 0c5d AD0B0000 		.4byte	0xbad
 2500 0c61 AC000000 		.4byte	.LLST5
 2501 0c65 2B       		.uleb128 0x2b
 2502 0c66 E6000000 		.4byte	.LVL17
 2503 0c6a EC100000 		.4byte	0x10ec
 2504 0c6e 2C       		.uleb128 0x2c
 2505 0c6f 01       		.uleb128 0x1
 2506 0c70 50       		.byte	0x50
 2507 0c71 02       		.uleb128 0x2
 2508 0c72 78       		.byte	0x78
 2509 0c73 00       		.sleb128 0
 2510 0c74 00       		.byte	0
 2511 0c75 00       		.byte	0
 2512 0c76 00       		.byte	0
 2513 0c77 2B       		.uleb128 0x2b
 2514 0c78 F6000000 		.4byte	.LVL20
 2515 0c7c 08110000 		.4byte	0x1108
 2516 0c80 2C       		.uleb128 0x2c
 2517 0c81 01       		.uleb128 0x1
 2518 0c82 50       		.byte	0x50
 2519 0c83 02       		.uleb128 0x2
 2520 0c84 76       		.byte	0x76
 2521 0c85 00       		.sleb128 0
 2522 0c86 00       		.byte	0
 2523 0c87 00       		.byte	0
 2524 0c88 24       		.uleb128 0x24
 2525 0c89 00010000 		.4byte	.LBB23
 2526 0c8d 06000000 		.4byte	.LBE23-.LBB23
 2527 0c91 A30C0000 		.4byte	0xca3
 2528 0c95 22       		.uleb128 0x22
 2529 0c96 746D7000 		.ascii	"tmp\000"
 2530 0c9a 01       		.byte	0x1
 2531 0c9b B5       		.byte	0xb5
 2532 0c9c C3000000 		.4byte	0xc3
 2533 0ca0 01       		.uleb128 0x1
 2534 0ca1 53       		.byte	0x53
 2535 0ca2 00       		.byte	0
 2536 0ca3 24       		.uleb128 0x24
 2537 0ca4 12010000 		.4byte	.LBB24
 2538 0ca8 06000000 		.4byte	.LBE24-.LBB24
 2539 0cac BE0C0000 		.4byte	0xcbe
 2540 0cb0 22       		.uleb128 0x22
 2541 0cb1 746D7000 		.ascii	"tmp\000"
 2542 0cb5 01       		.byte	0x1
 2543 0cb6 C7       		.byte	0xc7
 2544 0cb7 C3000000 		.4byte	0xc3
 2545 0cbb 01       		.uleb128 0x1
 2546 0cbc 53       		.byte	0x53
 2547 0cbd 00       		.byte	0
 2548 0cbe 25       		.uleb128 0x25
ARM GAS  /var/folders/28/j9jfyj_n4wz3qtvnym210h2c0000gn/T//cc7hJqmk.s 			page 46


 2549 0cbf 30000000 		.4byte	.Ldebug_ranges0+0x30
 2550 0cc3 D50C0000 		.4byte	0xcd5
 2551 0cc7 22       		.uleb128 0x22
 2552 0cc8 746D7000 		.ascii	"tmp\000"
 2553 0ccc 01       		.byte	0x1
 2554 0ccd CC       		.byte	0xcc
 2555 0cce C3000000 		.4byte	0xc3
 2556 0cd2 01       		.uleb128 0x1
 2557 0cd3 53       		.byte	0x53
 2558 0cd4 00       		.byte	0
 2559 0cd5 24       		.uleb128 0x24
 2560 0cd6 3C010000 		.4byte	.LBB27
 2561 0cda 06000000 		.4byte	.LBE27-.LBB27
 2562 0cde F00C0000 		.4byte	0xcf0
 2563 0ce2 22       		.uleb128 0x22
 2564 0ce3 746D7000 		.ascii	"tmp\000"
 2565 0ce7 01       		.byte	0x1
 2566 0ce8 A1       		.byte	0xa1
 2567 0ce9 C3000000 		.4byte	0xc3
 2568 0ced 01       		.uleb128 0x1
 2569 0cee 53       		.byte	0x53
 2570 0cef 00       		.byte	0
 2571 0cf0 24       		.uleb128 0x24
 2572 0cf1 4C010000 		.4byte	.LBB28
 2573 0cf5 06000000 		.4byte	.LBE28-.LBB28
 2574 0cf9 0B0D0000 		.4byte	0xd0b
 2575 0cfd 22       		.uleb128 0x22
 2576 0cfe 746D7000 		.ascii	"tmp\000"
 2577 0d02 01       		.byte	0x1
 2578 0d03 A3       		.byte	0xa3
 2579 0d04 C3000000 		.4byte	0xc3
 2580 0d08 01       		.uleb128 0x1
 2581 0d09 53       		.byte	0x53
 2582 0d0a 00       		.byte	0
 2583 0d0b 25       		.uleb128 0x25
 2584 0d0c 48000000 		.4byte	.Ldebug_ranges0+0x48
 2585 0d10 810D0000 		.4byte	0xd81
 2586 0d14 23       		.uleb128 0x23
 2587 0d15 6200     		.ascii	"b\000"
 2588 0d17 01       		.byte	0x1
 2589 0d18 B9       		.byte	0xb9
 2590 0d19 0C010000 		.4byte	0x10c
 2591 0d1d CB000000 		.4byte	.LLST6
 2592 0d21 24       		.uleb128 0x24
 2593 0d22 5A010000 		.4byte	.LBB30
 2594 0d26 06000000 		.4byte	.LBE30-.LBB30
 2595 0d2a 3C0D0000 		.4byte	0xd3c
 2596 0d2e 22       		.uleb128 0x22
 2597 0d2f 746D7000 		.ascii	"tmp\000"
 2598 0d33 01       		.byte	0x1
 2599 0d34 BA       		.byte	0xba
 2600 0d35 C3000000 		.4byte	0xc3
 2601 0d39 01       		.uleb128 0x1
 2602 0d3a 53       		.byte	0x53
 2603 0d3b 00       		.byte	0
 2604 0d3c 24       		.uleb128 0x24
 2605 0d3d 70010000 		.4byte	.LBB31
ARM GAS  /var/folders/28/j9jfyj_n4wz3qtvnym210h2c0000gn/T//cc7hJqmk.s 			page 47


 2606 0d41 08000000 		.4byte	.LBE31-.LBB31
 2607 0d45 570D0000 		.4byte	0xd57
 2608 0d49 22       		.uleb128 0x22
 2609 0d4a 746D7000 		.ascii	"tmp\000"
 2610 0d4e 01       		.byte	0x1
 2611 0d4f C2       		.byte	0xc2
 2612 0d50 C3000000 		.4byte	0xc3
 2613 0d54 01       		.uleb128 0x1
 2614 0d55 53       		.byte	0x53
 2615 0d56 00       		.byte	0
 2616 0d57 2D       		.uleb128 0x2d
 2617 0d58 68010000 		.4byte	.LVL28
 2618 0d5c 1F110000 		.4byte	0x111f
 2619 0d60 6B0D0000 		.4byte	0xd6b
 2620 0d64 2C       		.uleb128 0x2c
 2621 0d65 01       		.uleb128 0x1
 2622 0d66 50       		.byte	0x50
 2623 0d67 02       		.uleb128 0x2
 2624 0d68 76       		.byte	0x76
 2625 0d69 30       		.sleb128 48
 2626 0d6a 00       		.byte	0
 2627 0d6b 2B       		.uleb128 0x2b
 2628 0d6c 90010000 		.4byte	.LVL33
 2629 0d70 EC100000 		.4byte	0x10ec
 2630 0d74 2C       		.uleb128 0x2c
 2631 0d75 01       		.uleb128 0x1
 2632 0d76 51       		.byte	0x51
 2633 0d77 01       		.uleb128 0x1
 2634 0d78 38       		.byte	0x38
 2635 0d79 2C       		.uleb128 0x2c
 2636 0d7a 01       		.uleb128 0x1
 2637 0d7b 50       		.byte	0x50
 2638 0d7c 02       		.uleb128 0x2
 2639 0d7d 76       		.byte	0x76
 2640 0d7e 04       		.sleb128 4
 2641 0d7f 00       		.byte	0
 2642 0d80 00       		.byte	0
 2643 0d81 2D       		.uleb128 0x2d
 2644 0d82 4C010000 		.4byte	.LVL27
 2645 0d86 EC100000 		.4byte	0x10ec
 2646 0d8a 9C0D0000 		.4byte	0xd9c
 2647 0d8e 2C       		.uleb128 0x2c
 2648 0d8f 01       		.uleb128 0x1
 2649 0d90 51       		.byte	0x51
 2650 0d91 03       		.uleb128 0x3
 2651 0d92 0A       		.byte	0xa
 2652 0d93 0002     		.2byte	0x200
 2653 0d95 2C       		.uleb128 0x2c
 2654 0d96 01       		.uleb128 0x1
 2655 0d97 50       		.byte	0x50
 2656 0d98 02       		.uleb128 0x2
 2657 0d99 76       		.byte	0x76
 2658 0d9a 04       		.sleb128 4
 2659 0d9b 00       		.byte	0
 2660 0d9c 2B       		.uleb128 0x2b
 2661 0d9d 86010000 		.4byte	.LVL30
 2662 0da1 EC100000 		.4byte	0x10ec
ARM GAS  /var/folders/28/j9jfyj_n4wz3qtvnym210h2c0000gn/T//cc7hJqmk.s 			page 48


 2663 0da5 2C       		.uleb128 0x2c
 2664 0da6 01       		.uleb128 0x1
 2665 0da7 51       		.byte	0x51
 2666 0da8 01       		.uleb128 0x1
 2667 0da9 40       		.byte	0x40
 2668 0daa 2C       		.uleb128 0x2c
 2669 0dab 01       		.uleb128 0x1
 2670 0dac 50       		.byte	0x50
 2671 0dad 02       		.uleb128 0x2
 2672 0dae 76       		.byte	0x76
 2673 0daf 04       		.sleb128 4
 2674 0db0 00       		.byte	0
 2675 0db1 00       		.byte	0
 2676 0db2 2E       		.uleb128 0x2e
 2677 0db3 C7020000 		.4byte	.LASF139
 2678 0db7 01       		.byte	0x1
 2679 0db8 0D01     		.2byte	0x10d
 2680 0dba A0010000 		.4byte	.LFB138
 2681 0dbe 14000000 		.4byte	.LFE138-.LFB138
 2682 0dc2 01       		.uleb128 0x1
 2683 0dc3 9C       		.byte	0x9c
 2684 0dc4 E90D0000 		.4byte	0xde9
 2685 0dc8 2D       		.uleb128 0x2d
 2686 0dc9 A8010000 		.4byte	.LVL34
 2687 0dcd B90B0000 		.4byte	0xbb9
 2688 0dd1 DF0D0000 		.4byte	0xddf
 2689 0dd5 2C       		.uleb128 0x2c
 2690 0dd6 01       		.uleb128 0x1
 2691 0dd7 50       		.byte	0x50
 2692 0dd8 05       		.uleb128 0x5
 2693 0dd9 03       		.byte	0x3
 2694 0dda 00000000 		.4byte	SD1
 2695 0dde 00       		.byte	0
 2696 0ddf 2F       		.uleb128 0x2f
 2697 0de0 B0010000 		.4byte	.LVL35
 2698 0de4 35110000 		.4byte	0x1135
 2699 0de8 00       		.byte	0
 2700 0de9 2E       		.uleb128 0x2e
 2701 0dea D6020000 		.4byte	.LASF140
 2702 0dee 01       		.byte	0x1
 2703 0def 2001     		.2byte	0x120
 2704 0df1 C0010000 		.4byte	.LFB139
 2705 0df5 14000000 		.4byte	.LFE139-.LFB139
 2706 0df9 01       		.uleb128 0x1
 2707 0dfa 9C       		.byte	0x9c
 2708 0dfb 200E0000 		.4byte	0xe20
 2709 0dff 2D       		.uleb128 0x2d
 2710 0e00 C8010000 		.4byte	.LVL36
 2711 0e04 B90B0000 		.4byte	0xbb9
 2712 0e08 160E0000 		.4byte	0xe16
 2713 0e0c 2C       		.uleb128 0x2c
 2714 0e0d 01       		.uleb128 0x1
 2715 0e0e 50       		.byte	0x50
 2716 0e0f 05       		.uleb128 0x5
 2717 0e10 03       		.byte	0x3
 2718 0e11 00000000 		.4byte	SD2
 2719 0e15 00       		.byte	0
ARM GAS  /var/folders/28/j9jfyj_n4wz3qtvnym210h2c0000gn/T//cc7hJqmk.s 			page 49


 2720 0e16 2F       		.uleb128 0x2f
 2721 0e17 D0010000 		.4byte	.LVL37
 2722 0e1b 35110000 		.4byte	0x1135
 2723 0e1f 00       		.byte	0
 2724 0e20 2E       		.uleb128 0x2e
 2725 0e21 F6020000 		.4byte	.LASF141
 2726 0e25 01       		.byte	0x1
 2727 0e26 3301     		.2byte	0x133
 2728 0e28 E0010000 		.4byte	.LFB140
 2729 0e2c 14000000 		.4byte	.LFE140-.LFB140
 2730 0e30 01       		.uleb128 0x1
 2731 0e31 9C       		.byte	0x9c
 2732 0e32 570E0000 		.4byte	0xe57
 2733 0e36 2D       		.uleb128 0x2d
 2734 0e37 E8010000 		.4byte	.LVL38
 2735 0e3b B90B0000 		.4byte	0xbb9
 2736 0e3f 4D0E0000 		.4byte	0xe4d
 2737 0e43 2C       		.uleb128 0x2c
 2738 0e44 01       		.uleb128 0x1
 2739 0e45 50       		.byte	0x50
 2740 0e46 05       		.uleb128 0x5
 2741 0e47 03       		.byte	0x3
 2742 0e48 00000000 		.4byte	SD3
 2743 0e4c 00       		.byte	0
 2744 0e4d 2F       		.uleb128 0x2f
 2745 0e4e F0010000 		.4byte	.LVL39
 2746 0e52 35110000 		.4byte	0x1135
 2747 0e56 00       		.byte	0
 2748 0e57 2E       		.uleb128 0x2e
 2749 0e58 40020000 		.4byte	.LASF142
 2750 0e5c 01       		.byte	0x1
 2751 0e5d 6C01     		.2byte	0x16c
 2752 0e5f 00020000 		.4byte	.LFB141
 2753 0e63 14000000 		.4byte	.LFE141-.LFB141
 2754 0e67 01       		.uleb128 0x1
 2755 0e68 9C       		.byte	0x9c
 2756 0e69 8E0E0000 		.4byte	0xe8e
 2757 0e6d 2D       		.uleb128 0x2d
 2758 0e6e 08020000 		.4byte	.LVL40
 2759 0e72 B90B0000 		.4byte	0xbb9
 2760 0e76 840E0000 		.4byte	0xe84
 2761 0e7a 2C       		.uleb128 0x2c
 2762 0e7b 01       		.uleb128 0x1
 2763 0e7c 50       		.byte	0x50
 2764 0e7d 05       		.uleb128 0x5
 2765 0e7e 03       		.byte	0x3
 2766 0e7f 00000000 		.4byte	SD6
 2767 0e83 00       		.byte	0
 2768 0e84 2F       		.uleb128 0x2f
 2769 0e85 10020000 		.4byte	.LVL41
 2770 0e89 35110000 		.4byte	0x1135
 2771 0e8d 00       		.byte	0
 2772 0e8e 2E       		.uleb128 0x2e
 2773 0e8f 34020000 		.4byte	.LASF143
 2774 0e93 01       		.byte	0x1
 2775 0e94 7F01     		.2byte	0x17f
 2776 0e96 20020000 		.4byte	.LFB142
ARM GAS  /var/folders/28/j9jfyj_n4wz3qtvnym210h2c0000gn/T//cc7hJqmk.s 			page 50


 2777 0e9a 7C000000 		.4byte	.LFE142-.LFB142
 2778 0e9e 01       		.uleb128 0x1
 2779 0e9f 9C       		.byte	0x9c
 2780 0ea0 290F0000 		.4byte	0xf29
 2781 0ea4 2D       		.uleb128 0x2d
 2782 0ea5 34020000 		.4byte	.LVL42
 2783 0ea9 3D110000 		.4byte	0x113d
 2784 0ead C60E0000 		.4byte	0xec6
 2785 0eb1 2C       		.uleb128 0x2c
 2786 0eb2 01       		.uleb128 0x1
 2787 0eb3 52       		.byte	0x52
 2788 0eb4 05       		.uleb128 0x5
 2789 0eb5 03       		.byte	0x3
 2790 0eb6 00000000 		.4byte	notify1
 2791 0eba 2C       		.uleb128 0x2c
 2792 0ebb 01       		.uleb128 0x1
 2793 0ebc 51       		.byte	0x51
 2794 0ebd 01       		.uleb128 0x1
 2795 0ebe 30       		.byte	0x30
 2796 0ebf 2C       		.uleb128 0x2c
 2797 0ec0 01       		.uleb128 0x1
 2798 0ec1 50       		.byte	0x50
 2799 0ec2 02       		.uleb128 0x2
 2800 0ec3 77       		.byte	0x77
 2801 0ec4 00       		.sleb128 0
 2802 0ec5 00       		.byte	0
 2803 0ec6 2D       		.uleb128 0x2d
 2804 0ec7 44020000 		.4byte	.LVL43
 2805 0ecb 3D110000 		.4byte	0x113d
 2806 0ecf E80E0000 		.4byte	0xee8
 2807 0ed3 2C       		.uleb128 0x2c
 2808 0ed4 01       		.uleb128 0x1
 2809 0ed5 52       		.byte	0x52
 2810 0ed6 05       		.uleb128 0x5
 2811 0ed7 03       		.byte	0x3
 2812 0ed8 00000000 		.4byte	notify2
 2813 0edc 2C       		.uleb128 0x2c
 2814 0edd 01       		.uleb128 0x1
 2815 0ede 51       		.byte	0x51
 2816 0edf 01       		.uleb128 0x1
 2817 0ee0 30       		.byte	0x30
 2818 0ee1 2C       		.uleb128 0x2c
 2819 0ee2 01       		.uleb128 0x1
 2820 0ee3 50       		.byte	0x50
 2821 0ee4 02       		.uleb128 0x2
 2822 0ee5 76       		.byte	0x76
 2823 0ee6 00       		.sleb128 0
 2824 0ee7 00       		.byte	0
 2825 0ee8 2D       		.uleb128 0x2d
 2826 0ee9 54020000 		.4byte	.LVL44
 2827 0eed 3D110000 		.4byte	0x113d
 2828 0ef1 0A0F0000 		.4byte	0xf0a
 2829 0ef5 2C       		.uleb128 0x2c
 2830 0ef6 01       		.uleb128 0x1
 2831 0ef7 52       		.byte	0x52
 2832 0ef8 05       		.uleb128 0x5
 2833 0ef9 03       		.byte	0x3
ARM GAS  /var/folders/28/j9jfyj_n4wz3qtvnym210h2c0000gn/T//cc7hJqmk.s 			page 51


 2834 0efa 00000000 		.4byte	notify3
 2835 0efe 2C       		.uleb128 0x2c
 2836 0eff 01       		.uleb128 0x1
 2837 0f00 51       		.byte	0x51
 2838 0f01 01       		.uleb128 0x1
 2839 0f02 30       		.byte	0x30
 2840 0f03 2C       		.uleb128 0x2c
 2841 0f04 01       		.uleb128 0x1
 2842 0f05 50       		.byte	0x50
 2843 0f06 02       		.uleb128 0x2
 2844 0f07 75       		.byte	0x75
 2845 0f08 00       		.sleb128 0
 2846 0f09 00       		.byte	0
 2847 0f0a 2B       		.uleb128 0x2b
 2848 0f0b 64020000 		.4byte	.LVL45
 2849 0f0f 3D110000 		.4byte	0x113d
 2850 0f13 2C       		.uleb128 0x2c
 2851 0f14 01       		.uleb128 0x1
 2852 0f15 52       		.byte	0x52
 2853 0f16 05       		.uleb128 0x5
 2854 0f17 03       		.byte	0x3
 2855 0f18 00000000 		.4byte	notify6
 2856 0f1c 2C       		.uleb128 0x2c
 2857 0f1d 01       		.uleb128 0x1
 2858 0f1e 51       		.byte	0x51
 2859 0f1f 01       		.uleb128 0x1
 2860 0f20 30       		.byte	0x30
 2861 0f21 2C       		.uleb128 0x2c
 2862 0f22 01       		.uleb128 0x1
 2863 0f23 50       		.byte	0x50
 2864 0f24 02       		.uleb128 0x2
 2865 0f25 74       		.byte	0x74
 2866 0f26 00       		.sleb128 0
 2867 0f27 00       		.byte	0
 2868 0f28 00       		.byte	0
 2869 0f29 2E       		.uleb128 0x2e
 2870 0f2a 1B040000 		.4byte	.LASF144
 2871 0f2e 01       		.byte	0x1
 2872 0f2f AA01     		.2byte	0x1aa
 2873 0f31 A0020000 		.4byte	.LFB143
 2874 0f35 F8000000 		.4byte	.LFE143-.LFB143
 2875 0f39 01       		.uleb128 0x1
 2876 0f3a 9C       		.byte	0x9c
 2877 0f3b FA0F0000 		.4byte	0xffa
 2878 0f3f 30       		.uleb128 0x30
 2879 0f40 73647000 		.ascii	"sdp\000"
 2880 0f44 01       		.byte	0x1
 2881 0f45 AA01     		.2byte	0x1aa
 2882 0f47 DD0A0000 		.4byte	0xadd
 2883 0f4b E9000000 		.4byte	.LLST7
 2884 0f4f 31       		.uleb128 0x31
 2885 0f50 18060000 		.4byte	.LASF130
 2886 0f54 01       		.byte	0x1
 2887 0f55 AA01     		.2byte	0x1aa
 2888 0f57 E30A0000 		.4byte	0xae3
 2889 0f5b 5F010000 		.4byte	.LLST8
 2890 0f5f 32       		.uleb128 0x32
ARM GAS  /var/folders/28/j9jfyj_n4wz3qtvnym210h2c0000gn/T//cc7hJqmk.s 			page 52


 2891 0f60 B10A0000 		.4byte	0xab1
 2892 0f64 B6020000 		.4byte	.LBB35
 2893 0f68 60000000 		.4byte	.Ldebug_ranges0+0x60
 2894 0f6c 01       		.byte	0x1
 2895 0f6d DB01     		.2byte	0x1db
 2896 0f6f 950F0000 		.4byte	0xf95
 2897 0f73 27       		.uleb128 0x27
 2898 0f74 BD0A0000 		.4byte	0xabd
 2899 0f78 A5010000 		.4byte	.LLST9
 2900 0f7c 27       		.uleb128 0x27
 2901 0f7d C80A0000 		.4byte	0xac8
 2902 0f81 C3010000 		.4byte	.LLST10
 2903 0f85 29       		.uleb128 0x29
 2904 0f86 60000000 		.4byte	.Ldebug_ranges0+0x60
 2905 0f8a 2A       		.uleb128 0x2a
 2906 0f8b D30A0000 		.4byte	0xad3
 2907 0f8f FE010000 		.4byte	.LLST11
 2908 0f93 00       		.byte	0
 2909 0f94 00       		.byte	0
 2910 0f95 2D       		.uleb128 0x2d
 2911 0f96 26030000 		.4byte	.LVL54
 2912 0f9a 59110000 		.4byte	0x1159
 2913 0f9e AF0F0000 		.4byte	0xfaf
 2914 0fa2 2C       		.uleb128 0x2c
 2915 0fa3 01       		.uleb128 0x1
 2916 0fa4 51       		.byte	0x51
 2917 0fa5 02       		.uleb128 0x2
 2918 0fa6 08       		.byte	0x8
 2919 0fa7 C0       		.byte	0xc0
 2920 0fa8 2C       		.uleb128 0x2c
 2921 0fa9 01       		.uleb128 0x1
 2922 0faa 50       		.byte	0x50
 2923 0fab 02       		.uleb128 0x2
 2924 0fac 08       		.byte	0x8
 2925 0fad 47       		.byte	0x47
 2926 0fae 00       		.byte	0
 2927 0faf 2D       		.uleb128 0x2d
 2928 0fb0 48030000 		.4byte	.LVL58
 2929 0fb4 59110000 		.4byte	0x1159
 2930 0fb8 C90F0000 		.4byte	0xfc9
 2931 0fbc 2C       		.uleb128 0x2c
 2932 0fbd 01       		.uleb128 0x1
 2933 0fbe 51       		.byte	0x51
 2934 0fbf 02       		.uleb128 0x2
 2935 0fc0 08       		.byte	0x8
 2936 0fc1 C0       		.byte	0xc0
 2937 0fc2 2C       		.uleb128 0x2c
 2938 0fc3 01       		.uleb128 0x1
 2939 0fc4 50       		.byte	0x50
 2940 0fc5 02       		.uleb128 0x2
 2941 0fc6 08       		.byte	0x8
 2942 0fc7 26       		.byte	0x26
 2943 0fc8 00       		.byte	0
 2944 0fc9 2D       		.uleb128 0x2d
 2945 0fca 5C030000 		.4byte	.LVL61
 2946 0fce 59110000 		.4byte	0x1159
 2947 0fd2 E30F0000 		.4byte	0xfe3
ARM GAS  /var/folders/28/j9jfyj_n4wz3qtvnym210h2c0000gn/T//cc7hJqmk.s 			page 53


 2948 0fd6 2C       		.uleb128 0x2c
 2949 0fd7 01       		.uleb128 0x1
 2950 0fd8 51       		.byte	0x51
 2951 0fd9 02       		.uleb128 0x2
 2952 0fda 08       		.byte	0x8
 2953 0fdb C0       		.byte	0xc0
 2954 0fdc 2C       		.uleb128 0x2c
 2955 0fdd 01       		.uleb128 0x1
 2956 0fde 50       		.byte	0x50
 2957 0fdf 02       		.uleb128 0x2
 2958 0fe0 08       		.byte	0x8
 2959 0fe1 27       		.byte	0x27
 2960 0fe2 00       		.byte	0
 2961 0fe3 2B       		.uleb128 0x2b
 2962 0fe4 70030000 		.4byte	.LVL64
 2963 0fe8 59110000 		.4byte	0x1159
 2964 0fec 2C       		.uleb128 0x2c
 2965 0fed 01       		.uleb128 0x1
 2966 0fee 51       		.byte	0x51
 2967 0fef 02       		.uleb128 0x2
 2968 0ff0 08       		.byte	0x8
 2969 0ff1 C0       		.byte	0xc0
 2970 0ff2 2C       		.uleb128 0x2c
 2971 0ff3 01       		.uleb128 0x1
 2972 0ff4 50       		.byte	0x50
 2973 0ff5 02       		.uleb128 0x2
 2974 0ff6 08       		.byte	0x8
 2975 0ff7 25       		.byte	0x25
 2976 0ff8 00       		.byte	0
 2977 0ff9 00       		.byte	0
 2978 0ffa 2E       		.uleb128 0x2e
 2979 0ffb 3B070000 		.4byte	.LASF145
 2980 0fff 01       		.byte	0x1
 2981 1000 E701     		.2byte	0x1e7
 2982 1002 A0030000 		.4byte	.LFB144
 2983 1006 80000000 		.4byte	.LFE144-.LFB144
 2984 100a 01       		.uleb128 0x1
 2985 100b 9C       		.byte	0x9c
 2986 100c 8B100000 		.4byte	0x108b
 2987 1010 30       		.uleb128 0x30
 2988 1011 73647000 		.ascii	"sdp\000"
 2989 1015 01       		.byte	0x1
 2990 1016 E701     		.2byte	0x1e7
 2991 1018 DD0A0000 		.4byte	0xadd
 2992 101c 29020000 		.4byte	.LLST12
 2993 1020 32       		.uleb128 0x32
 2994 1021 EE0A0000 		.4byte	0xaee
 2995 1025 AE030000 		.4byte	.LBB39
 2996 1029 78000000 		.4byte	.Ldebug_ranges0+0x78
 2997 102d 01       		.byte	0x1
 2998 102e EA01     		.2byte	0x1ea
 2999 1030 3E100000 		.4byte	0x103e
 3000 1034 27       		.uleb128 0x27
 3001 1035 FA0A0000 		.4byte	0xafa
 3002 1039 95020000 		.4byte	.LLST13
 3003 103d 00       		.byte	0
 3004 103e 33       		.uleb128 0x33
ARM GAS  /var/folders/28/j9jfyj_n4wz3qtvnym210h2c0000gn/T//cc7hJqmk.s 			page 54


 3005 103f DC030000 		.4byte	.LVL69
 3006 1043 70110000 		.4byte	0x1170
 3007 1047 52100000 		.4byte	0x1052
 3008 104b 2C       		.uleb128 0x2c
 3009 104c 01       		.uleb128 0x1
 3010 104d 50       		.byte	0x50
 3011 104e 02       		.uleb128 0x2
 3012 104f 08       		.byte	0x8
 3013 1050 47       		.byte	0x47
 3014 1051 00       		.byte	0
 3015 1052 33       		.uleb128 0x33
 3016 1053 EC030000 		.4byte	.LVL72
 3017 1057 70110000 		.4byte	0x1170
 3018 105b 66100000 		.4byte	0x1066
 3019 105f 2C       		.uleb128 0x2c
 3020 1060 01       		.uleb128 0x1
 3021 1061 50       		.byte	0x50
 3022 1062 02       		.uleb128 0x2
 3023 1063 08       		.byte	0x8
 3024 1064 25       		.byte	0x25
 3025 1065 00       		.byte	0
 3026 1066 33       		.uleb128 0x33
 3027 1067 FC030000 		.4byte	.LVL74
 3028 106b 70110000 		.4byte	0x1170
 3029 106f 7A100000 		.4byte	0x107a
 3030 1073 2C       		.uleb128 0x2c
 3031 1074 01       		.uleb128 0x1
 3032 1075 50       		.byte	0x50
 3033 1076 02       		.uleb128 0x2
 3034 1077 08       		.byte	0x8
 3035 1078 26       		.byte	0x26
 3036 1079 00       		.byte	0
 3037 107a 34       		.uleb128 0x34
 3038 107b 0C040000 		.4byte	.LVL76
 3039 107f 70110000 		.4byte	0x1170
 3040 1083 2C       		.uleb128 0x2c
 3041 1084 01       		.uleb128 0x1
 3042 1085 50       		.byte	0x50
 3043 1086 02       		.uleb128 0x2
 3044 1087 08       		.byte	0x8
 3045 1088 27       		.byte	0x27
 3046 1089 00       		.byte	0
 3047 108a 00       		.byte	0
 3048 108b 35       		.uleb128 0x35
 3049 108c 4C010000 		.4byte	.LASF146
 3050 1090 01       		.byte	0x1
 3051 1091 49       		.byte	0x49
 3052 1092 E90A0000 		.4byte	0xae9
 3053 1096 05       		.uleb128 0x5
 3054 1097 03       		.byte	0x3
 3055 1098 00000000 		.4byte	default_config
 3056 109c 36       		.uleb128 0x36
 3057 109d BB000000 		.4byte	.LASF147
 3058 10a1 10       		.byte	0x10
 3059 10a2 DF07     		.2byte	0x7df
 3060 10a4 38060000 		.4byte	0x638
 3061 10a8 37       		.uleb128 0x37
ARM GAS  /var/folders/28/j9jfyj_n4wz3qtvnym210h2c0000gn/T//cc7hJqmk.s 			page 55


 3062 10a9 53443100 		.ascii	"SD1\000"
 3063 10ad 01       		.byte	0x1
 3064 10ae 28       		.byte	0x28
 3065 10af 63090000 		.4byte	0x963
 3066 10b3 05       		.uleb128 0x5
 3067 10b4 03       		.byte	0x3
 3068 10b5 00000000 		.4byte	SD1
 3069 10b9 37       		.uleb128 0x37
 3070 10ba 53443200 		.ascii	"SD2\000"
 3071 10be 01       		.byte	0x1
 3072 10bf 2D       		.byte	0x2d
 3073 10c0 63090000 		.4byte	0x963
 3074 10c4 05       		.uleb128 0x5
 3075 10c5 03       		.byte	0x3
 3076 10c6 00000000 		.4byte	SD2
 3077 10ca 37       		.uleb128 0x37
 3078 10cb 53443300 		.ascii	"SD3\000"
 3079 10cf 01       		.byte	0x1
 3080 10d0 32       		.byte	0x32
 3081 10d1 63090000 		.4byte	0x963
 3082 10d5 05       		.uleb128 0x5
 3083 10d6 03       		.byte	0x3
 3084 10d7 00000000 		.4byte	SD3
 3085 10db 37       		.uleb128 0x37
 3086 10dc 53443600 		.ascii	"SD6\000"
 3087 10e0 01       		.byte	0x1
 3088 10e1 41       		.byte	0x41
 3089 10e2 63090000 		.4byte	0x963
 3090 10e6 05       		.uleb128 0x5
 3091 10e7 03       		.byte	0x3
 3092 10e8 00000000 		.4byte	SD6
 3093 10ec 38       		.uleb128 0x38
 3094 10ed 98010000 		.4byte	.LASF148
 3095 10f1 0A       		.byte	0xa
 3096 10f2 BA       		.byte	0xba
 3097 10f3 02110000 		.4byte	0x1102
 3098 10f7 12       		.uleb128 0x12
 3099 10f8 02110000 		.4byte	0x1102
 3100 10fc 12       		.uleb128 0x12
 3101 10fd 22010000 		.4byte	0x122
 3102 1101 00       		.byte	0
 3103 1102 09       		.uleb128 0x9
 3104 1103 04       		.byte	0x4
 3105 1104 9D040000 		.4byte	0x49d
 3106 1108 39       		.uleb128 0x39
 3107 1109 08060000 		.4byte	.LASF149
 3108 110d 0D       		.byte	0xd
 3109 110e 3901     		.2byte	0x139
 3110 1110 1F110000 		.4byte	0x111f
 3111 1114 12       		.uleb128 0x12
 3112 1115 DD0A0000 		.4byte	0xadd
 3113 1119 12       		.uleb128 0x12
 3114 111a A2000000 		.4byte	0xa2
 3115 111e 00       		.byte	0
 3116 111f 3A       		.uleb128 0x3a
 3117 1120 86010000 		.4byte	.LASF155
 3118 1124 0B       		.byte	0xb
ARM GAS  /var/folders/28/j9jfyj_n4wz3qtvnym210h2c0000gn/T//cc7hJqmk.s 			page 56


 3119 1125 6E01     		.2byte	0x16e
 3120 1127 0C010000 		.4byte	0x10c
 3121 112b 35110000 		.4byte	0x1135
 3122 112f 12       		.uleb128 0x12
 3123 1130 AB0A0000 		.4byte	0xaab
 3124 1134 00       		.byte	0
 3125 1135 3B       		.uleb128 0x3b
 3126 1136 75020000 		.4byte	.LASF156
 3127 113a 08       		.byte	0x8
 3128 113b 0302     		.2byte	0x203
 3129 113d 39       		.uleb128 0x39
 3130 113e D2000000 		.4byte	.LASF150
 3131 1142 0D       		.byte	0xd
 3132 1143 3601     		.2byte	0x136
 3133 1145 59110000 		.4byte	0x1159
 3134 1149 12       		.uleb128 0x12
 3135 114a DD0A0000 		.4byte	0xadd
 3136 114e 12       		.uleb128 0x12
 3137 114f 82050000 		.4byte	0x582
 3138 1153 12       		.uleb128 0x12
 3139 1154 82050000 		.4byte	0x582
 3140 1158 00       		.byte	0
 3141 1159 39       		.uleb128 0x39
 3142 115a 00000000 		.4byte	.LASF151
 3143 115e 0F       		.byte	0xf
 3144 115f 2301     		.2byte	0x123
 3145 1161 70110000 		.4byte	0x1170
 3146 1165 12       		.uleb128 0x12
 3147 1166 C3000000 		.4byte	0xc3
 3148 116a 12       		.uleb128 0x12
 3149 116b C3000000 		.4byte	0xc3
 3150 116f 00       		.byte	0
 3151 1170 3C       		.uleb128 0x3c
 3152 1171 DA050000 		.4byte	.LASF157
 3153 1175 0F       		.byte	0xf
 3154 1176 2401     		.2byte	0x124
 3155 1178 12       		.uleb128 0x12
 3156 1179 C3000000 		.4byte	0xc3
 3157 117d 00       		.byte	0
 3158 117e 00       		.byte	0
 3159              		.section	.debug_abbrev,"",%progbits
 3160              	.Ldebug_abbrev0:
 3161 0000 01       		.uleb128 0x1
 3162 0001 11       		.uleb128 0x11
 3163 0002 01       		.byte	0x1
 3164 0003 25       		.uleb128 0x25
 3165 0004 0E       		.uleb128 0xe
 3166 0005 13       		.uleb128 0x13
 3167 0006 0B       		.uleb128 0xb
 3168 0007 03       		.uleb128 0x3
 3169 0008 0E       		.uleb128 0xe
 3170 0009 1B       		.uleb128 0x1b
 3171 000a 0E       		.uleb128 0xe
 3172 000b 11       		.uleb128 0x11
 3173 000c 01       		.uleb128 0x1
 3174 000d 12       		.uleb128 0x12
 3175 000e 06       		.uleb128 0x6
ARM GAS  /var/folders/28/j9jfyj_n4wz3qtvnym210h2c0000gn/T//cc7hJqmk.s 			page 57


 3176 000f 10       		.uleb128 0x10
 3177 0010 17       		.uleb128 0x17
 3178 0011 00       		.byte	0
 3179 0012 00       		.byte	0
 3180 0013 02       		.uleb128 0x2
 3181 0014 24       		.uleb128 0x24
 3182 0015 00       		.byte	0
 3183 0016 0B       		.uleb128 0xb
 3184 0017 0B       		.uleb128 0xb
 3185 0018 3E       		.uleb128 0x3e
 3186 0019 0B       		.uleb128 0xb
 3187 001a 03       		.uleb128 0x3
 3188 001b 08       		.uleb128 0x8
 3189 001c 00       		.byte	0
 3190 001d 00       		.byte	0
 3191 001e 03       		.uleb128 0x3
 3192 001f 16       		.uleb128 0x16
 3193 0020 00       		.byte	0
 3194 0021 03       		.uleb128 0x3
 3195 0022 0E       		.uleb128 0xe
 3196 0023 3A       		.uleb128 0x3a
 3197 0024 0B       		.uleb128 0xb
 3198 0025 3B       		.uleb128 0x3b
 3199 0026 0B       		.uleb128 0xb
 3200 0027 49       		.uleb128 0x49
 3201 0028 13       		.uleb128 0x13
 3202 0029 00       		.byte	0
 3203 002a 00       		.byte	0
 3204 002b 04       		.uleb128 0x4
 3205 002c 24       		.uleb128 0x24
 3206 002d 00       		.byte	0
 3207 002e 0B       		.uleb128 0xb
 3208 002f 0B       		.uleb128 0xb
 3209 0030 3E       		.uleb128 0x3e
 3210 0031 0B       		.uleb128 0xb
 3211 0032 03       		.uleb128 0x3
 3212 0033 0E       		.uleb128 0xe
 3213 0034 00       		.byte	0
 3214 0035 00       		.byte	0
 3215 0036 05       		.uleb128 0x5
 3216 0037 13       		.uleb128 0x13
 3217 0038 01       		.byte	0x1
 3218 0039 03       		.uleb128 0x3
 3219 003a 0E       		.uleb128 0xe
 3220 003b 0B       		.uleb128 0xb
 3221 003c 0B       		.uleb128 0xb
 3222 003d 3A       		.uleb128 0x3a
 3223 003e 0B       		.uleb128 0xb
 3224 003f 3B       		.uleb128 0x3b
 3225 0040 0B       		.uleb128 0xb
 3226 0041 01       		.uleb128 0x1
 3227 0042 13       		.uleb128 0x13
 3228 0043 00       		.byte	0
 3229 0044 00       		.byte	0
 3230 0045 06       		.uleb128 0x6
 3231 0046 0D       		.uleb128 0xd
 3232 0047 00       		.byte	0
ARM GAS  /var/folders/28/j9jfyj_n4wz3qtvnym210h2c0000gn/T//cc7hJqmk.s 			page 58


 3233 0048 03       		.uleb128 0x3
 3234 0049 0E       		.uleb128 0xe
 3235 004a 3A       		.uleb128 0x3a
 3236 004b 0B       		.uleb128 0xb
 3237 004c 3B       		.uleb128 0x3b
 3238 004d 0B       		.uleb128 0xb
 3239 004e 49       		.uleb128 0x49
 3240 004f 13       		.uleb128 0x13
 3241 0050 38       		.uleb128 0x38
 3242 0051 0B       		.uleb128 0xb
 3243 0052 00       		.byte	0
 3244 0053 00       		.byte	0
 3245 0054 07       		.uleb128 0x7
 3246 0055 0D       		.uleb128 0xd
 3247 0056 00       		.byte	0
 3248 0057 03       		.uleb128 0x3
 3249 0058 08       		.uleb128 0x8
 3250 0059 3A       		.uleb128 0x3a
 3251 005a 0B       		.uleb128 0xb
 3252 005b 3B       		.uleb128 0x3b
 3253 005c 0B       		.uleb128 0xb
 3254 005d 49       		.uleb128 0x49
 3255 005e 13       		.uleb128 0x13
 3256 005f 38       		.uleb128 0x38
 3257 0060 0B       		.uleb128 0xb
 3258 0061 00       		.byte	0
 3259 0062 00       		.byte	0
 3260 0063 08       		.uleb128 0x8
 3261 0064 13       		.uleb128 0x13
 3262 0065 01       		.byte	0x1
 3263 0066 0B       		.uleb128 0xb
 3264 0067 0B       		.uleb128 0xb
 3265 0068 3A       		.uleb128 0x3a
 3266 0069 0B       		.uleb128 0xb
 3267 006a 3B       		.uleb128 0x3b
 3268 006b 0B       		.uleb128 0xb
 3269 006c 01       		.uleb128 0x1
 3270 006d 13       		.uleb128 0x13
 3271 006e 00       		.byte	0
 3272 006f 00       		.byte	0
 3273 0070 09       		.uleb128 0x9
 3274 0071 0F       		.uleb128 0xf
 3275 0072 00       		.byte	0
 3276 0073 0B       		.uleb128 0xb
 3277 0074 0B       		.uleb128 0xb
 3278 0075 49       		.uleb128 0x49
 3279 0076 13       		.uleb128 0x13
 3280 0077 00       		.byte	0
 3281 0078 00       		.byte	0
 3282 0079 0A       		.uleb128 0xa
 3283 007a 0F       		.uleb128 0xf
 3284 007b 00       		.byte	0
 3285 007c 0B       		.uleb128 0xb
 3286 007d 0B       		.uleb128 0xb
 3287 007e 00       		.byte	0
 3288 007f 00       		.byte	0
 3289 0080 0B       		.uleb128 0xb
ARM GAS  /var/folders/28/j9jfyj_n4wz3qtvnym210h2c0000gn/T//cc7hJqmk.s 			page 59


 3290 0081 13       		.uleb128 0x13
 3291 0082 01       		.byte	0x1
 3292 0083 03       		.uleb128 0x3
 3293 0084 0E       		.uleb128 0xe
 3294 0085 0B       		.uleb128 0xb
 3295 0086 0B       		.uleb128 0xb
 3296 0087 3A       		.uleb128 0x3a
 3297 0088 0B       		.uleb128 0xb
 3298 0089 3B       		.uleb128 0x3b
 3299 008a 05       		.uleb128 0x5
 3300 008b 01       		.uleb128 0x1
 3301 008c 13       		.uleb128 0x13
 3302 008d 00       		.byte	0
 3303 008e 00       		.byte	0
 3304 008f 0C       		.uleb128 0xc
 3305 0090 0D       		.uleb128 0xd
 3306 0091 00       		.byte	0
 3307 0092 03       		.uleb128 0x3
 3308 0093 08       		.uleb128 0x8
 3309 0094 3A       		.uleb128 0x3a
 3310 0095 0B       		.uleb128 0xb
 3311 0096 3B       		.uleb128 0x3b
 3312 0097 05       		.uleb128 0x5
 3313 0098 49       		.uleb128 0x49
 3314 0099 13       		.uleb128 0x13
 3315 009a 38       		.uleb128 0x38
 3316 009b 0B       		.uleb128 0xb
 3317 009c 00       		.byte	0
 3318 009d 00       		.byte	0
 3319 009e 0D       		.uleb128 0xd
 3320 009f 35       		.uleb128 0x35
 3321 00a0 00       		.byte	0
 3322 00a1 49       		.uleb128 0x49
 3323 00a2 13       		.uleb128 0x13
 3324 00a3 00       		.byte	0
 3325 00a4 00       		.byte	0
 3326 00a5 0E       		.uleb128 0xe
 3327 00a6 17       		.uleb128 0x17
 3328 00a7 01       		.byte	0x1
 3329 00a8 0B       		.uleb128 0xb
 3330 00a9 0B       		.uleb128 0xb
 3331 00aa 3A       		.uleb128 0x3a
 3332 00ab 0B       		.uleb128 0xb
 3333 00ac 3B       		.uleb128 0x3b
 3334 00ad 0B       		.uleb128 0xb
 3335 00ae 01       		.uleb128 0x1
 3336 00af 13       		.uleb128 0x13
 3337 00b0 00       		.byte	0
 3338 00b1 00       		.byte	0
 3339 00b2 0F       		.uleb128 0xf
 3340 00b3 0D       		.uleb128 0xd
 3341 00b4 00       		.byte	0
 3342 00b5 03       		.uleb128 0x3
 3343 00b6 0E       		.uleb128 0xe
 3344 00b7 3A       		.uleb128 0x3a
 3345 00b8 0B       		.uleb128 0xb
 3346 00b9 3B       		.uleb128 0x3b
ARM GAS  /var/folders/28/j9jfyj_n4wz3qtvnym210h2c0000gn/T//cc7hJqmk.s 			page 60


 3347 00ba 0B       		.uleb128 0xb
 3348 00bb 49       		.uleb128 0x49
 3349 00bc 13       		.uleb128 0x13
 3350 00bd 00       		.byte	0
 3351 00be 00       		.byte	0
 3352 00bf 10       		.uleb128 0x10
 3353 00c0 26       		.uleb128 0x26
 3354 00c1 00       		.byte	0
 3355 00c2 49       		.uleb128 0x49
 3356 00c3 13       		.uleb128 0x13
 3357 00c4 00       		.byte	0
 3358 00c5 00       		.byte	0
 3359 00c6 11       		.uleb128 0x11
 3360 00c7 15       		.uleb128 0x15
 3361 00c8 01       		.byte	0x1
 3362 00c9 27       		.uleb128 0x27
 3363 00ca 19       		.uleb128 0x19
 3364 00cb 49       		.uleb128 0x49
 3365 00cc 13       		.uleb128 0x13
 3366 00cd 01       		.uleb128 0x1
 3367 00ce 13       		.uleb128 0x13
 3368 00cf 00       		.byte	0
 3369 00d0 00       		.byte	0
 3370 00d1 12       		.uleb128 0x12
 3371 00d2 05       		.uleb128 0x5
 3372 00d3 00       		.byte	0
 3373 00d4 49       		.uleb128 0x49
 3374 00d5 13       		.uleb128 0x13
 3375 00d6 00       		.byte	0
 3376 00d7 00       		.byte	0
 3377 00d8 13       		.uleb128 0x13
 3378 00d9 15       		.uleb128 0x15
 3379 00da 01       		.byte	0x1
 3380 00db 27       		.uleb128 0x27
 3381 00dc 19       		.uleb128 0x19
 3382 00dd 01       		.uleb128 0x1
 3383 00de 13       		.uleb128 0x13
 3384 00df 00       		.byte	0
 3385 00e0 00       		.byte	0
 3386 00e1 14       		.uleb128 0x14
 3387 00e2 01       		.uleb128 0x1
 3388 00e3 01       		.byte	0x1
 3389 00e4 49       		.uleb128 0x49
 3390 00e5 13       		.uleb128 0x13
 3391 00e6 01       		.uleb128 0x1
 3392 00e7 13       		.uleb128 0x13
 3393 00e8 00       		.byte	0
 3394 00e9 00       		.byte	0
 3395 00ea 15       		.uleb128 0x15
 3396 00eb 21       		.uleb128 0x21
 3397 00ec 00       		.byte	0
 3398 00ed 49       		.uleb128 0x49
 3399 00ee 13       		.uleb128 0x13
 3400 00ef 2F       		.uleb128 0x2f
 3401 00f0 0B       		.uleb128 0xb
 3402 00f1 00       		.byte	0
 3403 00f2 00       		.byte	0
ARM GAS  /var/folders/28/j9jfyj_n4wz3qtvnym210h2c0000gn/T//cc7hJqmk.s 			page 61


 3404 00f3 16       		.uleb128 0x16
 3405 00f4 13       		.uleb128 0x13
 3406 00f5 01       		.byte	0x1
 3407 00f6 0B       		.uleb128 0xb
 3408 00f7 0B       		.uleb128 0xb
 3409 00f8 3A       		.uleb128 0x3a
 3410 00f9 0B       		.uleb128 0xb
 3411 00fa 3B       		.uleb128 0x3b
 3412 00fb 05       		.uleb128 0x5
 3413 00fc 01       		.uleb128 0x1
 3414 00fd 13       		.uleb128 0x13
 3415 00fe 00       		.byte	0
 3416 00ff 00       		.byte	0
 3417 0100 17       		.uleb128 0x17
 3418 0101 0D       		.uleb128 0xd
 3419 0102 00       		.byte	0
 3420 0103 03       		.uleb128 0x3
 3421 0104 0E       		.uleb128 0xe
 3422 0105 3A       		.uleb128 0x3a
 3423 0106 0B       		.uleb128 0xb
 3424 0107 3B       		.uleb128 0x3b
 3425 0108 05       		.uleb128 0x5
 3426 0109 49       		.uleb128 0x49
 3427 010a 13       		.uleb128 0x13
 3428 010b 38       		.uleb128 0x38
 3429 010c 0B       		.uleb128 0xb
 3430 010d 00       		.byte	0
 3431 010e 00       		.byte	0
 3432 010f 18       		.uleb128 0x18
 3433 0110 16       		.uleb128 0x16
 3434 0111 00       		.byte	0
 3435 0112 03       		.uleb128 0x3
 3436 0113 0E       		.uleb128 0xe
 3437 0114 3A       		.uleb128 0x3a
 3438 0115 0B       		.uleb128 0xb
 3439 0116 3B       		.uleb128 0x3b
 3440 0117 05       		.uleb128 0x5
 3441 0118 49       		.uleb128 0x49
 3442 0119 13       		.uleb128 0x13
 3443 011a 00       		.byte	0
 3444 011b 00       		.byte	0
 3445 011c 19       		.uleb128 0x19
 3446 011d 04       		.uleb128 0x4
 3447 011e 01       		.byte	0x1
 3448 011f 0B       		.uleb128 0xb
 3449 0120 0B       		.uleb128 0xb
 3450 0121 3A       		.uleb128 0x3a
 3451 0122 0B       		.uleb128 0xb
 3452 0123 3B       		.uleb128 0x3b
 3453 0124 0B       		.uleb128 0xb
 3454 0125 01       		.uleb128 0x1
 3455 0126 13       		.uleb128 0x13
 3456 0127 00       		.byte	0
 3457 0128 00       		.byte	0
 3458 0129 1A       		.uleb128 0x1a
 3459 012a 28       		.uleb128 0x28
 3460 012b 00       		.byte	0
ARM GAS  /var/folders/28/j9jfyj_n4wz3qtvnym210h2c0000gn/T//cc7hJqmk.s 			page 62


 3461 012c 03       		.uleb128 0x3
 3462 012d 0E       		.uleb128 0xe
 3463 012e 1C       		.uleb128 0x1c
 3464 012f 0D       		.uleb128 0xd
 3465 0130 00       		.byte	0
 3466 0131 00       		.byte	0
 3467 0132 1B       		.uleb128 0x1b
 3468 0133 2E       		.uleb128 0x2e
 3469 0134 01       		.byte	0x1
 3470 0135 03       		.uleb128 0x3
 3471 0136 0E       		.uleb128 0xe
 3472 0137 3A       		.uleb128 0x3a
 3473 0138 0B       		.uleb128 0xb
 3474 0139 3B       		.uleb128 0x3b
 3475 013a 0B       		.uleb128 0xb
 3476 013b 27       		.uleb128 0x27
 3477 013c 19       		.uleb128 0x19
 3478 013d 20       		.uleb128 0x20
 3479 013e 0B       		.uleb128 0xb
 3480 013f 01       		.uleb128 0x1
 3481 0140 13       		.uleb128 0x13
 3482 0141 00       		.byte	0
 3483 0142 00       		.byte	0
 3484 0143 1C       		.uleb128 0x1c
 3485 0144 05       		.uleb128 0x5
 3486 0145 00       		.byte	0
 3487 0146 03       		.uleb128 0x3
 3488 0147 08       		.uleb128 0x8
 3489 0148 3A       		.uleb128 0x3a
 3490 0149 0B       		.uleb128 0xb
 3491 014a 3B       		.uleb128 0x3b
 3492 014b 0B       		.uleb128 0xb
 3493 014c 49       		.uleb128 0x49
 3494 014d 13       		.uleb128 0x13
 3495 014e 00       		.byte	0
 3496 014f 00       		.byte	0
 3497 0150 1D       		.uleb128 0x1d
 3498 0151 05       		.uleb128 0x5
 3499 0152 00       		.byte	0
 3500 0153 03       		.uleb128 0x3
 3501 0154 0E       		.uleb128 0xe
 3502 0155 3A       		.uleb128 0x3a
 3503 0156 0B       		.uleb128 0xb
 3504 0157 3B       		.uleb128 0x3b
 3505 0158 0B       		.uleb128 0xb
 3506 0159 49       		.uleb128 0x49
 3507 015a 13       		.uleb128 0x13
 3508 015b 00       		.byte	0
 3509 015c 00       		.byte	0
 3510 015d 1E       		.uleb128 0x1e
 3511 015e 34       		.uleb128 0x34
 3512 015f 00       		.byte	0
 3513 0160 03       		.uleb128 0x3
 3514 0161 08       		.uleb128 0x8
 3515 0162 3A       		.uleb128 0x3a
 3516 0163 0B       		.uleb128 0xb
 3517 0164 3B       		.uleb128 0x3b
ARM GAS  /var/folders/28/j9jfyj_n4wz3qtvnym210h2c0000gn/T//cc7hJqmk.s 			page 63


 3518 0165 0B       		.uleb128 0xb
 3519 0166 49       		.uleb128 0x49
 3520 0167 13       		.uleb128 0x13
 3521 0168 00       		.byte	0
 3522 0169 00       		.byte	0
 3523 016a 1F       		.uleb128 0x1f
 3524 016b 2E       		.uleb128 0x2e
 3525 016c 01       		.byte	0x1
 3526 016d 03       		.uleb128 0x3
 3527 016e 0E       		.uleb128 0xe
 3528 016f 3A       		.uleb128 0x3a
 3529 0170 0B       		.uleb128 0xb
 3530 0171 3B       		.uleb128 0x3b
 3531 0172 0B       		.uleb128 0xb
 3532 0173 27       		.uleb128 0x27
 3533 0174 19       		.uleb128 0x19
 3534 0175 11       		.uleb128 0x11
 3535 0176 01       		.uleb128 0x1
 3536 0177 12       		.uleb128 0x12
 3537 0178 06       		.uleb128 0x6
 3538 0179 40       		.uleb128 0x40
 3539 017a 18       		.uleb128 0x18
 3540 017b 9742     		.uleb128 0x2117
 3541 017d 19       		.uleb128 0x19
 3542 017e 01       		.uleb128 0x1
 3543 017f 13       		.uleb128 0x13
 3544 0180 00       		.byte	0
 3545 0181 00       		.byte	0
 3546 0182 20       		.uleb128 0x20
 3547 0183 05       		.uleb128 0x5
 3548 0184 00       		.byte	0
 3549 0185 03       		.uleb128 0x3
 3550 0186 08       		.uleb128 0x8
 3551 0187 3A       		.uleb128 0x3a
 3552 0188 0B       		.uleb128 0xb
 3553 0189 3B       		.uleb128 0x3b
 3554 018a 0B       		.uleb128 0xb
 3555 018b 49       		.uleb128 0x49
 3556 018c 13       		.uleb128 0x13
 3557 018d 02       		.uleb128 0x2
 3558 018e 18       		.uleb128 0x18
 3559 018f 00       		.byte	0
 3560 0190 00       		.byte	0
 3561 0191 21       		.uleb128 0x21
 3562 0192 05       		.uleb128 0x5
 3563 0193 00       		.byte	0
 3564 0194 03       		.uleb128 0x3
 3565 0195 08       		.uleb128 0x8
 3566 0196 3A       		.uleb128 0x3a
 3567 0197 0B       		.uleb128 0xb
 3568 0198 3B       		.uleb128 0x3b
 3569 0199 0B       		.uleb128 0xb
 3570 019a 49       		.uleb128 0x49
 3571 019b 13       		.uleb128 0x13
 3572 019c 02       		.uleb128 0x2
 3573 019d 17       		.uleb128 0x17
 3574 019e 00       		.byte	0
ARM GAS  /var/folders/28/j9jfyj_n4wz3qtvnym210h2c0000gn/T//cc7hJqmk.s 			page 64


 3575 019f 00       		.byte	0
 3576 01a0 22       		.uleb128 0x22
 3577 01a1 34       		.uleb128 0x34
 3578 01a2 00       		.byte	0
 3579 01a3 03       		.uleb128 0x3
 3580 01a4 08       		.uleb128 0x8
 3581 01a5 3A       		.uleb128 0x3a
 3582 01a6 0B       		.uleb128 0xb
 3583 01a7 3B       		.uleb128 0x3b
 3584 01a8 0B       		.uleb128 0xb
 3585 01a9 49       		.uleb128 0x49
 3586 01aa 13       		.uleb128 0x13
 3587 01ab 02       		.uleb128 0x2
 3588 01ac 18       		.uleb128 0x18
 3589 01ad 00       		.byte	0
 3590 01ae 00       		.byte	0
 3591 01af 23       		.uleb128 0x23
 3592 01b0 34       		.uleb128 0x34
 3593 01b1 00       		.byte	0
 3594 01b2 03       		.uleb128 0x3
 3595 01b3 08       		.uleb128 0x8
 3596 01b4 3A       		.uleb128 0x3a
 3597 01b5 0B       		.uleb128 0xb
 3598 01b6 3B       		.uleb128 0x3b
 3599 01b7 0B       		.uleb128 0xb
 3600 01b8 49       		.uleb128 0x49
 3601 01b9 13       		.uleb128 0x13
 3602 01ba 02       		.uleb128 0x2
 3603 01bb 17       		.uleb128 0x17
 3604 01bc 00       		.byte	0
 3605 01bd 00       		.byte	0
 3606 01be 24       		.uleb128 0x24
 3607 01bf 0B       		.uleb128 0xb
 3608 01c0 01       		.byte	0x1
 3609 01c1 11       		.uleb128 0x11
 3610 01c2 01       		.uleb128 0x1
 3611 01c3 12       		.uleb128 0x12
 3612 01c4 06       		.uleb128 0x6
 3613 01c5 01       		.uleb128 0x1
 3614 01c6 13       		.uleb128 0x13
 3615 01c7 00       		.byte	0
 3616 01c8 00       		.byte	0
 3617 01c9 25       		.uleb128 0x25
 3618 01ca 0B       		.uleb128 0xb
 3619 01cb 01       		.byte	0x1
 3620 01cc 55       		.uleb128 0x55
 3621 01cd 17       		.uleb128 0x17
 3622 01ce 01       		.uleb128 0x1
 3623 01cf 13       		.uleb128 0x13
 3624 01d0 00       		.byte	0
 3625 01d1 00       		.byte	0
 3626 01d2 26       		.uleb128 0x26
 3627 01d3 1D       		.uleb128 0x1d
 3628 01d4 01       		.byte	0x1
 3629 01d5 31       		.uleb128 0x31
 3630 01d6 13       		.uleb128 0x13
 3631 01d7 52       		.uleb128 0x52
ARM GAS  /var/folders/28/j9jfyj_n4wz3qtvnym210h2c0000gn/T//cc7hJqmk.s 			page 65


 3632 01d8 01       		.uleb128 0x1
 3633 01d9 55       		.uleb128 0x55
 3634 01da 17       		.uleb128 0x17
 3635 01db 58       		.uleb128 0x58
 3636 01dc 0B       		.uleb128 0xb
 3637 01dd 59       		.uleb128 0x59
 3638 01de 0B       		.uleb128 0xb
 3639 01df 01       		.uleb128 0x1
 3640 01e0 13       		.uleb128 0x13
 3641 01e1 00       		.byte	0
 3642 01e2 00       		.byte	0
 3643 01e3 27       		.uleb128 0x27
 3644 01e4 05       		.uleb128 0x5
 3645 01e5 00       		.byte	0
 3646 01e6 31       		.uleb128 0x31
 3647 01e7 13       		.uleb128 0x13
 3648 01e8 02       		.uleb128 0x2
 3649 01e9 17       		.uleb128 0x17
 3650 01ea 00       		.byte	0
 3651 01eb 00       		.byte	0
 3652 01ec 28       		.uleb128 0x28
 3653 01ed 05       		.uleb128 0x5
 3654 01ee 00       		.byte	0
 3655 01ef 31       		.uleb128 0x31
 3656 01f0 13       		.uleb128 0x13
 3657 01f1 00       		.byte	0
 3658 01f2 00       		.byte	0
 3659 01f3 29       		.uleb128 0x29
 3660 01f4 0B       		.uleb128 0xb
 3661 01f5 01       		.byte	0x1
 3662 01f6 55       		.uleb128 0x55
 3663 01f7 17       		.uleb128 0x17
 3664 01f8 00       		.byte	0
 3665 01f9 00       		.byte	0
 3666 01fa 2A       		.uleb128 0x2a
 3667 01fb 34       		.uleb128 0x34
 3668 01fc 00       		.byte	0
 3669 01fd 31       		.uleb128 0x31
 3670 01fe 13       		.uleb128 0x13
 3671 01ff 02       		.uleb128 0x2
 3672 0200 17       		.uleb128 0x17
 3673 0201 00       		.byte	0
 3674 0202 00       		.byte	0
 3675 0203 2B       		.uleb128 0x2b
 3676 0204 898201   		.uleb128 0x4109
 3677 0207 01       		.byte	0x1
 3678 0208 11       		.uleb128 0x11
 3679 0209 01       		.uleb128 0x1
 3680 020a 31       		.uleb128 0x31
 3681 020b 13       		.uleb128 0x13
 3682 020c 00       		.byte	0
 3683 020d 00       		.byte	0
 3684 020e 2C       		.uleb128 0x2c
 3685 020f 8A8201   		.uleb128 0x410a
 3686 0212 00       		.byte	0
 3687 0213 02       		.uleb128 0x2
 3688 0214 18       		.uleb128 0x18
ARM GAS  /var/folders/28/j9jfyj_n4wz3qtvnym210h2c0000gn/T//cc7hJqmk.s 			page 66


 3689 0215 9142     		.uleb128 0x2111
 3690 0217 18       		.uleb128 0x18
 3691 0218 00       		.byte	0
 3692 0219 00       		.byte	0
 3693 021a 2D       		.uleb128 0x2d
 3694 021b 898201   		.uleb128 0x4109
 3695 021e 01       		.byte	0x1
 3696 021f 11       		.uleb128 0x11
 3697 0220 01       		.uleb128 0x1
 3698 0221 31       		.uleb128 0x31
 3699 0222 13       		.uleb128 0x13
 3700 0223 01       		.uleb128 0x1
 3701 0224 13       		.uleb128 0x13
 3702 0225 00       		.byte	0
 3703 0226 00       		.byte	0
 3704 0227 2E       		.uleb128 0x2e
 3705 0228 2E       		.uleb128 0x2e
 3706 0229 01       		.byte	0x1
 3707 022a 3F       		.uleb128 0x3f
 3708 022b 19       		.uleb128 0x19
 3709 022c 03       		.uleb128 0x3
 3710 022d 0E       		.uleb128 0xe
 3711 022e 3A       		.uleb128 0x3a
 3712 022f 0B       		.uleb128 0xb
 3713 0230 3B       		.uleb128 0x3b
 3714 0231 05       		.uleb128 0x5
 3715 0232 27       		.uleb128 0x27
 3716 0233 19       		.uleb128 0x19
 3717 0234 11       		.uleb128 0x11
 3718 0235 01       		.uleb128 0x1
 3719 0236 12       		.uleb128 0x12
 3720 0237 06       		.uleb128 0x6
 3721 0238 40       		.uleb128 0x40
 3722 0239 18       		.uleb128 0x18
 3723 023a 9742     		.uleb128 0x2117
 3724 023c 19       		.uleb128 0x19
 3725 023d 01       		.uleb128 0x1
 3726 023e 13       		.uleb128 0x13
 3727 023f 00       		.byte	0
 3728 0240 00       		.byte	0
 3729 0241 2F       		.uleb128 0x2f
 3730 0242 898201   		.uleb128 0x4109
 3731 0245 00       		.byte	0
 3732 0246 11       		.uleb128 0x11
 3733 0247 01       		.uleb128 0x1
 3734 0248 9542     		.uleb128 0x2115
 3735 024a 19       		.uleb128 0x19
 3736 024b 31       		.uleb128 0x31
 3737 024c 13       		.uleb128 0x13
 3738 024d 00       		.byte	0
 3739 024e 00       		.byte	0
 3740 024f 30       		.uleb128 0x30
 3741 0250 05       		.uleb128 0x5
 3742 0251 00       		.byte	0
 3743 0252 03       		.uleb128 0x3
 3744 0253 08       		.uleb128 0x8
 3745 0254 3A       		.uleb128 0x3a
ARM GAS  /var/folders/28/j9jfyj_n4wz3qtvnym210h2c0000gn/T//cc7hJqmk.s 			page 67


 3746 0255 0B       		.uleb128 0xb
 3747 0256 3B       		.uleb128 0x3b
 3748 0257 05       		.uleb128 0x5
 3749 0258 49       		.uleb128 0x49
 3750 0259 13       		.uleb128 0x13
 3751 025a 02       		.uleb128 0x2
 3752 025b 17       		.uleb128 0x17
 3753 025c 00       		.byte	0
 3754 025d 00       		.byte	0
 3755 025e 31       		.uleb128 0x31
 3756 025f 05       		.uleb128 0x5
 3757 0260 00       		.byte	0
 3758 0261 03       		.uleb128 0x3
 3759 0262 0E       		.uleb128 0xe
 3760 0263 3A       		.uleb128 0x3a
 3761 0264 0B       		.uleb128 0xb
 3762 0265 3B       		.uleb128 0x3b
 3763 0266 05       		.uleb128 0x5
 3764 0267 49       		.uleb128 0x49
 3765 0268 13       		.uleb128 0x13
 3766 0269 02       		.uleb128 0x2
 3767 026a 17       		.uleb128 0x17
 3768 026b 00       		.byte	0
 3769 026c 00       		.byte	0
 3770 026d 32       		.uleb128 0x32
 3771 026e 1D       		.uleb128 0x1d
 3772 026f 01       		.byte	0x1
 3773 0270 31       		.uleb128 0x31
 3774 0271 13       		.uleb128 0x13
 3775 0272 52       		.uleb128 0x52
 3776 0273 01       		.uleb128 0x1
 3777 0274 55       		.uleb128 0x55
 3778 0275 17       		.uleb128 0x17
 3779 0276 58       		.uleb128 0x58
 3780 0277 0B       		.uleb128 0xb
 3781 0278 59       		.uleb128 0x59
 3782 0279 05       		.uleb128 0x5
 3783 027a 01       		.uleb128 0x1
 3784 027b 13       		.uleb128 0x13
 3785 027c 00       		.byte	0
 3786 027d 00       		.byte	0
 3787 027e 33       		.uleb128 0x33
 3788 027f 898201   		.uleb128 0x4109
 3789 0282 01       		.byte	0x1
 3790 0283 11       		.uleb128 0x11
 3791 0284 01       		.uleb128 0x1
 3792 0285 9542     		.uleb128 0x2115
 3793 0287 19       		.uleb128 0x19
 3794 0288 31       		.uleb128 0x31
 3795 0289 13       		.uleb128 0x13
 3796 028a 01       		.uleb128 0x1
 3797 028b 13       		.uleb128 0x13
 3798 028c 00       		.byte	0
 3799 028d 00       		.byte	0
 3800 028e 34       		.uleb128 0x34
 3801 028f 898201   		.uleb128 0x4109
 3802 0292 01       		.byte	0x1
ARM GAS  /var/folders/28/j9jfyj_n4wz3qtvnym210h2c0000gn/T//cc7hJqmk.s 			page 68


 3803 0293 11       		.uleb128 0x11
 3804 0294 01       		.uleb128 0x1
 3805 0295 9542     		.uleb128 0x2115
 3806 0297 19       		.uleb128 0x19
 3807 0298 31       		.uleb128 0x31
 3808 0299 13       		.uleb128 0x13
 3809 029a 00       		.byte	0
 3810 029b 00       		.byte	0
 3811 029c 35       		.uleb128 0x35
 3812 029d 34       		.uleb128 0x34
 3813 029e 00       		.byte	0
 3814 029f 03       		.uleb128 0x3
 3815 02a0 0E       		.uleb128 0xe
 3816 02a1 3A       		.uleb128 0x3a
 3817 02a2 0B       		.uleb128 0xb
 3818 02a3 3B       		.uleb128 0x3b
 3819 02a4 0B       		.uleb128 0xb
 3820 02a5 49       		.uleb128 0x49
 3821 02a6 13       		.uleb128 0x13
 3822 02a7 02       		.uleb128 0x2
 3823 02a8 18       		.uleb128 0x18
 3824 02a9 00       		.byte	0
 3825 02aa 00       		.byte	0
 3826 02ab 36       		.uleb128 0x36
 3827 02ac 34       		.uleb128 0x34
 3828 02ad 00       		.byte	0
 3829 02ae 03       		.uleb128 0x3
 3830 02af 0E       		.uleb128 0xe
 3831 02b0 3A       		.uleb128 0x3a
 3832 02b1 0B       		.uleb128 0xb
 3833 02b2 3B       		.uleb128 0x3b
 3834 02b3 05       		.uleb128 0x5
 3835 02b4 49       		.uleb128 0x49
 3836 02b5 13       		.uleb128 0x13
 3837 02b6 3F       		.uleb128 0x3f
 3838 02b7 19       		.uleb128 0x19
 3839 02b8 3C       		.uleb128 0x3c
 3840 02b9 19       		.uleb128 0x19
 3841 02ba 00       		.byte	0
 3842 02bb 00       		.byte	0
 3843 02bc 37       		.uleb128 0x37
 3844 02bd 34       		.uleb128 0x34
 3845 02be 00       		.byte	0
 3846 02bf 03       		.uleb128 0x3
 3847 02c0 08       		.uleb128 0x8
 3848 02c1 3A       		.uleb128 0x3a
 3849 02c2 0B       		.uleb128 0xb
 3850 02c3 3B       		.uleb128 0x3b
 3851 02c4 0B       		.uleb128 0xb
 3852 02c5 49       		.uleb128 0x49
 3853 02c6 13       		.uleb128 0x13
 3854 02c7 3F       		.uleb128 0x3f
 3855 02c8 19       		.uleb128 0x19
 3856 02c9 02       		.uleb128 0x2
 3857 02ca 18       		.uleb128 0x18
 3858 02cb 00       		.byte	0
 3859 02cc 00       		.byte	0
ARM GAS  /var/folders/28/j9jfyj_n4wz3qtvnym210h2c0000gn/T//cc7hJqmk.s 			page 69


 3860 02cd 38       		.uleb128 0x38
 3861 02ce 2E       		.uleb128 0x2e
 3862 02cf 01       		.byte	0x1
 3863 02d0 3F       		.uleb128 0x3f
 3864 02d1 19       		.uleb128 0x19
 3865 02d2 03       		.uleb128 0x3
 3866 02d3 0E       		.uleb128 0xe
 3867 02d4 3A       		.uleb128 0x3a
 3868 02d5 0B       		.uleb128 0xb
 3869 02d6 3B       		.uleb128 0x3b
 3870 02d7 0B       		.uleb128 0xb
 3871 02d8 27       		.uleb128 0x27
 3872 02d9 19       		.uleb128 0x19
 3873 02da 3C       		.uleb128 0x3c
 3874 02db 19       		.uleb128 0x19
 3875 02dc 01       		.uleb128 0x1
 3876 02dd 13       		.uleb128 0x13
 3877 02de 00       		.byte	0
 3878 02df 00       		.byte	0
 3879 02e0 39       		.uleb128 0x39
 3880 02e1 2E       		.uleb128 0x2e
 3881 02e2 01       		.byte	0x1
 3882 02e3 3F       		.uleb128 0x3f
 3883 02e4 19       		.uleb128 0x19
 3884 02e5 03       		.uleb128 0x3
 3885 02e6 0E       		.uleb128 0xe
 3886 02e7 3A       		.uleb128 0x3a
 3887 02e8 0B       		.uleb128 0xb
 3888 02e9 3B       		.uleb128 0x3b
 3889 02ea 05       		.uleb128 0x5
 3890 02eb 27       		.uleb128 0x27
 3891 02ec 19       		.uleb128 0x19
 3892 02ed 3C       		.uleb128 0x3c
 3893 02ee 19       		.uleb128 0x19
 3894 02ef 01       		.uleb128 0x1
 3895 02f0 13       		.uleb128 0x13
 3896 02f1 00       		.byte	0
 3897 02f2 00       		.byte	0
 3898 02f3 3A       		.uleb128 0x3a
 3899 02f4 2E       		.uleb128 0x2e
 3900 02f5 01       		.byte	0x1
 3901 02f6 3F       		.uleb128 0x3f
 3902 02f7 19       		.uleb128 0x19
 3903 02f8 03       		.uleb128 0x3
 3904 02f9 0E       		.uleb128 0xe
 3905 02fa 3A       		.uleb128 0x3a
 3906 02fb 0B       		.uleb128 0xb
 3907 02fc 3B       		.uleb128 0x3b
 3908 02fd 05       		.uleb128 0x5
 3909 02fe 27       		.uleb128 0x27
 3910 02ff 19       		.uleb128 0x19
 3911 0300 49       		.uleb128 0x49
 3912 0301 13       		.uleb128 0x13
 3913 0302 3C       		.uleb128 0x3c
 3914 0303 19       		.uleb128 0x19
 3915 0304 01       		.uleb128 0x1
 3916 0305 13       		.uleb128 0x13
ARM GAS  /var/folders/28/j9jfyj_n4wz3qtvnym210h2c0000gn/T//cc7hJqmk.s 			page 70


 3917 0306 00       		.byte	0
 3918 0307 00       		.byte	0
 3919 0308 3B       		.uleb128 0x3b
 3920 0309 2E       		.uleb128 0x2e
 3921 030a 00       		.byte	0
 3922 030b 3F       		.uleb128 0x3f
 3923 030c 19       		.uleb128 0x19
 3924 030d 03       		.uleb128 0x3
 3925 030e 0E       		.uleb128 0xe
 3926 030f 3A       		.uleb128 0x3a
 3927 0310 0B       		.uleb128 0xb
 3928 0311 3B       		.uleb128 0x3b
 3929 0312 05       		.uleb128 0x5
 3930 0313 27       		.uleb128 0x27
 3931 0314 19       		.uleb128 0x19
 3932 0315 3C       		.uleb128 0x3c
 3933 0316 19       		.uleb128 0x19
 3934 0317 00       		.byte	0
 3935 0318 00       		.byte	0
 3936 0319 3C       		.uleb128 0x3c
 3937 031a 2E       		.uleb128 0x2e
 3938 031b 01       		.byte	0x1
 3939 031c 3F       		.uleb128 0x3f
 3940 031d 19       		.uleb128 0x19
 3941 031e 03       		.uleb128 0x3
 3942 031f 0E       		.uleb128 0xe
 3943 0320 3A       		.uleb128 0x3a
 3944 0321 0B       		.uleb128 0xb
 3945 0322 3B       		.uleb128 0x3b
 3946 0323 05       		.uleb128 0x5
 3947 0324 27       		.uleb128 0x27
 3948 0325 19       		.uleb128 0x19
 3949 0326 3C       		.uleb128 0x3c
 3950 0327 19       		.uleb128 0x19
 3951 0328 00       		.byte	0
 3952 0329 00       		.byte	0
 3953 032a 00       		.byte	0
 3954              		.section	.debug_loc,"",%progbits
 3955              	.Ldebug_loc0:
 3956              	.LLST0:
 3957 0000 80000000 		.4byte	.LVL4-.Ltext0
 3958 0004 96000000 		.4byte	.LVL7-.Ltext0
 3959 0008 0100     		.2byte	0x1
 3960 000a 50       		.byte	0x50
 3961 000b 96000000 		.4byte	.LVL7-.Ltext0
 3962 000f 3C010000 		.4byte	.LVL25-.Ltext0
 3963 0013 0100     		.2byte	0x1
 3964 0015 56       		.byte	0x56
 3965 0016 3C010000 		.4byte	.LVL25-.Ltext0
 3966 001a 48010000 		.4byte	.LVL26-.Ltext0
 3967 001e 0100     		.2byte	0x1
 3968 0020 50       		.byte	0x50
 3969 0021 48010000 		.4byte	.LVL26-.Ltext0
 3970 0025 9C010000 		.4byte	.LFE133-.Ltext0
 3971 0029 0100     		.2byte	0x1
 3972 002b 56       		.byte	0x56
 3973 002c 00000000 		.4byte	0
ARM GAS  /var/folders/28/j9jfyj_n4wz3qtvnym210h2c0000gn/T//cc7hJqmk.s 			page 71


 3974 0030 00000000 		.4byte	0
 3975              	.LLST1:
 3976 0034 94000000 		.4byte	.LVL6-.Ltext0
 3977 0038 24010000 		.4byte	.LVL23-.Ltext0
 3978 003c 0100     		.2byte	0x1
 3979 003e 57       		.byte	0x57
 3980 003f 38010000 		.4byte	.LVL24-.Ltext0
 3981 0043 9C010000 		.4byte	.LFE133-.Ltext0
 3982 0047 0100     		.2byte	0x1
 3983 0049 57       		.byte	0x57
 3984 004a 00000000 		.4byte	0
 3985 004e 00000000 		.4byte	0
 3986              	.LLST2:
 3987 0052 94000000 		.4byte	.LVL6-.Ltext0
 3988 0056 B2000000 		.4byte	.LVL9-.Ltext0
 3989 005a 0100     		.2byte	0x1
 3990 005c 54       		.byte	0x54
 3991 005d B4000000 		.4byte	.LVL10-.Ltext0
 3992 0061 F8000000 		.4byte	.LVL21-.Ltext0
 3993 0065 0100     		.2byte	0x1
 3994 0067 54       		.byte	0x54
 3995 0068 FA000000 		.4byte	.LVL22-.Ltext0
 3996 006c 9C010000 		.4byte	.LFE133-.Ltext0
 3997 0070 0100     		.2byte	0x1
 3998 0072 54       		.byte	0x54
 3999 0073 00000000 		.4byte	0
 4000 0077 00000000 		.4byte	0
 4001              	.LLST3:
 4002 007b AE000000 		.4byte	.LVL8-.Ltext0
 4003 007f BA000000 		.4byte	.LVL11-.Ltext0
 4004 0083 0100     		.2byte	0x1
 4005 0085 51       		.byte	0x51
 4006 0086 EC000000 		.4byte	.LVL18-.Ltext0
 4007 008a F5000000 		.4byte	.LVL20-1-.Ltext0
 4008 008e 0100     		.2byte	0x1
 4009 0090 51       		.byte	0x51
 4010 0091 00000000 		.4byte	0
 4011 0095 00000000 		.4byte	0
 4012              	.LLST4:
 4013 0099 BE000000 		.4byte	.LVL12-.Ltext0
 4014 009d EE000000 		.4byte	.LVL19-.Ltext0
 4015 00a1 0100     		.2byte	0x1
 4016 00a3 54       		.byte	0x54
 4017 00a4 00000000 		.4byte	0
 4018 00a8 00000000 		.4byte	0
 4019              	.LLST5:
 4020 00ac BE000000 		.4byte	.LVL12-.Ltext0
 4021 00b0 C8000000 		.4byte	.LVL13-.Ltext0
 4022 00b4 0200     		.2byte	0x2
 4023 00b6 30       		.byte	0x30
 4024 00b7 9F       		.byte	0x9f
 4025 00b8 C8000000 		.4byte	.LVL13-.Ltext0
 4026 00bc E5000000 		.4byte	.LVL17-1-.Ltext0
 4027 00c0 0100     		.2byte	0x1
 4028 00c2 51       		.byte	0x51
 4029 00c3 00000000 		.4byte	0
 4030 00c7 00000000 		.4byte	0
ARM GAS  /var/folders/28/j9jfyj_n4wz3qtvnym210h2c0000gn/T//cc7hJqmk.s 			page 72


 4031              	.LLST6:
 4032 00cb 68010000 		.4byte	.LVL28-.Ltext0
 4033 00cf 6E010000 		.4byte	.LVL29-.Ltext0
 4034 00d3 0100     		.2byte	0x1
 4035 00d5 50       		.byte	0x50
 4036 00d6 88010000 		.4byte	.LVL31-.Ltext0
 4037 00da 8A010000 		.4byte	.LVL32-.Ltext0
 4038 00de 0100     		.2byte	0x1
 4039 00e0 50       		.byte	0x50
 4040 00e1 00000000 		.4byte	0
 4041 00e5 00000000 		.4byte	0
 4042              	.LLST7:
 4043 00e9 A0020000 		.4byte	.LVL46-.Ltext0
 4044 00ed B2020000 		.4byte	.LVL48-.Ltext0
 4045 00f1 0100     		.2byte	0x1
 4046 00f3 50       		.byte	0x50
 4047 00f4 B2020000 		.4byte	.LVL48-.Ltext0
 4048 00f8 FC020000 		.4byte	.LVL52-.Ltext0
 4049 00fc 0100     		.2byte	0x1
 4050 00fe 55       		.byte	0x55
 4051 00ff FC020000 		.4byte	.LVL52-.Ltext0
 4052 0103 20030000 		.4byte	.LVL53-.Ltext0
 4053 0107 0100     		.2byte	0x1
 4054 0109 50       		.byte	0x50
 4055 010a 20030000 		.4byte	.LVL53-.Ltext0
 4056 010e 36030000 		.4byte	.LVL56-.Ltext0
 4057 0112 0100     		.2byte	0x1
 4058 0114 55       		.byte	0x55
 4059 0115 36030000 		.4byte	.LVL56-.Ltext0
 4060 0119 42030000 		.4byte	.LVL57-.Ltext0
 4061 011d 0100     		.2byte	0x1
 4062 011f 50       		.byte	0x50
 4063 0120 42030000 		.4byte	.LVL57-.Ltext0
 4064 0124 4A030000 		.4byte	.LVL59-.Ltext0
 4065 0128 0100     		.2byte	0x1
 4066 012a 55       		.byte	0x55
 4067 012b 4A030000 		.4byte	.LVL59-.Ltext0
 4068 012f 56030000 		.4byte	.LVL60-.Ltext0
 4069 0133 0100     		.2byte	0x1
 4070 0135 50       		.byte	0x50
 4071 0136 56030000 		.4byte	.LVL60-.Ltext0
 4072 013a 5E030000 		.4byte	.LVL62-.Ltext0
 4073 013e 0100     		.2byte	0x1
 4074 0140 55       		.byte	0x55
 4075 0141 5E030000 		.4byte	.LVL62-.Ltext0
 4076 0145 6A030000 		.4byte	.LVL63-.Ltext0
 4077 0149 0100     		.2byte	0x1
 4078 014b 50       		.byte	0x50
 4079 014c 6A030000 		.4byte	.LVL63-.Ltext0
 4080 0150 98030000 		.4byte	.LFE143-.Ltext0
 4081 0154 0100     		.2byte	0x1
 4082 0156 55       		.byte	0x55
 4083 0157 00000000 		.4byte	0
 4084 015b 00000000 		.4byte	0
 4085              	.LLST8:
 4086 015f A0020000 		.4byte	.LVL46-.Ltext0
 4087 0163 AC020000 		.4byte	.LVL47-.Ltext0
ARM GAS  /var/folders/28/j9jfyj_n4wz3qtvnym210h2c0000gn/T//cc7hJqmk.s 			page 73


 4088 0167 0100     		.2byte	0x1
 4089 0169 51       		.byte	0x51
 4090 016a AC020000 		.4byte	.LVL47-.Ltext0
 4091 016e EE020000 		.4byte	.LVL50-.Ltext0
 4092 0172 0100     		.2byte	0x1
 4093 0174 54       		.byte	0x54
 4094 0175 EE020000 		.4byte	.LVL50-.Ltext0
 4095 0179 FC020000 		.4byte	.LVL52-.Ltext0
 4096 017d 1300     		.2byte	0x13
 4097 017f F3       		.byte	0xf3
 4098 0180 01       		.uleb128 0x1
 4099 0181 51       		.byte	0x51
 4100 0182 03       		.byte	0x3
 4101 0183 00000000 		.4byte	.LANCHOR0
 4102 0187 F3       		.byte	0xf3
 4103 0188 01       		.uleb128 0x1
 4104 0189 51       		.byte	0x51
 4105 018a 30       		.byte	0x30
 4106 018b 2E       		.byte	0x2e
 4107 018c 28       		.byte	0x28
 4108 018d 0100     		.2byte	0x1
 4109 018f 16       		.byte	0x16
 4110 0190 13       		.byte	0x13
 4111 0191 9F       		.byte	0x9f
 4112 0192 FC020000 		.4byte	.LVL52-.Ltext0
 4113 0196 98030000 		.4byte	.LFE143-.Ltext0
 4114 019a 0100     		.2byte	0x1
 4115 019c 54       		.byte	0x54
 4116 019d 00000000 		.4byte	0
 4117 01a1 00000000 		.4byte	0
 4118              	.LLST9:
 4119 01a5 B6020000 		.4byte	.LVL49-.Ltext0
 4120 01a9 FC020000 		.4byte	.LVL52-.Ltext0
 4121 01ad 0100     		.2byte	0x1
 4122 01af 55       		.byte	0x55
 4123 01b0 28030000 		.4byte	.LVL55-.Ltext0
 4124 01b4 36030000 		.4byte	.LVL56-.Ltext0
 4125 01b8 0100     		.2byte	0x1
 4126 01ba 55       		.byte	0x55
 4127 01bb 00000000 		.4byte	0
 4128 01bf 00000000 		.4byte	0
 4129              	.LLST10:
 4130 01c3 B6020000 		.4byte	.LVL49-.Ltext0
 4131 01c7 EE020000 		.4byte	.LVL50-.Ltext0
 4132 01cb 0100     		.2byte	0x1
 4133 01cd 54       		.byte	0x54
 4134 01ce EE020000 		.4byte	.LVL50-.Ltext0
 4135 01d2 FC020000 		.4byte	.LVL52-.Ltext0
 4136 01d6 1300     		.2byte	0x13
 4137 01d8 F3       		.byte	0xf3
 4138 01d9 01       		.uleb128 0x1
 4139 01da 51       		.byte	0x51
 4140 01db 03       		.byte	0x3
 4141 01dc 00000000 		.4byte	.LANCHOR0
 4142 01e0 F3       		.byte	0xf3
 4143 01e1 01       		.uleb128 0x1
 4144 01e2 51       		.byte	0x51
ARM GAS  /var/folders/28/j9jfyj_n4wz3qtvnym210h2c0000gn/T//cc7hJqmk.s 			page 74


 4145 01e3 30       		.byte	0x30
 4146 01e4 2E       		.byte	0x2e
 4147 01e5 28       		.byte	0x28
 4148 01e6 0100     		.2byte	0x1
 4149 01e8 16       		.byte	0x16
 4150 01e9 13       		.byte	0x13
 4151 01ea 9F       		.byte	0x9f
 4152 01eb 28030000 		.4byte	.LVL55-.Ltext0
 4153 01ef 36030000 		.4byte	.LVL56-.Ltext0
 4154 01f3 0100     		.2byte	0x1
 4155 01f5 54       		.byte	0x54
 4156 01f6 00000000 		.4byte	0
 4157 01fa 00000000 		.4byte	0
 4158              	.LLST11:
 4159 01fe B6020000 		.4byte	.LVL49-.Ltext0
 4160 0202 FA020000 		.4byte	.LVL51-.Ltext0
 4161 0206 0100     		.2byte	0x1
 4162 0208 53       		.byte	0x53
 4163 0209 FA020000 		.4byte	.LVL51-.Ltext0
 4164 020d FC020000 		.4byte	.LVL52-.Ltext0
 4165 0211 0300     		.2byte	0x3
 4166 0213 75       		.byte	0x75
 4167 0214 9401     		.sleb128 148
 4168 0216 28030000 		.4byte	.LVL55-.Ltext0
 4169 021a 36030000 		.4byte	.LVL56-.Ltext0
 4170 021e 0100     		.2byte	0x1
 4171 0220 53       		.byte	0x53
 4172 0221 00000000 		.4byte	0
 4173 0225 00000000 		.4byte	0
 4174              	.LLST12:
 4175 0229 A0030000 		.4byte	.LVL65-.Ltext0
 4176 022d D8030000 		.4byte	.LVL68-.Ltext0
 4177 0231 0100     		.2byte	0x1
 4178 0233 50       		.byte	0x50
 4179 0234 D8030000 		.4byte	.LVL68-.Ltext0
 4180 0238 DC030000 		.4byte	.LVL69-.Ltext0
 4181 023c 0400     		.2byte	0x4
 4182 023e F3       		.byte	0xf3
 4183 023f 01       		.uleb128 0x1
 4184 0240 50       		.byte	0x50
 4185 0241 9F       		.byte	0x9f
 4186 0242 DC030000 		.4byte	.LVL69-.Ltext0
 4187 0246 E8030000 		.4byte	.LVL71-.Ltext0
 4188 024a 0100     		.2byte	0x1
 4189 024c 50       		.byte	0x50
 4190 024d E8030000 		.4byte	.LVL71-.Ltext0
 4191 0251 EC030000 		.4byte	.LVL72-.Ltext0
 4192 0255 0400     		.2byte	0x4
 4193 0257 F3       		.byte	0xf3
 4194 0258 01       		.uleb128 0x1
 4195 0259 50       		.byte	0x50
 4196 025a 9F       		.byte	0x9f
 4197 025b EC030000 		.4byte	.LVL72-.Ltext0
 4198 025f F8030000 		.4byte	.LVL73-.Ltext0
 4199 0263 0100     		.2byte	0x1
 4200 0265 50       		.byte	0x50
 4201 0266 F8030000 		.4byte	.LVL73-.Ltext0
ARM GAS  /var/folders/28/j9jfyj_n4wz3qtvnym210h2c0000gn/T//cc7hJqmk.s 			page 75


 4202 026a FC030000 		.4byte	.LVL74-.Ltext0
 4203 026e 0400     		.2byte	0x4
 4204 0270 F3       		.byte	0xf3
 4205 0271 01       		.uleb128 0x1
 4206 0272 50       		.byte	0x50
 4207 0273 9F       		.byte	0x9f
 4208 0274 FC030000 		.4byte	.LVL74-.Ltext0
 4209 0278 08040000 		.4byte	.LVL75-.Ltext0
 4210 027c 0100     		.2byte	0x1
 4211 027e 50       		.byte	0x50
 4212 027f 08040000 		.4byte	.LVL75-.Ltext0
 4213 0283 20040000 		.4byte	.LFE144-.Ltext0
 4214 0287 0400     		.2byte	0x4
 4215 0289 F3       		.byte	0xf3
 4216 028a 01       		.uleb128 0x1
 4217 028b 50       		.byte	0x50
 4218 028c 9F       		.byte	0x9f
 4219 028d 00000000 		.4byte	0
 4220 0291 00000000 		.4byte	0
 4221              	.LLST13:
 4222 0295 AE030000 		.4byte	.LVL66-.Ltext0
 4223 0299 BC030000 		.4byte	.LVL67-.Ltext0
 4224 029d 0100     		.2byte	0x1
 4225 029f 53       		.byte	0x53
 4226 02a0 BC030000 		.4byte	.LVL67-.Ltext0
 4227 02a4 D8030000 		.4byte	.LVL68-.Ltext0
 4228 02a8 0300     		.2byte	0x3
 4229 02aa 70       		.byte	0x70
 4230 02ab 9401     		.sleb128 148
 4231 02ad D8030000 		.4byte	.LVL68-.Ltext0
 4232 02b1 DB030000 		.4byte	.LVL69-1-.Ltext0
 4233 02b5 0600     		.2byte	0x6
 4234 02b7 F3       		.byte	0xf3
 4235 02b8 01       		.uleb128 0x1
 4236 02b9 50       		.byte	0x50
 4237 02ba 23       		.byte	0x23
 4238 02bb 9401     		.uleb128 0x94
 4239 02bd DC030000 		.4byte	.LVL69-.Ltext0
 4240 02c1 E0030000 		.4byte	.LVL70-.Ltext0
 4241 02c5 0100     		.2byte	0x1
 4242 02c7 53       		.byte	0x53
 4243 02c8 E0030000 		.4byte	.LVL70-.Ltext0
 4244 02cc E8030000 		.4byte	.LVL71-.Ltext0
 4245 02d0 0300     		.2byte	0x3
 4246 02d2 70       		.byte	0x70
 4247 02d3 9401     		.sleb128 148
 4248 02d5 E8030000 		.4byte	.LVL71-.Ltext0
 4249 02d9 EB030000 		.4byte	.LVL72-1-.Ltext0
 4250 02dd 0600     		.2byte	0x6
 4251 02df F3       		.byte	0xf3
 4252 02e0 01       		.uleb128 0x1
 4253 02e1 50       		.byte	0x50
 4254 02e2 23       		.byte	0x23
 4255 02e3 9401     		.uleb128 0x94
 4256 02e5 EC030000 		.4byte	.LVL72-.Ltext0
 4257 02e9 F8030000 		.4byte	.LVL73-.Ltext0
 4258 02ed 0300     		.2byte	0x3
ARM GAS  /var/folders/28/j9jfyj_n4wz3qtvnym210h2c0000gn/T//cc7hJqmk.s 			page 76


 4259 02ef 70       		.byte	0x70
 4260 02f0 9401     		.sleb128 148
 4261 02f2 F8030000 		.4byte	.LVL73-.Ltext0
 4262 02f6 FB030000 		.4byte	.LVL74-1-.Ltext0
 4263 02fa 0600     		.2byte	0x6
 4264 02fc F3       		.byte	0xf3
 4265 02fd 01       		.uleb128 0x1
 4266 02fe 50       		.byte	0x50
 4267 02ff 23       		.byte	0x23
 4268 0300 9401     		.uleb128 0x94
 4269 0302 FC030000 		.4byte	.LVL74-.Ltext0
 4270 0306 08040000 		.4byte	.LVL75-.Ltext0
 4271 030a 0300     		.2byte	0x3
 4272 030c 70       		.byte	0x70
 4273 030d 9401     		.sleb128 148
 4274 030f 08040000 		.4byte	.LVL75-.Ltext0
 4275 0313 0B040000 		.4byte	.LVL76-1-.Ltext0
 4276 0317 0600     		.2byte	0x6
 4277 0319 F3       		.byte	0xf3
 4278 031a 01       		.uleb128 0x1
 4279 031b 50       		.byte	0x50
 4280 031c 23       		.byte	0x23
 4281 031d 9401     		.uleb128 0x94
 4282 031f 00000000 		.4byte	0
 4283 0323 00000000 		.4byte	0
 4284              		.section	.debug_aranges,"",%progbits
 4285 0000 1C000000 		.4byte	0x1c
 4286 0004 0200     		.2byte	0x2
 4287 0006 00000000 		.4byte	.Ldebug_info0
 4288 000a 04       		.byte	0x4
 4289 000b 00       		.byte	0
 4290 000c 0000     		.2byte	0
 4291 000e 0000     		.2byte	0
 4292 0010 00000000 		.4byte	.Ltext0
 4293 0014 20040000 		.4byte	.Letext0-.Ltext0
 4294 0018 00000000 		.4byte	0
 4295 001c 00000000 		.4byte	0
 4296              		.section	.debug_ranges,"",%progbits
 4297              	.Ldebug_ranges0:
 4298 0000 A2000000 		.4byte	.LBB17-.Ltext0
 4299 0004 B4000000 		.4byte	.LBE17-.Ltext0
 4300 0008 BA000000 		.4byte	.LBB22-.Ltext0
 4301 000c FA000000 		.4byte	.LBE22-.Ltext0
 4302 0010 00000000 		.4byte	0
 4303 0014 00000000 		.4byte	0
 4304 0018 A2000000 		.4byte	.LBB18-.Ltext0
 4305 001c A8000000 		.4byte	.LBE18-.Ltext0
 4306 0020 BE000000 		.4byte	.LBB21-.Ltext0
 4307 0024 E6000000 		.4byte	.LBE21-.Ltext0
 4308 0028 00000000 		.4byte	0
 4309 002c 00000000 		.4byte	0
 4310 0030 2C010000 		.4byte	.LBB25-.Ltext0
 4311 0034 2E010000 		.4byte	.LBE25-.Ltext0
 4312 0038 30010000 		.4byte	.LBB26-.Ltext0
 4313 003c 3C010000 		.4byte	.LBE26-.Ltext0
 4314 0040 00000000 		.4byte	0
 4315 0044 00000000 		.4byte	0
ARM GAS  /var/folders/28/j9jfyj_n4wz3qtvnym210h2c0000gn/T//cc7hJqmk.s 			page 77


 4316 0048 5A010000 		.4byte	.LBB29-.Ltext0
 4317 004c 78010000 		.4byte	.LBE29-.Ltext0
 4318 0050 88010000 		.4byte	.LBB32-.Ltext0
 4319 0054 9C010000 		.4byte	.LBE32-.Ltext0
 4320 0058 00000000 		.4byte	0
 4321 005c 00000000 		.4byte	0
 4322 0060 B6020000 		.4byte	.LBB35-.Ltext0
 4323 0064 FC020000 		.4byte	.LBE35-.Ltext0
 4324 0068 28030000 		.4byte	.LBB38-.Ltext0
 4325 006c 36030000 		.4byte	.LBE38-.Ltext0
 4326 0070 00000000 		.4byte	0
 4327 0074 00000000 		.4byte	0
 4328 0078 AE030000 		.4byte	.LBB39-.Ltext0
 4329 007c B0030000 		.4byte	.LBE39-.Ltext0
 4330 0080 B2030000 		.4byte	.LBB42-.Ltext0
 4331 0084 B8030000 		.4byte	.LBE42-.Ltext0
 4332 0088 00000000 		.4byte	0
 4333 008c 00000000 		.4byte	0
 4334              		.section	.debug_line,"",%progbits
 4335              	.Ldebug_line0:
 4336 0000 C8040000 		.section	.debug_str,"MS",%progbits,1
 4336      0200AD03 
 4336      00000201 
 4336      FB0E0D00 
 4336      01010101 
 4337              	.LASF151:
 4338 0000 6E766963 		.ascii	"nvicEnableVector\000"
 4338      456E6162 
 4338      6C655665 
 4338      63746F72 
 4338      00
 4339              	.LASF2:
 4340 0011 73697A65 		.ascii	"size_t\000"
 4340      5F7400
 4341              	.LASF62:
 4342 0018 7264796D 		.ascii	"rdymsg\000"
 4342      736700
 4343              	.LASF78:
 4344 001f 4F757470 		.ascii	"OutputQueue\000"
 4344      75745175 
 4344      65756500 
 4345              	.LASF3:
 4346 002b 5F5F7569 		.ascii	"__uint8_t\000"
 4346      6E74385F 
 4346      7400
 4347              	.LASF137:
 4348 0035 7365745F 		.ascii	"set_error\000"
 4348      6572726F 
 4348      7200
 4349              	.LASF13:
 4350 003f 6C6F6E67 		.ascii	"long long unsigned int\000"
 4350      206C6F6E 
 4350      6720756E 
 4350      7369676E 
 4350      65642069 
 4351              	.LASF63:
 4352 0056 65786974 		.ascii	"exitcode\000"
ARM GAS  /var/folders/28/j9jfyj_n4wz3qtvnym210h2c0000gn/T//cc7hJqmk.s 			page 78


 4352      636F6465 
 4352      00
 4353              	.LASF153:
 4354 005f 2F417070 		.ascii	"/Applications/Axoloti.app/Contents/Java/chibios/os/"
 4354      6C696361 
 4354      74696F6E 
 4354      732F4178 
 4354      6F6C6F74 
 4355 0092 68616C2F 		.ascii	"hal/platforms/STM32/USARTv1/serial_lld.c\000"
 4355      706C6174 
 4355      666F726D 
 4355      732F5354 
 4355      4D33322F 
 4356              	.LASF147:
 4357 00bb 49544D5F 		.ascii	"ITM_RxBuffer\000"
 4357      52784275 
 4357      66666572 
 4357      00
 4358              	.LASF95:
 4359 00c8 41484231 		.ascii	"AHB1LPENR\000"
 4359      4C50454E 
 4359      5200
 4360              	.LASF150:
 4361 00d2 73644F62 		.ascii	"sdObjectInit\000"
 4361      6A656374 
 4361      496E6974 
 4361      00
 4362              	.LASF129:
 4363 00df 72656164 		.ascii	"readt\000"
 4363      7400
 4364              	.LASF68:
 4365 00e5 715F7761 		.ascii	"q_waiting\000"
 4365      6974696E 
 4365      6700
 4366              	.LASF107:
 4367 00ef 44434B43 		.ascii	"DCKCFGR\000"
 4367      46475200 
 4368              	.LASF12:
 4369 00f7 6C6F6E67 		.ascii	"long long int\000"
 4369      206C6F6E 
 4369      6720696E 
 4369      7400
 4370              	.LASF1:
 4371 0105 7369676E 		.ascii	"signed char\000"
 4371      65642063 
 4371      68617200 
 4372              	.LASF81:
 4373 0111 41484231 		.ascii	"AHB1RSTR\000"
 4373      52535452 
 4373      00
 4374              	.LASF109:
 4375 011a 47545052 		.ascii	"GTPR\000"
 4375      00
 4376              	.LASF112:
 4377 011f 53445F53 		.ascii	"SD_STOP\000"
 4377      544F5000 
 4378              	.LASF18:
ARM GAS  /var/folders/28/j9jfyj_n4wz3qtvnym210h2c0000gn/T//cc7hJqmk.s 			page 79


 4379 0127 626F6F6C 		.ascii	"bool_t\000"
 4379      5F7400
 4380              	.LASF52:
 4381 012e 6D5F7175 		.ascii	"m_queue\000"
 4381      65756500 
 4382              	.LASF22:
 4383 0136 74736C69 		.ascii	"tslices_t\000"
 4383      6365735F 
 4383      7400
 4384              	.LASF108:
 4385 0140 5243435F 		.ascii	"RCC_TypeDef\000"
 4385      54797065 
 4385      44656600 
 4386              	.LASF146:
 4387 014c 64656661 		.ascii	"default_config\000"
 4387      756C745F 
 4387      636F6E66 
 4387      696700
 4388              	.LASF117:
 4389 015b 73746174 		.ascii	"state\000"
 4389      6500
 4390              	.LASF9:
 4391 0161 6C6F6E67 		.ascii	"long int\000"
 4391      20696E74 
 4391      00
 4392              	.LASF86:
 4393 016a 41504232 		.ascii	"APB2RSTR\000"
 4393      52535452 
 4393      00
 4394              	.LASF99:
 4395 0173 41504231 		.ascii	"APB1LPENR\000"
 4395      4C50454E 
 4395      5200
 4396              	.LASF21:
 4397 017d 74737461 		.ascii	"tstate_t\000"
 4397      74655F74 
 4397      00
 4398              	.LASF155:
 4399 0186 63684F51 		.ascii	"chOQGetI\000"
 4399      47657449 
 4399      00
 4400              	.LASF70:
 4401 018f 715F6275 		.ascii	"q_buffer\000"
 4401      66666572 
 4401      00
 4402              	.LASF148:
 4403 0198 63684576 		.ascii	"chEvtBroadcastFlagsI\000"
 4403      7442726F 
 4403      61646361 
 4403      7374466C 
 4403      61677349 
 4404              	.LASF33:
 4405 01ad 705F6E65 		.ascii	"p_newer\000"
 4405      77657200 
 4406              	.LASF79:
 4407 01b5 504C4C43 		.ascii	"PLLCFGR\000"
 4407      46475200 
ARM GAS  /var/folders/28/j9jfyj_n4wz3qtvnym210h2c0000gn/T//cc7hJqmk.s 			page 80


 4408              	.LASF7:
 4409 01bd 73686F72 		.ascii	"short unsigned int\000"
 4409      7420756E 
 4409      7369676E 
 4409      65642069 
 4409      6E7400
 4410              	.LASF10:
 4411 01d0 5F5F7569 		.ascii	"__uint32_t\000"
 4411      6E743332 
 4411      5F7400
 4412              	.LASF47:
 4413 01db 72656761 		.ascii	"regarm_t\000"
 4413      726D5F74 
 4413      00
 4414              	.LASF132:
 4415 01e4 75736172 		.ascii	"usart_deinit\000"
 4415      745F6465 
 4415      696E6974 
 4415      00
 4416              	.LASF60:
 4417 01f1 4576656E 		.ascii	"EventSource\000"
 4417      74536F75 
 4417      72636500 
 4418              	.LASF120:
 4419 01fd 75736172 		.ascii	"usart\000"
 4419      7400
 4420              	.LASF0:
 4421 0203 756E7369 		.ascii	"unsigned int\000"
 4421      676E6564 
 4421      20696E74 
 4421      00
 4422              	.LASF15:
 4423 0210 75696E74 		.ascii	"uint16_t\000"
 4423      31365F74 
 4423      00
 4424              	.LASF123:
 4425 0219 53657269 		.ascii	"SerialDriverVMT\000"
 4425      616C4472 
 4425      69766572 
 4425      564D5400 
 4426              	.LASF40:
 4427 0229 705F6D73 		.ascii	"p_msgqueue\000"
 4427      67717565 
 4427      756500
 4428              	.LASF143:
 4429 0234 73645F6C 		.ascii	"sd_lld_init\000"
 4429      6C645F69 
 4429      6E697400 
 4430              	.LASF142:
 4431 0240 56656374 		.ascii	"Vector15C\000"
 4431      6F723135 
 4431      4300
 4432              	.LASF127:
 4433 024a 67657474 		.ascii	"gett\000"
 4433      00
 4434              	.LASF116:
 4435 024f 6576656E 		.ascii	"event\000"
ARM GAS  /var/folders/28/j9jfyj_n4wz3qtvnym210h2c0000gn/T//cc7hJqmk.s 			page 81


 4435      7400
 4436              	.LASF72:
 4437 0255 715F7772 		.ascii	"q_wrptr\000"
 4437      70747200 
 4438              	.LASF105:
 4439 025d 504C4C49 		.ascii	"PLLI2SCFGR\000"
 4439      32534346 
 4439      475200
 4440              	.LASF24:
 4441 0268 6D73675F 		.ascii	"msg_t\000"
 4441      7400
 4442              	.LASF119:
 4443 026e 6F717565 		.ascii	"oqueue\000"
 4443      756500
 4444              	.LASF156:
 4445 0275 5F706F72 		.ascii	"_port_irq_epilogue\000"
 4445      745F6972 
 4445      715F6570 
 4445      696C6F67 
 4445      756500
 4446              	.LASF110:
 4447 0288 55534152 		.ascii	"USART_TypeDef\000"
 4447      545F5479 
 4447      70654465 
 4447      6600
 4448              	.LASF128:
 4449 0296 77726974 		.ascii	"writet\000"
 4449      657400
 4450              	.LASF20:
 4451 029d 746D6F64 		.ascii	"tmode_t\000"
 4451      655F7400 
 4452              	.LASF100:
 4453 02a5 41504232 		.ascii	"APB2LPENR\000"
 4453      4C50454E 
 4453      5200
 4454              	.LASF46:
 4455 02af 54687265 		.ascii	"ThreadsList\000"
 4455      6164734C 
 4455      69737400 
 4456              	.LASF25:
 4457 02bb 6576656E 		.ascii	"eventmask_t\000"
 4457      746D6173 
 4457      6B5F7400 
 4458              	.LASF139:
 4459 02c7 56656374 		.ascii	"VectorD4\000"
 4459      6F724434 
 4459      00
 4460              	.LASF121:
 4461 02d0 73706565 		.ascii	"speed\000"
 4461      6400
 4462              	.LASF140:
 4463 02d6 56656374 		.ascii	"VectorD8\000"
 4463      6F724438 
 4463      00
 4464              	.LASF76:
 4465 02df 716E6F74 		.ascii	"qnotify_t\000"
 4465      6966795F 
ARM GAS  /var/folders/28/j9jfyj_n4wz3qtvnym210h2c0000gn/T//cc7hJqmk.s 			page 82


 4465      7400
 4466              	.LASF67:
 4467 02e9 47656E65 		.ascii	"GenericQueue\000"
 4467      72696351 
 4467      75657565 
 4467      00
 4468              	.LASF141:
 4469 02f6 56656374 		.ascii	"VectorDC\000"
 4469      6F724443 
 4469      00
 4470              	.LASF124:
 4471 02ff 77726974 		.ascii	"write\000"
 4471      6500
 4472              	.LASF126:
 4473 0305 70757474 		.ascii	"putt\000"
 4473      00
 4474              	.LASF131:
 4475 030a 75736172 		.ascii	"usart_init\000"
 4475      745F696E 
 4475      697400
 4476              	.LASF50:
 4477 0315 73697A65 		.ascii	"sizetype\000"
 4477      74797065 
 4477      00
 4478              	.LASF69:
 4479 031e 715F636F 		.ascii	"q_counter\000"
 4479      756E7465 
 4479      7200
 4480              	.LASF51:
 4481 0328 4D757465 		.ascii	"Mutex\000"
 4481      7800
 4482              	.LASF118:
 4483 032e 69717565 		.ascii	"iqueue\000"
 4483      756500
 4484              	.LASF29:
 4485 0335 705F6E65 		.ascii	"p_next\000"
 4485      787400
 4486              	.LASF90:
 4487 033c 41484233 		.ascii	"AHB3ENR\000"
 4487      454E5200 
 4488              	.LASF34:
 4489 0344 705F6F6C 		.ascii	"p_older\000"
 4489      64657200 
 4490              	.LASF45:
 4491 034c 54687265 		.ascii	"ThreadsQueue\000"
 4491      61647351 
 4491      75657565 
 4491      00
 4492              	.LASF96:
 4493 0359 41484232 		.ascii	"AHB2LPENR\000"
 4493      4C50454E 
 4493      5200
 4494              	.LASF85:
 4495 0363 41504231 		.ascii	"APB1RSTR\000"
 4495      52535452 
 4495      00
 4496              	.LASF58:
ARM GAS  /var/folders/28/j9jfyj_n4wz3qtvnym210h2c0000gn/T//cc7hJqmk.s 			page 83


 4497 036c 656C5F6D 		.ascii	"el_mask\000"
 4497      61736B00 
 4498              	.LASF122:
 4499 0374 53657269 		.ascii	"SerialConfig\000"
 4499      616C436F 
 4499      6E666967 
 4499      00
 4500              	.LASF133:
 4501 0381 6E6F7469 		.ascii	"notify1\000"
 4501      66793100 
 4502              	.LASF134:
 4503 0389 6E6F7469 		.ascii	"notify2\000"
 4503      66793200 
 4504              	.LASF135:
 4505 0391 6E6F7469 		.ascii	"notify3\000"
 4505      66793300 
 4506              	.LASF106:
 4507 0399 504C4C53 		.ascii	"PLLSAICFGR\000"
 4507      41494346 
 4507      475200
 4508              	.LASF136:
 4509 03a4 6E6F7469 		.ascii	"notify6\000"
 4509      66793600 
 4510              	.LASF84:
 4511 03ac 52455345 		.ascii	"RESERVED0\000"
 4511      52564544 
 4511      3000
 4512              	.LASF87:
 4513 03b6 52455345 		.ascii	"RESERVED1\000"
 4513      52564544 
 4513      3100
 4514              	.LASF91:
 4515 03c0 52455345 		.ascii	"RESERVED2\000"
 4515      52564544 
 4515      3200
 4516              	.LASF94:
 4517 03ca 52455345 		.ascii	"RESERVED3\000"
 4517      52564544 
 4517      3300
 4518              	.LASF98:
 4519 03d4 52455345 		.ascii	"RESERVED4\000"
 4519      52564544 
 4519      3400
 4520              	.LASF30:
 4521 03de 705F7072 		.ascii	"p_prev\000"
 4521      657600
 4522              	.LASF103:
 4523 03e5 52455345 		.ascii	"RESERVED6\000"
 4523      52564544 
 4523      3600
 4524              	.LASF23:
 4525 03ef 74707269 		.ascii	"tprio_t\000"
 4525      6F5F7400 
 4526              	.LASF73:
 4527 03f7 715F7264 		.ascii	"q_rdptr\000"
 4527      70747200 
 4528              	.LASF19:
ARM GAS  /var/folders/28/j9jfyj_n4wz3qtvnym210h2c0000gn/T//cc7hJqmk.s 			page 84


 4529 03ff 5F426F6F 		.ascii	"_Bool\000"
 4529      6C00
 4530              	.LASF16:
 4531 0405 696E7433 		.ascii	"int32_t\000"
 4531      325F7400 
 4532              	.LASF4:
 4533 040d 756E7369 		.ascii	"unsigned char\000"
 4533      676E6564 
 4533      20636861 
 4533      7200
 4534              	.LASF144:
 4535 041b 73645F6C 		.ascii	"sd_lld_start\000"
 4535      6C645F73 
 4535      74617274 
 4535      00
 4536              	.LASF57:
 4537 0428 656C5F6C 		.ascii	"el_listener\000"
 4537      69737465 
 4537      6E657200 
 4538              	.LASF59:
 4539 0434 656C5F66 		.ascii	"el_flags\000"
 4539      6C616773 
 4539      00
 4540              	.LASF36:
 4541 043d 705F7374 		.ascii	"p_state\000"
 4541      61746500 
 4542              	.LASF43:
 4543 0445 705F6D74 		.ascii	"p_mtxlist\000"
 4543      786C6973 
 4543      7400
 4544              	.LASF5:
 4545 044f 73686F72 		.ascii	"short int\000"
 4545      7420696E 
 4545      7400
 4546              	.LASF38:
 4547 0459 705F7072 		.ascii	"p_preempt\000"
 4547      65656D70 
 4547      7400
 4548              	.LASF97:
 4549 0463 41484233 		.ascii	"AHB3LPENR\000"
 4549      4C50454E 
 4549      5200
 4550              	.LASF65:
 4551 046d 65776D61 		.ascii	"ewmask\000"
 4551      736B00
 4552              	.LASF37:
 4553 0474 705F666C 		.ascii	"p_flags\000"
 4553      61677300 
 4554              	.LASF56:
 4555 047c 656C5F6E 		.ascii	"el_next\000"
 4555      65787400 
 4556              	.LASF93:
 4557 0484 41504232 		.ascii	"APB2ENR\000"
 4557      454E5200 
 4558              	.LASF83:
 4559 048c 41484233 		.ascii	"AHB3RSTR\000"
 4559      52535452 
ARM GAS  /var/folders/28/j9jfyj_n4wz3qtvnym210h2c0000gn/T//cc7hJqmk.s 			page 85


 4559      00
 4560              	.LASF28:
 4561 0495 54687265 		.ascii	"Thread\000"
 4561      616400
 4562              	.LASF152:
 4563 049c 474E5520 		.ascii	"GNU C 4.9.3 20150529 (release) [ARM/embedded-4_9-br"
 4563      4320342E 
 4563      392E3320 
 4563      32303135 
 4563      30353239 
 4564 04cf 616E6368 		.ascii	"anch revision 224288] -mcpu=cortex-m4 -mfloat-abi=h"
 4564      20726576 
 4564      6973696F 
 4564      6E203232 
 4564      34323838 
 4565 0502 61726420 		.ascii	"ard -mfpu=fpv4-sp-d16 -mno-thumb-interwork -mthumb "
 4565      2D6D6670 
 4565      753D6670 
 4565      76342D73 
 4565      702D6431 
 4566 0535 2D676764 		.ascii	"-ggdb -O2 -fomit-frame-pointer -falign-functions=16"
 4566      62202D4F 
 4566      32202D66 
 4566      6F6D6974 
 4566      2D667261 
 4567 0568 202D666E 		.ascii	" -fno-math-errno -fsingle-precision-constant\000"
 4567      6F2D6D61 
 4567      74682D65 
 4567      72726E6F 
 4567      202D6673 
 4568              	.LASF138:
 4569 0595 73657276 		.ascii	"serve_interrupt\000"
 4569      655F696E 
 4569      74657272 
 4569      75707400 
 4570              	.LASF42:
 4571 05a5 705F6570 		.ascii	"p_epending\000"
 4571      656E6469 
 4571      6E6700
 4572              	.LASF111:
 4573 05b0 53445F55 		.ascii	"SD_UNINIT\000"
 4573      4E494E49 
 4573      5400
 4574              	.LASF101:
 4575 05ba 52455345 		.ascii	"RESERVED5\000"
 4575      52564544 
 4575      3500
 4576              	.LASF17:
 4577 05c4 75696E74 		.ascii	"uint32_t\000"
 4577      33325F74 
 4577      00
 4578              	.LASF115:
 4579 05cd 53657269 		.ascii	"SerialDriver\000"
 4579      616C4472 
 4579      69766572 
 4579      00
 4580              	.LASF157:
ARM GAS  /var/folders/28/j9jfyj_n4wz3qtvnym210h2c0000gn/T//cc7hJqmk.s 			page 86


 4581 05da 6E766963 		.ascii	"nvicDisableVector\000"
 4581      44697361 
 4581      626C6556 
 4581      6563746F 
 4581      7200
 4582              	.LASF11:
 4583 05ec 6C6F6E67 		.ascii	"long unsigned int\000"
 4583      20756E73 
 4583      69676E65 
 4583      6420696E 
 4583      7400
 4584              	.LASF125:
 4585 05fe 72656164 		.ascii	"read\000"
 4585      00
 4586              	.LASF66:
 4587 0603 63686172 		.ascii	"char\000"
 4587      00
 4588              	.LASF149:
 4589 0608 7364496E 		.ascii	"sdIncomingDataI\000"
 4589      636F6D69 
 4589      6E674461 
 4589      74614900 
 4590              	.LASF130:
 4591 0618 636F6E66 		.ascii	"config\000"
 4591      696700
 4592              	.LASF6:
 4593 061f 5F5F7569 		.ascii	"__uint16_t\000"
 4593      6E743136 
 4593      5F7400
 4594              	.LASF82:
 4595 062a 41484232 		.ascii	"AHB2RSTR\000"
 4595      52535452 
 4595      00
 4596              	.LASF54:
 4597 0633 6D5F6E65 		.ascii	"m_next\000"
 4597      787400
 4598              	.LASF27:
 4599 063a 73797374 		.ascii	"systime_t\000"
 4599      696D655F 
 4599      7400
 4600              	.LASF44:
 4601 0644 705F7265 		.ascii	"p_realprio\000"
 4601      616C7072 
 4601      696F00
 4602              	.LASF8:
 4603 064f 5F5F696E 		.ascii	"__int32_t\000"
 4603      7433325F 
 4603      7400
 4604              	.LASF92:
 4605 0659 41504231 		.ascii	"APB1ENR\000"
 4605      454E5200 
 4606              	.LASF89:
 4607 0661 41484232 		.ascii	"AHB2ENR\000"
 4607      454E5200 
 4608              	.LASF49:
 4609 0669 636F6E74 		.ascii	"context\000"
 4609      65787400 
ARM GAS  /var/folders/28/j9jfyj_n4wz3qtvnym210h2c0000gn/T//cc7hJqmk.s 			page 87


 4610              	.LASF48:
 4611 0671 696E7463 		.ascii	"intctx\000"
 4611      747800
 4612              	.LASF113:
 4613 0678 53445F52 		.ascii	"SD_READY\000"
 4613      45414459 
 4613      00
 4614              	.LASF26:
 4615 0681 666C6167 		.ascii	"flagsmask_t\000"
 4615      736D6173 
 4615      6B5F7400 
 4616              	.LASF104:
 4617 068d 53534347 		.ascii	"SSCGR\000"
 4617      5200
 4618              	.LASF71:
 4619 0693 715F746F 		.ascii	"q_top\000"
 4619      7000
 4620              	.LASF35:
 4621 0699 705F6E61 		.ascii	"p_name\000"
 4621      6D6500
 4622              	.LASF61:
 4623 06a0 65735F6E 		.ascii	"es_next\000"
 4623      65787400 
 4624              	.LASF102:
 4625 06a8 42444352 		.ascii	"BDCR\000"
 4625      00
 4626              	.LASF74:
 4627 06ad 715F6E6F 		.ascii	"q_notify\000"
 4627      74696679 
 4627      00
 4628              	.LASF14:
 4629 06b6 75696E74 		.ascii	"uint8_t\000"
 4629      385F7400 
 4630              	.LASF77:
 4631 06be 496E7075 		.ascii	"InputQueue\000"
 4631      74517565 
 4631      756500
 4632              	.LASF31:
 4633 06c9 705F7072 		.ascii	"p_prio\000"
 4633      696F00
 4634              	.LASF55:
 4635 06d0 4576656E 		.ascii	"EventListener\000"
 4635      744C6973 
 4635      74656E65 
 4635      7200
 4636              	.LASF64:
 4637 06de 77746F62 		.ascii	"wtobjp\000"
 4637      6A7000
 4638              	.LASF88:
 4639 06e5 41484231 		.ascii	"AHB1ENR\000"
 4639      454E5200 
 4640              	.LASF154:
 4641 06ed 2F557365 		.ascii	"/Users/ryanmcgill/Documents/VONGON/ECHO/code/axolot"
 4641      72732F72 
 4641      79616E6D 
 4641      6367696C 
 4641      6C2F446F 
ARM GAS  /var/folders/28/j9jfyj_n4wz3qtvnym210h2c0000gn/T//cc7hJqmk.s 			page 88


 4642 0720 692D6563 		.ascii	"i-echo/firmware\000"
 4642      686F2F66 
 4642      69726D77 
 4642      61726500 
 4643              	.LASF80:
 4644 0730 43464752 		.ascii	"CFGR\000"
 4644      00
 4645              	.LASF41:
 4646 0735 705F6D73 		.ascii	"p_msg\000"
 4646      6700
 4647              	.LASF145:
 4648 073b 73645F6C 		.ascii	"sd_lld_stop\000"
 4648      6C645F73 
 4648      746F7000 
 4649              	.LASF75:
 4650 0747 715F6C69 		.ascii	"q_link\000"
 4650      6E6B00
 4651              	.LASF53:
 4652 074e 6D5F6F77 		.ascii	"m_owner\000"
 4652      6E657200 
 4653              	.LASF114:
 4654 0756 73647374 		.ascii	"sdstate_t\000"
 4654      6174655F 
 4654      7400
 4655              	.LASF32:
 4656 0760 705F6374 		.ascii	"p_ctx\000"
 4656      7800
 4657              	.LASF39:
 4658 0766 705F7761 		.ascii	"p_waiting\000"
 4658      6974696E 
 4658      6700
 4659              		.ident	"GCC: (GNU Tools for ARM Embedded Processors) 4.9.3 20150529 (release) [ARM/embedded-4_9-br
ARM GAS  /var/folders/28/j9jfyj_n4wz3qtvnym210h2c0000gn/T//cc7hJqmk.s 			page 89


DEFINED SYMBOLS
                            *ABS*:0000000000000000 serial_lld.c
/var/folders/28/j9jfyj_n4wz3qtvnym210h2c0000gn/T//cc7hJqmk.s:20     .text:0000000000000000 $t
/var/folders/28/j9jfyj_n4wz3qtvnym210h2c0000gn/T//cc7hJqmk.s:25     .text:0000000000000000 notify1
/var/folders/28/j9jfyj_n4wz3qtvnym210h2c0000gn/T//cc7hJqmk.s:44     .text:0000000000000010 $d
/var/folders/28/j9jfyj_n4wz3qtvnym210h2c0000gn/T//cc7hJqmk.s:48     .text:0000000000000014 $t
/var/folders/28/j9jfyj_n4wz3qtvnym210h2c0000gn/T//cc7hJqmk.s:53     .text:0000000000000020 notify2
/var/folders/28/j9jfyj_n4wz3qtvnym210h2c0000gn/T//cc7hJqmk.s:71     .text:0000000000000030 $d
/var/folders/28/j9jfyj_n4wz3qtvnym210h2c0000gn/T//cc7hJqmk.s:75     .text:0000000000000034 $t
/var/folders/28/j9jfyj_n4wz3qtvnym210h2c0000gn/T//cc7hJqmk.s:80     .text:0000000000000040 notify3
/var/folders/28/j9jfyj_n4wz3qtvnym210h2c0000gn/T//cc7hJqmk.s:98     .text:0000000000000050 $d
/var/folders/28/j9jfyj_n4wz3qtvnym210h2c0000gn/T//cc7hJqmk.s:102    .text:0000000000000054 $t
/var/folders/28/j9jfyj_n4wz3qtvnym210h2c0000gn/T//cc7hJqmk.s:107    .text:0000000000000060 notify6
/var/folders/28/j9jfyj_n4wz3qtvnym210h2c0000gn/T//cc7hJqmk.s:125    .text:0000000000000070 $d
/var/folders/28/j9jfyj_n4wz3qtvnym210h2c0000gn/T//cc7hJqmk.s:129    .text:0000000000000074 $t
/var/folders/28/j9jfyj_n4wz3qtvnym210h2c0000gn/T//cc7hJqmk.s:134    .text:0000000000000080 serve_interrupt
/var/folders/28/j9jfyj_n4wz3qtvnym210h2c0000gn/T//cc7hJqmk.s:424    .text:00000000000001a0 VectorD4
/var/folders/28/j9jfyj_n4wz3qtvnym210h2c0000gn/T//cc7hJqmk.s:449    .text:00000000000001b0 $d
                            *COM*:0000000000000098 SD1
/var/folders/28/j9jfyj_n4wz3qtvnym210h2c0000gn/T//cc7hJqmk.s:453    .text:00000000000001b4 $t
/var/folders/28/j9jfyj_n4wz3qtvnym210h2c0000gn/T//cc7hJqmk.s:459    .text:00000000000001c0 VectorD8
/var/folders/28/j9jfyj_n4wz3qtvnym210h2c0000gn/T//cc7hJqmk.s:484    .text:00000000000001d0 $d
                            *COM*:0000000000000098 SD2
/var/folders/28/j9jfyj_n4wz3qtvnym210h2c0000gn/T//cc7hJqmk.s:488    .text:00000000000001d4 $t
/var/folders/28/j9jfyj_n4wz3qtvnym210h2c0000gn/T//cc7hJqmk.s:494    .text:00000000000001e0 VectorDC
/var/folders/28/j9jfyj_n4wz3qtvnym210h2c0000gn/T//cc7hJqmk.s:519    .text:00000000000001f0 $d
                            *COM*:0000000000000098 SD3
/var/folders/28/j9jfyj_n4wz3qtvnym210h2c0000gn/T//cc7hJqmk.s:523    .text:00000000000001f4 $t
/var/folders/28/j9jfyj_n4wz3qtvnym210h2c0000gn/T//cc7hJqmk.s:529    .text:0000000000000200 Vector15C
/var/folders/28/j9jfyj_n4wz3qtvnym210h2c0000gn/T//cc7hJqmk.s:554    .text:0000000000000210 $d
                            *COM*:0000000000000098 SD6
/var/folders/28/j9jfyj_n4wz3qtvnym210h2c0000gn/T//cc7hJqmk.s:558    .text:0000000000000214 $t
/var/folders/28/j9jfyj_n4wz3qtvnym210h2c0000gn/T//cc7hJqmk.s:564    .text:0000000000000220 sd_lld_init
/var/folders/28/j9jfyj_n4wz3qtvnym210h2c0000gn/T//cc7hJqmk.s:633    .text:000000000000026c $d
/var/folders/28/j9jfyj_n4wz3qtvnym210h2c0000gn/T//cc7hJqmk.s:648    .text:000000000000029c $t
/var/folders/28/j9jfyj_n4wz3qtvnym210h2c0000gn/T//cc7hJqmk.s:654    .text:00000000000002a0 sd_lld_start
/var/folders/28/j9jfyj_n4wz3qtvnym210h2c0000gn/T//cc7hJqmk.s:829    .text:0000000000000374 $d
/var/folders/28/j9jfyj_n4wz3qtvnym210h2c0000gn/T//cc7hJqmk.s:841    .text:0000000000000398 $t
/var/folders/28/j9jfyj_n4wz3qtvnym210h2c0000gn/T//cc7hJqmk.s:847    .text:00000000000003a0 sd_lld_stop
/var/folders/28/j9jfyj_n4wz3qtvnym210h2c0000gn/T//cc7hJqmk.s:947    .text:000000000000040c $d
/var/folders/28/j9jfyj_n4wz3qtvnym210h2c0000gn/T//cc7hJqmk.s:960    .rodata:0000000000000000 $d
/var/folders/28/j9jfyj_n4wz3qtvnym210h2c0000gn/T//cc7hJqmk.s:964    .rodata:0000000000000000 default_config
                     .debug_frame:0000000000000010 $d

UNDEFINED SYMBOLS
chEvtBroadcastFlagsI
sdIncomingDataI
chOQGetI
_port_irq_epilogue
sdObjectInit
nvicEnableVector
nvicDisableVector
