ARM GAS  /var/folders/28/j9jfyj_n4wz3qtvnym210h2c0000gn/T//ccluUTpi.s 			page 1


   1              		.syntax unified
   2              		.cpu cortex-m4
   3              		.eabi_attribute 27, 1
   4              		.eabi_attribute 28, 1
   5              		.fpu fpv4-sp-d16
   6              		.eabi_attribute 20, 1
   7              		.eabi_attribute 21, 1
   8              		.eabi_attribute 23, 3
   9              		.eabi_attribute 24, 1
  10              		.eabi_attribute 25, 1
  11              		.eabi_attribute 26, 1
  12              		.eabi_attribute 30, 2
  13              		.eabi_attribute 34, 1
  14              		.eabi_attribute 18, 4
  15              		.thumb
  16              		.file	"spi_lld.c"
  17              		.text
  18              	.Ltext0:
  19              		.cfi_sections	.debug_frame
  20              		.align	2
  21              		.p2align 4,,15
  22              		.thumb
  23              		.thumb_func
  24              		.type	spi_lld_serve_tx_interrupt, %function
  25              	spi_lld_serve_tx_interrupt:
  26              	.LFB131:
  27              		.file 1 "/Applications/Axoloti.app/Contents/Java/chibios/os/hal/platforms/STM32/SPIv1/spi_lld.c"
  28              		.loc 1 159 0
  29              		.cfi_startproc
  30              		@ args = 0, pretend = 0, frame = 0
  31              		@ frame_needed = 0, uses_anonymous_args = 0
  32              		@ link register save eliminated.
  33              	.LVL0:
  34              		.loc 1 164 0
  35 0000 11F00C0F 		tst	r1, #12
  36 0004 00D1     		bne	.L4
  37 0006 7047     		bx	lr
  38              	.L4:
  39              		.loc 1 165 0
  40 0008 FFF7FEBF 		b	port_halt
  41              	.LVL1:
  42              		.cfi_endproc
  43              	.LFE131:
  44              		.size	spi_lld_serve_tx_interrupt, .-spi_lld_serve_tx_interrupt
  45              		.align	2
  46 000c AFF30080 		.p2align 4,,15
  47              		.thumb
  48              		.thumb_func
  49              		.type	spi_lld_serve_rx_interrupt, %function
  50              	spi_lld_serve_rx_interrupt:
  51              	.LFB130:
  52              		.loc 1 133 0
  53              		.cfi_startproc
  54              		@ args = 0, pretend = 0, frame = 0
  55              		@ frame_needed = 0, uses_anonymous_args = 0
  56              	.LVL2:
  57              		.loc 1 137 0
ARM GAS  /var/folders/28/j9jfyj_n4wz3qtvnym210h2c0000gn/T//ccluUTpi.s 			page 2


  58 0010 11F00C0F 		tst	r1, #12
  59              		.loc 1 133 0
  60 0014 38B5     		push	{r3, r4, r5, lr}
  61              		.cfi_def_cfa_offset 16
  62              		.cfi_offset 3, -16
  63              		.cfi_offset 4, -12
  64              		.cfi_offset 5, -8
  65              		.cfi_offset 14, -4
  66              		.loc 1 133 0
  67 0016 0446     		mov	r4, r0
  68              		.loc 1 137 0
  69 0018 37D1     		bne	.L24
  70              	.LVL3:
  71              	.L6:
  72              		.loc 1 145 0
  73 001a 606A     		ldr	r0, [r4, #36]
  74 001c 0268     		ldr	r2, [r0]
  75 001e 1368     		ldr	r3, [r2]
  76 0020 23F01F03 		bic	r3, r3, #31
  77 0024 1360     		str	r3, [r2]
  78              	.L7:
  79              		.loc 1 145 0 is_stmt 0 discriminator 2
  80 0026 1368     		ldr	r3, [r2]
  81 0028 D907     		lsls	r1, r3, #31
  82 002a FCD4     		bmi	.L7
  83              		.loc 1 145 0 discriminator 3
  84 002c 057A     		ldrb	r5, [r0, #8]	@ zero_extendqisi2
  85              		.loc 1 146 0 is_stmt 1 discriminator 3
  86 002e 216A     		ldr	r1, [r4, #32]
  87              		.loc 1 145 0 discriminator 3
  88 0030 4068     		ldr	r0, [r0, #4]
  89              		.loc 1 146 0 discriminator 3
  90 0032 0A68     		ldr	r2, [r1]
  91              		.loc 1 145 0 discriminator 3
  92 0034 3D23     		movs	r3, #61
  93 0036 AB40     		lsls	r3, r3, r5
  94 0038 0360     		str	r3, [r0]
  95              		.loc 1 146 0 discriminator 3
  96 003a 1368     		ldr	r3, [r2]
  97 003c 23F01F03 		bic	r3, r3, #31
  98 0040 1360     		str	r3, [r2]
  99              	.L8:
 100              		.loc 1 146 0 is_stmt 0 discriminator 2
 101 0042 1368     		ldr	r3, [r2]
 102 0044 DB07     		lsls	r3, r3, #31
 103 0046 FCD4     		bmi	.L8
 104              		.loc 1 150 0 is_stmt 1 discriminator 3
 105 0048 6368     		ldr	r3, [r4, #4]
 106              		.loc 1 146 0 discriminator 3
 107 004a 087A     		ldrb	r0, [r1, #8]	@ zero_extendqisi2
 108              		.loc 1 150 0 discriminator 3
 109 004c 1A68     		ldr	r2, [r3]
 110              		.loc 1 146 0 discriminator 3
 111 004e 4968     		ldr	r1, [r1, #4]
 112 0050 3D23     		movs	r3, #61
 113 0052 8340     		lsls	r3, r3, r0
 114 0054 0B60     		str	r3, [r1]
ARM GAS  /var/folders/28/j9jfyj_n4wz3qtvnym210h2c0000gn/T//ccluUTpi.s 			page 3


 115              		.loc 1 150 0 discriminator 3
 116 0056 AAB1     		cbz	r2, .L9
 117              		.loc 1 150 0 is_stmt 0 discriminator 1
 118 0058 0423     		movs	r3, #4
 119 005a 2370     		strb	r3, [r4]
 120 005c 2046     		mov	r0, r4
 121 005e 9047     		blx	r2
 122              	.LVL4:
 123 0060 2378     		ldrb	r3, [r4]	@ zero_extendqisi2
 124 0062 042B     		cmp	r3, #4
 125 0064 0ED0     		beq	.L9
 126              	.L10:
 127              	.LBB2:
 128              		.loc 1 150 0 discriminator 4
 129 0066 2023     		movs	r3, #32
 130              	@ 150 "/Applications/Axoloti.app/Contents/Java/chibios/os/hal/platforms/STM32/SPIv1/spi_lld.c" 1
 131 0068 83F31188 		msr     BASEPRI, r3
 132              	@ 0 "" 2
 133              		.thumb
 134              	.LBE2:
 135 006c A368     		ldr	r3, [r4, #8]
 136 006e 2BB1     		cbz	r3, .L11
 137              	.LVL5:
 138              	.LBB3:
 139              		.loc 1 150 0 discriminator 5
 140 0070 0022     		movs	r2, #0
 141 0072 A260     		str	r2, [r4, #8]
 142 0074 1846     		mov	r0, r3
 143 0076 1A62     		str	r2, [r3, #32]
 144 0078 FFF7FEFF 		bl	chSchReadyI
 145              	.LVL6:
 146              	.L11:
 147              	.LBE3:
 148              	.LBB4:
 149              		.loc 1 150 0 discriminator 7
 150 007c 0023     		movs	r3, #0
 151              	@ 150 "/Applications/Axoloti.app/Contents/Java/chibios/os/hal/platforms/STM32/SPIv1/spi_lld.c" 1
 152 007e 83F31188 		msr     BASEPRI, r3
 153              	@ 0 "" 2
 154              		.thumb
 155 0082 38BD     		pop	{r3, r4, r5, pc}
 156              	.LVL7:
 157              	.L9:
 158              	.LBE4:
 159              		.loc 1 150 0 discriminator 3
 160 0084 0223     		movs	r3, #2
 161 0086 2370     		strb	r3, [r4]
 162 0088 EDE7     		b	.L10
 163              	.LVL8:
 164              	.L24:
 165              		.loc 1 138 0 is_stmt 1
 166 008a FFF7FEFF 		bl	port_halt
 167              	.LVL9:
 168 008e C4E7     		b	.L6
 169              		.cfi_endproc
 170              	.LFE130:
 171              		.size	spi_lld_serve_rx_interrupt, .-spi_lld_serve_rx_interrupt
ARM GAS  /var/folders/28/j9jfyj_n4wz3qtvnym210h2c0000gn/T//ccluUTpi.s 			page 4


 172              		.align	2
 173              		.p2align 4,,15
 174              		.global	spi_lld_init
 175              		.thumb
 176              		.thumb_func
 177              		.type	spi_lld_init, %function
 178              	spi_lld_init:
 179              	.LFB132:
 180              		.loc 1 186 0
 181              		.cfi_startproc
 182              		@ args = 0, pretend = 0, frame = 0
 183              		@ frame_needed = 0, uses_anonymous_args = 0
 184 0090 70B5     		push	{r4, r5, r6, lr}
 185              		.cfi_def_cfa_offset 16
 186              		.cfi_offset 4, -16
 187              		.cfi_offset 5, -12
 188              		.cfi_offset 6, -8
 189              		.cfi_offset 14, -4
 190              		.loc 1 191 0
 191 0092 114E     		ldr	r6, .L27
 192              		.loc 1 188 0
 193 0094 114B     		ldr	r3, .L27+4
 194              		.loc 1 227 0
 195 0096 124C     		ldr	r4, .L27+8
 196              		.loc 1 193 0
 197 0098 124D     		ldr	r5, .L27+12
 198              		.loc 1 188 0
 199 009a 4FF6FF72 		movw	r2, #65535
 200              		.loc 1 191 0
 201 009e 3046     		mov	r0, r6
 202              		.loc 1 188 0
 203 00a0 1A80     		strh	r2, [r3]	@ movhi
 204              		.loc 1 191 0
 205 00a2 FFF7FEFF 		bl	spiObjectInit
 206              	.LVL10:
 207              		.loc 1 192 0
 208 00a6 1049     		ldr	r1, .L27+16
 209              		.loc 1 195 0
 210 00a8 104A     		ldr	r2, .L27+20
 211              		.loc 1 201 0
 212 00aa 114B     		ldr	r3, .L27+24
 213              		.loc 1 192 0
 214 00ac F161     		str	r1, [r6, #28]
 215              		.loc 1 227 0
 216 00ae 2046     		mov	r0, r4
 217              		.loc 1 194 0
 218 00b0 05F10C01 		add	r1, r5, #12
 219              		.loc 1 193 0
 220 00b4 3562     		str	r5, [r6, #32]
 221              		.loc 1 194 0
 222 00b6 7162     		str	r1, [r6, #36]
 223              		.loc 1 195 0
 224 00b8 B262     		str	r2, [r6, #40]
 225              		.loc 1 201 0
 226 00ba F362     		str	r3, [r6, #44]
 227              		.loc 1 227 0
 228 00bc FFF7FEFF 		bl	spiObjectInit
ARM GAS  /var/folders/28/j9jfyj_n4wz3qtvnym210h2c0000gn/T//ccluUTpi.s 			page 5


 229              	.LVL11:
 230              		.loc 1 228 0
 231 00c0 0C49     		ldr	r1, .L27+28
 232              		.loc 1 231 0
 233 00c2 0D4A     		ldr	r2, .L27+32
 234              		.loc 1 237 0
 235 00c4 0D4B     		ldr	r3, .L27+36
 236              		.loc 1 228 0
 237 00c6 E161     		str	r1, [r4, #28]
 238              		.loc 1 229 0
 239 00c8 A5F17801 		sub	r1, r5, #120
 240              		.loc 1 230 0
 241 00cc 243D     		subs	r5, r5, #36
 242              		.loc 1 229 0
 243 00ce 2162     		str	r1, [r4, #32]
 244              		.loc 1 230 0
 245 00d0 6562     		str	r5, [r4, #36]
 246              		.loc 1 231 0
 247 00d2 A262     		str	r2, [r4, #40]
 248              		.loc 1 237 0
 249 00d4 E362     		str	r3, [r4, #44]
 250 00d6 70BD     		pop	{r4, r5, r6, pc}
 251              	.L28:
 252              		.align	2
 253              	.L27:
 254 00d8 00000000 		.word	SPID1
 255 00dc 00000000 		.word	.LANCHOR0
 256 00e0 00000000 		.word	SPID3
 257 00e4 78000000 		.word	_stm32_dma_streams+120
 258 00e8 00300140 		.word	1073819648
 259 00ec 16000106 		.word	100728854
 260 00f0 46000106 		.word	100728902
 261 00f4 003C0040 		.word	1073757184
 262 00f8 16000300 		.word	196630
 263 00fc 46000300 		.word	196678
 264              		.cfi_endproc
 265              	.LFE132:
 266              		.size	spi_lld_init, .-spi_lld_init
 267              		.align	2
 268              		.p2align 4,,15
 269              		.global	spi_lld_start
 270              		.thumb
 271              		.thumb_func
 272              		.type	spi_lld_start, %function
 273              	spi_lld_start:
 274              	.LFB133:
 275              		.loc 1 306 0
 276              		.cfi_startproc
 277              		@ args = 0, pretend = 0, frame = 0
 278              		@ frame_needed = 0, uses_anonymous_args = 0
 279              	.LVL12:
 280              		.loc 1 309 0
 281 0100 0378     		ldrb	r3, [r0]	@ zero_extendqisi2
 282 0102 012B     		cmp	r3, #1
 283              		.loc 1 306 0
 284 0104 10B5     		push	{r4, lr}
 285              		.cfi_def_cfa_offset 8
ARM GAS  /var/folders/28/j9jfyj_n4wz3qtvnym210h2c0000gn/T//ccluUTpi.s 			page 6


 286              		.cfi_offset 4, -8
 287              		.cfi_offset 14, -4
 288              		.loc 1 306 0
 289 0106 0446     		mov	r4, r0
 290              		.loc 1 309 0
 291 0108 1ED0     		beq	.L36
 292 010a C369     		ldr	r3, [r0, #28]
 293              	.LVL13:
 294              	.L30:
 295              		.loc 1 413 0
 296 010c 6268     		ldr	r2, [r4, #4]
 297              		.loc 1 416 0
 298 010e A06A     		ldr	r0, [r4, #40]
 299              		.loc 1 413 0
 300 0110 5289     		ldrh	r2, [r2, #10]
 301              		.loc 1 418 0
 302 0112 E16A     		ldr	r1, [r4, #44]
 303              		.loc 1 416 0
 304 0114 20F4F040 		bic	r0, r0, #30720
 305              		.loc 1 418 0
 306 0118 21F4F041 		bic	r1, r1, #30720
 307              		.loc 1 413 0
 308 011c 12F4006F 		tst	r2, #2048
 309              		.loc 1 423 0
 310 0120 1CBF     		itt	ne
 311 0122 40F42050 		orrne	r0, r0, #10240
 312              		.loc 1 425 0
 313 0126 41F42051 		orrne	r1, r1, #10240
 314              		.loc 1 422 0
 315 012a A062     		str	r0, [r4, #40]
 316              		.loc 1 424 0
 317 012c E162     		str	r1, [r4, #44]
 318              		.loc 1 429 0
 319 012e 42F44172 		orr	r2, r2, #772
 320              		.loc 1 428 0
 321 0132 0020     		movs	r0, #0
 322              		.loc 1 431 0
 323 0134 0721     		movs	r1, #7
 324              		.loc 1 428 0
 325 0136 1880     		strh	r0, [r3]	@ movhi
 326              		.loc 1 429 0
 327 0138 1A80     		strh	r2, [r3]	@ movhi
 328              		.loc 1 431 0
 329 013a 9980     		strh	r1, [r3, #4]	@ movhi
 330              		.loc 1 432 0
 331 013c 1A88     		ldrh	r2, [r3]
 332 013e 92B2     		uxth	r2, r2
 333 0140 42F04002 		orr	r2, r2, #64
 334 0144 1A80     		strh	r2, [r3]	@ movhi
 335 0146 10BD     		pop	{r4, pc}
 336              	.LVL14:
 337              	.L36:
 338              		.loc 1 311 0
 339 0148 194B     		ldr	r3, .L41
 340 014a 9842     		cmp	r0, r3
 341 014c 0CD0     		beq	.L39
 342              		.loc 1 343 0
ARM GAS  /var/folders/28/j9jfyj_n4wz3qtvnym210h2c0000gn/T//ccluUTpi.s 			page 7


 343 014e 194B     		ldr	r3, .L41+4
 344 0150 9842     		cmp	r0, r3
 345 0152 1BD0     		beq	.L40
 346              	.LVL15:
 347              	.L32:
 348              		.loc 1 408 0
 349 0154 216A     		ldr	r1, [r4, #32]
 350              		.loc 1 409 0
 351 0156 626A     		ldr	r2, [r4, #36]
 352              		.loc 1 408 0
 353 0158 E369     		ldr	r3, [r4, #28]
 354 015a 0868     		ldr	r0, [r1]
 355              		.loc 1 409 0
 356 015c 1168     		ldr	r1, [r2]
 357              		.loc 1 408 0
 358 015e 03F10C02 		add	r2, r3, #12
 359 0162 8260     		str	r2, [r0, #8]
 360              		.loc 1 409 0
 361 0164 8A60     		str	r2, [r1, #8]
 362 0166 D1E7     		b	.L30
 363              	.LVL16:
 364              	.L39:
 365              	.LBB5:
 366              		.loc 1 313 0
 367 0168 134A     		ldr	r2, .L41+8
 368 016a 006A     		ldr	r0, [r0, #32]
 369              	.LVL17:
 370 016c 0A21     		movs	r1, #10
 371 016e 2346     		mov	r3, r4
 372 0170 FFF7FEFF 		bl	dmaStreamAllocate
 373              	.LVL18:
 374              		.loc 1 318 0
 375 0174 114A     		ldr	r2, .L41+12
 376 0176 606A     		ldr	r0, [r4, #36]
 377 0178 2346     		mov	r3, r4
 378 017a 0A21     		movs	r1, #10
 379 017c FFF7FEFF 		bl	dmaStreamAllocate
 380              	.LVL19:
 381              		.loc 1 323 0
 382 0180 0F4A     		ldr	r2, .L41+16
 383 0182 536C     		ldr	r3, [r2, #68]
 384 0184 43F48053 		orr	r3, r3, #4096
 385 0188 5364     		str	r3, [r2, #68]
 386 018a E3E7     		b	.L32
 387              	.LVL20:
 388              	.L40:
 389              	.LBE5:
 390              	.LBB6:
 391              		.loc 1 345 0
 392 018c 0A4A     		ldr	r2, .L41+8
 393 018e 006A     		ldr	r0, [r0, #32]
 394              	.LVL21:
 395 0190 0321     		movs	r1, #3
 396 0192 2346     		mov	r3, r4
 397 0194 FFF7FEFF 		bl	dmaStreamAllocate
 398              	.LVL22:
 399              		.loc 1 350 0
ARM GAS  /var/folders/28/j9jfyj_n4wz3qtvnym210h2c0000gn/T//ccluUTpi.s 			page 8


 400 0198 084A     		ldr	r2, .L41+12
 401 019a 606A     		ldr	r0, [r4, #36]
 402 019c 2346     		mov	r3, r4
 403 019e 0321     		movs	r1, #3
 404 01a0 FFF7FEFF 		bl	dmaStreamAllocate
 405              	.LVL23:
 406              		.loc 1 355 0
 407 01a4 064A     		ldr	r2, .L41+16
 408 01a6 136C     		ldr	r3, [r2, #64]
 409 01a8 43F40043 		orr	r3, r3, #32768
 410 01ac 1364     		str	r3, [r2, #64]
 411 01ae D1E7     		b	.L32
 412              	.L42:
 413              		.align	2
 414              	.L41:
 415 01b0 00000000 		.word	SPID1
 416 01b4 00000000 		.word	SPID3
 417 01b8 00000000 		.word	spi_lld_serve_rx_interrupt
 418 01bc 00000000 		.word	spi_lld_serve_tx_interrupt
 419 01c0 00380240 		.word	1073887232
 420              	.LBE6:
 421              		.cfi_endproc
 422              	.LFE133:
 423              		.size	spi_lld_start, .-spi_lld_start
 424              		.align	2
 425 01c4 AFF30080 		.p2align 4,,15
 425      AFF30080 
 425      AFF30080 
 426              		.global	spi_lld_stop
 427              		.thumb
 428              		.thumb_func
 429              		.type	spi_lld_stop, %function
 430              	spi_lld_stop:
 431              	.LFB134:
 432              		.loc 1 442 0
 433              		.cfi_startproc
 434              		@ args = 0, pretend = 0, frame = 0
 435              		@ frame_needed = 0, uses_anonymous_args = 0
 436              	.LVL24:
 437              		.loc 1 445 0
 438 01d0 0378     		ldrb	r3, [r0]	@ zero_extendqisi2
 439 01d2 022B     		cmp	r3, #2
 440 01d4 00D0     		beq	.L50
 441 01d6 7047     		bx	lr
 442              	.L50:
 443              		.loc 1 448 0
 444 01d8 C369     		ldr	r3, [r0, #28]
 445              		.loc 1 442 0
 446 01da 10B5     		push	{r4, lr}
 447              		.cfi_def_cfa_offset 8
 448              		.cfi_offset 4, -8
 449              		.cfi_offset 14, -4
 450              		.loc 1 448 0
 451 01dc 0022     		movs	r2, #0
 452 01de 0446     		mov	r4, r0
 453              		.loc 1 450 0
 454 01e0 006A     		ldr	r0, [r0, #32]
ARM GAS  /var/folders/28/j9jfyj_n4wz3qtvnym210h2c0000gn/T//ccluUTpi.s 			page 9


 455              	.LVL25:
 456              		.loc 1 448 0
 457 01e2 1A80     		strh	r2, [r3]	@ movhi
 458              		.loc 1 449 0
 459 01e4 9A80     		strh	r2, [r3, #4]	@ movhi
 460              		.loc 1 450 0
 461 01e6 FFF7FEFF 		bl	dmaStreamRelease
 462              	.LVL26:
 463              		.loc 1 451 0
 464 01ea 606A     		ldr	r0, [r4, #36]
 465 01ec FFF7FEFF 		bl	dmaStreamRelease
 466              	.LVL27:
 467              		.loc 1 454 0
 468 01f0 094B     		ldr	r3, .L53
 469 01f2 9C42     		cmp	r4, r3
 470 01f4 09D0     		beq	.L51
 471              		.loc 1 462 0
 472 01f6 094B     		ldr	r3, .L53+4
 473 01f8 9C42     		cmp	r4, r3
 474 01fa 00D0     		beq	.L52
 475              	.L43:
 476 01fc 10BD     		pop	{r4, pc}
 477              	.LVL28:
 478              	.L52:
 479              		.loc 1 463 0
 480 01fe 084A     		ldr	r2, .L53+8
 481 0200 136C     		ldr	r3, [r2, #64]
 482 0202 23F40043 		bic	r3, r3, #32768
 483 0206 1364     		str	r3, [r2, #64]
 484 0208 F8E7     		b	.L43
 485              	.L51:
 486              		.loc 1 455 0
 487 020a 054A     		ldr	r2, .L53+8
 488 020c 536C     		ldr	r3, [r2, #68]
 489 020e 23F48053 		bic	r3, r3, #4096
 490 0212 5364     		str	r3, [r2, #68]
 491 0214 10BD     		pop	{r4, pc}
 492              	.LVL29:
 493              	.L54:
 494 0216 00BF     		.align	2
 495              	.L53:
 496 0218 00000000 		.word	SPID1
 497 021c 00000000 		.word	SPID3
 498 0220 00380240 		.word	1073887232
 499              		.cfi_endproc
 500              	.LFE134:
 501              		.size	spi_lld_stop, .-spi_lld_stop
 502              		.align	2
 503 0224 AFF30080 		.p2align 4,,15
 503      AFF30080 
 503      AFF30080 
 504              		.global	spi_lld_select
 505              		.thumb
 506              		.thumb_func
 507              		.type	spi_lld_select, %function
 508              	spi_lld_select:
 509              	.LFB135:
ARM GAS  /var/folders/28/j9jfyj_n4wz3qtvnym210h2c0000gn/T//ccluUTpi.s 			page 10


 510              		.loc 1 487 0
 511              		.cfi_startproc
 512              		@ args = 0, pretend = 0, frame = 0
 513              		@ frame_needed = 0, uses_anonymous_args = 0
 514              		@ link register save eliminated.
 515              	.LVL30:
 516              		.loc 1 489 0
 517 0230 4368     		ldr	r3, [r0, #4]
 518 0232 1989     		ldrh	r1, [r3, #8]
 519 0234 5A68     		ldr	r2, [r3, #4]
 520 0236 0123     		movs	r3, #1
 521 0238 8B40     		lsls	r3, r3, r1
 522 023a 9BB2     		uxth	r3, r3
 523 023c 5383     		strh	r3, [r2, #26]	@ movhi
 524 023e 7047     		bx	lr
 525              		.cfi_endproc
 526              	.LFE135:
 527              		.size	spi_lld_select, .-spi_lld_select
 528              		.align	2
 529              		.p2align 4,,15
 530              		.global	spi_lld_unselect
 531              		.thumb
 532              		.thumb_func
 533              		.type	spi_lld_unselect, %function
 534              	spi_lld_unselect:
 535              	.LFB136:
 536              		.loc 1 500 0
 537              		.cfi_startproc
 538              		@ args = 0, pretend = 0, frame = 0
 539              		@ frame_needed = 0, uses_anonymous_args = 0
 540              		@ link register save eliminated.
 541              	.LVL31:
 542              		.loc 1 502 0
 543 0240 4368     		ldr	r3, [r0, #4]
 544 0242 1989     		ldrh	r1, [r3, #8]
 545 0244 5A68     		ldr	r2, [r3, #4]
 546 0246 0123     		movs	r3, #1
 547 0248 8B40     		lsls	r3, r3, r1
 548 024a 9BB2     		uxth	r3, r3
 549 024c 1383     		strh	r3, [r2, #24]	@ movhi
 550 024e 7047     		bx	lr
 551              		.cfi_endproc
 552              	.LFE136:
 553              		.size	spi_lld_unselect, .-spi_lld_unselect
 554              		.align	2
 555              		.p2align 4,,15
 556              		.global	spi_lld_ignore
 557              		.thumb
 558              		.thumb_func
 559              		.type	spi_lld_ignore, %function
 560              	spi_lld_ignore:
 561              	.LFB137:
 562              		.loc 1 516 0
 563              		.cfi_startproc
 564              		@ args = 0, pretend = 0, frame = 0
 565              		@ frame_needed = 0, uses_anonymous_args = 0
 566              		@ link register save eliminated.
ARM GAS  /var/folders/28/j9jfyj_n4wz3qtvnym210h2c0000gn/T//ccluUTpi.s 			page 11


 567              	.LVL32:
 568              		.loc 1 518 0
 569 0250 026A     		ldr	r2, [r0, #32]
 570              		.loc 1 522 0
 571 0252 436A     		ldr	r3, [r0, #36]
 572              		.loc 1 518 0
 573 0254 1268     		ldr	r2, [r2]
 574              		.loc 1 522 0
 575 0256 1B68     		ldr	r3, [r3]
 576              		.loc 1 516 0
 577 0258 70B4     		push	{r4, r5, r6}
 578              		.cfi_def_cfa_offset 12
 579              		.cfi_offset 4, -12
 580              		.cfi_offset 5, -8
 581              		.cfi_offset 6, -4
 582              		.loc 1 518 0
 583 025a 0A4C     		ldr	r4, .L59
 584              		.loc 1 520 0
 585 025c 856A     		ldr	r5, [r0, #40]
 586              		.loc 1 524 0
 587 025e C06A     		ldr	r0, [r0, #44]
 588              	.LVL33:
 589              		.loc 1 518 0
 590 0260 A61C     		adds	r6, r4, #2
 591 0262 D660     		str	r6, [r2, #12]
 592              		.loc 1 519 0
 593 0264 5160     		str	r1, [r2, #4]
 594              		.loc 1 520 0
 595 0266 1560     		str	r5, [r2]
 596              		.loc 1 522 0
 597 0268 DC60     		str	r4, [r3, #12]
 598              		.loc 1 523 0
 599 026a 5960     		str	r1, [r3, #4]
 600              		.loc 1 524 0
 601 026c 1860     		str	r0, [r3]
 602              		.loc 1 526 0
 603 026e 1168     		ldr	r1, [r2]
 604              	.LVL34:
 605 0270 41F00101 		orr	r1, r1, #1
 606 0274 1160     		str	r1, [r2]
 607              		.loc 1 527 0
 608 0276 1A68     		ldr	r2, [r3]
 609 0278 42F00102 		orr	r2, r2, #1
 610 027c 1A60     		str	r2, [r3]
 611              		.loc 1 528 0
 612 027e 70BC     		pop	{r4, r5, r6}
 613              		.cfi_restore 6
 614              		.cfi_restore 5
 615              		.cfi_restore 4
 616              		.cfi_def_cfa_offset 0
 617 0280 7047     		bx	lr
 618              	.L60:
 619 0282 00BF     		.align	2
 620              	.L59:
 621 0284 00000000 		.word	.LANCHOR0
 622              		.cfi_endproc
 623              	.LFE137:
ARM GAS  /var/folders/28/j9jfyj_n4wz3qtvnym210h2c0000gn/T//ccluUTpi.s 			page 12


 624              		.size	spi_lld_ignore, .-spi_lld_ignore
 625              		.align	2
 626 0288 AFF30080 		.p2align 4,,15
 626      AFF30080 
 627              		.global	spi_lld_exchange
 628              		.thumb
 629              		.thumb_func
 630              		.type	spi_lld_exchange, %function
 631              	spi_lld_exchange:
 632              	.LFB138:
 633              		.loc 1 546 0
 634              		.cfi_startproc
 635              		@ args = 0, pretend = 0, frame = 0
 636              		@ frame_needed = 0, uses_anonymous_args = 0
 637              		@ link register save eliminated.
 638              	.LVL35:
 639 0290 F0B4     		push	{r4, r5, r6, r7}
 640              		.cfi_def_cfa_offset 16
 641              		.cfi_offset 4, -16
 642              		.cfi_offset 5, -12
 643              		.cfi_offset 6, -8
 644              		.cfi_offset 7, -4
 645              		.loc 1 548 0
 646 0292 046A     		ldr	r4, [r0, #32]
 647              		.loc 1 552 0
 648 0294 476A     		ldr	r7, [r0, #36]
 649              		.loc 1 550 0
 650 0296 866A     		ldr	r6, [r0, #40]
 651              		.loc 1 554 0
 652 0298 C56A     		ldr	r5, [r0, #44]
 653              		.loc 1 548 0
 654 029a 2468     		ldr	r4, [r4]
 655              		.loc 1 552 0
 656 029c 3868     		ldr	r0, [r7]
 657              	.LVL36:
 658              		.loc 1 548 0
 659 029e E360     		str	r3, [r4, #12]
 660              		.loc 1 550 0
 661 02a0 46F48066 		orr	r6, r6, #1024
 662              		.loc 1 554 0
 663 02a4 45F48065 		orr	r5, r5, #1024
 664              		.loc 1 549 0
 665 02a8 6160     		str	r1, [r4, #4]
 666              		.loc 1 550 0
 667 02aa 2660     		str	r6, [r4]
 668              		.loc 1 552 0
 669 02ac C260     		str	r2, [r0, #12]
 670              		.loc 1 553 0
 671 02ae 4160     		str	r1, [r0, #4]
 672              		.loc 1 554 0
 673 02b0 0560     		str	r5, [r0]
 674              		.loc 1 556 0
 675 02b2 2368     		ldr	r3, [r4]
 676              	.LVL37:
 677 02b4 43F00103 		orr	r3, r3, #1
 678 02b8 2360     		str	r3, [r4]
 679              		.loc 1 557 0
ARM GAS  /var/folders/28/j9jfyj_n4wz3qtvnym210h2c0000gn/T//ccluUTpi.s 			page 13


 680 02ba 0368     		ldr	r3, [r0]
 681 02bc 43F00103 		orr	r3, r3, #1
 682 02c0 0360     		str	r3, [r0]
 683              		.loc 1 558 0
 684 02c2 F0BC     		pop	{r4, r5, r6, r7}
 685              		.cfi_restore 7
 686              		.cfi_restore 6
 687              		.cfi_restore 5
 688              		.cfi_restore 4
 689              		.cfi_def_cfa_offset 0
 690 02c4 7047     		bx	lr
 691              		.cfi_endproc
 692              	.LFE138:
 693              		.size	spi_lld_exchange, .-spi_lld_exchange
 694 02c6 00BF     		.align	2
 695 02c8 AFF30080 		.p2align 4,,15
 695      AFF30080 
 696              		.global	spi_lld_send
 697              		.thumb
 698              		.thumb_func
 699              		.type	spi_lld_send, %function
 700              	spi_lld_send:
 701              	.LFB139:
 702              		.loc 1 573 0
 703              		.cfi_startproc
 704              		@ args = 0, pretend = 0, frame = 0
 705              		@ frame_needed = 0, uses_anonymous_args = 0
 706              		@ link register save eliminated.
 707              	.LVL38:
 708 02d0 70B4     		push	{r4, r5, r6}
 709              		.cfi_def_cfa_offset 12
 710              		.cfi_offset 4, -12
 711              		.cfi_offset 5, -8
 712              		.cfi_offset 6, -4
 713              		.loc 1 579 0
 714 02d2 436A     		ldr	r3, [r0, #36]
 715              		.loc 1 575 0
 716 02d4 046A     		ldr	r4, [r0, #32]
 717              		.loc 1 581 0
 718 02d6 C56A     		ldr	r5, [r0, #44]
 719              		.loc 1 575 0
 720 02d8 2468     		ldr	r4, [r4]
 721              		.loc 1 579 0
 722 02da 1B68     		ldr	r3, [r3]
 723              		.loc 1 577 0
 724 02dc 806A     		ldr	r0, [r0, #40]
 725              	.LVL39:
 726              		.loc 1 575 0
 727 02de 094E     		ldr	r6, .L65
 728 02e0 E660     		str	r6, [r4, #12]
 729              		.loc 1 581 0
 730 02e2 45F48065 		orr	r5, r5, #1024
 731              		.loc 1 576 0
 732 02e6 6160     		str	r1, [r4, #4]
 733              		.loc 1 577 0
 734 02e8 2060     		str	r0, [r4]
 735              		.loc 1 579 0
ARM GAS  /var/folders/28/j9jfyj_n4wz3qtvnym210h2c0000gn/T//ccluUTpi.s 			page 14


 736 02ea DA60     		str	r2, [r3, #12]
 737              		.loc 1 580 0
 738 02ec 5960     		str	r1, [r3, #4]
 739              		.loc 1 581 0
 740 02ee 1D60     		str	r5, [r3]
 741              		.loc 1 583 0
 742 02f0 2268     		ldr	r2, [r4]
 743              	.LVL40:
 744 02f2 42F00102 		orr	r2, r2, #1
 745 02f6 2260     		str	r2, [r4]
 746              		.loc 1 584 0
 747 02f8 1A68     		ldr	r2, [r3]
 748 02fa 42F00102 		orr	r2, r2, #1
 749 02fe 1A60     		str	r2, [r3]
 750              		.loc 1 585 0
 751 0300 70BC     		pop	{r4, r5, r6}
 752              		.cfi_restore 6
 753              		.cfi_restore 5
 754              		.cfi_restore 4
 755              		.cfi_def_cfa_offset 0
 756 0302 7047     		bx	lr
 757              	.L66:
 758              		.align	2
 759              	.L65:
 760 0304 02000000 		.word	.LANCHOR0+2
 761              		.cfi_endproc
 762              	.LFE139:
 763              		.size	spi_lld_send, .-spi_lld_send
 764              		.align	2
 765 0308 AFF30080 		.p2align 4,,15
 765      AFF30080 
 766              		.global	spi_lld_receive
 767              		.thumb
 768              		.thumb_func
 769              		.type	spi_lld_receive, %function
 770              	spi_lld_receive:
 771              	.LFB140:
 772              		.loc 1 600 0
 773              		.cfi_startproc
 774              		@ args = 0, pretend = 0, frame = 0
 775              		@ frame_needed = 0, uses_anonymous_args = 0
 776              		@ link register save eliminated.
 777              	.LVL41:
 778 0310 70B4     		push	{r4, r5, r6}
 779              		.cfi_def_cfa_offset 12
 780              		.cfi_offset 4, -12
 781              		.cfi_offset 5, -8
 782              		.cfi_offset 6, -4
 783              		.loc 1 606 0
 784 0312 436A     		ldr	r3, [r0, #36]
 785              		.loc 1 602 0
 786 0314 046A     		ldr	r4, [r0, #32]
 787              		.loc 1 604 0
 788 0316 856A     		ldr	r5, [r0, #40]
 789              		.loc 1 602 0
 790 0318 2468     		ldr	r4, [r4]
 791              		.loc 1 606 0
ARM GAS  /var/folders/28/j9jfyj_n4wz3qtvnym210h2c0000gn/T//ccluUTpi.s 			page 15


 792 031a 1B68     		ldr	r3, [r3]
 793              		.loc 1 608 0
 794 031c C06A     		ldr	r0, [r0, #44]
 795              	.LVL42:
 796              		.loc 1 606 0
 797 031e 094E     		ldr	r6, .L69
 798              		.loc 1 602 0
 799 0320 E260     		str	r2, [r4, #12]
 800              		.loc 1 604 0
 801 0322 45F48065 		orr	r5, r5, #1024
 802              		.loc 1 603 0
 803 0326 6160     		str	r1, [r4, #4]
 804              		.loc 1 604 0
 805 0328 2560     		str	r5, [r4]
 806              		.loc 1 606 0
 807 032a DE60     		str	r6, [r3, #12]
 808              		.loc 1 607 0
 809 032c 5960     		str	r1, [r3, #4]
 810              		.loc 1 608 0
 811 032e 1860     		str	r0, [r3]
 812              		.loc 1 610 0
 813 0330 2268     		ldr	r2, [r4]
 814              	.LVL43:
 815 0332 42F00102 		orr	r2, r2, #1
 816 0336 2260     		str	r2, [r4]
 817              		.loc 1 611 0
 818 0338 1A68     		ldr	r2, [r3]
 819 033a 42F00102 		orr	r2, r2, #1
 820 033e 1A60     		str	r2, [r3]
 821              		.loc 1 612 0
 822 0340 70BC     		pop	{r4, r5, r6}
 823              		.cfi_restore 6
 824              		.cfi_restore 5
 825              		.cfi_restore 4
 826              		.cfi_def_cfa_offset 0
 827 0342 7047     		bx	lr
 828              	.L70:
 829              		.align	2
 830              	.L69:
 831 0344 00000000 		.word	.LANCHOR0
 832              		.cfi_endproc
 833              	.LFE140:
 834              		.size	spi_lld_receive, .-spi_lld_receive
 835              		.align	2
 836 0348 AFF30080 		.p2align 4,,15
 836      AFF30080 
 837              		.global	spi_lld_polled_exchange
 838              		.thumb
 839              		.thumb_func
 840              		.type	spi_lld_polled_exchange, %function
 841              	spi_lld_polled_exchange:
 842              	.LFB141:
 843              		.loc 1 626 0
 844              		.cfi_startproc
 845              		@ args = 0, pretend = 0, frame = 0
 846              		@ frame_needed = 0, uses_anonymous_args = 0
 847              		@ link register save eliminated.
ARM GAS  /var/folders/28/j9jfyj_n4wz3qtvnym210h2c0000gn/T//ccluUTpi.s 			page 16


 848              	.LVL44:
 849              		.loc 1 628 0
 850 0350 C269     		ldr	r2, [r0, #28]
 851 0352 9181     		strh	r1, [r2, #12]	@ movhi
 852              	.L72:
 853              		.loc 1 629 0 discriminator 1
 854 0354 1389     		ldrh	r3, [r2, #8]
 855 0356 DB07     		lsls	r3, r3, #31
 856 0358 FCD5     		bpl	.L72
 857              		.loc 1 631 0
 858 035a 9089     		ldrh	r0, [r2, #12]
 859              	.LVL45:
 860              		.loc 1 632 0
 861 035c 80B2     		uxth	r0, r0
 862 035e 7047     		bx	lr
 863              		.cfi_endproc
 864              	.LFE141:
 865              		.size	spi_lld_polled_exchange, .-spi_lld_polled_exchange
 866              		.comm	SPID3,48,4
 867              		.comm	SPID1,48,4
 868              		.bss
 869              		.align	1
 870              		.set	.LANCHOR0,. + 0
 871              		.type	dummytx, %object
 872              		.size	dummytx, 2
 873              	dummytx:
 874 0000 0000     		.space	2
 875              		.type	dummyrx, %object
 876              		.size	dummyrx, 2
 877              	dummyrx:
 878 0002 0000     		.space	2
 879              		.text
 880              	.Letext0:
 881              		.file 2 "/Applications/axoloti_runtime/platform_osx/lib/gcc/arm-none-eabi/4.9.3/include/stddef.h"
 882              		.file 3 "/Applications/axoloti_runtime/platform_osx/arm-none-eabi/include/machine/_default_types.h
 883              		.file 4 "/Applications/axoloti_runtime/platform_osx/arm-none-eabi/include/sys/_stdint.h"
 884              		.file 5 "/Applications/Axoloti.app/Contents/Java/chibios/os/ports/GCC/ARMCMx/chtypes.h"
 885              		.file 6 "/Applications/Axoloti.app/Contents/Java/chibios/os/kernel/include/chlists.h"
 886              		.file 7 "/Applications/Axoloti.app/Contents/Java/chibios/os/kernel/include/chthreads.h"
 887              		.file 8 "/Applications/Axoloti.app/Contents/Java/chibios/os/ports/GCC/ARMCMx/chcore_v7m.h"
 888              		.file 9 "/Applications/Axoloti.app/Contents/Java/chibios/os/kernel/include/chmtx.h"
 889              		.file 10 "/Applications/Axoloti.app/Contents/Java/chibios/os/hal/platforms/STM32F4xx/stm32f4xx.h"
 890              		.file 11 "/Applications/Axoloti.app/Contents/Java/chibios/os/hal/platforms/STM32F4xx/stm32_dma.h"
 891              		.file 12 "/Applications/Axoloti.app/Contents/Java/chibios/os/hal/platforms/STM32/GPIOv2/pal_lld.h"
 892              		.file 13 "/Applications/Axoloti.app/Contents/Java/chibios/os/hal/include/spi.h"
 893              		.file 14 "/Applications/Axoloti.app/Contents/Java/chibios/os/hal/platforms/STM32/SPIv1/spi_lld.h"
 894              		.file 15 "/Applications/Axoloti.app/Contents/Java/CMSIS//Include/core_cm4.h"
 895              		.file 16 "/Applications/Axoloti.app/Contents/Java/chibios/os/kernel/include/chschd.h"