ARM GAS  /var/folders/28/j9jfyj_n4wz3qtvnym210h2c0000gn/T//ccpoR13X.s 			page 1


   1              		.syntax unified
   2              		.cpu cortex-m4
   3              		.eabi_attribute 27, 1
   4              		.eabi_attribute 28, 1
   5              		.fpu fpv4-sp-d16
   6              		.eabi_attribute 20, 1
   7              		.eabi_attribute 21, 1
   8              		.eabi_attribute 23, 3
   9              		.eabi_attribute 24, 1
  10              		.eabi_attribute 25, 1
  11              		.eabi_attribute 26, 1
  12              		.eabi_attribute 30, 2
  13              		.eabi_attribute 34, 1
  14              		.eabi_attribute 18, 4
  15              		.thumb
  16              		.file	"ui.c"
  17              		.text
  18              	.Ltext0:
  19              		.cfi_sections	.debug_frame
  20              		.align	2
  21              		.p2align 4,,15
  22              		.global	EnterMenuLoadFile
  23              		.thumb
  24              		.thumb_func
  25              		.type	EnterMenuLoadFile, %function
  26              	EnterMenuLoadFile:
  27              	.LFB191:
  28              		.file 1 "ui.c"
  29              		.loc 1 293 0
  30              		.cfi_startproc
  31              		@ args = 0, pretend = 0, frame = 24
  32              		@ frame_needed = 0, uses_anonymous_args = 0
  33 0000 00B5     		push	{lr}
  34              		.cfi_def_cfa_offset 4
  35              		.cfi_offset 14, -4
  36              		.loc 1 295 0
  37 0002 0D4A     		ldr	r2, .L3
  38 0004 5369     		ldr	r3, [r2, #20]
  39              		.loc 1 294 0
  40 0006 D268     		ldr	r2, [r2, #12]
  41              		.loc 1 293 0
  42 0008 87B0     		sub	sp, sp, #28
  43              		.cfi_def_cfa_offset 32
  44              		.loc 1 295 0
  45 000a 03EB4303 		add	r3, r3, r3, lsl #1
  46              		.loc 1 294 0
  47 000e 02EBC302 		add	r2, r2, r3, lsl #3
  48              	.LVL0:
  49              		.loc 1 297 0
  50 0012 43F63021 		movw	r1, #14896
  51 0016 0023     		movs	r3, #0
  52 0018 0293     		str	r3, [sp, #8]
  53 001a 0393     		str	r3, [sp, #12]
  54 001c 0493     		str	r3, [sp, #16]
  55 001e 0593     		str	r3, [sp, #20]
  56 0020 0191     		str	r1, [sp, #4]
  57              		.loc 1 298 0
ARM GAS  /var/folders/28/j9jfyj_n4wz3qtvnym210h2c0000gn/T//ccpoR13X.s 			page 2


  58 0022 9168     		ldr	r1, [r2, #8]
  59 0024 0DF10600 		add	r0, sp, #6
  60 0028 FFF7FEFF 		bl	strcpy
  61              	.LVL1:
  62              		.loc 1 300 0
  63 002c 01A8     		add	r0, sp, #4
  64 002e FFF7FEFF 		bl	LoadPatch
  65              	.LVL2:
  66              		.loc 1 301 0
  67 0032 07B0     		add	sp, sp, #28
  68              		.cfi_def_cfa_offset 4
  69              		@ sp needed
  70 0034 5DF804FB 		ldr	pc, [sp], #4
  71              	.L4:
  72              		.align	2
  73              	.L3:
  74 0038 00000000 		.word	LoadMenu
  75              		.cfi_endproc
  76              	.LFE191:
  77              		.size	EnterMenuLoadFile, .-EnterMenuLoadFile
  78              		.align	2
  79 003c AFF30080 		.p2align 4,,15
  80              		.global	EnterMenuLoad
  81              		.thumb
  82              		.thumb_func
  83              		.type	EnterMenuLoad, %function
  84              	EnterMenuLoad:
  85              	.LFB192:
  86              		.loc 1 303 0
  87              		.cfi_startproc
  88              		@ args = 0, pretend = 0, frame = 72
  89              		@ frame_needed = 0, uses_anonymous_args = 0
  90 0040 2DE9F047 		push	{r4, r5, r6, r7, r8, r9, r10, lr}
  91              		.cfi_def_cfa_offset 32
  92              		.cfi_offset 4, -32
  93              		.cfi_offset 5, -28
  94              		.cfi_offset 6, -24
  95              		.cfi_offset 7, -20
  96              		.cfi_offset 8, -16
  97              		.cfi_offset 9, -12
  98              		.cfi_offset 10, -8
  99              		.cfi_offset 14, -4
 100              		.loc 1 304 0
 101 0044 324D     		ldr	r5, .L19
 102 0046 334B     		ldr	r3, .L19+4
 103 0048 2B60     		str	r3, [r5]
 104              	.LVL3:
 105              		.loc 1 303 0
 106 004a 92B0     		sub	sp, sp, #72
 107              		.cfi_def_cfa_offset 104
 108              		.loc 1 311 0
 109 004c 0023     		movs	r3, #0
 110              		.loc 1 314 0
 111 004e 3249     		ldr	r1, .L19+8
 112              		.loc 1 311 0
 113 0050 0793     		str	r3, [sp, #28]
 114              		.loc 1 314 0
ARM GAS  /var/folders/28/j9jfyj_n4wz3qtvnym210h2c0000gn/T//ccpoR13X.s 			page 3


 115 0052 09A8     		add	r0, sp, #36
 116              		.loc 1 312 0
 117 0054 0893     		str	r3, [sp, #32]
 118              		.loc 1 314 0
 119 0056 FFF7FEFF 		bl	f_opendir
 120              	.LVL4:
 121              		.loc 1 315 0
 122 005a 0028     		cmp	r0, #0
 123 005c 55D1     		bne	.L5
 124 005e 2F4E     		ldr	r6, .L19+12
 125              	.LBB45:
 126              	.LBB46:
 127              	.LBB47:
 128              	.LBB48:
 129              		.loc 1 98 0
 130 0060 DFF8CC80 		ldr	r8, .L19+32
 131              	.LBE48:
 132              	.LBE47:
 133              	.LBE46:
 134              	.LBE45:
 135 0064 0446     		mov	r4, r0
 136              	.LBB59:
 137              	.LBB57:
 138              	.LBB53:
 139              	.LBB49:
 140              		.loc 1 95 0
 141 0066 0D27     		movs	r7, #13
 142              	.LVL5:
 143              	.L6:
 144              	.LBE49:
 145              	.LBE53:
 146              	.LBE57:
 147              	.LBE59:
 148              		.loc 1 317 0
 149 0068 09A8     		add	r0, sp, #36
 150 006a 01A9     		add	r1, sp, #4
 151 006c FFF7FEFF 		bl	f_readdir
 152              	.LVL6:
 153              		.loc 1 318 0
 154 0070 0028     		cmp	r0, #0
 155 0072 3DD1     		bne	.L8
 156              		.loc 1 318 0 is_stmt 0 discriminator 1
 157 0074 9DF80D30 		ldrb	r3, [sp, #13]	@ zero_extendqisi2
 158 0078 002B     		cmp	r3, #0
 159 007a 39D0     		beq	.L8
 160              		.loc 1 320 0 is_stmt 1
 161 007c 2E2B     		cmp	r3, #46
 162 007e F3D0     		beq	.L6
 163              		.loc 1 323 0
 164 0080 9DF80C30 		ldrb	r3, [sp, #12]	@ zero_extendqisi2
 165 0084 03F01003 		and	r3, r3, #16
 166              	.LBB60:
 167              		.loc 1 327 0
 168 0088 0DF10D00 		add	r0, sp, #13
 169              	.LVL7:
 170              	.LBE60:
 171              		.loc 1 323 0
ARM GAS  /var/folders/28/j9jfyj_n4wz3qtvnym210h2c0000gn/T//ccpoR13X.s 			page 4


 172 008c 03F0FF09 		and	r9, r3, #255
 173 0090 002B     		cmp	r3, #0
 174 0092 E9D1     		bne	.L6
 175              	.LBB61:
 176              		.loc 1 327 0
 177 0094 FFF7FEFF 		bl	strlen
 178              	.LVL8:
 179              		.loc 1 328 0
 180 0098 12AB     		add	r3, sp, #72
 181 009a 0344     		add	r3, r3, r0
 182 009c 13F83F2C 		ldrb	r2, [r3, #-63]	@ zero_extendqisi2
 183 00a0 2E2A     		cmp	r2, #46
 184 00a2 E1D1     		bne	.L6
 185              		.loc 1 328 0 is_stmt 0 discriminator 1
 186 00a4 13F83E2C 		ldrb	r2, [r3, #-62]	@ zero_extendqisi2
 187 00a8 422A     		cmp	r2, #66
 188 00aa DDD1     		bne	.L6
 189              		.loc 1 328 0 discriminator 2
 190 00ac 13F83D2C 		ldrb	r2, [r3, #-61]	@ zero_extendqisi2
 191 00b0 492A     		cmp	r2, #73
 192 00b2 D9D1     		bne	.L6
 193              		.loc 1 329 0 is_stmt 1
 194 00b4 13F83C3C 		ldrb	r3, [r3, #-60]	@ zero_extendqisi2
 195 00b8 4E2B     		cmp	r3, #78
 196 00ba D5D1     		bne	.L6
 197              	.LBB58:
 198              		.loc 1 331 0
 199 00bc 2B68     		ldr	r3, [r5]
 200              	.LVL9:
 201              		.loc 1 332 0
 202 00be 00F1010A 		add	r10, r0, #1
 203 00c2 5246     		mov	r2, r10
 204 00c4 1846     		mov	r0, r3
 205              	.LVL10:
 206 00c6 0DF10D01 		add	r1, sp, #13
 207              	.LVL11:
 208 00ca FFF7FEFF 		bl	memcpy
 209              	.LVL12:
 210              	.LBB54:
 211              	.LBB50:
 212              		.loc 1 95 0
 213 00ce 04EB4401 		add	r1, r4, r4, lsl #1
 214              	.LBE50:
 215              	.LBE54:
 216              		.loc 1 332 0
 217 00d2 0346     		mov	r3, r0
 218              		.loc 1 333 0
 219 00d4 2868     		ldr	r0, [r5]
 220              	.LBB55:
 221              	.LBB51:
 222              		.loc 1 95 0
 223 00d6 06F83170 		strb	r7, [r6, r1, lsl #3]
 224 00da 06EBC102 		add	r2, r6, r1, lsl #3
 225              	.LBE51:
 226              	.LBE55:
 227              		.loc 1 333 0
 228 00de 5044     		add	r0, r0, r10
ARM GAS  /var/folders/28/j9jfyj_n4wz3qtvnym210h2c0000gn/T//ccpoR13X.s 			page 5


 229 00e0 2860     		str	r0, [r5]
 230              	.LVL13:
 231              	.LBB56:
 232              	.LBB52:
 233              		.loc 1 97 0
 234 00e2 9360     		str	r3, [r2, #8]
 235              		.loc 1 96 0
 236 00e4 C2F80490 		str	r9, [r2, #4]
 237              		.loc 1 98 0
 238 00e8 C2F80C80 		str	r8, [r2, #12]
 239              	.LBE52:
 240              	.LBE56:
 241              		.loc 1 335 0
 242 00ec 0134     		adds	r4, r4, #1
 243              	.LVL14:
 244 00ee BBE7     		b	.L6
 245              	.LVL15:
 246              	.L8:
 247              	.LBE58:
 248              	.LBE61:
 249              	.LBB62:
 250              	.LBB63:
 251              		.loc 1 63 0
 252 00f0 0B4B     		ldr	r3, .L19+16
 253              	.LBE63:
 254              	.LBE62:
 255              		.loc 1 340 0
 256 00f2 0C4A     		ldr	r2, .L19+20
 257              	.LBB65:
 258              	.LBB64:
 259              		.loc 1 64 0
 260 00f4 0C4D     		ldr	r5, .L19+24
 261              		.loc 1 65 0
 262 00f6 0D48     		ldr	r0, .L19+28
 263              	.LVL16:
 264              		.loc 1 66 0
 265 00f8 1C61     		str	r4, [r3, #16]
 266              		.loc 1 67 0
 267 00fa 0021     		movs	r1, #0
 268              		.loc 1 63 0
 269 00fc 0324     		movs	r4, #3
 270              	.LVL17:
 271              		.loc 1 68 0
 272 00fe DE60     		str	r6, [r3, #12]
 273              		.loc 1 63 0
 274 0100 1C70     		strb	r4, [r3]
 275              		.loc 1 64 0
 276 0102 5D60     		str	r5, [r3, #4]
 277              		.loc 1 65 0
 278 0104 9860     		str	r0, [r3, #8]
 279              		.loc 1 67 0
 280 0106 5961     		str	r1, [r3, #20]
 281              	.LBE64:
 282              	.LBE65:
 283              		.loc 1 340 0
 284 0108 1360     		str	r3, [r2]
 285              	.LVL18:
ARM GAS  /var/folders/28/j9jfyj_n4wz3qtvnym210h2c0000gn/T//ccpoR13X.s 			page 6


 286              	.L5:
 287              		.loc 1 343 0
 288 010a 12B0     		add	sp, sp, #72
 289              		.cfi_def_cfa_offset 32
 290              		@ sp needed
 291 010c BDE8F087 		pop	{r4, r5, r6, r7, r8, r9, r10, pc}
 292              	.L20:
 293              		.align	2
 294              	.L19:
 295 0110 00000000 		.word	memp
 296 0114 00000000 		.word	fbuff
 297 0118 00000000 		.word	.LC0
 298 011c 00000000 		.word	TmpMenuKvps
 299 0120 00000000 		.word	LoadMenu
 300 0124 00000000 		.word	KvpsDisplay
 301 0128 00000000 		.word	KvpsHead
 302 012c 04000000 		.word	.LC1
 303 0130 00000000 		.word	EnterMenuLoadFile
 304              		.cfi_endproc
 305              	.LFE192:
 306              		.size	EnterMenuLoad, .-EnterMenuLoad
 307              		.align	2
 308 0134 AFF30080 		.p2align 4,,15
 308      AFF30080 
 308      AFF30080 
 309              		.thumb
 310              		.thumb_func
 311              		.type	ThreadUI, %function
 312              	ThreadUI:
 313              	.LFB195:
 314              		.loc 1 406 0
 315              		.cfi_startproc
 316              		@ Volatile: function does not return.
 317              		@ args = 0, pretend = 0, frame = 0
 318              		@ frame_needed = 0, uses_anonymous_args = 0
 319              	.LVL19:
 320 0140 08B5     		push	{r3, lr}
 321              		.cfi_def_cfa_offset 8
 322              		.cfi_offset 3, -8
 323              		.cfi_offset 14, -4
 324              		.loc 1 409 0
 325 0142 084B     		ldr	r3, .L28
 326 0144 084A     		ldr	r2, .L28+4
 327 0146 9B69     		ldr	r3, [r3, #24]
 328 0148 084C     		ldr	r4, .L28+8
 329 014a 9A61     		str	r2, [r3, #24]
 330              	.LVL20:
 331              	.L23:
 332              		.loc 1 413 0
 333 014c FFF7FEFF 		bl	PExTransmit
 334              	.LVL21:
 335              		.loc 1 414 0
 336 0150 FFF7FEFF 		bl	PExReceive
 337              	.LVL22:
 338              		.loc 1 415 0
 339 0154 2368     		ldr	r3, [r4]
 340 0156 03B1     		cbz	r3, .L22
ARM GAS  /var/folders/28/j9jfyj_n4wz3qtvnym210h2c0000gn/T//ccpoR13X.s 			page 7


 341              		.loc 1 416 0
 342 0158 9847     		blx	r3
 343              	.LVL23:
 344              	.L22:
 345              		.loc 1 418 0
 346 015a 0220     		movs	r0, #2
 347 015c FFF7FEFF 		bl	chThdSleep
 348              	.LVL24:
 349              		.loc 1 419 0
 350 0160 F4E7     		b	.L23
 351              	.L29:
 352 0162 00BF     		.align	2
 353              	.L28:
 354 0164 00000000 		.word	rlist
 355 0168 0C000000 		.word	.LC2
 356 016c 00000000 		.word	.LANCHOR0
 357              		.cfi_endproc
 358              	.LFE195:
 359              		.size	ThreadUI, .-ThreadUI
 360              		.align	2
 361              		.p2align 4,,15
 362              		.global	EnterMenuFormat
 363              		.thumb
 364              		.thumb_func
 365              		.type	EnterMenuFormat, %function
 366              	EnterMenuFormat:
 367              	.LFB193:
 368              		.loc 1 345 0
 369              		.cfi_startproc
 370              		@ args = 0, pretend = 0, frame = 0
 371              		@ frame_needed = 0, uses_anonymous_args = 0
 372              		.loc 1 347 0
 373 0170 0020     		movs	r0, #0
 374              		.loc 1 345 0
 375 0172 38B5     		push	{r3, r4, r5, lr}
 376              		.cfi_def_cfa_offset 16
 377              		.cfi_offset 3, -16
 378              		.cfi_offset 4, -12
 379              		.cfi_offset 5, -8
 380              		.cfi_offset 14, -4
 381              		.loc 1 347 0
 382 0174 0146     		mov	r1, r0
 383 0176 0246     		mov	r2, r0
 384 0178 FFF7FEFF 		bl	f_mkfs
 385              	.LVL25:
 386              	.LBB74:
 387              	.LBB75:
 388              	.LBB76:
 389              	.LBB77:
 390              		.loc 1 63 0
 391 017c 0D4B     		ldr	r3, .L35
 392              	.LBE77:
 393              	.LBE76:
 394              	.LBE75:
 395              	.LBE74:
 396              		.loc 1 348 0
 397 017e 58B9     		cbnz	r0, .L34
ARM GAS  /var/folders/28/j9jfyj_n4wz3qtvnym210h2c0000gn/T//ccpoR13X.s 			page 8


 398              	.LVL26:
 399              		.loc 1 354 0
 400 0180 0D4A     		ldr	r2, .L35+4
 401              	.LBB83:
 402              	.LBB84:
 403              		.loc 1 64 0
 404 0182 0E4C     		ldr	r4, .L35+8
 405              		.loc 1 65 0
 406 0184 0E49     		ldr	r1, .L35+12
 407              		.loc 1 66 0
 408 0186 1861     		str	r0, [r3, #16]
 409              		.loc 1 63 0
 410 0188 0325     		movs	r5, #3
 411              		.loc 1 67 0
 412 018a 5861     		str	r0, [r3, #20]
 413              		.loc 1 68 0
 414 018c D860     		str	r0, [r3, #12]
 415              		.loc 1 63 0
 416 018e 1D70     		strb	r5, [r3]
 417              		.loc 1 64 0
 418 0190 5C60     		str	r4, [r3, #4]
 419              		.loc 1 65 0
 420 0192 9960     		str	r1, [r3, #8]
 421              	.LBE84:
 422              	.LBE83:
 423              		.loc 1 354 0
 424 0194 1360     		str	r3, [r2]
 425 0196 38BD     		pop	{r3, r4, r5, pc}
 426              	.LVL27:
 427              	.L34:
 428              	.LBB85:
 429              	.LBB82:
 430              	.LBB80:
 431              	.LBB78:
 432              		.loc 1 64 0
 433 0198 084A     		ldr	r2, .L35+8
 434              	.LBE78:
 435              	.LBE80:
 436              		.loc 1 350 0
 437 019a 0749     		ldr	r1, .L35+4
 438              	.LBB81:
 439              	.LBB79:
 440              		.loc 1 64 0
 441 019c 5A60     		str	r2, [r3, #4]
 442              		.loc 1 66 0
 443 019e 0022     		movs	r2, #0
 444              		.loc 1 65 0
 445 01a0 0848     		ldr	r0, .L35+16
 446              	.LVL28:
 447              		.loc 1 66 0
 448 01a2 1A61     		str	r2, [r3, #16]
 449              		.loc 1 63 0
 450 01a4 0324     		movs	r4, #3
 451              		.loc 1 67 0
 452 01a6 5A61     		str	r2, [r3, #20]
 453              		.loc 1 68 0
 454 01a8 DA60     		str	r2, [r3, #12]
ARM GAS  /var/folders/28/j9jfyj_n4wz3qtvnym210h2c0000gn/T//ccpoR13X.s 			page 9


 455              		.loc 1 63 0
 456 01aa 1C70     		strb	r4, [r3]
 457              		.loc 1 65 0
 458 01ac 9860     		str	r0, [r3, #8]
 459              	.LBE79:
 460              	.LBE81:
 461              		.loc 1 350 0
 462 01ae 0B60     		str	r3, [r1]
 463 01b0 38BD     		pop	{r3, r4, r5, pc}
 464              	.L36:
 465 01b2 00BF     		.align	2
 466              	.L35:
 467 01b4 00000000 		.word	TmpMenuKvps
 468 01b8 00000000 		.word	KvpsDisplay
 469 01bc 00000000 		.word	KvpsHead
 470 01c0 20000000 		.word	.LC4
 471 01c4 10000000 		.word	.LC3
 472              	.LBE82:
 473              	.LBE85:
 474              		.cfi_endproc
 475              	.LFE193:
 476              		.size	EnterMenuFormat, .-EnterMenuFormat
 477              		.align	2
 478 01c8 AFF30080 		.p2align 4,,15
 478      AFF30080 
 479              		.global	SetKVP_APVP
 480              		.thumb
 481              		.thumb_func
 482              		.type	SetKVP_APVP, %function
 483              	SetKVP_APVP:
 484              	.LFB179:
 485              		.loc 1 52 0
 486              		.cfi_startproc
 487              		@ args = 4, pretend = 0, frame = 0
 488              		@ frame_needed = 0, uses_anonymous_args = 0
 489              		@ link register save eliminated.
 490              	.LVL29:
 491 01d0 70B4     		push	{r4, r5, r6}
 492              		.cfi_def_cfa_offset 12
 493              		.cfi_offset 4, -12
 494              		.cfi_offset 5, -8
 495              		.cfi_offset 6, -4
 496              		.loc 1 52 0
 497 01d2 039C     		ldr	r4, [sp, #12]
 498              		.loc 1 58 0
 499 01d4 C460     		str	r4, [r0, #12]
 500              		.loc 1 53 0
 501 01d6 0526     		movs	r6, #5
 502              		.loc 1 57 0
 503 01d8 0025     		movs	r5, #0
 504              		.loc 1 53 0
 505 01da 0670     		strb	r6, [r0]
 506              		.loc 1 57 0
 507 01dc 4561     		str	r5, [r0, #20]
 508              		.loc 1 54 0
 509 01de 4160     		str	r1, [r0, #4]
 510              		.loc 1 55 0
ARM GAS  /var/folders/28/j9jfyj_n4wz3qtvnym210h2c0000gn/T//ccpoR13X.s 			page 10


 511 01e0 8260     		str	r2, [r0, #8]
 512              		.loc 1 56 0
 513 01e2 0361     		str	r3, [r0, #16]
 514              		.loc 1 59 0
 515 01e4 70BC     		pop	{r4, r5, r6}
 516              		.cfi_restore 6
 517              		.cfi_restore 5
 518              		.cfi_restore 4
 519              		.cfi_def_cfa_offset 0
 520              	.LVL30:
 521 01e6 7047     		bx	lr
 522              		.cfi_endproc
 523              	.LFE179:
 524              		.size	SetKVP_APVP, .-SetKVP_APVP
 525              		.align	2
 526 01e8 AFF30080 		.p2align 4,,15
 526      AFF30080 
 527              		.global	SetKVP_AVP
 528              		.thumb
 529              		.thumb_func
 530              		.type	SetKVP_AVP, %function
 531              	SetKVP_AVP:
 532              	.LFB180:
 533              		.loc 1 62 0
 534              		.cfi_startproc
 535              		@ args = 4, pretend = 0, frame = 0
 536              		@ frame_needed = 0, uses_anonymous_args = 0
 537              		@ link register save eliminated.
 538              	.LVL31:
 539 01f0 70B4     		push	{r4, r5, r6}
 540              		.cfi_def_cfa_offset 12
 541              		.cfi_offset 4, -12
 542              		.cfi_offset 5, -8
 543              		.cfi_offset 6, -4
 544              		.loc 1 62 0
 545 01f2 039C     		ldr	r4, [sp, #12]
 546              		.loc 1 68 0
 547 01f4 C460     		str	r4, [r0, #12]
 548              		.loc 1 63 0
 549 01f6 0326     		movs	r6, #3
 550              		.loc 1 67 0
 551 01f8 0025     		movs	r5, #0
 552              		.loc 1 63 0
 553 01fa 0670     		strb	r6, [r0]
 554              		.loc 1 67 0
 555 01fc 4561     		str	r5, [r0, #20]
 556              		.loc 1 64 0
 557 01fe 4160     		str	r1, [r0, #4]
 558              		.loc 1 65 0
 559 0200 8260     		str	r2, [r0, #8]
 560              		.loc 1 66 0
 561 0202 0361     		str	r3, [r0, #16]
 562              		.loc 1 69 0
 563 0204 70BC     		pop	{r4, r5, r6}
 564              		.cfi_restore 6
 565              		.cfi_restore 5
 566              		.cfi_restore 4
ARM GAS  /var/folders/28/j9jfyj_n4wz3qtvnym210h2c0000gn/T//ccpoR13X.s 			page 11


 567              		.cfi_def_cfa_offset 0
 568              	.LVL32:
 569 0206 7047     		bx	lr
 570              		.cfi_endproc
 571              	.LFE180:
 572              		.size	SetKVP_AVP, .-SetKVP_AVP
 573              		.align	2
 574 0208 AFF30080 		.p2align 4,,15
 574      AFF30080 
 575              		.global	SetKVP_IVP
 576              		.thumb
 577              		.thumb_func
 578              		.type	SetKVP_IVP, %function
 579              	SetKVP_IVP:
 580              	.LFB181:
 581              		.loc 1 72 0
 582              		.cfi_startproc
 583              		@ args = 8, pretend = 0, frame = 0
 584              		@ frame_needed = 0, uses_anonymous_args = 0
 585              		@ link register save eliminated.
 586              	.LVL33:
 587 0210 70B4     		push	{r4, r5, r6}
 588              		.cfi_def_cfa_offset 12
 589              		.cfi_offset 4, -12
 590              		.cfi_offset 5, -8
 591              		.cfi_offset 6, -4
 592              		.loc 1 72 0
 593 0212 039D     		ldr	r5, [sp, #12]
 594 0214 049C     		ldr	r4, [sp, #16]
 595              		.loc 1 77 0
 596 0216 0561     		str	r5, [r0, #16]
 597              		.loc 1 73 0
 598 0218 0026     		movs	r6, #0
 599 021a 0670     		strb	r6, [r0]
 600              		.loc 1 78 0
 601 021c 4461     		str	r4, [r0, #20]
 602              		.loc 1 74 0
 603 021e 4160     		str	r1, [r0, #4]
 604              		.loc 1 75 0
 605 0220 8260     		str	r2, [r0, #8]
 606              		.loc 1 76 0
 607 0222 C360     		str	r3, [r0, #12]
 608              		.loc 1 79 0
 609 0224 70BC     		pop	{r4, r5, r6}
 610              		.cfi_restore 6
 611              		.cfi_restore 5
 612              		.cfi_restore 4
 613              		.cfi_def_cfa_offset 0
 614              	.LVL34:
 615 0226 7047     		bx	lr
 616              		.cfi_endproc
 617              	.LFE181:
 618              		.size	SetKVP_IVP, .-SetKVP_IVP
 619              		.align	2
 620 0228 AFF30080 		.p2align 4,,15
 620      AFF30080 
 621              		.global	SetKVP_IPVP
ARM GAS  /var/folders/28/j9jfyj_n4wz3qtvnym210h2c0000gn/T//ccpoR13X.s 			page 12


 622              		.thumb
 623              		.thumb_func
 624              		.type	SetKVP_IPVP, %function
 625              	SetKVP_IPVP:
 626              	.LFB182:
 627              		.loc 1 83 0
 628              		.cfi_startproc
 629              		@ args = 8, pretend = 0, frame = 0
 630              		@ frame_needed = 0, uses_anonymous_args = 0
 631              		@ link register save eliminated.
 632              	.LVL35:
 633 0230 F0B4     		push	{r4, r5, r6, r7}
 634              		.cfi_def_cfa_offset 16
 635              		.cfi_offset 4, -16
 636              		.cfi_offset 5, -12
 637              		.cfi_offset 6, -8
 638              		.cfi_offset 7, -4
 639              		.loc 1 83 0
 640 0232 049D     		ldr	r5, [sp, #16]
 641 0234 059C     		ldr	r4, [sp, #20]
 642              		.loc 1 84 0
 643 0236 0F27     		movs	r7, #15
 644              		.loc 1 85 0
 645 0238 0B26     		movs	r6, #11
 646              		.loc 1 84 0
 647 023a 1F61     		str	r7, [r3, #16]
 648              		.loc 1 85 0
 649 023c 0670     		strb	r6, [r0]
 650              		.loc 1 89 0
 651 023e 0561     		str	r5, [r0, #16]
 652              		.loc 1 90 0
 653 0240 4461     		str	r4, [r0, #20]
 654              		.loc 1 86 0
 655 0242 4160     		str	r1, [r0, #4]
 656              		.loc 1 87 0
 657 0244 8260     		str	r2, [r0, #8]
 658              		.loc 1 88 0
 659 0246 C360     		str	r3, [r0, #12]
 660              		.loc 1 91 0
 661 0248 F0BC     		pop	{r4, r5, r6, r7}
 662              		.cfi_restore 7
 663              		.cfi_restore 6
 664              		.cfi_restore 5
 665              		.cfi_restore 4
 666              		.cfi_def_cfa_offset 0
 667              	.LVL36:
 668 024a 7047     		bx	lr
 669              		.cfi_endproc
 670              	.LFE182:
 671              		.size	SetKVP_IPVP, .-SetKVP_IPVP
 672              		.align	2
 673 024c AFF30080 		.p2align 4,,15
 674              		.global	SetKVP_FNCTN
 675              		.thumb
 676              		.thumb_func
 677              		.type	SetKVP_FNCTN, %function
 678              	SetKVP_FNCTN:
ARM GAS  /var/folders/28/j9jfyj_n4wz3qtvnym210h2c0000gn/T//ccpoR13X.s 			page 13


 679              	.LFB183:
 680              		.loc 1 94 0
 681              		.cfi_startproc
 682              		@ args = 0, pretend = 0, frame = 0
 683              		@ frame_needed = 0, uses_anonymous_args = 0
 684              		@ link register save eliminated.
 685              	.LVL37:
 686 0250 10B4     		push	{r4}
 687              		.cfi_def_cfa_offset 4
 688              		.cfi_offset 4, -4
 689              		.loc 1 95 0
 690 0252 0D24     		movs	r4, #13
 691 0254 0470     		strb	r4, [r0]
 692              		.loc 1 96 0
 693 0256 4160     		str	r1, [r0, #4]
 694              		.loc 1 97 0
 695 0258 8260     		str	r2, [r0, #8]
 696              		.loc 1 98 0
 697 025a C360     		str	r3, [r0, #12]
 698              		.loc 1 99 0
 699 025c 5DF8044B 		ldr	r4, [sp], #4
 700              		.cfi_restore 4
 701              		.cfi_def_cfa_offset 0
 702 0260 7047     		bx	lr
 703              		.cfi_endproc
 704              	.LFE183:
 705              		.size	SetKVP_FNCTN, .-SetKVP_FNCTN
 706 0262 00BF     		.align	2
 707 0264 AFF30080 		.p2align 4,,15
 707      AFF30080 
 707      AFF30080 
 708              		.global	KVP_Increment
 709              		.thumb
 710              		.thumb_func
 711              		.type	KVP_Increment, %function
 712              	KVP_Increment:
 713              	.LFB184:
 714              		.loc 1 101 0
 715              		.cfi_startproc
 716              		@ args = 0, pretend = 0, frame = 0
 717              		@ frame_needed = 0, uses_anonymous_args = 0
 718              		@ link register save eliminated.
 719              	.LVL38:
 720              		.loc 1 102 0
 721 0270 0378     		ldrb	r3, [r0]	@ zero_extendqisi2
 722 0272 0C2B     		cmp	r3, #12
 723 0274 0DD8     		bhi	.L47
 724 0276 DFE803F0 		tbb	[pc, r3]
 725              	.L50:
 726 027a 21       		.byte	(.L49-.L50)/2
 727 027b 0C       		.byte	(.L47-.L50)/2
 728 027c 0C       		.byte	(.L47-.L50)/2
 729 027d 07       		.byte	(.L52-.L50)/2
 730 027e 0C       		.byte	(.L47-.L50)/2
 731 027f 07       		.byte	(.L52-.L50)/2
 732 0280 0C       		.byte	(.L47-.L50)/2
 733 0281 0C       		.byte	(.L47-.L50)/2
ARM GAS  /var/folders/28/j9jfyj_n4wz3qtvnym210h2c0000gn/T//ccpoR13X.s 			page 14


 734 0282 0C       		.byte	(.L47-.L50)/2
 735 0283 0C       		.byte	(.L47-.L50)/2
 736 0284 0C       		.byte	(.L47-.L50)/2
 737 0285 15       		.byte	(.L53-.L50)/2
 738 0286 0D       		.byte	(.L54-.L50)/2
 739 0287 00       		.p2align 1
 740              	.L52:
 741              		.loc 1 112 0
 742 0288 0369     		ldr	r3, [r0, #16]
 743 028a 4269     		ldr	r2, [r0, #20]
 744 028c 013B     		subs	r3, r3, #1
 745 028e 9A42     		cmp	r2, r3
 746 0290 1CDB     		blt	.L58
 747              	.L47:
 748 0292 7047     		bx	lr
 749              	.L54:
 750              		.loc 1 116 0
 751 0294 C268     		ldr	r2, [r0, #12]
 752 0296 4169     		ldr	r1, [r0, #20]
 753 0298 1378     		ldrb	r3, [r2]	@ zero_extendqisi2
 754 029a 8B42     		cmp	r3, r1
 755 029c F9DA     		bge	.L47
 756              		.loc 1 117 0
 757 029e 0133     		adds	r3, r3, #1
 758 02a0 1370     		strb	r3, [r2]
 759 02a2 7047     		bx	lr
 760              	.L53:
 761              	.LVL39:
 762              	.LBB89:
 763              	.LBB90:
 764              	.LBB91:
 765              		.loc 1 120 0
 766 02a4 C268     		ldr	r2, [r0, #12]
 767              		.loc 1 121 0
 768 02a6 4169     		ldr	r1, [r0, #20]
 769              		.loc 1 120 0
 770 02a8 1368     		ldr	r3, [r2]
 771 02aa 03F58013 		add	r3, r3, #1048576
 772              	.LVL40:
 773              		.loc 1 121 0
 774 02ae 8B42     		cmp	r3, r1
 775              		.loc 1 122 0
 776 02b0 1046     		mov	r0, r2
 777              	.LVL41:
 778              		.loc 1 121 0
 779 02b2 0EDB     		blt	.L59
 780              		.loc 1 125 0
 781 02b4 6FF01802 		mvn	r2, #24
 782 02b8 FFF7FEBF 		b	PExParameterChange
 783              	.LVL42:
 784              	.L49:
 785              	.LBE91:
 786              	.LBE90:
 787              	.LBE89:
 788              		.loc 1 104 0
 789 02bc C268     		ldr	r2, [r0, #12]
 790 02be 4169     		ldr	r1, [r0, #20]
ARM GAS  /var/folders/28/j9jfyj_n4wz3qtvnym210h2c0000gn/T//ccpoR13X.s 			page 15


 791 02c0 1368     		ldr	r3, [r2]
 792 02c2 8B42     		cmp	r3, r1
 793 02c4 E5DA     		bge	.L47
 794              		.loc 1 105 0
 795 02c6 0133     		adds	r3, r3, #1
 796 02c8 1360     		str	r3, [r2]
 797 02ca 7047     		bx	lr
 798              	.L58:
 799              		.loc 1 113 0
 800 02cc 0132     		adds	r2, r2, #1
 801 02ce 4261     		str	r2, [r0, #20]
 802 02d0 7047     		bx	lr
 803              	.LVL43:
 804              	.L59:
 805              	.LBB94:
 806              	.LBB93:
 807              	.LBB92:
 808              		.loc 1 122 0
 809 02d2 1946     		mov	r1, r3
 810 02d4 6FF01802 		mvn	r2, #24
 811 02d8 FFF7FEBF 		b	PExParameterChange
 812              	.LVL44:
 813              	.LBE92:
 814              	.LBE93:
 815              	.LBE94:
 816              		.cfi_endproc
 817              	.LFE184:
 818              		.size	KVP_Increment, .-KVP_Increment
 819              		.align	2
 820 02dc AFF30080 		.p2align 4,,15
 821              		.global	KVP_Decrement
 822              		.thumb
 823              		.thumb_func
 824              		.type	KVP_Decrement, %function
 825              	KVP_Decrement:
 826              	.LFB185:
 827              		.loc 1 134 0
 828              		.cfi_startproc
 829              		@ args = 0, pretend = 0, frame = 0
 830              		@ frame_needed = 0, uses_anonymous_args = 0
 831              		@ link register save eliminated.
 832              	.LVL45:
 833              		.loc 1 135 0
 834 02e0 0378     		ldrb	r3, [r0]	@ zero_extendqisi2
 835 02e2 0C2B     		cmp	r3, #12
 836 02e4 08D8     		bhi	.L60
 837 02e6 DFE803F0 		tbb	[pc, r3]
 838              	.L63:
 839 02ea 22       		.byte	(.L62-.L63)/2
 840 02eb 07       		.byte	(.L60-.L63)/2
 841 02ec 07       		.byte	(.L60-.L63)/2
 842 02ed 08       		.byte	(.L65-.L63)/2
 843 02ee 07       		.byte	(.L60-.L63)/2
 844 02ef 08       		.byte	(.L65-.L63)/2
 845 02f0 07       		.byte	(.L60-.L63)/2
 846 02f1 07       		.byte	(.L60-.L63)/2
 847 02f2 07       		.byte	(.L60-.L63)/2
ARM GAS  /var/folders/28/j9jfyj_n4wz3qtvnym210h2c0000gn/T//ccpoR13X.s 			page 16


 848 02f3 07       		.byte	(.L60-.L63)/2
 849 02f4 07       		.byte	(.L60-.L63)/2
 850 02f5 16       		.byte	(.L66-.L63)/2
 851 02f6 0E       		.byte	(.L67-.L63)/2
 852 02f7 00       		.p2align 1
 853              	.L60:
 854 02f8 7047     		bx	lr
 855              	.L65:
 856              		.loc 1 145 0
 857 02fa 4369     		ldr	r3, [r0, #20]
 858 02fc 002B     		cmp	r3, #0
 859 02fe FBDD     		ble	.L60
 860              		.loc 1 146 0
 861 0300 013B     		subs	r3, r3, #1
 862 0302 4361     		str	r3, [r0, #20]
 863 0304 7047     		bx	lr
 864              	.L67:
 865              		.loc 1 149 0
 866 0306 C268     		ldr	r2, [r0, #12]
 867 0308 0169     		ldr	r1, [r0, #16]
 868 030a 1378     		ldrb	r3, [r2]	@ zero_extendqisi2
 869 030c 8B42     		cmp	r3, r1
 870 030e F3DD     		ble	.L60
 871              		.loc 1 150 0
 872 0310 013B     		subs	r3, r3, #1
 873 0312 1370     		strb	r3, [r2]
 874 0314 7047     		bx	lr
 875              	.L66:
 876              	.LVL46:
 877              	.LBB98:
 878              	.LBB99:
 879              	.LBB100:
 880              		.loc 1 153 0
 881 0316 C268     		ldr	r2, [r0, #12]
 882              		.loc 1 154 0
 883 0318 0169     		ldr	r1, [r0, #16]
 884              		.loc 1 153 0
 885 031a 1368     		ldr	r3, [r2]
 886 031c A3F58013 		sub	r3, r3, #1048576
 887              	.LVL47:
 888              		.loc 1 154 0
 889 0320 8B42     		cmp	r3, r1
 890              		.loc 1 155 0
 891 0322 1046     		mov	r0, r2
 892              	.LVL48:
 893              		.loc 1 154 0
 894 0324 0BDC     		bgt	.L71
 895              		.loc 1 158 0
 896 0326 6FF01802 		mvn	r2, #24
 897 032a FFF7FEBF 		b	PExParameterChange
 898              	.LVL49:
 899              	.L62:
 900              	.LBE100:
 901              	.LBE99:
 902              	.LBE98:
 903              		.loc 1 137 0
 904 032e C268     		ldr	r2, [r0, #12]
ARM GAS  /var/folders/28/j9jfyj_n4wz3qtvnym210h2c0000gn/T//ccpoR13X.s 			page 17


 905 0330 0169     		ldr	r1, [r0, #16]
 906 0332 1368     		ldr	r3, [r2]
 907 0334 8B42     		cmp	r3, r1
 908 0336 DFDD     		ble	.L60
 909              		.loc 1 138 0
 910 0338 013B     		subs	r3, r3, #1
 911 033a 1360     		str	r3, [r2]
 912 033c 7047     		bx	lr
 913              	.LVL50:
 914              	.L71:
 915              	.LBB103:
 916              	.LBB102:
 917              	.LBB101:
 918              		.loc 1 155 0
 919 033e 1946     		mov	r1, r3
 920 0340 6FF01802 		mvn	r2, #24
 921 0344 FFF7FEBF 		b	PExParameterChange
 922              	.LVL51:
 923              	.LBE101:
 924              	.LBE102:
 925              	.LBE103:
 926              		.cfi_endproc
 927              	.LFE185:
 928              		.size	KVP_Decrement, .-KVP_Decrement
 929              		.align	2
 930 0348 AFF30080 		.p2align 4,,15
 930      AFF30080 
 931              		.global	k_scope_DisplayFunction
 932              		.thumb
 933              		.thumb_func
 934              		.type	k_scope_DisplayFunction, %function
 935              	k_scope_DisplayFunction:
 936              	.LFB186:
 937              		.loc 1 167 0
 938              		.cfi_startproc
 939              		@ args = 0, pretend = 0, frame = 0
 940              		@ frame_needed = 0, uses_anonymous_args = 0
 941              	.LVL52:
 942 0350 70B5     		push	{r4, r5, r6, lr}
 943              		.cfi_def_cfa_offset 16
 944              		.cfi_offset 4, -16
 945              		.cfi_offset 5, -12
 946              		.cfi_offset 6, -8
 947              		.cfi_offset 14, -4
 948              		.loc 1 167 0
 949 0352 0646     		mov	r6, r0
 950              		.loc 1 170 0
 951 0354 FFF7FEFF 		bl	LCD_clearDisplay
 952              	.LVL53:
 953              		.loc 1 171 0
 954 0358 0024     		movs	r4, #0
 955              	.LVL54:
 956              	.L73:
 957              		.loc 1 172 0 discriminator 3
 958 035a 2146     		mov	r1, r4
 959 035c 0E20     		movs	r0, #14
 960              		.loc 1 171 0 discriminator 3
ARM GAS  /var/folders/28/j9jfyj_n4wz3qtvnym210h2c0000gn/T//ccpoR13X.s 			page 18


 961 035e 0134     		adds	r4, r4, #1
 962              	.LVL55:
 963              		.loc 1 172 0 discriminator 3
 964 0360 FFF7FEFF 		bl	LCD_setPixel
 965              	.LVL56:
 966              		.loc 1 171 0 discriminator 3
 967 0364 302C     		cmp	r4, #48
 968 0366 F8D1     		bne	.L73
 969              		.loc 1 174 0
 970 0368 0520     		movs	r0, #5
 971 036a 0021     		movs	r1, #0
 972 036c 264A     		ldr	r2, .L84
 973 036e FFF7FEFF 		bl	LCD_drawString
 974              	.LVL57:
 975              		.loc 1 175 0
 976 0372 0520     		movs	r0, #5
 977 0374 0221     		movs	r1, #2
 978 0376 254A     		ldr	r2, .L84+4
 979 0378 FFF7FEFF 		bl	LCD_drawString
 980              	.LVL58:
 981              		.loc 1 176 0
 982 037c 244A     		ldr	r2, .L84+8
 983 037e 0020     		movs	r0, #0
 984 0380 0421     		movs	r1, #4
 985 0382 FFF7FEFF 		bl	LCD_drawString
 986              	.LVL59:
 987              		.loc 1 177 0
 988 0386 0D20     		movs	r0, #13
 989 0388 1521     		movs	r1, #21
 990 038a FFF7FEFF 		bl	LCD_setPixel
 991              	.LVL60:
 992              		.loc 1 178 0
 993 038e 0C20     		movs	r0, #12
 994 0390 1521     		movs	r1, #21
 995 0392 FFF7FEFF 		bl	LCD_setPixel
 996              	.LVL61:
 997              		.loc 1 179 0
 998 0396 0D20     		movs	r0, #13
 999 0398 2521     		movs	r1, #37
 1000 039a FFF7FEFF 		bl	LCD_setPixel
 1001              	.LVL62:
 1002              		.loc 1 180 0
 1003 039e 0C20     		movs	r0, #12
 1004 03a0 2521     		movs	r1, #37
 1005 03a2 FFF7FEFF 		bl	LCD_setPixel
 1006              	.LVL63:
 1007              		.loc 1 181 0
 1008 03a6 0D20     		movs	r0, #13
 1009 03a8 0521     		movs	r1, #5
 1010 03aa FFF7FEFF 		bl	LCD_setPixel
 1011              	.LVL64:
 1012              		.loc 1 182 0
 1013 03ae 0C20     		movs	r0, #12
 1014 03b0 0521     		movs	r1, #5
 1015 03b2 FFF7FEFF 		bl	LCD_setPixel
 1016              	.LVL65:
 1017              		.loc 1 183 0
ARM GAS  /var/folders/28/j9jfyj_n4wz3qtvnym210h2c0000gn/T//ccpoR13X.s 			page 19


 1018 03b6 0020     		movs	r0, #0
 1019 03b8 0521     		movs	r1, #5
 1020 03ba 164A     		ldr	r2, .L84+12
 1021 03bc FFF7FEFF 		bl	LCD_drawStringInv
 1022              	.LVL66:
 1023              		.loc 1 184 0
 1024 03c0 3A20     		movs	r0, #58
 1025 03c2 0521     		movs	r1, #5
 1026 03c4 144A     		ldr	r2, .L84+16
 1027 03c6 351F     		subs	r5, r6, #4
 1028 03c8 FFF7FEFF 		bl	LCD_drawStringInv
 1029              	.LVL67:
 1030 03cc FC36     		adds	r6, r6, #252
 1031              	.LVL68:
 1032 03ce 0F24     		movs	r4, #15
 1033 03d0 09E0     		b	.L76
 1034              	.LVL69:
 1035              	.L83:
 1036              	.LBB104:
 1037              		.loc 1 191 0
 1038 03d2 2F29     		cmp	r1, #47
 1039 03d4 A8BF     		it	ge
 1040 03d6 2F21     		movge	r1, #47
 1041              	.LVL70:
 1042              		.loc 1 192 0
 1043 03d8 2046     		mov	r0, r4
 1044 03da FFF7FEFF 		bl	LCD_setPixel
 1045              	.LVL71:
 1046              	.LBE104:
 1047              		.loc 1 185 0
 1048 03de B542     		cmp	r5, r6
 1049 03e0 04F10104 		add	r4, r4, #1
 1050              	.LVL72:
 1051 03e4 0ED0     		beq	.L82
 1052              	.LVL73:
 1053              	.L76:
 1054              	.LBB105:
 1055              		.loc 1 187 0
 1056 03e6 55F8041F 		ldr	r1, [r5, #4]!
 1057              	.LVL74:
 1058 03ea C915     		asrs	r1, r1, #23
 1059 03ec C1F11501 		rsb	r1, r1, #21
 1060              	.LVL75:
 1061              		.loc 1 188 0
 1062 03f0 0029     		cmp	r1, #0
 1063 03f2 EEDC     		bgt	.L83
 1064              		.loc 1 192 0
 1065 03f4 2046     		mov	r0, r4
 1066              		.loc 1 189 0
 1067 03f6 0121     		movs	r1, #1
 1068              	.LVL76:
 1069              		.loc 1 192 0
 1070 03f8 FFF7FEFF 		bl	LCD_setPixel
 1071              	.LVL77:
 1072              	.LBE105:
 1073              		.loc 1 185 0
 1074 03fc B542     		cmp	r5, r6
ARM GAS  /var/folders/28/j9jfyj_n4wz3qtvnym210h2c0000gn/T//ccpoR13X.s 			page 20


 1075 03fe 04F10104 		add	r4, r4, #1
 1076              	.LVL78:
 1077 0402 F0D1     		bne	.L76
 1078              	.LVL79:
 1079              	.L82:
 1080              		.loc 1 194 0
 1081 0404 70BD     		pop	{r4, r5, r6, pc}
 1082              	.LVL80:
 1083              	.L85:
 1084 0406 00BF     		.align	2
 1085              	.L84:
 1086 0408 2C000000 		.word	.LC5
 1087 040c 30000000 		.word	.LC6
 1088 0410 34000000 		.word	.LC7
 1089 0414 38000000 		.word	.LC8
 1090 0418 40000000 		.word	.LC9
 1091              		.cfi_endproc
 1092              	.LFE186:
 1093              		.size	k_scope_DisplayFunction, .-k_scope_DisplayFunction
 1094              		.align	2
 1095 041c AFF30080 		.p2align 4,,15
 1096              		.global	k_scope_DisplayFunction2
 1097              		.thumb
 1098              		.thumb_func
 1099              		.type	k_scope_DisplayFunction2, %function
 1100              	k_scope_DisplayFunction2:
 1101              	.LFB187:
 1102              		.loc 1 196 0
 1103              		.cfi_startproc
 1104              		@ args = 0, pretend = 0, frame = 0
 1105              		@ frame_needed = 0, uses_anonymous_args = 0
 1106              	.LVL81:
 1107 0420 2DE9F843 		push	{r3, r4, r5, r6, r7, r8, r9, lr}
 1108              		.cfi_def_cfa_offset 32
 1109              		.cfi_offset 3, -32
 1110              		.cfi_offset 4, -28
 1111              		.cfi_offset 5, -24
 1112              		.cfi_offset 6, -20
 1113              		.cfi_offset 7, -16
 1114              		.cfi_offset 8, -12
 1115              		.cfi_offset 9, -8
 1116              		.cfi_offset 14, -4
 1117              		.loc 1 196 0
 1118 0424 8146     		mov	r9, r0
 1119              		.loc 1 199 0
 1120 0426 FFF7FEFF 		bl	LCD_clearDisplay
 1121              	.LVL82:
 1122              		.loc 1 200 0
 1123 042a 0024     		movs	r4, #0
 1124              	.LVL83:
 1125              	.L87:
 1126              		.loc 1 201 0 discriminator 3
 1127 042c 2146     		mov	r1, r4
 1128 042e 0E20     		movs	r0, #14
 1129              		.loc 1 200 0 discriminator 3
 1130 0430 0134     		adds	r4, r4, #1
 1131              	.LVL84:
ARM GAS  /var/folders/28/j9jfyj_n4wz3qtvnym210h2c0000gn/T//ccpoR13X.s 			page 21


 1132              		.loc 1 201 0 discriminator 3
 1133 0432 FFF7FEFF 		bl	LCD_setPixel
 1134              	.LVL85:
 1135              		.loc 1 200 0 discriminator 3
 1136 0436 302C     		cmp	r4, #48
 1137 0438 F8D1     		bne	.L87
 1138              		.loc 1 203 0
 1139 043a 0520     		movs	r0, #5
 1140 043c 0021     		movs	r1, #0
 1141 043e 334A     		ldr	r2, .L104
 1142 0440 FFF7FEFF 		bl	LCD_drawString
 1143              	.LVL86:
 1144              		.loc 1 204 0
 1145 0444 0520     		movs	r0, #5
 1146 0446 0221     		movs	r1, #2
 1147 0448 314A     		ldr	r2, .L104+4
 1148 044a FFF7FEFF 		bl	LCD_drawString
 1149              	.LVL87:
 1150              		.loc 1 205 0
 1151 044e 314A     		ldr	r2, .L104+8
 1152 0450 0020     		movs	r0, #0
 1153 0452 0421     		movs	r1, #4
 1154 0454 FFF7FEFF 		bl	LCD_drawString
 1155              	.LVL88:
 1156              		.loc 1 206 0
 1157 0458 0D20     		movs	r0, #13
 1158 045a 1521     		movs	r1, #21
 1159 045c FFF7FEFF 		bl	LCD_setPixel
 1160              	.LVL89:
 1161              		.loc 1 207 0
 1162 0460 0C20     		movs	r0, #12
 1163 0462 1521     		movs	r1, #21
 1164 0464 FFF7FEFF 		bl	LCD_setPixel
 1165              	.LVL90:
 1166              		.loc 1 208 0
 1167 0468 0D20     		movs	r0, #13
 1168 046a 2521     		movs	r1, #37
 1169 046c FFF7FEFF 		bl	LCD_setPixel
 1170              	.LVL91:
 1171              		.loc 1 209 0
 1172 0470 0C20     		movs	r0, #12
 1173 0472 2521     		movs	r1, #37
 1174 0474 FFF7FEFF 		bl	LCD_setPixel
 1175              	.LVL92:
 1176              		.loc 1 210 0
 1177 0478 0D20     		movs	r0, #13
 1178 047a 0521     		movs	r1, #5
 1179 047c FFF7FEFF 		bl	LCD_setPixel
 1180              	.LVL93:
 1181              		.loc 1 211 0
 1182 0480 0C20     		movs	r0, #12
 1183 0482 0521     		movs	r1, #5
 1184 0484 FFF7FEFF 		bl	LCD_setPixel
 1185              	.LVL94:
 1186              		.loc 1 212 0
 1187 0488 0020     		movs	r0, #0
 1188 048a 0521     		movs	r1, #5
ARM GAS  /var/folders/28/j9jfyj_n4wz3qtvnym210h2c0000gn/T//ccpoR13X.s 			page 22


 1189 048c 224A     		ldr	r2, .L104+12
 1190 048e FFF7FEFF 		bl	LCD_drawStringInv
 1191              	.LVL95:
 1192              		.loc 1 213 0
 1193 0492 3A20     		movs	r0, #58
 1194 0494 0521     		movs	r1, #5
 1195 0496 214A     		ldr	r2, .L104+16
 1196 0498 FFF7FEFF 		bl	LCD_drawStringInv
 1197              	.LVL96:
 1198              		.loc 1 215 0
 1199 049c 1B20     		movs	r0, #27
 1200 049e 0521     		movs	r1, #5
 1201 04a0 1F4A     		ldr	r2, .L104+20
 1202 04a2 FFF7FEFF 		bl	LCD_drawString
 1203              	.LVL97:
 1204 04a6 C846     		mov	r8, r9
 1205              		.loc 1 217 0
 1206 04a8 0027     		movs	r7, #0
 1207              	.LVL98:
 1208              	.L94:
 1209              	.LBB106:
 1210              		.loc 1 219 0
 1211 04aa D8F80430 		ldr	r3, [r8, #4]
 1212 04ae DB15     		asrs	r3, r3, #23
 1213 04b0 C3F11504 		rsb	r4, r3, #21
 1214              	.LVL99:
 1215              		.loc 1 220 0
 1216 04b4 002C     		cmp	r4, #0
 1217 04b6 22DD     		ble	.L95
 1218              		.loc 1 222 0
 1219 04b8 2F2C     		cmp	r4, #47
 1220 04ba 23DD     		ble	.L103
 1221 04bc 3023     		movs	r3, #48
 1222              		.loc 1 223 0
 1223 04be 2F24     		movs	r4, #47
 1224              	.LVL100:
 1225              	.L89:
 1226              		.loc 1 225 0
 1227 04c0 59F83750 		ldr	r5, [r9, r7, lsl #3]
 1228 04c4 ED15     		asrs	r5, r5, #23
 1229 04c6 C5F11505 		rsb	r5, r5, #21
 1230              	.LVL101:
 1231              		.loc 1 226 0
 1232 04ca 002D     		cmp	r5, #0
 1233 04cc 15DD     		ble	.L97
 1234              		.loc 1 229 0
 1235 04ce 2F2D     		cmp	r5, #47
 1236 04d0 A8BF     		it	ge
 1237 04d2 2F25     		movge	r5, #47
 1238              	.LVL102:
 1239              	.L91:
 1240              		.loc 1 235 0
 1241 04d4 AC42     		cmp	r4, r5
 1242 04d6 A8BF     		it	ge
 1243 04d8 1D46     		movge	r5, r3
 1244              	.LVL103:
 1245 04da 07F10F06 		add	r6, r7, #15
ARM GAS  /var/folders/28/j9jfyj_n4wz3qtvnym210h2c0000gn/T//ccpoR13X.s 			page 23


 1246              	.LVL104:
 1247              	.L93:
 1248              		.loc 1 237 0 discriminator 3
 1249 04de 2146     		mov	r1, r4
 1250 04e0 3046     		mov	r0, r6
 1251              		.loc 1 236 0 discriminator 3
 1252 04e2 0134     		adds	r4, r4, #1
 1253              	.LVL105:
 1254              		.loc 1 237 0 discriminator 3
 1255 04e4 FFF7FEFF 		bl	LCD_setPixel
 1256              	.LVL106:
 1257              		.loc 1 236 0 discriminator 3
 1258 04e8 AC42     		cmp	r4, r5
 1259 04ea F8DB     		blt	.L93
 1260              	.LBE106:
 1261              		.loc 1 217 0 discriminator 2
 1262 04ec 0137     		adds	r7, r7, #1
 1263              	.LVL107:
 1264 04ee 402F     		cmp	r7, #64
 1265 04f0 08F10808 		add	r8, r8, #8
 1266 04f4 D9D1     		bne	.L94
 1267              		.loc 1 239 0
 1268 04f6 BDE8F883 		pop	{r3, r4, r5, r6, r7, r8, r9, pc}
 1269              	.LVL108:
 1270              	.L97:
 1271              	.LBB107:
 1272              		.loc 1 227 0
 1273 04fa 0125     		movs	r5, #1
 1274              	.LVL109:
 1275 04fc EAE7     		b	.L91
 1276              	.LVL110:
 1277              	.L95:
 1278 04fe 0223     		movs	r3, #2
 1279              		.loc 1 221 0
 1280 0500 0124     		movs	r4, #1
 1281              	.LVL111:
 1282 0502 DDE7     		b	.L89
 1283              	.L103:
 1284 0504 C3F11603 		rsb	r3, r3, #22
 1285 0508 DAE7     		b	.L89
 1286              	.L105:
 1287 050a 00BF     		.align	2
 1288              	.L104:
 1289 050c 2C000000 		.word	.LC5
 1290 0510 30000000 		.word	.LC6
 1291 0514 34000000 		.word	.LC7
 1292 0518 38000000 		.word	.LC8
 1293 051c 40000000 		.word	.LC9
 1294 0520 48000000 		.word	.LC10
 1295              	.LBE107:
 1296              		.cfi_endproc
 1297              	.LFE187:
 1298              		.size	k_scope_DisplayFunction2, .-k_scope_DisplayFunction2
 1299              		.align	2
 1300 0524 AFF30080 		.p2align 4,,15
 1300      AFF30080 
 1300      AFF30080 
ARM GAS  /var/folders/28/j9jfyj_n4wz3qtvnym210h2c0000gn/T//ccpoR13X.s 			page 24


 1301              		.global	k_scope_DisplayFunction3
 1302              		.thumb
 1303              		.thumb_func
 1304              		.type	k_scope_DisplayFunction3, %function
 1305              	k_scope_DisplayFunction3:
 1306              	.LFB188:
 1307              		.loc 1 241 0
 1308              		.cfi_startproc
 1309              		@ args = 0, pretend = 0, frame = 0
 1310              		@ frame_needed = 0, uses_anonymous_args = 0
 1311              		@ link register save eliminated.
 1312              	.LVL112:
 1313 0530 7047     		bx	lr
 1314              		.cfi_endproc
 1315              	.LFE188:
 1316              		.size	k_scope_DisplayFunction3, .-k_scope_DisplayFunction3
 1317 0532 00BF     		.align	2
 1318 0534 AFF30080 		.p2align 4,,15
 1318      AFF30080 
 1318      AFF30080 
 1319              		.global	k_scope_DisplayFunction4
 1320              		.thumb
 1321              		.thumb_func
 1322              		.type	k_scope_DisplayFunction4, %function
 1323              	k_scope_DisplayFunction4:
 1324              	.LFB189:
 1325              		.loc 1 245 0
 1326              		.cfi_startproc
 1327              		@ args = 0, pretend = 0, frame = 0
 1328              		@ frame_needed = 0, uses_anonymous_args = 0
 1329              		@ link register save eliminated.
 1330              	.LVL113:
 1331 0540 7047     		bx	lr
 1332              		.cfi_endproc
 1333              	.LFE189:
 1334              		.size	k_scope_DisplayFunction4, .-k_scope_DisplayFunction4
 1335 0542 00BF     		.align	2
 1336 0544 AFF30080 		.p2align 4,,15
 1336      AFF30080 
 1336      AFF30080 
 1337              		.global	k_value_DisplayFunction
 1338              		.thumb
 1339              		.thumb_func
 1340              		.type	k_value_DisplayFunction, %function
 1341              	k_value_DisplayFunction:
 1342              	.LFB190:
 1343              		.loc 1 249 0
 1344              		.cfi_startproc
 1345              		@ args = 0, pretend = 0, frame = 0
 1346              		@ frame_needed = 0, uses_anonymous_args = 0
 1347              		@ link register save eliminated.
 1348              	.LVL114:
 1349 0550 7047     		bx	lr
 1350              		.cfi_endproc
 1351              	.LFE190:
 1352              		.size	k_value_DisplayFunction, .-k_value_DisplayFunction
 1353 0552 00BF     		.align	2
ARM GAS  /var/folders/28/j9jfyj_n4wz3qtvnym210h2c0000gn/T//ccpoR13X.s 			page 25


 1354 0554 AFF30080 		.p2align 4,,15
 1354      AFF30080 
 1354      AFF30080 
 1355              		.global	UIGoSafe
 1356              		.thumb
 1357              		.thumb_func
 1358              		.type	UIGoSafe, %function
 1359              	UIGoSafe:
 1360              	.LFB196:
 1361              		.loc 1 424 0
 1362              		.cfi_startproc
 1363              		@ args = 0, pretend = 0, frame = 0
 1364              		@ frame_needed = 0, uses_anonymous_args = 0
 1365              		@ link register save eliminated.
 1366              		.loc 1 425 0
 1367 0560 014B     		ldr	r3, .L110
 1368 0562 024A     		ldr	r2, .L110+4
 1369 0564 1A60     		str	r2, [r3]
 1370 0566 7047     		bx	lr
 1371              	.L111:
 1372              		.align	2
 1373              	.L110:
 1374 0568 00000000 		.word	KvpsDisplay
 1375 056c 00000000 		.word	KvpsHead
 1376              		.cfi_endproc
 1377              	.LFE196:
 1378              		.size	UIGoSafe, .-UIGoSafe
 1379              		.align	2
 1380              		.p2align 4,,15
 1381              		.global	ui_init
 1382              		.thumb
 1383              		.thumb_func
 1384              		.type	ui_init, %function
 1385              	ui_init:
 1386              	.LFB197:
 1387              		.loc 1 428 0
 1388              		.cfi_startproc
 1389              		@ args = 0, pretend = 0, frame = 0
 1390              		@ frame_needed = 0, uses_anonymous_args = 0
 1391 0570 2DE9F04F 		push	{r4, r5, r6, r7, r8, r9, r10, fp, lr}
 1392              		.cfi_def_cfa_offset 36
 1393              		.cfi_offset 4, -36
 1394              		.cfi_offset 5, -32
 1395              		.cfi_offset 6, -28
 1396              		.cfi_offset 7, -24
 1397              		.cfi_offset 8, -20
 1398              		.cfi_offset 9, -16
 1399              		.cfi_offset 10, -12
 1400              		.cfi_offset 11, -8
 1401              		.cfi_offset 14, -4
 1402              		.loc 1 429 0
 1403 0574 5649     		ldr	r1, .L118
 1404              		.loc 1 430 0
 1405 0576 574B     		ldr	r3, .L118+4
 1406              	.LBB108:
 1407              	.LBB109:
 1408              		.loc 1 96 0
ARM GAS  /var/folders/28/j9jfyj_n4wz3qtvnym210h2c0000gn/T//ccpoR13X.s 			page 26


 1409 0578 574E     		ldr	r6, .L118+8
 1410              	.LBE109:
 1411              	.LBE108:
 1412              		.loc 1 429 0
 1413 057a 0025     		movs	r5, #0
 1414              		.loc 1 430 0
 1415 057c 4FF0FF32 		mov	r2, #-1
 1416              		.loc 1 428 0
 1417 0580 83B0     		sub	sp, sp, #12
 1418              		.cfi_def_cfa_offset 48
 1419              		.loc 1 432 0
 1420 0582 9020     		movs	r0, #144
 1421              		.loc 1 430 0
 1422 0584 1A60     		str	r2, [r3]
 1423              		.loc 1 429 0
 1424 0586 0D60     		str	r5, [r1]
 1425              		.loc 1 432 0
 1426 0588 FFF7FEFF 		bl	chCoreAlloc
 1427              	.LVL115:
 1428              	.LBB114:
 1429              	.LBB110:
 1430              		.loc 1 95 0
 1431 058c 4FF00D08 		mov	r8, #13
 1432              		.loc 1 97 0
 1433 0590 5249     		ldr	r1, .L118+12
 1434              	.LBE110:
 1435              	.LBE114:
 1436              	.LBB115:
 1437              	.LBB116:
 1438 0592 534A     		ldr	r2, .L118+16
 1439              		.loc 1 98 0
 1440 0594 534B     		ldr	r3, .L118+20
 1441              	.LBE116:
 1442              	.LBE115:
 1443              	.LBB120:
 1444              	.LBB111:
 1445              		.loc 1 97 0
 1446 0596 8160     		str	r1, [r0, #8]
 1447              	.LBE111:
 1448              	.LBE120:
 1449              	.LBB121:
 1450              	.LBB117:
 1451 0598 0262     		str	r2, [r0, #32]
 1452              		.loc 1 98 0
 1453 059a 4362     		str	r3, [r0, #36]
 1454              	.LBE117:
 1455              	.LBE121:
 1456              	.LBB122:
 1457              	.LBB112:
 1458 059c C560     		str	r5, [r0, #12]
 1459              		.loc 1 95 0
 1460 059e 80F80080 		strb	r8, [r0]
 1461              	.LBE112:
 1462              	.LBE122:
 1463              	.LBB123:
 1464              	.LBB118:
 1465 05a2 80F81880 		strb	r8, [r0, #24]
ARM GAS  /var/folders/28/j9jfyj_n4wz3qtvnym210h2c0000gn/T//ccpoR13X.s 			page 27


 1466              	.LBE118:
 1467              	.LBE123:
 1468              	.LBB124:
 1469              	.LBB113:
 1470              		.loc 1 96 0
 1471 05a6 4660     		str	r6, [r0, #4]
 1472              	.LBE113:
 1473              	.LBE124:
 1474              	.LBB125:
 1475              	.LBB119:
 1476 05a8 C661     		str	r6, [r0, #28]
 1477              	.LBE119:
 1478              	.LBE125:
 1479              		.loc 1 432 0
 1480 05aa 0746     		mov	r7, r0
 1481              	.LVL116:
 1482              		.loc 1 437 0
 1483 05ac 9020     		movs	r0, #144
 1484              	.LVL117:
 1485 05ae FFF7FEFF 		bl	chCoreAlloc
 1486              	.LVL118:
 1487              		.loc 1 443 0
 1488 05b2 4D4B     		ldr	r3, .L118+24
 1489              	.LBB126:
 1490              	.LBB127:
 1491              		.loc 1 55 0
 1492 05b4 DFF85CC1 		ldr	ip, .L118+68
 1493              	.LBE127:
 1494              	.LBE126:
 1495              		.loc 1 443 0
 1496 05b8 1B78     		ldrb	r3, [r3]	@ zero_extendqisi2
 1497              	.LBB133:
 1498              	.LBB128:
 1499              		.loc 1 58 0
 1500 05ba DFF85CE1 		ldr	lr, .L118+72
 1501              	.LBE128:
 1502              	.LBE133:
 1503              	.LBB134:
 1504              	.LBB135:
 1505              		.loc 1 76 0
 1506 05be 4B49     		ldr	r1, .L118+28
 1507              	.LBE135:
 1508              	.LBE134:
 1509              		.loc 1 437 0
 1510 05c0 0446     		mov	r4, r0
 1511              	.LVL119:
 1512              	.LBB140:
 1513              	.LBB129:
 1514              		.loc 1 53 0
 1515 05c2 4FF00509 		mov	r9, #5
 1516              	.LBE129:
 1517              	.LBE140:
 1518              	.LBB141:
 1519              	.LBB136:
 1520              		.loc 1 75 0
 1521 05c6 4A48     		ldr	r0, .L118+32
 1522              	.LVL120:
ARM GAS  /var/folders/28/j9jfyj_n4wz3qtvnym210h2c0000gn/T//ccpoR13X.s 			page 28


 1523              	.LBE136:
 1524              	.LBE141:
 1525              	.LBB142:
 1526              	.LBB130:
 1527              		.loc 1 54 0
 1528 05c8 6660     		str	r6, [r4, #4]
 1529              	.LBE130:
 1530              	.LBE142:
 1531              	.LBB143:
 1532              	.LBB137:
 1533              		.loc 1 78 0
 1534 05ca 0F22     		movs	r2, #15
 1535              	.LBE137:
 1536              	.LBE143:
 1537              	.LBB144:
 1538              	.LBB131:
 1539              		.loc 1 56 0
 1540 05cc 2561     		str	r5, [r4, #16]
 1541              		.loc 1 57 0
 1542 05ce 6561     		str	r5, [r4, #20]
 1543              	.LBE131:
 1544              	.LBE144:
 1545              	.LBB145:
 1546              	.LBB138:
 1547              		.loc 1 73 0
 1548 05d0 2576     		strb	r5, [r4, #24]
 1549              		.loc 1 74 0
 1550 05d2 E661     		str	r6, [r4, #28]
 1551              		.loc 1 77 0
 1552 05d4 A562     		str	r5, [r4, #40]
 1553              	.LBE138:
 1554              	.LBE145:
 1555              	.LBB146:
 1556              	.LBB132:
 1557              		.loc 1 53 0
 1558 05d6 84F80090 		strb	r9, [r4]
 1559              		.loc 1 55 0
 1560 05da C4F808C0 		str	ip, [r4, #8]
 1561              		.loc 1 58 0
 1562 05de C4F80CE0 		str	lr, [r4, #12]
 1563              	.LVL121:
 1564              	.LBE132:
 1565              	.LBE146:
 1566              	.LBB147:
 1567              	.LBB139:
 1568              		.loc 1 75 0
 1569 05e2 2062     		str	r0, [r4, #32]
 1570              		.loc 1 76 0
 1571 05e4 6162     		str	r1, [r4, #36]
 1572              		.loc 1 78 0
 1573 05e6 E262     		str	r2, [r4, #44]
 1574              	.LBE139:
 1575              	.LBE147:
 1576              		.loc 1 443 0
 1577 05e8 002B     		cmp	r3, #0
 1578 05ea 6AD0     		beq	.L113
 1579              	.LVL122:
ARM GAS  /var/folders/28/j9jfyj_n4wz3qtvnym210h2c0000gn/T//ccpoR13X.s 			page 29


 1580              	.LBB148:
 1581              	.LBB149:
 1582              		.loc 1 97 0
 1583 05ec 414A     		ldr	r2, .L118+36
 1584              		.loc 1 98 0
 1585 05ee 424B     		ldr	r3, .L118+40
 1586              		.loc 1 95 0
 1587 05f0 84F83080 		strb	r8, [r4, #48]
 1588              		.loc 1 96 0
 1589 05f4 6663     		str	r6, [r4, #52]
 1590              		.loc 1 97 0
 1591 05f6 A263     		str	r2, [r4, #56]
 1592              		.loc 1 98 0
 1593 05f8 E363     		str	r3, [r4, #60]
 1594              	.LVL123:
 1595              	.L114:
 1596              	.LBE149:
 1597              	.LBE148:
 1598              		.loc 1 453 0
 1599 05fa DFF820B1 		ldr	fp, .L118+76
 1600              	.LBB150:
 1601              	.LBB151:
 1602              		.loc 1 65 0
 1603 05fe DFF820A1 		ldr	r10, .L118+80
 1604              	.LBE151:
 1605              	.LBE150:
 1606              		.loc 1 453 0
 1607 0602 CBF80060 		str	r6, [fp]
 1608              	.LBB158:
 1609              	.LBB152:
 1610              		.loc 1 67 0
 1611 0606 0023     		movs	r3, #0
 1612              		.loc 1 63 0
 1613 0608 0322     		movs	r2, #3
 1614              		.loc 1 66 0
 1615 060a 0221     		movs	r1, #2
 1616              	.LBE152:
 1617              	.LBE158:
 1618              	.LBB159:
 1619              	.LBB160:
 1620              		.loc 1 64 0
 1621 060c 7360     		str	r3, [r6, #4]
 1622              		.loc 1 67 0
 1623 060e 7361     		str	r3, [r6, #20]
 1624              	.LBE160:
 1625              	.LBE159:
 1626              	.LBB164:
 1627              	.LBB165:
 1628              		.loc 1 68 0
 1629 0610 3A4D     		ldr	r5, .L118+44
 1630              		.loc 1 65 0
 1631 0612 DFF81091 		ldr	r9, .L118+84
 1632              	.LBE165:
 1633              	.LBE164:
 1634              	.LBB171:
 1635              	.LBB172:
 1636              		.loc 1 75 0
ARM GAS  /var/folders/28/j9jfyj_n4wz3qtvnym210h2c0000gn/T//ccpoR13X.s 			page 30


 1637 0616 DFF810C1 		ldr	ip, .L118+88
 1638              		.loc 1 76 0
 1639 061a DFF810E1 		ldr	lr, .L118+92
 1640              	.LBE172:
 1641              	.LBE171:
 1642              	.LBB177:
 1643              	.LBB153:
 1644              		.loc 1 65 0
 1645 061e C4F850A0 		str	r10, [r4, #80]
 1646              	.LBE153:
 1647              	.LBE177:
 1648              	.LBB178:
 1649              	.LBB173:
 1650              		.loc 1 78 0
 1651 0622 6420     		movs	r0, #100
 1652              	.LBE173:
 1653              	.LBE178:
 1654              	.LBB179:
 1655              	.LBB161:
 1656              		.loc 1 66 0
 1657 0624 4FF0060B 		mov	fp, #6
 1658              	.LBE161:
 1659              	.LBE179:
 1660              	.LBB180:
 1661              	.LBB154:
 1662              		.loc 1 67 0
 1663 0628 E365     		str	r3, [r4, #92]
 1664              	.LBE154:
 1665              	.LBE180:
 1666              	.LBB181:
 1667              	.LBB166:
 1668 062a 6367     		str	r3, [r4, #116]
 1669              	.LBE166:
 1670              	.LBE181:
 1671              	.LBB182:
 1672              	.LBB174:
 1673              		.loc 1 73 0
 1674 062c 84F87830 		strb	r3, [r4, #120]
 1675              		.loc 1 77 0
 1676 0630 C4F88830 		str	r3, [r4, #136]
 1677              	.LBE174:
 1678              	.LBE182:
 1679              		.loc 1 456 0
 1680 0634 9A46     		mov	r10, r3
 1681 0636 DFF8F880 		ldr	r8, .L118+96
 1682              	.LBB183:
 1683              	.LBB162:
 1684              		.loc 1 65 0
 1685 063a 314B     		ldr	r3, .L118+48
 1686              	.LBE162:
 1687              	.LBE183:
 1688              	.LBB184:
 1689              	.LBB155:
 1690              		.loc 1 64 0
 1691 063c E664     		str	r6, [r4, #76]
 1692              		.loc 1 68 0
 1693 063e 6765     		str	r7, [r4, #84]
ARM GAS  /var/folders/28/j9jfyj_n4wz3qtvnym210h2c0000gn/T//ccpoR13X.s 			page 31


 1694              	.LVL124:
 1695              	.LBE155:
 1696              	.LBE184:
 1697              	.LBB185:
 1698              	.LBB167:
 1699              		.loc 1 64 0
 1700 0640 6666     		str	r6, [r4, #100]
 1701              	.LBE167:
 1702              	.LBE185:
 1703              	.LBB186:
 1704              	.LBB175:
 1705              		.loc 1 74 0
 1706 0642 E667     		str	r6, [r4, #124]
 1707              	.LBE175:
 1708              	.LBE186:
 1709              	.LBB187:
 1710              	.LBB163:
 1711              		.loc 1 68 0
 1712 0644 F460     		str	r4, [r6, #12]
 1713              		.loc 1 63 0
 1714 0646 3270     		strb	r2, [r6]
 1715              		.loc 1 65 0
 1716 0648 B360     		str	r3, [r6, #8]
 1717              		.loc 1 66 0
 1718 064a C6F810B0 		str	fp, [r6, #16]
 1719              	.LBE163:
 1720              	.LBE187:
 1721              	.LBB188:
 1722              	.LBB168:
 1723              		.loc 1 68 0
 1724 064e E566     		str	r5, [r4, #108]
 1725              	.LVL125:
 1726              	.LBE168:
 1727              	.LBE188:
 1728              	.LBB189:
 1729              	.LBB156:
 1730              		.loc 1 63 0
 1731 0650 84F84820 		strb	r2, [r4, #72]
 1732              	.LBE156:
 1733              	.LBE189:
 1734              	.LBB190:
 1735              	.LBB169:
 1736 0654 84F86020 		strb	r2, [r4, #96]
 1737              		.loc 1 66 0
 1738 0658 2267     		str	r2, [r4, #112]
 1739              	.LBE169:
 1740              	.LBE190:
 1741              	.LBB191:
 1742              	.LBB157:
 1743 065a A165     		str	r1, [r4, #88]
 1744              	.LBE157:
 1745              	.LBE191:
 1746              	.LBB192:
 1747              		.loc 1 457 0
 1748 065c 0F46     		mov	r7, r1
 1749              	.LVL126:
 1750              	.LBE192:
ARM GAS  /var/folders/28/j9jfyj_n4wz3qtvnym210h2c0000gn/T//ccpoR13X.s 			page 32


 1751              	.LBB193:
 1752              	.LBB170:
 1753              		.loc 1 65 0
 1754 065e C4F86890 		str	r9, [r4, #104]
 1755              	.LBE170:
 1756              	.LBE193:
 1757              	.LBB194:
 1758              	.LBB176:
 1759              		.loc 1 75 0
 1760 0662 C4F880C0 		str	ip, [r4, #128]
 1761              		.loc 1 76 0
 1762 0666 C4F884E0 		str	lr, [r4, #132]
 1763              		.loc 1 78 0
 1764 066a C4F88C00 		str	r0, [r4, #140]
 1765              	.LVL127:
 1766              	.LBE176:
 1767              	.LBE194:
 1768              	.LBB195:
 1769              		.loc 1 460 0
 1770 066e 4126     		movs	r6, #65
 1771              	.LVL128:
 1772              	.L115:
 1773 0670 08EB4A03 		add	r3, r8, r10, lsl #1
 1774              		.loc 1 458 0 discriminator 3
 1775 0674 EB60     		str	r3, [r5, #12]
 1776              		.loc 1 457 0 discriminator 3
 1777 0676 2F70     		strb	r7, [r5]
 1778              		.loc 1 459 0 discriminator 3
 1779 0678 0620     		movs	r0, #6
 1780 067a FFF7FEFF 		bl	chCoreAlloc
 1781              	.LVL129:
 1782 067e 0AF13002 		add	r2, r10, #48
 1783              	.LBE195:
 1784              		.loc 1 456 0 discriminator 3
 1785 0682 0AF1010A 		add	r10, r10, #1
 1786              	.LVL130:
 1787              	.LBB196:
 1788              		.loc 1 461 0 discriminator 3
 1789 0686 4FF0440E 		mov	lr, #68
 1790              		.loc 1 462 0 discriminator 3
 1791 068a 4321     		movs	r1, #67
 1792              		.loc 1 464 0 discriminator 3
 1793 068c 0023     		movs	r3, #0
 1794              	.LBE196:
 1795              		.loc 1 456 0 discriminator 3
 1796 068e BAF1030F 		cmp	r10, #3
 1797              	.LBB197:
 1798              		.loc 1 460 0 discriminator 3
 1799 0692 0670     		strb	r6, [r0]
 1800              		.loc 1 461 0 discriminator 3
 1801 0694 80F801E0 		strb	lr, [r0, #1]
 1802              		.loc 1 462 0 discriminator 3
 1803 0698 8170     		strb	r1, [r0, #2]
 1804              		.loc 1 463 0 discriminator 3
 1805 069a C270     		strb	r2, [r0, #3]
 1806              		.loc 1 464 0 discriminator 3
 1807 069c 0371     		strb	r3, [r0, #4]
ARM GAS  /var/folders/28/j9jfyj_n4wz3qtvnym210h2c0000gn/T//ccpoR13X.s 			page 33


 1808 069e 05F11805 		add	r5, r5, #24
 1809              		.loc 1 466 0 discriminator 3
 1810 06a2 45F8100C 		str	r0, [r5, #-16]
 1811              	.LBE197:
 1812              		.loc 1 456 0 discriminator 3
 1813 06a6 E3D1     		bne	.L115
 1814              		.loc 1 469 0
 1815 06a8 164A     		ldr	r2, .L118+52
 1816              		.loc 1 471 0
 1817 06aa 0093     		str	r3, [sp]
 1818 06ac 4FF4BC61 		mov	r1, #1504
 1819              		.loc 1 469 0
 1820 06b0 1460     		str	r4, [r2]
 1821              		.loc 1 471 0
 1822 06b2 154B     		ldr	r3, .L118+56
 1823 06b4 1548     		ldr	r0, .L118+60
 1824              	.LVL131:
 1825 06b6 4022     		movs	r2, #64
 1826 06b8 FFF7FEFF 		bl	chThdCreateStatic
 1827              	.LVL132:
 1828              		.loc 1 472 0
 1829 06bc 03B0     		add	sp, sp, #12
 1830              		.cfi_remember_state
 1831              		.cfi_def_cfa_offset 36
 1832              		@ sp needed
 1833 06be BDE8F08F 		pop	{r4, r5, r6, r7, r8, r9, r10, fp, pc}
 1834              	.LVL133:
 1835              	.L113:
 1836              		.cfi_restore_state
 1837              	.LBB198:
 1838              	.LBB199:
 1839              		.loc 1 97 0
 1840 06c2 134A     		ldr	r2, .L118+64
 1841              		.loc 1 95 0
 1842 06c4 84F83080 		strb	r8, [r4, #48]
 1843              		.loc 1 96 0
 1844 06c8 6663     		str	r6, [r4, #52]
 1845              		.loc 1 98 0
 1846 06ca E363     		str	r3, [r4, #60]
 1847              		.loc 1 97 0
 1848 06cc A263     		str	r2, [r4, #56]
 1849 06ce 94E7     		b	.L114
 1850              	.L119:
 1851              		.align	2
 1852              	.L118:
 1853 06d0 00000000 		.word	Btn_Nav_Or
 1854 06d4 00000000 		.word	Btn_Nav_And
 1855 06d8 00000000 		.word	KvpsHead
 1856 06dc 50000000 		.word	.LC11
 1857 06e0 58000000 		.word	.LC12
 1858 06e4 00000000 		.word	EnterMenuFormat
 1859 06e8 00000000 		.word	fs_ready
 1860 06ec 00000000 		.word	patchStatus
 1861 06f0 68000000 		.word	.LC14
 1862 06f4 04000000 		.word	.LC1
 1863 06f8 00000000 		.word	EnterMenuLoad
 1864 06fc 00000000 		.word	ADCkvps
ARM GAS  /var/folders/28/j9jfyj_n4wz3qtvnym210h2c0000gn/T//ccpoR13X.s 			page 34


 1865 0700 9C000000 		.word	.LC19
 1866 0704 00000000 		.word	ObjectKvpRoot
 1867 0708 00000000 		.word	ThreadUI
 1868 070c 00000000 		.word	.LANCHOR1
 1869 0710 70000000 		.word	.LC15
 1870 0714 60000000 		.word	.LC13
 1871 0718 00000000 		.word	ObjectKvps
 1872 071c 00000000 		.word	KvpsDisplay
 1873 0720 7C000000 		.word	.LC16
 1874 0724 8C000000 		.word	.LC17
 1875 0728 94000000 		.word	.LC18
 1876 072c 00000000 		.word	dspLoadPct
 1877 0730 00000000 		.word	adcvalues
 1878              	.LBE199:
 1879              	.LBE198:
 1880              		.cfi_endproc
 1881              	.LFE197:
 1882              		.size	ui_init, .-ui_init
 1883              		.align	2
 1884 0734 AFF30080 		.p2align 4,,15
 1884      AFF30080 
 1884      AFF30080 
 1885              		.global	KVP_ClearObjects
 1886              		.thumb
 1887              		.thumb_func
 1888              		.type	KVP_ClearObjects, %function
 1889              	KVP_ClearObjects:
 1890              	.LFB198:
 1891              		.loc 1 474 0
 1892              		.cfi_startproc
 1893              		@ args = 0, pretend = 0, frame = 0
 1894              		@ frame_needed = 0, uses_anonymous_args = 0
 1895              		@ link register save eliminated.
 1896              		.loc 1 475 0
 1897 0740 034B     		ldr	r3, .L121
 1898              		.loc 1 476 0
 1899 0742 044A     		ldr	r2, .L121+4
 1900              		.loc 1 475 0
 1901 0744 1B68     		ldr	r3, [r3]
 1902              		.loc 1 476 0
 1903 0746 0449     		ldr	r1, .L121+8
 1904 0748 1160     		str	r1, [r2]
 1905              		.loc 1 475 0
 1906 074a 0022     		movs	r2, #0
 1907 074c 1A61     		str	r2, [r3, #16]
 1908 074e 7047     		bx	lr
 1909              	.L122:
 1910              		.align	2
 1911              	.L121:
 1912 0750 00000000 		.word	ObjectKvpRoot
 1913 0754 00000000 		.word	KvpsDisplay
 1914 0758 00000000 		.word	KvpsHead
 1915              		.cfi_endproc
 1916              	.LFE198:
 1917              		.size	KVP_ClearObjects, .-KVP_ClearObjects
 1918              		.align	2
 1919 075c AFF30080 		.p2align 4,,15
ARM GAS  /var/folders/28/j9jfyj_n4wz3qtvnym210h2c0000gn/T//ccpoR13X.s 			page 35


 1920              		.global	KVP_RegisterObject
 1921              		.thumb
 1922              		.thumb_func
 1923              		.type	KVP_RegisterObject, %function
 1924              	KVP_RegisterObject:
 1925              	.LFB199:
 1926              		.loc 1 479 0
 1927              		.cfi_startproc
 1928              		@ args = 0, pretend = 0, frame = 0
 1929              		@ frame_needed = 0, uses_anonymous_args = 0
 1930              		@ link register save eliminated.
 1931              	.LVL134:
 1932 0760 10B4     		push	{r4}
 1933              		.cfi_def_cfa_offset 4
 1934              		.cfi_offset 4, -4
 1935              		.loc 1 480 0
 1936 0762 054B     		ldr	r3, .L125
 1937 0764 054C     		ldr	r4, .L125+4
 1938 0766 1B68     		ldr	r3, [r3]
 1939 0768 1A69     		ldr	r2, [r3, #16]
 1940              		.loc 1 482 0
 1941 076a 511C     		adds	r1, r2, #1
 1942              		.loc 1 480 0
 1943 076c 44F82200 		str	r0, [r4, r2, lsl #2]
 1944              		.loc 1 482 0
 1945 0770 1961     		str	r1, [r3, #16]
 1946              		.loc 1 483 0
 1947 0772 5DF8044B 		ldr	r4, [sp], #4
 1948              		.cfi_restore 4
 1949              		.cfi_def_cfa_offset 0
 1950 0776 7047     		bx	lr
 1951              	.L126:
 1952              		.align	2
 1953              	.L125:
 1954 0778 00000000 		.word	ObjectKvpRoot
 1955 077c 00000000 		.word	ObjectKvps
 1956              		.cfi_endproc
 1957              	.LFE199:
 1958              		.size	KVP_RegisterObject, .-KVP_RegisterObject
 1959              		.align	2
 1960              		.p2align 4,,15
 1961              		.global	KVP_DisplayInv
 1962              		.thumb
 1963              		.thumb_func
 1964              		.type	KVP_DisplayInv, %function
 1965              	KVP_DisplayInv:
 1966              	.LFB200:
 1967              		.loc 1 491 0
 1968              		.cfi_startproc
 1969              		@ args = 0, pretend = 0, frame = 0
 1970              		@ frame_needed = 0, uses_anonymous_args = 0
 1971              	.LVL135:
 1972 0780 70B5     		push	{r4, r5, r6, lr}
 1973              		.cfi_def_cfa_offset 16
 1974              		.cfi_offset 4, -16
 1975              		.cfi_offset 5, -12
 1976              		.cfi_offset 6, -8
ARM GAS  /var/folders/28/j9jfyj_n4wz3qtvnym210h2c0000gn/T//ccpoR13X.s 			page 36


 1977              		.cfi_offset 14, -4
 1978              		.loc 1 491 0
 1979 0782 1446     		mov	r4, r2
 1980              		.loc 1 492 0
 1981 0784 5B23     		movs	r3, #91
 1982 0786 9268     		ldr	r2, [r2, #8]
 1983              	.LVL136:
 1984              		.loc 1 491 0
 1985 0788 0D46     		mov	r5, r1
 1986              		.loc 1 492 0
 1987 078a FFF7FEFF 		bl	LCD_drawStringInvN
 1988              	.LVL137:
 1989              		.loc 1 493 0
 1990 078e 2378     		ldrb	r3, [r4]	@ zero_extendqisi2
 1991 0790 0C2B     		cmp	r3, #12
 1992 0792 67D8     		bhi	.L127
 1993 0794 DFE803F0 		tbb	[pc, r3]
 1994              	.L130:
 1995 0798 14       		.byte	(.L129-.L130)/2
 1996 0799 21       		.byte	(.L131-.L130)/2
 1997 079a 29       		.byte	(.L132-.L130)/2
 1998 079b 37       		.byte	(.L133-.L130)/2
 1999 079c 3F       		.byte	(.L134-.L130)/2
 2000 079d 48       		.byte	(.L135-.L130)/2
 2001 079e 50       		.byte	(.L136-.L130)/2
 2002 079f 66       		.byte	(.L127-.L130)/2
 2003 07a0 66       		.byte	(.L127-.L130)/2
 2004 07a1 66       		.byte	(.L127-.L130)/2
 2005 07a2 66       		.byte	(.L127-.L130)/2
 2006 07a3 58       		.byte	(.L137-.L130)/2
 2007 07a4 07       		.byte	(.L138-.L130)/2
 2008 07a5 00       		.p2align 1
 2009              	.L138:
 2010              		.loc 1 495 0
 2011 07a6 2946     		mov	r1, r5
 2012 07a8 5B20     		movs	r0, #91
 2013 07aa 3D22     		movs	r2, #61
 2014 07ac FFF7FEFF 		bl	LCD_drawCharInv
 2015              	.LVL138:
 2016              		.loc 1 496 0
 2017 07b0 E368     		ldr	r3, [r4, #12]
 2018 07b2 2946     		mov	r1, r5
 2019 07b4 1A78     		ldrb	r2, [r3]	@ zero_extendqisi2
 2020 07b6 6120     		movs	r0, #97
 2021              		.loc 1 528 0
 2022 07b8 BDE87040 		pop	{r4, r5, r6, lr}
 2023              		.cfi_remember_state
 2024              		.cfi_restore 14
 2025              		.cfi_restore 6
 2026              		.cfi_restore 5
 2027              		.cfi_restore 4
 2028              		.cfi_def_cfa_offset 0
 2029              	.LVL139:
 2030              		.loc 1 496 0
 2031 07bc FFF7FEBF 		b	LCD_drawNumber3DInv
 2032              	.LVL140:
 2033              	.L129:
ARM GAS  /var/folders/28/j9jfyj_n4wz3qtvnym210h2c0000gn/T//ccpoR13X.s 			page 37


 2034              		.cfi_restore_state
 2035              		.loc 1 499 0
 2036 07c0 2946     		mov	r1, r5
 2037 07c2 5B20     		movs	r0, #91
 2038 07c4 3D22     		movs	r2, #61
 2039 07c6 FFF7FEFF 		bl	LCD_drawCharInv
 2040              	.LVL141:
 2041              		.loc 1 500 0
 2042 07ca E368     		ldr	r3, [r4, #12]
 2043 07cc 2946     		mov	r1, r5
 2044 07ce 1A68     		ldr	r2, [r3]
 2045 07d0 6120     		movs	r0, #97
 2046              		.loc 1 528 0
 2047 07d2 BDE87040 		pop	{r4, r5, r6, lr}
 2048              		.cfi_remember_state
 2049              		.cfi_restore 14
 2050              		.cfi_restore 6
 2051              		.cfi_restore 5
 2052              		.cfi_restore 4
 2053              		.cfi_def_cfa_offset 0
 2054              	.LVL142:
 2055              		.loc 1 500 0
 2056 07d6 FFF7FEBF 		b	LCD_drawNumber3DInv
 2057              	.LVL143:
 2058              	.L131:
 2059              		.cfi_restore_state
 2060              		.loc 1 503 0
 2061 07da 2946     		mov	r1, r5
 2062 07dc 5B20     		movs	r0, #91
 2063 07de 224A     		ldr	r2, .L140
 2064 07e0 8023     		movs	r3, #128
 2065              		.loc 1 528 0
 2066 07e2 BDE87040 		pop	{r4, r5, r6, lr}
 2067              		.cfi_remember_state
 2068              		.cfi_restore 14
 2069              		.cfi_restore 6
 2070              		.cfi_restore 5
 2071              		.cfi_restore 4
 2072              		.cfi_def_cfa_offset 0
 2073              	.LVL144:
 2074              		.loc 1 503 0
 2075 07e6 FFF7FEBF 		b	LCD_drawStringInvN
 2076              	.LVL145:
 2077              	.L132:
 2078              		.cfi_restore_state
 2079              		.loc 1 512 0
 2080 07ea 2946     		mov	r1, r5
 2081 07ec 5B20     		movs	r0, #91
 2082 07ee 3D22     		movs	r2, #61
 2083 07f0 FFF7FEFF 		bl	LCD_drawCharInv
 2084              	.LVL146:
 2085              		.loc 1 513 0
 2086 07f4 E368     		ldr	r3, [r4, #12]
 2087 07f6 2946     		mov	r1, r5
 2088 07f8 B3F90020 		ldrsh	r2, [r3]
 2089 07fc 6120     		movs	r0, #97
 2090              		.loc 1 528 0
ARM GAS  /var/folders/28/j9jfyj_n4wz3qtvnym210h2c0000gn/T//ccpoR13X.s 			page 38


 2091 07fe BDE87040 		pop	{r4, r5, r6, lr}
 2092              		.cfi_remember_state
 2093              		.cfi_restore 14
 2094              		.cfi_restore 6
 2095              		.cfi_restore 5
 2096              		.cfi_restore 4
 2097              		.cfi_def_cfa_offset 0
 2098              	.LVL147:
 2099              		.loc 1 513 0
 2100 0802 FFF7FEBF 		b	LCD_drawNumber5DInv
 2101              	.LVL148:
 2102              	.L133:
 2103              		.cfi_restore_state
 2104              		.loc 1 506 0
 2105 0806 2946     		mov	r1, r5
 2106 0808 5B20     		movs	r0, #91
 2107 080a 184A     		ldr	r2, .L140+4
 2108 080c 8023     		movs	r3, #128
 2109              		.loc 1 528 0
 2110 080e BDE87040 		pop	{r4, r5, r6, lr}
 2111              		.cfi_remember_state
 2112              		.cfi_restore 14
 2113              		.cfi_restore 6
 2114              		.cfi_restore 5
 2115              		.cfi_restore 4
 2116              		.cfi_def_cfa_offset 0
 2117              	.LVL149:
 2118              		.loc 1 506 0
 2119 0812 FFF7FEBF 		b	LCD_drawStringInvN
 2120              	.LVL150:
 2121              	.L134:
 2122              		.cfi_restore_state
 2123              		.loc 1 509 0
 2124 0816 E368     		ldr	r3, [r4, #12]
 2125 0818 2946     		mov	r1, r5
 2126 081a 1A68     		ldr	r2, [r3]
 2127 081c 5B20     		movs	r0, #91
 2128 081e 8023     		movs	r3, #128
 2129              		.loc 1 528 0
 2130 0820 BDE87040 		pop	{r4, r5, r6, lr}
 2131              		.cfi_remember_state
 2132              		.cfi_restore 14
 2133              		.cfi_restore 6
 2134              		.cfi_restore 5
 2135              		.cfi_restore 4
 2136              		.cfi_def_cfa_offset 0
 2137              	.LVL151:
 2138              		.loc 1 509 0
 2139 0824 FFF7FEBF 		b	LCD_drawIBAR
 2140              	.LVL152:
 2141              	.L135:
 2142              		.cfi_restore_state
 2143              		.loc 1 516 0
 2144 0828 2946     		mov	r1, r5
 2145 082a 5B20     		movs	r0, #91
 2146 082c 104A     		ldr	r2, .L140+8
 2147 082e 8023     		movs	r3, #128
ARM GAS  /var/folders/28/j9jfyj_n4wz3qtvnym210h2c0000gn/T//ccpoR13X.s 			page 39


 2148              		.loc 1 528 0
 2149 0830 BDE87040 		pop	{r4, r5, r6, lr}
 2150              		.cfi_remember_state
 2151              		.cfi_restore 14
 2152              		.cfi_restore 6
 2153              		.cfi_restore 5
 2154              		.cfi_restore 4
 2155              		.cfi_def_cfa_offset 0
 2156              	.LVL153:
 2157              		.loc 1 516 0
 2158 0834 FFF7FEBF 		b	LCD_drawStringInvN
 2159              	.LVL154:
 2160              	.L136:
 2161              		.cfi_restore_state
 2162              		.loc 1 519 0
 2163 0838 2946     		mov	r1, r5
 2164 083a 5B20     		movs	r0, #91
 2165 083c 0D4A     		ldr	r2, .L140+12
 2166 083e 8023     		movs	r3, #128
 2167              		.loc 1 528 0
 2168 0840 BDE87040 		pop	{r4, r5, r6, lr}
 2169              		.cfi_remember_state
 2170              		.cfi_restore 14
 2171              		.cfi_restore 6
 2172              		.cfi_restore 5
 2173              		.cfi_restore 4
 2174              		.cfi_def_cfa_offset 0
 2175              	.LVL155:
 2176              		.loc 1 519 0
 2177 0844 FFF7FEBF 		b	LCD_drawStringInvN
 2178              	.LVL156:
 2179              	.L137:
 2180              		.cfi_restore_state
 2181              		.loc 1 522 0
 2182 0848 2946     		mov	r1, r5
 2183 084a 5B20     		movs	r0, #91
 2184 084c 3D22     		movs	r2, #61
 2185 084e FFF7FEFF 		bl	LCD_drawCharInv
 2186              	.LVL157:
 2187              		.loc 1 523 0
 2188 0852 E368     		ldr	r3, [r4, #12]
 2189 0854 1A68     		ldr	r2, [r3]
 2190 0856 2946     		mov	r1, r5
 2191 0858 1215     		asrs	r2, r2, #20
 2192 085a 6120     		movs	r0, #97
 2193              		.loc 1 528 0
 2194 085c BDE87040 		pop	{r4, r5, r6, lr}
 2195              		.cfi_remember_state
 2196              		.cfi_restore 14
 2197              		.cfi_restore 6
 2198              		.cfi_restore 5
 2199              		.cfi_restore 4
 2200              		.cfi_def_cfa_offset 0
 2201              	.LVL158:
 2202              		.loc 1 523 0
 2203 0860 FFF7FEBF 		b	LCD_drawNumber3DInv
 2204              	.LVL159:
ARM GAS  /var/folders/28/j9jfyj_n4wz3qtvnym210h2c0000gn/T//ccpoR13X.s 			page 40


 2205              	.L127:
 2206              		.cfi_restore_state
 2207 0864 70BD     		pop	{r4, r5, r6, pc}
 2208              	.LVL160:
 2209              	.L141:
 2210 0866 00BF     		.align	2
 2211              	.L140:
 2212 0868 AC000000 		.word	.LC20
 2213 086c B4000000 		.word	.LC21
 2214 0870 BC000000 		.word	.LC22
 2215 0874 C4000000 		.word	.LC23
 2216              		.cfi_endproc
 2217              	.LFE200:
 2218              		.size	KVP_DisplayInv, .-KVP_DisplayInv
 2219              		.align	2
 2220 0878 AFF30080 		.p2align 4,,15
 2220      AFF30080 
 2221              		.global	KVP_Display
 2222              		.thumb
 2223              		.thumb_func
 2224              		.type	KVP_Display, %function
 2225              	KVP_Display:
 2226              	.LFB201:
 2227              		.loc 1 530 0
 2228              		.cfi_startproc
 2229              		@ args = 0, pretend = 0, frame = 0
 2230              		@ frame_needed = 0, uses_anonymous_args = 0
 2231              	.LVL161:
 2232 0880 2DE9F041 		push	{r4, r5, r6, r7, r8, lr}
 2233              		.cfi_def_cfa_offset 24
 2234              		.cfi_offset 4, -24
 2235              		.cfi_offset 5, -20
 2236              		.cfi_offset 6, -16
 2237              		.cfi_offset 7, -12
 2238              		.cfi_offset 8, -8
 2239              		.cfi_offset 14, -4
 2240              		.loc 1 530 0
 2241 0884 1446     		mov	r4, r2
 2242              		.loc 1 531 0
 2243 0886 5B23     		movs	r3, #91
 2244 0888 9268     		ldr	r2, [r2, #8]
 2245              	.LVL162:
 2246              		.loc 1 530 0
 2247 088a 0646     		mov	r6, r0
 2248 088c 0D46     		mov	r5, r1
 2249              		.loc 1 531 0
 2250 088e FFF7FEFF 		bl	LCD_drawStringN
 2251              	.LVL163:
 2252              		.loc 1 532 0
 2253 0892 2378     		ldrb	r3, [r4]	@ zero_extendqisi2
 2254 0894 0C2B     		cmp	r3, #12
 2255 0896 00F2A280 		bhi	.L142
 2256 089a DFE803F0 		tbb	[pc, r3]
 2257              	.L145:
 2258 089e 5C       		.byte	(.L144-.L145)/2
 2259 089f 69       		.byte	(.L146-.L145)/2
 2260 08a0 71       		.byte	(.L147-.L145)/2
ARM GAS  /var/folders/28/j9jfyj_n4wz3qtvnym210h2c0000gn/T//ccpoR13X.s 			page 41


 2261 08a1 7F       		.byte	(.L148-.L145)/2
 2262 08a2 87       		.byte	(.L149-.L145)/2
 2263 08a3 90       		.byte	(.L150-.L145)/2
 2264 08a4 98       		.byte	(.L151-.L145)/2
 2265 08a5 07       		.byte	(.L153-.L145)/2
 2266 08a6 07       		.byte	(.L153-.L145)/2
 2267 08a7 22       		.byte	(.L154-.L145)/2
 2268 08a8 34       		.byte	(.L155-.L145)/2
 2269 08a9 07       		.byte	(.L153-.L145)/2
 2270 08aa 15       		.byte	(.L157-.L145)/2
 2271 08ab 00       		.p2align 1
 2272              	.L153:
 2273              		.loc 1 571 0
 2274 08ac 2946     		mov	r1, r5
 2275 08ae 5B20     		movs	r0, #91
 2276 08b0 3D22     		movs	r2, #61
 2277 08b2 FFF7FEFF 		bl	LCD_drawChar
 2278              	.LVL164:
 2279              		.loc 1 572 0
 2280 08b6 E368     		ldr	r3, [r4, #12]
 2281 08b8 1A68     		ldr	r2, [r3]
 2282 08ba 2946     		mov	r1, r5
 2283 08bc 1215     		asrs	r2, r2, #20
 2284 08be 6120     		movs	r0, #97
 2285              		.loc 1 593 0
 2286 08c0 BDE8F041 		pop	{r4, r5, r6, r7, r8, lr}
 2287              		.cfi_remember_state
 2288              		.cfi_restore 14
 2289              		.cfi_restore 8
 2290              		.cfi_restore 7
 2291              		.cfi_restore 6
 2292              		.cfi_restore 5
 2293              		.cfi_restore 4
 2294              		.cfi_def_cfa_offset 0
 2295              	.LVL165:
 2296              		.loc 1 572 0
 2297 08c4 FFF7FEBF 		b	LCD_drawNumber3D
 2298              	.LVL166:
 2299              	.L157:
 2300              		.cfi_restore_state
 2301              		.loc 1 534 0
 2302 08c8 2946     		mov	r1, r5
 2303 08ca 5B20     		movs	r0, #91
 2304 08cc 3D22     		movs	r2, #61
 2305 08ce FFF7FEFF 		bl	LCD_drawChar
 2306              	.LVL167:
 2307              		.loc 1 535 0
 2308 08d2 E368     		ldr	r3, [r4, #12]
 2309 08d4 2946     		mov	r1, r5
 2310 08d6 1A78     		ldrb	r2, [r3]	@ zero_extendqisi2
 2311 08d8 6120     		movs	r0, #97
 2312              		.loc 1 593 0
 2313 08da BDE8F041 		pop	{r4, r5, r6, r7, r8, lr}
 2314              		.cfi_remember_state
 2315              		.cfi_restore 14
 2316              		.cfi_restore 8
 2317              		.cfi_restore 7
ARM GAS  /var/folders/28/j9jfyj_n4wz3qtvnym210h2c0000gn/T//ccpoR13X.s 			page 42


 2318              		.cfi_restore 6
 2319              		.cfi_restore 5
 2320              		.cfi_restore 4
 2321              		.cfi_def_cfa_offset 0
 2322              	.LVL168:
 2323              		.loc 1 535 0
 2324 08de FFF7FEBF 		b	LCD_drawNumber3D
 2325              	.LVL169:
 2326              	.L154:
 2327              		.cfi_restore_state
 2328              	.LBB200:
 2329              		.loc 1 577 0
 2330 08e2 E368     		ldr	r3, [r4, #12]
 2331              	.LBB201:
 2332              	.LBB202:
 2333              		.file 2 "axoloti_math.h"
 2334              		.loc 2 65 0
 2335 08e4 4BF68034 		movw	r4, #48000
 2336              	.LVL170:
 2337 08e8 1B68     		ldr	r3, [r3]
 2338              	.LVL171:
 2339              	@ 65 "axoloti_math.h" 1
 2340 08ea 53FB04F4 		smmul r4, r3, r4
 2341              	@ 0 "" 2
 2342              	.LVL172:
 2343              		.thumb
 2344              	.LBE202:
 2345              	.LBE201:
 2346              		.loc 1 578 0
 2347 08ee 5B20     		movs	r0, #91
 2348 08f0 2946     		mov	r1, r5
 2349 08f2 3D22     		movs	r2, #61
 2350 08f4 FFF7FEFF 		bl	LCD_drawChar
 2351              	.LVL173:
 2352              		.loc 1 579 0
 2353 08f8 2946     		mov	r1, r5
 2354 08fa 2246     		mov	r2, r4
 2355 08fc 6120     		movs	r0, #97
 2356              	.LBE200:
 2357              		.loc 1 593 0
 2358 08fe BDE8F041 		pop	{r4, r5, r6, r7, r8, lr}
 2359              		.cfi_remember_state
 2360              		.cfi_restore 14
 2361              		.cfi_restore 8
 2362              		.cfi_restore 7
 2363              		.cfi_restore 6
 2364              		.cfi_restore 5
 2365              		.cfi_restore 4
 2366              		.cfi_def_cfa_offset 0
 2367              	.LVL174:
 2368              	.LBB203:
 2369              		.loc 1 579 0
 2370 0902 FFF7FEBF 		b	LCD_drawNumber5D
 2371              	.LVL175:
 2372              	.L155:
 2373              		.cfi_restore_state
 2374              	.LBE203:
ARM GAS  /var/folders/28/j9jfyj_n4wz3qtvnym210h2c0000gn/T//ccpoR13X.s 			page 43


 2375              	.LBB204:
 2376              		.loc 1 583 0
 2377 0906 E368     		ldr	r3, [r4, #12]
 2378              	.LBB205:
 2379              	.LBB206:
 2380              		.loc 2 65 0
 2381 0908 A024     		movs	r4, #160
 2382              	.LVL176:
 2383 090a 1B68     		ldr	r3, [r3]
 2384              	.LVL177:
 2385              	@ 65 "axoloti_math.h" 1
 2386 090c 53FB04F4 		smmul r4, r3, r4
 2387              	@ 0 "" 2
 2388              	.LVL178:
 2389              		.thumb
 2390              	.LBE206:
 2391              	.LBE205:
 2392              		.loc 1 585 0
 2393 0910 344F     		ldr	r7, .L159
 2394              		.loc 1 584 0
 2395 0912 2946     		mov	r1, r5
 2396 0914 3D22     		movs	r2, #61
 2397 0916 5B20     		movs	r0, #91
 2398 0918 FFF7FEFF 		bl	LCD_drawChar
 2399              	.LVL179:
 2400              		.loc 1 585 0
 2401 091c E317     		asrs	r3, r4, #31
 2402 091e 87FB0427 		smull	r2, r7, r7, r4
 2403 0922 C3EBA707 		rsb	r7, r3, r7, asr #2
 2404 0926 3A46     		mov	r2, r7
 2405 0928 2946     		mov	r1, r5
 2406 092a 6120     		movs	r0, #97
 2407 092c FFF7FEFF 		bl	LCD_drawNumber3D
 2408              	.LVL180:
 2409              		.loc 1 586 0
 2410 0930 06F17900 		add	r0, r6, #121
 2411 0934 2946     		mov	r1, r5
 2412 0936 2E22     		movs	r2, #46
 2413 0938 FFF7FEFF 		bl	LCD_drawChar
 2414              	.LVL181:
 2415              		.loc 1 587 0
 2416 093c 07EB8702 		add	r2, r7, r7, lsl #2
 2417 0940 A4EB4202 		sub	r2, r4, r2, lsl #1
 2418 0944 3032     		adds	r2, r2, #48
 2419 0946 06F17F00 		add	r0, r6, #127
 2420 094a 2946     		mov	r1, r5
 2421 094c D2B2     		uxtb	r2, r2
 2422              	.LBE204:
 2423              		.loc 1 593 0
 2424 094e BDE8F041 		pop	{r4, r5, r6, r7, r8, lr}
 2425              		.cfi_remember_state
 2426              		.cfi_restore 14
 2427              		.cfi_restore 8
 2428              		.cfi_restore 7
 2429              		.cfi_restore 6
 2430              		.cfi_restore 5
 2431              		.cfi_restore 4
ARM GAS  /var/folders/28/j9jfyj_n4wz3qtvnym210h2c0000gn/T//ccpoR13X.s 			page 44


 2432              		.cfi_def_cfa_offset 0
 2433              	.LVL182:
 2434              	.LBB207:
 2435              		.loc 1 587 0
 2436 0952 FFF7FEBF 		b	LCD_drawChar
 2437              	.LVL183:
 2438              	.L144:
 2439              		.cfi_restore_state
 2440              	.LBE207:
 2441              		.loc 1 538 0
 2442 0956 2946     		mov	r1, r5
 2443 0958 5B20     		movs	r0, #91
 2444 095a 3D22     		movs	r2, #61
 2445 095c FFF7FEFF 		bl	LCD_drawChar
 2446              	.LVL184:
 2447              		.loc 1 539 0
 2448 0960 E368     		ldr	r3, [r4, #12]
 2449 0962 2946     		mov	r1, r5
 2450 0964 1A68     		ldr	r2, [r3]
 2451 0966 6120     		movs	r0, #97
 2452              		.loc 1 593 0
 2453 0968 BDE8F041 		pop	{r4, r5, r6, r7, r8, lr}
 2454              		.cfi_remember_state
 2455              		.cfi_restore 14
 2456              		.cfi_restore 8
 2457              		.cfi_restore 7
 2458              		.cfi_restore 6
 2459              		.cfi_restore 5
 2460              		.cfi_restore 4
 2461              		.cfi_def_cfa_offset 0
 2462              	.LVL185:
 2463              		.loc 1 539 0
 2464 096c FFF7FEBF 		b	LCD_drawNumber3D
 2465              	.LVL186:
 2466              	.L146:
 2467              		.cfi_restore_state
 2468              		.loc 1 542 0
 2469 0970 2946     		mov	r1, r5
 2470 0972 5B20     		movs	r0, #91
 2471 0974 1C4A     		ldr	r2, .L159+4
 2472 0976 8023     		movs	r3, #128
 2473              		.loc 1 593 0
 2474 0978 BDE8F041 		pop	{r4, r5, r6, r7, r8, lr}
 2475              		.cfi_remember_state
 2476              		.cfi_restore 14
 2477              		.cfi_restore 8
 2478              		.cfi_restore 7
 2479              		.cfi_restore 6
 2480              		.cfi_restore 5
 2481              		.cfi_restore 4
 2482              		.cfi_def_cfa_offset 0
 2483              	.LVL187:
 2484              		.loc 1 542 0
 2485 097c FFF7FEBF 		b	LCD_drawStringN
 2486              	.LVL188:
 2487              	.L147:
 2488              		.cfi_restore_state
ARM GAS  /var/folders/28/j9jfyj_n4wz3qtvnym210h2c0000gn/T//ccpoR13X.s 			page 45


 2489              		.loc 1 551 0
 2490 0980 2946     		mov	r1, r5
 2491 0982 5B20     		movs	r0, #91
 2492 0984 3D22     		movs	r2, #61
 2493 0986 FFF7FEFF 		bl	LCD_drawChar
 2494              	.LVL189:
 2495              		.loc 1 552 0
 2496 098a E368     		ldr	r3, [r4, #12]
 2497 098c 2946     		mov	r1, r5
 2498 098e B3F90020 		ldrsh	r2, [r3]
 2499 0992 6120     		movs	r0, #97
 2500              		.loc 1 593 0
 2501 0994 BDE8F041 		pop	{r4, r5, r6, r7, r8, lr}
 2502              		.cfi_remember_state
 2503              		.cfi_restore 14
 2504              		.cfi_restore 8
 2505              		.cfi_restore 7
 2506              		.cfi_restore 6
 2507              		.cfi_restore 5
 2508              		.cfi_restore 4
 2509              		.cfi_def_cfa_offset 0
 2510              	.LVL190:
 2511              		.loc 1 552 0
 2512 0998 FFF7FEBF 		b	LCD_drawNumber5D
 2513              	.LVL191:
 2514              	.L148:
 2515              		.cfi_restore_state
 2516              		.loc 1 545 0
 2517 099c 2946     		mov	r1, r5
 2518 099e 5B20     		movs	r0, #91
 2519 09a0 124A     		ldr	r2, .L159+8
 2520 09a2 8023     		movs	r3, #128
 2521              		.loc 1 593 0
 2522 09a4 BDE8F041 		pop	{r4, r5, r6, r7, r8, lr}
 2523              		.cfi_remember_state
 2524              		.cfi_restore 14
 2525              		.cfi_restore 8
 2526              		.cfi_restore 7
 2527              		.cfi_restore 6
 2528              		.cfi_restore 5
 2529              		.cfi_restore 4
 2530              		.cfi_def_cfa_offset 0
 2531              	.LVL192:
 2532              		.loc 1 545 0
 2533 09a8 FFF7FEBF 		b	LCD_drawStringN
 2534              	.LVL193:
 2535              	.L149:
 2536              		.cfi_restore_state
 2537              		.loc 1 548 0
 2538 09ac E368     		ldr	r3, [r4, #12]
 2539 09ae 2946     		mov	r1, r5
 2540 09b0 1A68     		ldr	r2, [r3]
 2541 09b2 5B20     		movs	r0, #91
 2542 09b4 8023     		movs	r3, #128
 2543              		.loc 1 593 0
 2544 09b6 BDE8F041 		pop	{r4, r5, r6, r7, r8, lr}
 2545              		.cfi_remember_state
ARM GAS  /var/folders/28/j9jfyj_n4wz3qtvnym210h2c0000gn/T//ccpoR13X.s 			page 46


 2546              		.cfi_restore 14
 2547              		.cfi_restore 8
 2548              		.cfi_restore 7
 2549              		.cfi_restore 6
 2550              		.cfi_restore 5
 2551              		.cfi_restore 4
 2552              		.cfi_def_cfa_offset 0
 2553              	.LVL194:
 2554              		.loc 1 548 0
 2555 09ba FFF7FEBF 		b	LCD_drawIBAR
 2556              	.LVL195:
 2557              	.L150:
 2558              		.cfi_restore_state
 2559              		.loc 1 555 0
 2560 09be 2946     		mov	r1, r5
 2561 09c0 5B20     		movs	r0, #91
 2562 09c2 0B4A     		ldr	r2, .L159+12
 2563 09c4 8023     		movs	r3, #128
 2564              		.loc 1 593 0
 2565 09c6 BDE8F041 		pop	{r4, r5, r6, r7, r8, lr}
 2566              		.cfi_remember_state
 2567              		.cfi_restore 14
 2568              		.cfi_restore 8
 2569              		.cfi_restore 7
 2570              		.cfi_restore 6
 2571              		.cfi_restore 5
 2572              		.cfi_restore 4
 2573              		.cfi_def_cfa_offset 0
 2574              	.LVL196:
 2575              		.loc 1 555 0
 2576 09ca FFF7FEBF 		b	LCD_drawStringN
 2577              	.LVL197:
 2578              	.L151:
 2579              		.cfi_restore_state
 2580              		.loc 1 558 0
 2581 09ce 2946     		mov	r1, r5
 2582 09d0 5B20     		movs	r0, #91
 2583 09d2 084A     		ldr	r2, .L159+16
 2584 09d4 8023     		movs	r3, #128
 2585              		.loc 1 593 0
 2586 09d6 BDE8F041 		pop	{r4, r5, r6, r7, r8, lr}
 2587              		.cfi_restore 14
 2588              		.cfi_restore 8
 2589              		.cfi_restore 7
 2590              		.cfi_restore 6
 2591              		.cfi_restore 5
 2592              		.cfi_restore 4
 2593              		.cfi_def_cfa_offset 0
 2594              	.LVL198:
 2595              		.loc 1 558 0
 2596 09da FFF7FEBF 		b	LCD_drawStringN
 2597              	.LVL199:
 2598              	.L142:
 2599 09de BDE8F081 		pop	{r4, r5, r6, r7, r8, pc}
 2600              	.LVL200:
 2601              	.L160:
 2602 09e2 00BF     		.align	2
ARM GAS  /var/folders/28/j9jfyj_n4wz3qtvnym210h2c0000gn/T//ccpoR13X.s 			page 47


 2603              	.L159:
 2604 09e4 67666666 		.word	1717986919
 2605 09e8 AC000000 		.word	.LC20
 2606 09ec B4000000 		.word	.LC21
 2607 09f0 BC000000 		.word	.LC22
 2608 09f4 C4000000 		.word	.LC23
 2609              		.cfi_endproc
 2610              	.LFE201:
 2611              		.size	KVP_Display, .-KVP_Display
 2612              		.align	2
 2613 09f8 AFF30080 		.p2align 4,,15
 2613      AFF30080 
 2614              		.global	AxolotiControlUpdate
 2615              		.thumb
 2616              		.thumb_func
 2617              		.type	AxolotiControlUpdate, %function
 2618              	AxolotiControlUpdate:
 2619              	.LFB194:
 2620              		.loc 1 395 0
 2621              		.cfi_startproc
 2622              		@ args = 0, pretend = 0, frame = 0
 2623              		@ frame_needed = 0, uses_anonymous_args = 0
 2624 0a00 2DE9F04F 		push	{r4, r5, r6, r7, r8, r9, r10, fp, lr}
 2625              		.cfi_def_cfa_offset 36
 2626              		.cfi_offset 4, -36
 2627              		.cfi_offset 5, -32
 2628              		.cfi_offset 6, -28
 2629              		.cfi_offset 7, -24
 2630              		.cfi_offset 8, -20
 2631              		.cfi_offset 9, -16
 2632              		.cfi_offset 10, -12
 2633              		.cfi_offset 11, -8
 2634              		.cfi_offset 14, -4
 2635 0a04 81B0     		sub	sp, sp, #4
 2636              		.cfi_def_cfa_offset 40
 2637              		.loc 1 397 0
 2638 0a06 FFF7FEFF 		bl	do_axoloti_control
 2639              	.LVL201:
 2640              	.LBB286:
 2641              	.LBB287:
 2642              		.loc 1 762 0
 2643 0a0a A54F     		ldr	r7, .L527
 2644 0a0c A549     		ldr	r1, .L527+4
 2645 0a0e 3B68     		ldr	r3, [r7]
 2646 0a10 0A68     		ldr	r2, [r1]
 2647              		.loc 1 766 0
 2648 0a12 A54D     		ldr	r5, .L527+8
 2649              		.loc 1 762 0
 2650 0a14 1343     		orrs	r3, r3, r2
 2651              		.loc 1 764 0
 2652 0a16 0020     		movs	r0, #0
 2653              		.loc 1 766 0
 2654 0a18 2A68     		ldr	r2, [r5]
 2655              		.loc 1 762 0
 2656 0a1a 3B60     		str	r3, [r7]
 2657              		.loc 1 764 0
 2658 0a1c 0860     		str	r0, [r1]
ARM GAS  /var/folders/28/j9jfyj_n4wz3qtvnym210h2c0000gn/T//ccpoR13X.s 			page 48


 2659              		.loc 1 766 0
 2660 0a1e 1378     		ldrb	r3, [r2]	@ zero_extendqisi2
 2661 0a20 032B     		cmp	r3, #3
 2662 0a22 00F07281 		beq	.L503
 2663              		.loc 1 790 0
 2664 0a26 052B     		cmp	r3, #5
 2665 0a28 00F01C82 		beq	.L504
 2666              		.loc 1 814 0
 2667 0a2c 062B     		cmp	r3, #6
 2668 0a2e 00F05082 		beq	.L462
 2669 0a32 9E4E     		ldr	r6, .L527+12
 2670              	.L188:
 2671              		.loc 1 821 0
 2672 0a34 BB78     		ldrb	r3, [r7, #2]	@ zero_extendqisi2
 2673 0a36 D807     		lsls	r0, r3, #31
 2674 0a38 09D5     		bpl	.L215
 2675 0a3a B178     		ldrb	r1, [r6, #2]	@ zero_extendqisi2
 2676 0a3c C907     		lsls	r1, r1, #31
 2677 0a3e 06D4     		bmi	.L215
 2678              		.loc 1 822 0
 2679 0a40 9B48     		ldr	r0, .L527+16
 2680 0a42 0179     		ldrb	r1, [r0, #4]	@ zero_extendqisi2
 2681 0a44 B1FA81F1 		clz	r1, r1
 2682 0a48 4909     		lsrs	r1, r1, #5
 2683 0a4a 4942     		negs	r1, r1
 2684 0a4c 0171     		strb	r1, [r0, #4]
 2685              	.L215:
 2686              		.loc 1 823 0
 2687 0a4e 9C07     		lsls	r4, r3, #30
 2688 0a50 09D5     		bpl	.L216
 2689 0a52 B178     		ldrb	r1, [r6, #2]	@ zero_extendqisi2
 2690 0a54 8807     		lsls	r0, r1, #30
 2691 0a56 06D4     		bmi	.L216
 2692              		.loc 1 824 0
 2693 0a58 9548     		ldr	r0, .L527+16
 2694 0a5a 4179     		ldrb	r1, [r0, #5]	@ zero_extendqisi2
 2695 0a5c B1FA81F1 		clz	r1, r1
 2696 0a60 4909     		lsrs	r1, r1, #5
 2697 0a62 4942     		negs	r1, r1
 2698 0a64 4171     		strb	r1, [r0, #5]
 2699              	.L216:
 2700              		.loc 1 825 0
 2701 0a66 5907     		lsls	r1, r3, #29
 2702 0a68 09D5     		bpl	.L217
 2703 0a6a B178     		ldrb	r1, [r6, #2]	@ zero_extendqisi2
 2704 0a6c 4C07     		lsls	r4, r1, #29
 2705 0a6e 06D4     		bmi	.L217
 2706              		.loc 1 826 0
 2707 0a70 8F48     		ldr	r0, .L527+16
 2708 0a72 8179     		ldrb	r1, [r0, #6]	@ zero_extendqisi2
 2709 0a74 B1FA81F1 		clz	r1, r1
 2710 0a78 4909     		lsrs	r1, r1, #5
 2711 0a7a 4942     		negs	r1, r1
 2712 0a7c 8171     		strb	r1, [r0, #6]
 2713              	.L217:
 2714              		.loc 1 827 0
 2715 0a7e 1807     		lsls	r0, r3, #28
ARM GAS  /var/folders/28/j9jfyj_n4wz3qtvnym210h2c0000gn/T//ccpoR13X.s 			page 49


 2716 0a80 09D5     		bpl	.L218
 2717 0a82 B178     		ldrb	r1, [r6, #2]	@ zero_extendqisi2
 2718 0a84 0907     		lsls	r1, r1, #28
 2719 0a86 06D4     		bmi	.L218
 2720              		.loc 1 828 0
 2721 0a88 8948     		ldr	r0, .L527+16
 2722 0a8a C179     		ldrb	r1, [r0, #7]	@ zero_extendqisi2
 2723 0a8c B1FA81F1 		clz	r1, r1
 2724 0a90 4909     		lsrs	r1, r1, #5
 2725 0a92 4942     		negs	r1, r1
 2726 0a94 C171     		strb	r1, [r0, #7]
 2727              	.L218:
 2728              		.loc 1 829 0
 2729 0a96 DC06     		lsls	r4, r3, #27
 2730 0a98 09D5     		bpl	.L219
 2731 0a9a B178     		ldrb	r1, [r6, #2]	@ zero_extendqisi2
 2732 0a9c C806     		lsls	r0, r1, #27
 2733 0a9e 06D4     		bmi	.L219
 2734              		.loc 1 830 0
 2735 0aa0 8348     		ldr	r0, .L527+16
 2736 0aa2 017A     		ldrb	r1, [r0, #8]	@ zero_extendqisi2
 2737 0aa4 B1FA81F1 		clz	r1, r1
 2738 0aa8 4909     		lsrs	r1, r1, #5
 2739 0aaa 4942     		negs	r1, r1
 2740 0aac 0172     		strb	r1, [r0, #8]
 2741              	.L219:
 2742              		.loc 1 831 0
 2743 0aae 9906     		lsls	r1, r3, #26
 2744 0ab0 09D5     		bpl	.L220
 2745 0ab2 B178     		ldrb	r1, [r6, #2]	@ zero_extendqisi2
 2746 0ab4 8C06     		lsls	r4, r1, #26
 2747 0ab6 06D4     		bmi	.L220
 2748              		.loc 1 832 0
 2749 0ab8 7D48     		ldr	r0, .L527+16
 2750 0aba 417A     		ldrb	r1, [r0, #9]	@ zero_extendqisi2
 2751 0abc B1FA81F1 		clz	r1, r1
 2752 0ac0 4909     		lsrs	r1, r1, #5
 2753 0ac2 4942     		negs	r1, r1
 2754 0ac4 4172     		strb	r1, [r0, #9]
 2755              	.L220:
 2756              		.loc 1 833 0
 2757 0ac6 5806     		lsls	r0, r3, #25
 2758 0ac8 09D5     		bpl	.L221
 2759 0aca B178     		ldrb	r1, [r6, #2]	@ zero_extendqisi2
 2760 0acc 4906     		lsls	r1, r1, #25
 2761 0ace 06D4     		bmi	.L221
 2762              		.loc 1 834 0
 2763 0ad0 7748     		ldr	r0, .L527+16
 2764 0ad2 817A     		ldrb	r1, [r0, #10]	@ zero_extendqisi2
 2765 0ad4 B1FA81F1 		clz	r1, r1
 2766 0ad8 4909     		lsrs	r1, r1, #5
 2767 0ada 4942     		negs	r1, r1
 2768 0adc 8172     		strb	r1, [r0, #10]
 2769              	.L221:
 2770              		.loc 1 835 0
 2771 0ade 1C06     		lsls	r4, r3, #24
 2772 0ae0 09D5     		bpl	.L222
ARM GAS  /var/folders/28/j9jfyj_n4wz3qtvnym210h2c0000gn/T//ccpoR13X.s 			page 50


 2773 0ae2 B378     		ldrb	r3, [r6, #2]	@ zero_extendqisi2
 2774 0ae4 1806     		lsls	r0, r3, #24
 2775 0ae6 06D4     		bmi	.L222
 2776              		.loc 1 836 0
 2777 0ae8 7149     		ldr	r1, .L527+16
 2778 0aea CB7A     		ldrb	r3, [r1, #11]	@ zero_extendqisi2
 2779 0aec B3FA83F3 		clz	r3, r3
 2780 0af0 5B09     		lsrs	r3, r3, #5
 2781 0af2 5B42     		negs	r3, r3
 2782 0af4 CB72     		strb	r3, [r1, #11]
 2783              	.L222:
 2784              		.loc 1 837 0
 2785 0af6 FB78     		ldrb	r3, [r7, #3]	@ zero_extendqisi2
 2786 0af8 D907     		lsls	r1, r3, #31
 2787 0afa 09D5     		bpl	.L223
 2788 0afc F178     		ldrb	r1, [r6, #3]	@ zero_extendqisi2
 2789 0afe CC07     		lsls	r4, r1, #31
 2790 0b00 06D4     		bmi	.L223
 2791              		.loc 1 838 0
 2792 0b02 6B48     		ldr	r0, .L527+16
 2793 0b04 017B     		ldrb	r1, [r0, #12]	@ zero_extendqisi2
 2794 0b06 B1FA81F1 		clz	r1, r1
 2795 0b0a 4909     		lsrs	r1, r1, #5
 2796 0b0c 4942     		negs	r1, r1
 2797 0b0e 0173     		strb	r1, [r0, #12]
 2798              	.L223:
 2799              		.loc 1 839 0
 2800 0b10 9807     		lsls	r0, r3, #30
 2801 0b12 09D5     		bpl	.L224
 2802 0b14 F178     		ldrb	r1, [r6, #3]	@ zero_extendqisi2
 2803 0b16 8907     		lsls	r1, r1, #30
 2804 0b18 06D4     		bmi	.L224
 2805              		.loc 1 840 0
 2806 0b1a 6548     		ldr	r0, .L527+16
 2807 0b1c 417B     		ldrb	r1, [r0, #13]	@ zero_extendqisi2
 2808 0b1e B1FA81F1 		clz	r1, r1
 2809 0b22 4909     		lsrs	r1, r1, #5
 2810 0b24 4942     		negs	r1, r1
 2811 0b26 4173     		strb	r1, [r0, #13]
 2812              	.L224:
 2813              		.loc 1 841 0
 2814 0b28 5C07     		lsls	r4, r3, #29
 2815 0b2a 09D5     		bpl	.L225
 2816 0b2c F178     		ldrb	r1, [r6, #3]	@ zero_extendqisi2
 2817 0b2e 4807     		lsls	r0, r1, #29
 2818 0b30 06D4     		bmi	.L225
 2819              		.loc 1 842 0
 2820 0b32 5F48     		ldr	r0, .L527+16
 2821 0b34 817B     		ldrb	r1, [r0, #14]	@ zero_extendqisi2
 2822 0b36 B1FA81F1 		clz	r1, r1
 2823 0b3a 4909     		lsrs	r1, r1, #5
 2824 0b3c 4942     		negs	r1, r1
 2825 0b3e 8173     		strb	r1, [r0, #14]
 2826              	.L225:
 2827              		.loc 1 843 0
 2828 0b40 1907     		lsls	r1, r3, #28
 2829 0b42 09D5     		bpl	.L226
ARM GAS  /var/folders/28/j9jfyj_n4wz3qtvnym210h2c0000gn/T//ccpoR13X.s 			page 51


 2830 0b44 F178     		ldrb	r1, [r6, #3]	@ zero_extendqisi2
 2831 0b46 0C07     		lsls	r4, r1, #28
 2832 0b48 06D4     		bmi	.L226
 2833              		.loc 1 844 0
 2834 0b4a 5948     		ldr	r0, .L527+16
 2835 0b4c C17B     		ldrb	r1, [r0, #15]	@ zero_extendqisi2
 2836 0b4e B1FA81F1 		clz	r1, r1
 2837 0b52 4909     		lsrs	r1, r1, #5
 2838 0b54 4942     		negs	r1, r1
 2839 0b56 C173     		strb	r1, [r0, #15]
 2840              	.L226:
 2841              		.loc 1 845 0
 2842 0b58 D806     		lsls	r0, r3, #27
 2843 0b5a 09D5     		bpl	.L227
 2844 0b5c F178     		ldrb	r1, [r6, #3]	@ zero_extendqisi2
 2845 0b5e C906     		lsls	r1, r1, #27
 2846 0b60 06D4     		bmi	.L227
 2847              		.loc 1 846 0
 2848 0b62 5348     		ldr	r0, .L527+16
 2849 0b64 017C     		ldrb	r1, [r0, #16]	@ zero_extendqisi2
 2850 0b66 B1FA81F1 		clz	r1, r1
 2851 0b6a 4909     		lsrs	r1, r1, #5
 2852 0b6c 4942     		negs	r1, r1
 2853 0b6e 0174     		strb	r1, [r0, #16]
 2854              	.L227:
 2855              		.loc 1 847 0
 2856 0b70 9C06     		lsls	r4, r3, #26
 2857 0b72 09D5     		bpl	.L228
 2858 0b74 F178     		ldrb	r1, [r6, #3]	@ zero_extendqisi2
 2859 0b76 8806     		lsls	r0, r1, #26
 2860 0b78 06D4     		bmi	.L228
 2861              		.loc 1 848 0
 2862 0b7a 4D48     		ldr	r0, .L527+16
 2863 0b7c 417C     		ldrb	r1, [r0, #17]	@ zero_extendqisi2
 2864 0b7e B1FA81F1 		clz	r1, r1
 2865 0b82 4909     		lsrs	r1, r1, #5
 2866 0b84 4942     		negs	r1, r1
 2867 0b86 4174     		strb	r1, [r0, #17]
 2868              	.L228:
 2869              		.loc 1 849 0
 2870 0b88 5906     		lsls	r1, r3, #25
 2871 0b8a 09D5     		bpl	.L229
 2872 0b8c F178     		ldrb	r1, [r6, #3]	@ zero_extendqisi2
 2873 0b8e 4C06     		lsls	r4, r1, #25
 2874 0b90 06D4     		bmi	.L229
 2875              		.loc 1 850 0
 2876 0b92 4748     		ldr	r0, .L527+16
 2877 0b94 817C     		ldrb	r1, [r0, #18]	@ zero_extendqisi2
 2878 0b96 B1FA81F1 		clz	r1, r1
 2879 0b9a 4909     		lsrs	r1, r1, #5
 2880 0b9c 4942     		negs	r1, r1
 2881 0b9e 8174     		strb	r1, [r0, #18]
 2882              	.L229:
 2883              		.loc 1 851 0
 2884 0ba0 1806     		lsls	r0, r3, #24
 2885 0ba2 09D5     		bpl	.L230
 2886 0ba4 F378     		ldrb	r3, [r6, #3]	@ zero_extendqisi2
ARM GAS  /var/folders/28/j9jfyj_n4wz3qtvnym210h2c0000gn/T//ccpoR13X.s 			page 52


 2887 0ba6 1906     		lsls	r1, r3, #24
 2888 0ba8 06D4     		bmi	.L230
 2889              		.loc 1 852 0
 2890 0baa 4149     		ldr	r1, .L527+16
 2891 0bac CB7C     		ldrb	r3, [r1, #19]	@ zero_extendqisi2
 2892 0bae B3FA83F3 		clz	r3, r3
 2893 0bb2 5B09     		lsrs	r3, r3, #5
 2894 0bb4 5B42     		negs	r3, r3
 2895 0bb6 CB74     		strb	r3, [r1, #19]
 2896              	.L230:
 2897              		.loc 1 855 0
 2898 0bb8 1378     		ldrb	r3, [r2]	@ zero_extendqisi2
 2899 0bba 032B     		cmp	r3, #3
 2900 0bbc 00F08280 		beq	.L505
 2901              		.loc 1 869 0
 2902 0bc0 052B     		cmp	r3, #5
 2903 0bc2 00F0E880 		beq	.L506
 2904              	.L233:
 2905              		.loc 1 884 0
 2906 0bc6 3B4C     		ldr	r4, .L527+20
 2907 0bc8 3B68     		ldr	r3, [r7]
 2908 0bca 2168     		ldr	r1, [r4]
 2909              	.LBE287:
 2910              	.LBE286:
 2911              	.LBB389:
 2912              	.LBB390:
 2913              		.loc 1 890 0
 2914 0bcc 0020     		movs	r0, #0
 2915              	.LBE390:
 2916              	.LBE389:
 2917              	.LBB448:
 2918              	.LBB380:
 2919              		.loc 1 884 0
 2920 0bce 0B40     		ands	r3, r3, r1
 2921              		.loc 1 886 0
 2922 0bd0 4FF0FF3E 		mov	lr, #-1
 2923              	.LBE380:
 2924              	.LBE448:
 2925              	.LBB449:
 2926              	.LBB435:
 2927              		.loc 1 890 0
 2928 0bd4 0146     		mov	r1, r0
 2929              	.LBE435:
 2930              	.LBE449:
 2931              	.LBB450:
 2932              	.LBB381:
 2933              		.loc 1 885 0
 2934 0bd6 3360     		str	r3, [r6]
 2935              		.loc 1 884 0
 2936 0bd8 3B60     		str	r3, [r7]
 2937              		.loc 1 886 0
 2938 0bda C4F800E0 		str	lr, [r4]
 2939              	.LBE381:
 2940              	.LBE450:
 2941              	.LBB451:
 2942              	.LBB436:
 2943              		.loc 1 890 0
ARM GAS  /var/folders/28/j9jfyj_n4wz3qtvnym210h2c0000gn/T//ccpoR13X.s 			page 53


 2944 0bde FFF7FEFF 		bl	KVP_DisplayInv
 2945              	.LVL202:
 2946              		.loc 1 891 0
 2947 0be2 2B68     		ldr	r3, [r5]
 2948 0be4 1E78     		ldrb	r6, [r3]	@ zero_extendqisi2
 2949 0be6 032E     		cmp	r6, #3
 2950 0be8 08D0     		beq	.L507
 2951              		.loc 1 976 0
 2952 0bea 052E     		cmp	r6, #5
 2953 0bec 00F0F480 		beq	.L508
 2954              		.loc 1 1061 0
 2955 0bf0 062E     		cmp	r6, #6
 2956 0bf2 00F0C182 		beq	.L509
 2957              	.LBE436:
 2958              	.LBE451:
 2959              		.loc 1 401 0
 2960 0bf6 01B0     		add	sp, sp, #4
 2961              		.cfi_remember_state
 2962              		.cfi_def_cfa_offset 36
 2963              		@ sp needed
 2964 0bf8 BDE8F08F 		pop	{r4, r5, r6, r7, r8, r9, r10, fp, pc}
 2965              	.L507:
 2966              		.cfi_restore_state
 2967              	.LBB452:
 2968              	.LBB437:
 2969              	.LBB391:
 2970              		.loc 1 893 0
 2971 0bfc 1C69     		ldr	r4, [r3, #16]
 2972              		.loc 1 892 0
 2973 0bfe D3F81490 		ldr	r9, [r3, #20]
 2974              	.LVL203:
 2975              		.loc 1 894 0
 2976 0c02 D3F80CA0 		ldr	r10, [r3, #12]
 2977              	.LVL204:
 2978              		.loc 1 895 0
 2979 0c06 062C     		cmp	r4, #6
 2980 0c08 00F39E81 		bgt	.L274
 2981              	.LVL205:
 2982              	.LBB392:
 2983              		.loc 1 897 0
 2984 0c0c 002C     		cmp	r4, #0
 2985 0c0e 40F32C85 		ble	.L335
 2986              		.loc 1 899 0
 2987 0c12 09EB490B 		add	fp, r9, r9, lsl #1
 2988 0c16 0AEBCB0B 		add	fp, r10, fp, lsl #3
 2989 0c1a 5746     		mov	r7, r10
 2990 0c1c 0126     		movs	r6, #1
 2991              	.LVL206:
 2992              	.L278:
 2993 0c1e 731E     		subs	r3, r6, #1
 2994              	.LVL207:
 2995              		.loc 1 898 0
 2996 0c20 9945     		cmp	r9, r3
 2997              		.loc 1 901 0
 2998 0c22 3146     		mov	r1, r6
 2999 0c24 3A46     		mov	r2, r7
 3000 0c26 4FF00500 		mov	r0, #5
ARM GAS  /var/folders/28/j9jfyj_n4wz3qtvnym210h2c0000gn/T//ccpoR13X.s 			page 54


 3001              		.loc 1 898 0
 3002 0c2a 00F02485 		beq	.L510
 3003              		.loc 1 901 0
 3004 0c2e B046     		mov	r8, r6
 3005 0c30 FFF7FEFF 		bl	KVP_Display
 3006              	.LVL208:
 3007              	.L277:
 3008              		.loc 1 897 0
 3009 0c34 4445     		cmp	r4, r8
 3010 0c36 06F10106 		add	r6, r6, #1
 3011              	.LVL209:
 3012 0c3a 07F11807 		add	r7, r7, #24
 3013 0c3e EEDC     		bgt	.L278
 3014              	.LVL210:
 3015              	.L279:
 3016              		.loc 1 904 0
 3017 0c40 0134     		adds	r4, r4, #1
 3018              	.LVL211:
 3019 0c42 2146     		mov	r1, r4
 3020 0c44 0520     		movs	r0, #5
 3021 0c46 1C4A     		ldr	r2, .L527+24
 3022 0c48 4E23     		movs	r3, #78
 3023 0c4a FFF7FEFF 		bl	LCD_drawStringN
 3024              	.LVL212:
 3025              		.loc 1 903 0
 3026 0c4e 072C     		cmp	r4, #7
 3027 0c50 F6D1     		bne	.L279
 3028              	.LVL213:
 3029              	.L286:
 3030              	.LBE392:
 3031              		.loc 1 961 0
 3032 0c52 2B68     		ldr	r3, [r5]
 3033 0c54 5868     		ldr	r0, [r3, #4]
 3034 0c56 0028     		cmp	r0, #0
 3035 0c58 00F0BD84 		beq	.L511
 3036              		.loc 1 962 0
 3037 0c5c 0020     		movs	r0, #0
 3038 0c5e 0721     		movs	r1, #7
 3039 0c60 164A     		ldr	r2, .L527+28
 3040 0c62 FFF7FEFF 		bl	LCD_drawStringInv
 3041              	.LVL214:
 3042              		.loc 1 963 0
 3043 0c66 1820     		movs	r0, #24
 3044 0c68 0721     		movs	r1, #7
 3045 0c6a 154A     		ldr	r2, .L527+32
 3046 0c6c FFF7FEFF 		bl	LCD_drawString
 3047              	.LVL215:
 3048              	.L300:
 3049              		.loc 1 967 0
 3050 0c70 2B68     		ldr	r3, [r5]
 3051 0c72 5B69     		ldr	r3, [r3, #20]
 3052 0c74 03EB4303 		add	r3, r3, r3, lsl #1
 3053 0c78 1AF83330 		ldrb	r3, [r10, r3, lsl #3]	@ zero_extendqisi2
 3054 0c7c 032B     		cmp	r3, #3
 3055 0c7e 00F0E980 		beq	.L302
 3056              	.LVL216:
 3057              	.L492:
ARM GAS  /var/folders/28/j9jfyj_n4wz3qtvnym210h2c0000gn/T//ccpoR13X.s 			page 55


 3058              		.loc 1 968 0
 3059 0c82 5A1F     		subs	r2, r3, #5
 3060 0c84 012A     		cmp	r2, #1
 3061 0c86 40F2E580 		bls	.L302
 3062              	.LBE391:
 3063              	.LBB401:
 3064              		.loc 1 1056 0
 3065 0c8a 0D2B     		cmp	r3, #13
 3066 0c8c 00F0E280 		beq	.L302
 3067              	.LBE401:
 3068              	.LBB412:
 3069              		.loc 1 974 0
 3070 0c90 0B4A     		ldr	r2, .L527+32
 3071 0c92 6120     		movs	r0, #97
 3072 0c94 0721     		movs	r1, #7
 3073              	.LBE412:
 3074              	.LBE437:
 3075              	.LBE452:
 3076              		.loc 1 401 0
 3077 0c96 01B0     		add	sp, sp, #4
 3078              		.cfi_remember_state
 3079              		.cfi_def_cfa_offset 36
 3080              		@ sp needed
 3081 0c98 BDE8F04F 		pop	{r4, r5, r6, r7, r8, r9, r10, fp, lr}
 3082              		.cfi_restore 14
 3083              		.cfi_restore 11
 3084              		.cfi_restore 10
 3085              		.cfi_restore 9
 3086              		.cfi_restore 8
 3087              		.cfi_restore 7
 3088              		.cfi_restore 6
 3089              		.cfi_restore 5
 3090              		.cfi_restore 4
 3091              		.cfi_def_cfa_offset 0
 3092              	.LBB453:
 3093              	.LBB438:
 3094              	.LBB413:
 3095              		.loc 1 974 0
 3096 0c9c FFF7FEBF 		b	LCD_drawString
 3097              	.LVL217:
 3098              	.L528:
 3099              		.align	2
 3100              	.L527:
 3101 0ca0 00000000 		.word	Btn_Nav_CurStates
 3102 0ca4 00000000 		.word	Btn_Nav_Or
 3103 0ca8 00000000 		.word	KvpsDisplay
 3104 0cac 00000000 		.word	Btn_Nav_PrevStates
 3105 0cb0 00000000 		.word	led_buffer
 3106 0cb4 00000000 		.word	Btn_Nav_And
 3107 0cb8 CC000000 		.word	.LC24
 3108 0cbc 38000000 		.word	.LC8
 3109 0cc0 D0000000 		.word	.LC25
 3110              	.L505:
 3111              		.cfi_restore_state
 3112              	.LBE413:
 3113              	.LBE438:
 3114              	.LBE453:
ARM GAS  /var/folders/28/j9jfyj_n4wz3qtvnym210h2c0000gn/T//ccpoR13X.s 			page 56


 3115              	.LBB454:
 3116              	.LBB382:
 3117              	.LBB288:
 3118              		.loc 1 857 0
 3119 0cc4 5369     		ldr	r3, [r2, #20]
 3120              		.loc 1 856 0
 3121 0cc6 D168     		ldr	r1, [r2, #12]
 3122              		.loc 1 857 0
 3123 0cc8 03EB4303 		add	r3, r3, r3, lsl #1
 3124 0ccc DB00     		lsls	r3, r3, #3
 3125              		.loc 1 856 0
 3126 0cce 01EB0308 		add	r8, r1, r3
 3127              	.LVL218:
 3128              		.loc 1 858 0
 3129 0cd2 C95C     		ldrb	r1, [r1, r3]	@ zero_extendqisi2
 3130 0cd4 0029     		cmp	r1, #0
 3131 0cd6 40F05781 		bne	.L512
 3132              	.L232:
 3133              		.loc 1 859 0
 3134 0cda AD4C     		ldr	r4, .L529
 3135 0cdc 2378     		ldrb	r3, [r4]	@ zero_extendqisi2
 3136 0cde 5AB2     		sxtb	r2, r3
 3137 0ce0 002A     		cmp	r2, #0
 3138 0ce2 40F3BD81 		ble	.L234
 3139              	.L243:
 3140              	.LBB289:
 3141              	.LBB290:
 3142              		.loc 1 102 0
 3143 0ce6 0C29     		cmp	r1, #12
 3144 0ce8 00F20081 		bhi	.L235
 3145 0cec DFE811F0 		tbh	[pc, r1, lsl #1]
 3146              	.L237:
 3147 0cf0 0901     		.2byte	(.L236-.L237)/2
 3148 0cf2 FE00     		.2byte	(.L235-.L237)/2
 3149 0cf4 FE00     		.2byte	(.L235-.L237)/2
 3150 0cf6 F400     		.2byte	(.L239-.L237)/2
 3151 0cf8 FE00     		.2byte	(.L235-.L237)/2
 3152 0cfa F400     		.2byte	(.L239-.L237)/2
 3153 0cfc FE00     		.2byte	(.L235-.L237)/2
 3154 0cfe FE00     		.2byte	(.L235-.L237)/2
 3155 0d00 FE00     		.2byte	(.L235-.L237)/2
 3156 0d02 FE00     		.2byte	(.L235-.L237)/2
 3157 0d04 FE00     		.2byte	(.L235-.L237)/2
 3158 0d06 1D01     		.2byte	(.L240-.L237)/2
 3159 0d08 1301     		.2byte	(.L241-.L237)/2
 3160              	.LVL219:
 3161              		.p2align 1
 3162              	.L503:
 3163              	.LBE290:
 3164              	.LBE289:
 3165              	.LBE288:
 3166              	.LBB305:
 3167              		.loc 1 768 0
 3168 0d0a 5169     		ldr	r1, [r2, #20]
 3169              		.loc 1 769 0
 3170 0d0c 3B78     		ldrb	r3, [r7]	@ zero_extendqisi2
 3171              		.loc 1 767 0
ARM GAS  /var/folders/28/j9jfyj_n4wz3qtvnym210h2c0000gn/T//ccpoR13X.s 			page 57


 3172 0d0e D2F80C80 		ldr	r8, [r2, #12]
 3173              		.loc 1 769 0
 3174 0d12 A04E     		ldr	r6, .L529+4
 3175              		.loc 1 768 0
 3176 0d14 01EB4104 		add	r4, r1, r1, lsl #1
 3177 0d18 E400     		lsls	r4, r4, #3
 3178              		.loc 1 769 0
 3179 0d1a 9807     		lsls	r0, r3, #30
 3180              		.loc 1 767 0
 3181 0d1c 08EB0409 		add	r9, r8, r4
 3182              	.LVL220:
 3183              		.loc 1 769 0
 3184 0d20 03D5     		bpl	.L163
 3185 0d22 3078     		ldrb	r0, [r6]	@ zero_extendqisi2
 3186 0d24 8007     		lsls	r0, r0, #30
 3187 0d26 40F1EA82 		bpl	.L513
 3188              	.L163:
 3189              		.loc 1 771 0
 3190 0d2a D807     		lsls	r0, r3, #31
 3191 0d2c 03D5     		bpl	.L164
 3192 0d2e 3178     		ldrb	r1, [r6]	@ zero_extendqisi2
 3193 0d30 C907     		lsls	r1, r1, #31
 3194 0d32 40F1DD82 		bpl	.L514
 3195              	.L164:
 3196              		.loc 1 773 0
 3197 0d36 5807     		lsls	r0, r3, #29
 3198 0d38 03D5     		bpl	.L165
 3199 0d3a 3278     		ldrb	r2, [r6]	@ zero_extendqisi2
 3200 0d3c 5107     		lsls	r1, r2, #29
 3201 0d3e 40F1B582 		bpl	.L515
 3202              	.L165:
 3203              		.loc 1 775 0
 3204 0d42 1A07     		lsls	r2, r3, #28
 3205 0d44 03D5     		bpl	.L173
 3206 0d46 3278     		ldrb	r2, [r6]	@ zero_extendqisi2
 3207 0d48 1007     		lsls	r0, r2, #28
 3208 0d4a 40F18D82 		bpl	.L516
 3209              	.L173:
 3210              		.loc 1 777 0
 3211 0d4e D906     		lsls	r1, r3, #27
 3212 0d50 12D5     		bpl	.L473
 3213 0d52 3278     		ldrb	r2, [r6]	@ zero_extendqisi2
 3214 0d54 D206     		lsls	r2, r2, #27
 3215 0d56 0FD4     		bmi	.L473
 3216              		.loc 1 778 0
 3217 0d58 18F80420 		ldrb	r2, [r8, r4]	@ zero_extendqisi2
 3218 0d5c 032A     		cmp	r2, #3
 3219 0d5e 00F06383 		beq	.L184
 3220 0d62 511F     		subs	r1, r2, #5
 3221 0d64 0129     		cmp	r1, #1
 3222 0d66 40F25F83 		bls	.L184
 3223              		.loc 1 781 0
 3224 0d6a 0D2A     		cmp	r2, #13
 3225 0d6c 04D1     		bne	.L473
 3226              		.loc 1 782 0
 3227 0d6e D9F80C20 		ldr	r2, [r9, #12]
 3228 0d72 002A     		cmp	r2, #0
ARM GAS  /var/folders/28/j9jfyj_n4wz3qtvnym210h2c0000gn/T//ccpoR13X.s 			page 58


 3229 0d74 40F0AA80 		bne	.L214
 3230              	.LVL221:
 3231              	.L473:
 3232 0d78 2A68     		ldr	r2, [r5]
 3233              	.L497:
 3234              	.LBE305:
 3235              		.loc 1 815 0
 3236 0d7a 5B06     		lsls	r3, r3, #25
 3237 0d7c 7FF55AAE 		bpl	.L188
 3238 0d80 3378     		ldrb	r3, [r6]	@ zero_extendqisi2
 3239 0d82 5C06     		lsls	r4, r3, #25
 3240 0d84 3FF556AE 		bmi	.L188
 3241              		.loc 1 816 0
 3242 0d88 5368     		ldr	r3, [r2, #4]
 3243 0d8a 002B     		cmp	r3, #0
 3244 0d8c 3FF452AE 		beq	.L188
 3245              		.loc 1 817 0
 3246 0d90 2B60     		str	r3, [r5]
 3247 0d92 1A46     		mov	r2, r3
 3248 0d94 4EE6     		b	.L188
 3249              	.L506:
 3250              	.LBB328:
 3251              		.loc 1 871 0
 3252 0d96 5169     		ldr	r1, [r2, #20]
 3253 0d98 D368     		ldr	r3, [r2, #12]
 3254              		.loc 1 870 0
 3255 0d9a 53F82180 		ldr	r8, [r3, r1, lsl #2]
 3256              	.LVL222:
 3257              		.loc 1 872 0
 3258 0d9e 98F80010 		ldrb	r1, [r8]	@ zero_extendqisi2
 3259 0da2 0029     		cmp	r1, #0
 3260 0da4 40F03881 		bne	.L517
 3261              	.L253:
 3262              		.loc 1 873 0
 3263 0da8 794C     		ldr	r4, .L529
 3264 0daa 2378     		ldrb	r3, [r4]	@ zero_extendqisi2
 3265 0dac 5AB2     		sxtb	r2, r3
 3266 0dae 002A     		cmp	r2, #0
 3267 0db0 40F39681 		ble	.L254
 3268              	.L263:
 3269              	.LBB329:
 3270              	.LBB330:
 3271              		.loc 1 102 0
 3272 0db4 0C29     		cmp	r1, #12
 3273 0db6 00F20181 		bhi	.L255
 3274 0dba DFE811F0 		tbh	[pc, r1, lsl #1]
 3275              	.L257:
 3276 0dbe 1401     		.2byte	(.L256-.L257)/2
 3277 0dc0 FF00     		.2byte	(.L255-.L257)/2
 3278 0dc2 FF00     		.2byte	(.L255-.L257)/2
 3279 0dc4 F500     		.2byte	(.L259-.L257)/2
 3280 0dc6 FF00     		.2byte	(.L255-.L257)/2
 3281 0dc8 F500     		.2byte	(.L259-.L257)/2
 3282 0dca FF00     		.2byte	(.L255-.L257)/2
 3283 0dcc FF00     		.2byte	(.L255-.L257)/2
 3284 0dce FF00     		.2byte	(.L255-.L257)/2
 3285 0dd0 FF00     		.2byte	(.L255-.L257)/2
ARM GAS  /var/folders/28/j9jfyj_n4wz3qtvnym210h2c0000gn/T//ccpoR13X.s 			page 59


 3286 0dd2 FF00     		.2byte	(.L255-.L257)/2
 3287 0dd4 1E01     		.2byte	(.L260-.L257)/2
 3288 0dd6 0A01     		.2byte	(.L261-.L257)/2
 3289              	.LVL223:
 3290              		.p2align 1
 3291              	.L508:
 3292              	.LBE330:
 3293              	.LBE329:
 3294              	.LBE328:
 3295              	.LBE382:
 3296              	.LBE454:
 3297              	.LBB455:
 3298              	.LBB439:
 3299              	.LBB414:
 3300              		.loc 1 978 0
 3301 0dd8 1C69     		ldr	r4, [r3, #16]
 3302              		.loc 1 977 0
 3303 0dda D3F81480 		ldr	r8, [r3, #20]
 3304              	.LVL224:
 3305              		.loc 1 979 0
 3306 0dde DF68     		ldr	r7, [r3, #12]
 3307              	.LVL225:
 3308              		.loc 1 980 0
 3309 0de0 062C     		cmp	r4, #6
 3310 0de2 00F31D81 		bgt	.L306
 3311              	.LVL226:
 3312              	.LBB402:
 3313              		.loc 1 982 0
 3314 0de6 002C     		cmp	r4, #0
 3315 0de8 40F34284 		ble	.L336
 3316              		.loc 1 984 0
 3317 0dec 07EB880A 		add	r10, r7, r8, lsl #2
 3318 0df0 0023     		movs	r3, #0
 3319 0df2 08F10109 		add	r9, r8, #1
 3320              	.LVL227:
 3321              	.L310:
 3322 0df6 5E1C     		adds	r6, r3, #1
 3323              		.loc 1 983 0
 3324 0df8 9845     		cmp	r8, r3
 3325              		.loc 1 986 0
 3326 0dfa 4FF00500 		mov	r0, #5
 3327 0dfe 3146     		mov	r1, r6
 3328              		.loc 1 983 0
 3329 0e00 00F03F84 		beq	.L518
 3330              		.loc 1 986 0
 3331 0e04 57F82320 		ldr	r2, [r7, r3, lsl #2]
 3332 0e08 B346     		mov	fp, r6
 3333 0e0a FFF7FEFF 		bl	KVP_Display
 3334              	.LVL228:
 3335              	.L309:
 3336              		.loc 1 982 0
 3337 0e0e 5C45     		cmp	r4, fp
 3338 0e10 3346     		mov	r3, r6
 3339 0e12 F0DC     		bgt	.L310
 3340              	.LVL229:
 3341              	.L311:
 3342              		.loc 1 989 0
ARM GAS  /var/folders/28/j9jfyj_n4wz3qtvnym210h2c0000gn/T//ccpoR13X.s 			page 60


 3343 0e14 0134     		adds	r4, r4, #1
 3344              	.LVL230:
 3345 0e16 2146     		mov	r1, r4
 3346 0e18 0520     		movs	r0, #5
 3347 0e1a 5F4A     		ldr	r2, .L529+8
 3348 0e1c 4E23     		movs	r3, #78
 3349 0e1e FFF7FEFF 		bl	LCD_drawStringN
 3350              	.LVL231:
 3351              		.loc 1 988 0
 3352 0e22 072C     		cmp	r4, #7
 3353 0e24 F6D1     		bne	.L311
 3354              	.LVL232:
 3355              	.L318:
 3356              	.LBE402:
 3357              		.loc 1 1046 0
 3358 0e26 2B68     		ldr	r3, [r5]
 3359 0e28 5868     		ldr	r0, [r3, #4]
 3360 0e2a 0028     		cmp	r0, #0
 3361 0e2c 00F0D983 		beq	.L519
 3362              		.loc 1 1047 0
 3363 0e30 0020     		movs	r0, #0
 3364 0e32 0721     		movs	r1, #7
 3365 0e34 594A     		ldr	r2, .L529+12
 3366 0e36 FFF7FEFF 		bl	LCD_drawStringInv
 3367              	.LVL233:
 3368              		.loc 1 1048 0
 3369 0e3a 1820     		movs	r0, #24
 3370 0e3c 0721     		movs	r1, #7
 3371 0e3e 584A     		ldr	r2, .L529+16
 3372 0e40 FFF7FEFF 		bl	LCD_drawString
 3373              	.LVL234:
 3374              	.L332:
 3375              		.loc 1 1052 0
 3376 0e44 2B68     		ldr	r3, [r5]
 3377 0e46 5B69     		ldr	r3, [r3, #20]
 3378 0e48 57F82330 		ldr	r3, [r7, r3, lsl #2]
 3379 0e4c 1B78     		ldrb	r3, [r3]	@ zero_extendqisi2
 3380 0e4e 032B     		cmp	r3, #3
 3381 0e50 7FF417AF 		bne	.L492
 3382              	.LVL235:
 3383              	.L302:
 3384              	.LBE414:
 3385              	.LBB415:
 3386              		.loc 1 970 0
 3387 0e54 534A     		ldr	r2, .L529+20
 3388 0e56 6120     		movs	r0, #97
 3389 0e58 0721     		movs	r1, #7
 3390              	.LBE415:
 3391              	.LBE439:
 3392              	.LBE455:
 3393              		.loc 1 401 0
 3394 0e5a 01B0     		add	sp, sp, #4
 3395              		.cfi_remember_state
 3396              		.cfi_def_cfa_offset 36
 3397              		@ sp needed
 3398 0e5c BDE8F04F 		pop	{r4, r5, r6, r7, r8, r9, r10, fp, lr}
 3399              		.cfi_restore 14
ARM GAS  /var/folders/28/j9jfyj_n4wz3qtvnym210h2c0000gn/T//ccpoR13X.s 			page 61


 3400              		.cfi_restore 11
 3401              		.cfi_restore 10
 3402              		.cfi_restore 9
 3403              		.cfi_restore 8
 3404              		.cfi_restore 7
 3405              		.cfi_restore 6
 3406              		.cfi_restore 5
 3407              		.cfi_restore 4
 3408              		.cfi_def_cfa_offset 0
 3409              	.LBB456:
 3410              	.LBB440:
 3411              	.LBB416:
 3412              		.loc 1 970 0
 3413 0e60 FFF7FEBF 		b	LCD_drawStringInv
 3414              	.LVL236:
 3415              	.L504:
 3416              		.cfi_restore_state
 3417              	.LBE416:
 3418              	.LBE440:
 3419              	.LBE456:
 3420              	.LBB457:
 3421              	.LBB383:
 3422              	.LBB345:
 3423              		.loc 1 792 0
 3424 0e64 D068     		ldr	r0, [r2, #12]
 3425 0e66 5169     		ldr	r1, [r2, #20]
 3426              		.loc 1 793 0
 3427 0e68 3B78     		ldrb	r3, [r7]	@ zero_extendqisi2
 3428              		.loc 1 791 0
 3429 0e6a 50F82140 		ldr	r4, [r0, r1, lsl #2]
 3430              	.LVL237:
 3431              		.loc 1 793 0
 3432 0e6e 494E     		ldr	r6, .L529+4
 3433 0e70 9807     		lsls	r0, r3, #30
 3434 0e72 03D5     		bpl	.L190
 3435 0e74 3078     		ldrb	r0, [r6]	@ zero_extendqisi2
 3436 0e76 8007     		lsls	r0, r0, #30
 3437 0e78 40F18E82 		bpl	.L520
 3438              	.L190:
 3439              		.loc 1 795 0
 3440 0e7c D807     		lsls	r0, r3, #31
 3441 0e7e 03D5     		bpl	.L191
 3442 0e80 3178     		ldrb	r1, [r6]	@ zero_extendqisi2
 3443 0e82 C907     		lsls	r1, r1, #31
 3444 0e84 40F18F82 		bpl	.L521
 3445              	.L191:
 3446              		.loc 1 797 0
 3447 0e88 5807     		lsls	r0, r3, #29
 3448 0e8a 03D5     		bpl	.L192
 3449 0e8c 3278     		ldrb	r2, [r6]	@ zero_extendqisi2
 3450 0e8e 5107     		lsls	r1, r2, #29
 3451 0e90 40F13E82 		bpl	.L522
 3452              	.L192:
 3453              		.loc 1 799 0
 3454 0e94 1A07     		lsls	r2, r3, #28
 3455 0e96 03D5     		bpl	.L200
 3456 0e98 3278     		ldrb	r2, [r6]	@ zero_extendqisi2
ARM GAS  /var/folders/28/j9jfyj_n4wz3qtvnym210h2c0000gn/T//ccpoR13X.s 			page 62


 3457 0e9a 1007     		lsls	r0, r2, #28
 3458 0e9c 40F15A82 		bpl	.L523
 3459              	.L200:
 3460              		.loc 1 801 0
 3461 0ea0 D906     		lsls	r1, r3, #27
 3462 0ea2 7FF569AF 		bpl	.L473
 3463 0ea6 3278     		ldrb	r2, [r6]	@ zero_extendqisi2
 3464 0ea8 D206     		lsls	r2, r2, #27
 3465 0eaa 3FF565AF 		bmi	.L473
 3466              		.loc 1 802 0
 3467 0eae 2278     		ldrb	r2, [r4]	@ zero_extendqisi2
 3468 0eb0 032A     		cmp	r2, #3
 3469 0eb2 00F0BD82 		beq	.L211
 3470 0eb6 511F     		subs	r1, r2, #5
 3471 0eb8 0129     		cmp	r1, #1
 3472 0eba 40F2B982 		bls	.L211
 3473              		.loc 1 805 0
 3474 0ebe 0D2A     		cmp	r2, #13
 3475 0ec0 7FF45AAF 		bne	.L473
 3476              		.loc 1 806 0
 3477 0ec4 E268     		ldr	r2, [r4, #12]
 3478 0ec6 002A     		cmp	r2, #0
 3479 0ec8 3FF456AF 		beq	.L473
 3480              	.LVL238:
 3481              	.L214:
 3482              		.loc 1 807 0
 3483 0ecc 9047     		blx	r2
 3484              	.LVL239:
 3485 0ece 3B78     		ldrb	r3, [r7]	@ zero_extendqisi2
 3486 0ed0 52E7     		b	.L473
 3487              	.L462:
 3488              	.LBE345:
 3489              		.loc 1 815 0
 3490 0ed2 3B78     		ldrb	r3, [r7]	@ zero_extendqisi2
 3491 0ed4 2F4E     		ldr	r6, .L529+4
 3492 0ed6 50E7     		b	.L497
 3493              	.LVL240:
 3494              	.L239:
 3495              	.LBB368:
 3496              	.LBB296:
 3497              	.LBB294:
 3498              		.loc 1 112 0
 3499 0ed8 D8F81030 		ldr	r3, [r8, #16]
 3500 0edc D8F81420 		ldr	r2, [r8, #20]
 3501 0ee0 013B     		subs	r3, r3, #1
 3502 0ee2 9A42     		cmp	r2, r3
 3503 0ee4 02DA     		bge	.L235
 3504              		.loc 1 113 0
 3505 0ee6 0132     		adds	r2, r2, #1
 3506 0ee8 C8F81420 		str	r2, [r8, #20]
 3507              	.L235:
 3508              	.LBE294:
 3509              	.LBE296:
 3510              		.loc 1 861 0
 3511 0eec 2378     		ldrb	r3, [r4]	@ zero_extendqisi2
 3512 0eee 013B     		subs	r3, r3, #1
 3513 0ef0 DBB2     		uxtb	r3, r3
ARM GAS  /var/folders/28/j9jfyj_n4wz3qtvnym210h2c0000gn/T//ccpoR13X.s 			page 63


 3514              		.loc 1 859 0
 3515 0ef2 5AB2     		sxtb	r2, r3
 3516 0ef4 002A     		cmp	r2, #0
 3517              		.loc 1 861 0
 3518 0ef6 2370     		strb	r3, [r4]
 3519              		.loc 1 859 0
 3520 0ef8 40F3B280 		ble	.L234
 3521 0efc 98F80010 		ldrb	r1, [r8]	@ zero_extendqisi2
 3522 0f00 F1E6     		b	.L243
 3523              	.L236:
 3524              	.LBB297:
 3525              	.LBB295:
 3526              		.loc 1 104 0
 3527 0f02 D8F80C20 		ldr	r2, [r8, #12]
 3528 0f06 D8F81410 		ldr	r1, [r8, #20]
 3529 0f0a 1368     		ldr	r3, [r2]
 3530 0f0c 8B42     		cmp	r3, r1
 3531 0f0e EDDA     		bge	.L235
 3532              		.loc 1 105 0
 3533 0f10 0133     		adds	r3, r3, #1
 3534 0f12 1360     		str	r3, [r2]
 3535 0f14 EAE7     		b	.L235
 3536              	.L241:
 3537              		.loc 1 116 0
 3538 0f16 D8F80C20 		ldr	r2, [r8, #12]
 3539 0f1a D8F81410 		ldr	r1, [r8, #20]
 3540 0f1e 1378     		ldrb	r3, [r2]	@ zero_extendqisi2
 3541 0f20 8B42     		cmp	r3, r1
 3542 0f22 E3DA     		bge	.L235
 3543              		.loc 1 117 0
 3544 0f24 0133     		adds	r3, r3, #1
 3545 0f26 1370     		strb	r3, [r2]
 3546 0f28 E0E7     		b	.L235
 3547              	.L240:
 3548              	.LVL241:
 3549              	.LBB291:
 3550              	.LBB292:
 3551              	.LBB293:
 3552              		.loc 1 120 0
 3553 0f2a D8F80C00 		ldr	r0, [r8, #12]
 3554              		.loc 1 121 0
 3555 0f2e D8F81410 		ldr	r1, [r8, #20]
 3556              		.loc 1 120 0
 3557 0f32 0368     		ldr	r3, [r0]
 3558 0f34 03F58013 		add	r3, r3, #1048576
 3559              	.LVL242:
 3560              		.loc 1 121 0
 3561 0f38 8B42     		cmp	r3, r1
 3562              		.loc 1 122 0
 3563 0f3a B8BF     		it	lt
 3564 0f3c 1946     		movlt	r1, r3
 3565              		.loc 1 125 0
 3566 0f3e 6FF01802 		mvn	r2, #24
 3567 0f42 FFF7FEFF 		bl	PExParameterChange
 3568              	.LVL243:
 3569 0f46 D1E7     		b	.L235
 3570              	.LVL244:
ARM GAS  /var/folders/28/j9jfyj_n4wz3qtvnym210h2c0000gn/T//ccpoR13X.s 			page 64


 3571              	.L274:
 3572              	.LBE293:
 3573              	.LBE292:
 3574              	.LBE291:
 3575              	.LBE295:
 3576              	.LBE297:
 3577              	.LBE368:
 3578              	.LBE383:
 3579              	.LBE457:
 3580              	.LBB458:
 3581              	.LBB441:
 3582              	.LBB417:
 3583              		.loc 1 907 0
 3584 0f48 B9F1000F 		cmp	r9, #0
 3585 0f4c 40F01A81 		bne	.L282
 3586              	.LVL245:
 3587              	.LBB393:
 3588              		.loc 1 909 0
 3589 0f50 0520     		movs	r0, #5
 3590 0f52 0121     		movs	r1, #1
 3591 0f54 5246     		mov	r2, r10
 3592 0f56 FFF7FEFF 		bl	KVP_DisplayInv
 3593              	.LVL246:
 3594 0f5a 0227     		movs	r7, #2
 3595 0f5c 0126     		movs	r6, #1
 3596              	.LVL247:
 3597              	.L285:
 3598              		.loc 1 915 0
 3599 0f5e 06EB4602 		add	r2, r6, r6, lsl #1
 3600              		.loc 1 914 0
 3601 0f62 B442     		cmp	r4, r6
 3602              		.loc 1 915 0
 3603 0f64 06F10108 		add	r8, r6, #1
 3604              	.LVL248:
 3605 0f68 4FF00500 		mov	r0, #5
 3606 0f6c 3946     		mov	r1, r7
 3607 0f6e 0AEBC202 		add	r2, r10, r2, lsl #3
 3608              		.loc 1 917 0
 3609 0f72 4FF08003 		mov	r3, #128
 3610              		.loc 1 914 0
 3611 0f76 40F3F480 		ble	.L283
 3612              		.loc 1 915 0
 3613 0f7a FFF7FEFF 		bl	KVP_Display
 3614              	.LVL249:
 3615 0f7e 4646     		mov	r6, r8
 3616              	.L284:
 3617              	.LVL250:
 3618              		.loc 1 913 0
 3619 0f80 0137     		adds	r7, r7, #1
 3620              	.LVL251:
 3621 0f82 072F     		cmp	r7, #7
 3622 0f84 EBD1     		bne	.L285
 3623 0f86 64E6     		b	.L286
 3624              	.LVL252:
 3625              	.L512:
 3626              	.LBE393:
 3627              	.LBE417:
ARM GAS  /var/folders/28/j9jfyj_n4wz3qtvnym210h2c0000gn/T//ccpoR13X.s 			page 65


 3628              	.LBE441:
 3629              	.LBE458:
 3630              	.LBB459:
 3631              	.LBB384:
 3632              	.LBB369:
 3633              		.loc 1 858 0
 3634 0f88 0B29     		cmp	r1, #11
 3635 0f8a 7FF41CAE 		bne	.L233
 3636 0f8e A4E6     		b	.L232
 3637              	.L530:
 3638              		.align	2
 3639              	.L529:
 3640 0f90 00000000 		.word	EncBuffer
 3641 0f94 00000000 		.word	Btn_Nav_PrevStates
 3642 0f98 CC000000 		.word	.LC24
 3643 0f9c 38000000 		.word	.LC8
 3644 0fa0 D0000000 		.word	.LC25
 3645 0fa4 E4000000 		.word	.LC27
 3646              	.LVL253:
 3647              	.L259:
 3648              	.LBE369:
 3649              	.LBB370:
 3650              	.LBB336:
 3651              	.LBB334:
 3652              		.loc 1 112 0
 3653 0fa8 D8F81030 		ldr	r3, [r8, #16]
 3654 0fac D8F81420 		ldr	r2, [r8, #20]
 3655 0fb0 013B     		subs	r3, r3, #1
 3656 0fb2 9A42     		cmp	r2, r3
 3657 0fb4 02DA     		bge	.L255
 3658              		.loc 1 113 0
 3659 0fb6 0132     		adds	r2, r2, #1
 3660 0fb8 C8F81420 		str	r2, [r8, #20]
 3661              	.L255:
 3662              	.LBE334:
 3663              	.LBE336:
 3664              		.loc 1 875 0
 3665 0fbc 2378     		ldrb	r3, [r4]	@ zero_extendqisi2
 3666 0fbe 013B     		subs	r3, r3, #1
 3667 0fc0 DBB2     		uxtb	r3, r3
 3668              		.loc 1 873 0
 3669 0fc2 5AB2     		sxtb	r2, r3
 3670 0fc4 002A     		cmp	r2, #0
 3671              		.loc 1 875 0
 3672 0fc6 2370     		strb	r3, [r4]
 3673              		.loc 1 873 0
 3674 0fc8 40F38A80 		ble	.L254
 3675 0fcc 98F80010 		ldrb	r1, [r8]	@ zero_extendqisi2
 3676 0fd0 F0E6     		b	.L263
 3677              	.L261:
 3678              	.LBB337:
 3679              	.LBB335:
 3680              		.loc 1 116 0
 3681 0fd2 D8F80C20 		ldr	r2, [r8, #12]
 3682 0fd6 D8F81410 		ldr	r1, [r8, #20]
 3683 0fda 1378     		ldrb	r3, [r2]	@ zero_extendqisi2
 3684 0fdc 8B42     		cmp	r3, r1
ARM GAS  /var/folders/28/j9jfyj_n4wz3qtvnym210h2c0000gn/T//ccpoR13X.s 			page 66


 3685 0fde EDDA     		bge	.L255
 3686              		.loc 1 117 0
 3687 0fe0 0133     		adds	r3, r3, #1
 3688 0fe2 1370     		strb	r3, [r2]
 3689 0fe4 EAE7     		b	.L255
 3690              	.L256:
 3691              		.loc 1 104 0
 3692 0fe6 D8F80C20 		ldr	r2, [r8, #12]
 3693 0fea D8F81410 		ldr	r1, [r8, #20]
 3694 0fee 1368     		ldr	r3, [r2]
 3695 0ff0 8B42     		cmp	r3, r1
 3696 0ff2 E3DA     		bge	.L255
 3697              		.loc 1 105 0
 3698 0ff4 0133     		adds	r3, r3, #1
 3699 0ff6 1360     		str	r3, [r2]
 3700 0ff8 E0E7     		b	.L255
 3701              	.L260:
 3702              	.LVL254:
 3703              	.LBB331:
 3704              	.LBB332:
 3705              	.LBB333:
 3706              		.loc 1 120 0
 3707 0ffa D8F80C00 		ldr	r0, [r8, #12]
 3708              		.loc 1 121 0
 3709 0ffe D8F81410 		ldr	r1, [r8, #20]
 3710              		.loc 1 120 0
 3711 1002 0368     		ldr	r3, [r0]
 3712 1004 03F58013 		add	r3, r3, #1048576
 3713              	.LVL255:
 3714              		.loc 1 121 0
 3715 1008 8B42     		cmp	r3, r1
 3716              		.loc 1 122 0
 3717 100a B8BF     		it	lt
 3718 100c 1946     		movlt	r1, r3
 3719              		.loc 1 125 0
 3720 100e 6FF01802 		mvn	r2, #24
 3721 1012 FFF7FEFF 		bl	PExParameterChange
 3722              	.LVL256:
 3723 1016 D1E7     		b	.L255
 3724              	.LVL257:
 3725              	.L517:
 3726              	.LBE333:
 3727              	.LBE332:
 3728              	.LBE331:
 3729              	.LBE335:
 3730              	.LBE337:
 3731              		.loc 1 872 0
 3732 1018 0B29     		cmp	r1, #11
 3733 101a 7FF4D4AD 		bne	.L233
 3734 101e C3E6     		b	.L253
 3735              	.LVL258:
 3736              	.L306:
 3737              	.LBE370:
 3738              	.LBE384:
 3739              	.LBE459:
 3740              	.LBB460:
 3741              	.LBB442:
ARM GAS  /var/folders/28/j9jfyj_n4wz3qtvnym210h2c0000gn/T//ccpoR13X.s 			page 67


 3742              	.LBB418:
 3743              		.loc 1 992 0
 3744 1020 B8F1000F 		cmp	r8, #0
 3745 1024 40F0DF80 		bne	.L314
 3746              	.LVL259:
 3747              	.LBB403:
 3748              		.loc 1 994 0
 3749 1028 3046     		mov	r0, r6
 3750 102a 0121     		movs	r1, #1
 3751 102c 3A68     		ldr	r2, [r7]
 3752 102e FFF7FEFF 		bl	KVP_DisplayInv
 3753              	.LVL260:
 3754 1032 0226     		movs	r6, #2
 3755 1034 4FF00108 		mov	r8, #1
 3756              	.LVL261:
 3757              	.L317:
 3758              		.loc 1 999 0
 3759 1038 4445     		cmp	r4, r8
 3760              		.loc 1 1000 0
 3761 103a 08F10109 		add	r9, r8, #1
 3762              	.LVL262:
 3763 103e 4FF00500 		mov	r0, #5
 3764 1042 3146     		mov	r1, r6
 3765              		.loc 1 1002 0
 3766 1044 B14A     		ldr	r2, .L531
 3767 1046 4FF08003 		mov	r3, #128
 3768              		.loc 1 999 0
 3769 104a 40F39080 		ble	.L315
 3770              		.loc 1 1000 0
 3771 104e 57F82820 		ldr	r2, [r7, r8, lsl #2]
 3772 1052 FFF7FEFF 		bl	KVP_Display
 3773              	.LVL263:
 3774 1056 C846     		mov	r8, r9
 3775              	.L316:
 3776              	.LVL264:
 3777              		.loc 1 998 0
 3778 1058 0136     		adds	r6, r6, #1
 3779              	.LVL265:
 3780 105a 072E     		cmp	r6, #7
 3781 105c ECD1     		bne	.L317
 3782 105e E2E6     		b	.L318
 3783              	.LVL266:
 3784              	.L234:
 3785              	.LBE403:
 3786              	.LBE418:
 3787              	.LBE442:
 3788              	.LBE460:
 3789              	.LBB461:
 3790              	.LBB385:
 3791              	.LBB371:
 3792              		.loc 1 863 0
 3793 1060 CBB1     		cbz	r3, .L479
 3794              	.L412:
 3795              	.LVL267:
 3796              	.LBB298:
 3797              	.LBB299:
 3798              		.loc 1 135 0
ARM GAS  /var/folders/28/j9jfyj_n4wz3qtvnym210h2c0000gn/T//ccpoR13X.s 			page 68


 3799 1062 98F80030 		ldrb	r3, [r8]	@ zero_extendqisi2
 3800 1066 0C2B     		cmp	r3, #12
 3801 1068 0FD8     		bhi	.L245
 3802 106a DFE803F0 		tbb	[pc, r3]
 3803              	.L247:
 3804 106e 16       		.byte	(.L246-.L247)/2
 3805 106f 0E       		.byte	(.L245-.L247)/2
 3806 1070 0E       		.byte	(.L245-.L247)/2
 3807 1071 07       		.byte	(.L249-.L247)/2
 3808 1072 0E       		.byte	(.L245-.L247)/2
 3809 1073 07       		.byte	(.L249-.L247)/2
 3810 1074 0E       		.byte	(.L245-.L247)/2
 3811 1075 0E       		.byte	(.L245-.L247)/2
 3812 1076 0E       		.byte	(.L245-.L247)/2
 3813 1077 0E       		.byte	(.L245-.L247)/2
 3814 1078 0E       		.byte	(.L245-.L247)/2
 3815 1079 2A       		.byte	(.L250-.L247)/2
 3816 107a 20       		.byte	(.L251-.L247)/2
 3817 107b 00       		.p2align 1
 3818              	.L249:
 3819              		.loc 1 145 0
 3820 107c D8F81430 		ldr	r3, [r8, #20]
 3821 1080 002B     		cmp	r3, #0
 3822 1082 02DD     		ble	.L245
 3823              		.loc 1 146 0
 3824 1084 013B     		subs	r3, r3, #1
 3825 1086 C8F81430 		str	r3, [r8, #20]
 3826              	.L245:
 3827              	.LBE299:
 3828              	.LBE298:
 3829              		.loc 1 865 0
 3830 108a 2378     		ldrb	r3, [r4]	@ zero_extendqisi2
 3831 108c 0133     		adds	r3, r3, #1
 3832 108e DBB2     		uxtb	r3, r3
 3833              		.loc 1 863 0
 3834 1090 1A06     		lsls	r2, r3, #24
 3835              		.loc 1 865 0
 3836 1092 2370     		strb	r3, [r4]
 3837              		.loc 1 863 0
 3838 1094 E5D4     		bmi	.L412
 3839              	.LVL268:
 3840              	.L479:
 3841 1096 2A68     		ldr	r2, [r5]
 3842 1098 95E5     		b	.L233
 3843              	.LVL269:
 3844              	.L246:
 3845              	.LBB304:
 3846              	.LBB303:
 3847              		.loc 1 137 0
 3848 109a D8F80C20 		ldr	r2, [r8, #12]
 3849 109e D8F81010 		ldr	r1, [r8, #16]
 3850 10a2 1368     		ldr	r3, [r2]
 3851 10a4 8B42     		cmp	r3, r1
 3852 10a6 F0DD     		ble	.L245
 3853              		.loc 1 138 0
 3854 10a8 013B     		subs	r3, r3, #1
 3855 10aa 1360     		str	r3, [r2]
ARM GAS  /var/folders/28/j9jfyj_n4wz3qtvnym210h2c0000gn/T//ccpoR13X.s 			page 69


 3856 10ac EDE7     		b	.L245
 3857              	.L251:
 3858              		.loc 1 149 0
 3859 10ae D8F80C20 		ldr	r2, [r8, #12]
 3860 10b2 D8F81010 		ldr	r1, [r8, #16]
 3861 10b6 1378     		ldrb	r3, [r2]	@ zero_extendqisi2
 3862 10b8 8B42     		cmp	r3, r1
 3863 10ba E6DD     		ble	.L245
 3864              		.loc 1 150 0
 3865 10bc 013B     		subs	r3, r3, #1
 3866 10be 1370     		strb	r3, [r2]
 3867 10c0 E3E7     		b	.L245
 3868              	.L250:
 3869              	.LVL270:
 3870              	.LBB300:
 3871              	.LBB301:
 3872              	.LBB302:
 3873              		.loc 1 153 0
 3874 10c2 D8F80C00 		ldr	r0, [r8, #12]
 3875              		.loc 1 154 0
 3876 10c6 D8F81010 		ldr	r1, [r8, #16]
 3877              		.loc 1 153 0
 3878 10ca 0368     		ldr	r3, [r0]
 3879 10cc A3F58013 		sub	r3, r3, #1048576
 3880              	.LVL271:
 3881              		.loc 1 154 0
 3882 10d0 8B42     		cmp	r3, r1
 3883              		.loc 1 155 0
 3884 10d2 C8BF     		it	gt
 3885 10d4 1946     		movgt	r1, r3
 3886              		.loc 1 158 0
 3887 10d6 6FF01802 		mvn	r2, #24
 3888 10da FFF7FEFF 		bl	PExParameterChange
 3889              	.LVL272:
 3890 10de D4E7     		b	.L245
 3891              	.LVL273:
 3892              	.L254:
 3893              	.LBE302:
 3894              	.LBE301:
 3895              	.LBE300:
 3896              	.LBE303:
 3897              	.LBE304:
 3898              	.LBE371:
 3899              	.LBB372:
 3900              		.loc 1 877 0
 3901 10e0 002B     		cmp	r3, #0
 3902 10e2 D8D0     		beq	.L479
 3903              	.L413:
 3904              	.LVL274:
 3905              	.LBB338:
 3906              	.LBB339:
 3907              		.loc 1 135 0
 3908 10e4 98F80030 		ldrb	r3, [r8]	@ zero_extendqisi2
 3909 10e8 0C2B     		cmp	r3, #12
 3910 10ea 0FD8     		bhi	.L265
 3911 10ec DFE803F0 		tbb	[pc, r3]
 3912              	.L267:
ARM GAS  /var/folders/28/j9jfyj_n4wz3qtvnym210h2c0000gn/T//ccpoR13X.s 			page 70


 3913 10f0 20       		.byte	(.L266-.L267)/2
 3914 10f1 0E       		.byte	(.L265-.L267)/2
 3915 10f2 0E       		.byte	(.L265-.L267)/2
 3916 10f3 07       		.byte	(.L269-.L267)/2
 3917 10f4 0E       		.byte	(.L265-.L267)/2
 3918 10f5 07       		.byte	(.L269-.L267)/2
 3919 10f6 0E       		.byte	(.L265-.L267)/2
 3920 10f7 0E       		.byte	(.L265-.L267)/2
 3921 10f8 0E       		.byte	(.L265-.L267)/2
 3922 10f9 0E       		.byte	(.L265-.L267)/2
 3923 10fa 0E       		.byte	(.L265-.L267)/2
 3924 10fb 2A       		.byte	(.L270-.L267)/2
 3925 10fc 16       		.byte	(.L271-.L267)/2
 3926 10fd 00       		.p2align 1
 3927              	.L269:
 3928              		.loc 1 145 0
 3929 10fe D8F81430 		ldr	r3, [r8, #20]
 3930 1102 002B     		cmp	r3, #0
 3931 1104 02DD     		ble	.L265
 3932              		.loc 1 146 0
 3933 1106 013B     		subs	r3, r3, #1
 3934 1108 C8F81430 		str	r3, [r8, #20]
 3935              	.L265:
 3936              	.LBE339:
 3937              	.LBE338:
 3938              		.loc 1 879 0
 3939 110c 2378     		ldrb	r3, [r4]	@ zero_extendqisi2
 3940 110e 0133     		adds	r3, r3, #1
 3941 1110 DBB2     		uxtb	r3, r3
 3942 1112 2370     		strb	r3, [r4]
 3943              		.loc 1 877 0
 3944 1114 1B06     		lsls	r3, r3, #24
 3945 1116 E5D4     		bmi	.L413
 3946 1118 2A68     		ldr	r2, [r5]
 3947 111a 54E5     		b	.L233
 3948              	.L271:
 3949              	.LBB344:
 3950              	.LBB343:
 3951              		.loc 1 149 0
 3952 111c D8F80C20 		ldr	r2, [r8, #12]
 3953 1120 D8F81010 		ldr	r1, [r8, #16]
 3954 1124 1378     		ldrb	r3, [r2]	@ zero_extendqisi2
 3955 1126 8B42     		cmp	r3, r1
 3956 1128 F0DD     		ble	.L265
 3957              		.loc 1 150 0
 3958 112a 013B     		subs	r3, r3, #1
 3959 112c 1370     		strb	r3, [r2]
 3960 112e EDE7     		b	.L265
 3961              	.L266:
 3962              		.loc 1 137 0
 3963 1130 D8F80C20 		ldr	r2, [r8, #12]
 3964 1134 D8F81010 		ldr	r1, [r8, #16]
 3965 1138 1368     		ldr	r3, [r2]
 3966 113a 8B42     		cmp	r3, r1
 3967 113c E6DD     		ble	.L265
 3968              		.loc 1 138 0
 3969 113e 013B     		subs	r3, r3, #1
ARM GAS  /var/folders/28/j9jfyj_n4wz3qtvnym210h2c0000gn/T//ccpoR13X.s 			page 71


 3970 1140 1360     		str	r3, [r2]
 3971 1142 E3E7     		b	.L265
 3972              	.L270:
 3973              	.LVL275:
 3974              	.LBB340:
 3975              	.LBB341:
 3976              	.LBB342:
 3977              		.loc 1 153 0
 3978 1144 D8F80C00 		ldr	r0, [r8, #12]
 3979              		.loc 1 154 0
 3980 1148 D8F81010 		ldr	r1, [r8, #16]
 3981              		.loc 1 153 0
 3982 114c 0368     		ldr	r3, [r0]
 3983 114e A3F58013 		sub	r3, r3, #1048576
 3984              	.LVL276:
 3985              		.loc 1 154 0
 3986 1152 8B42     		cmp	r3, r1
 3987              		.loc 1 155 0
 3988 1154 C8BF     		it	gt
 3989 1156 1946     		movgt	r1, r3
 3990              		.loc 1 158 0
 3991 1158 6FF01802 		mvn	r2, #24
 3992 115c FFF7FEFF 		bl	PExParameterChange
 3993              	.LVL277:
 3994 1160 D4E7     		b	.L265
 3995              	.LVL278:
 3996              	.L283:
 3997              	.LBE342:
 3998              	.LBE341:
 3999              	.LBE340:
 4000              	.LBE343:
 4001              	.LBE344:
 4002              	.LBE372:
 4003              	.LBE385:
 4004              	.LBE461:
 4005              	.LBB462:
 4006              	.LBB443:
 4007              	.LBB419:
 4008              	.LBB394:
 4009              		.loc 1 917 0
 4010 1162 0520     		movs	r0, #5
 4011 1164 3946     		mov	r1, r7
 4012              	.LVL279:
 4013 1166 694A     		ldr	r2, .L531
 4014 1168 FFF7FEFF 		bl	LCD_drawStringN
 4015              	.LVL280:
 4016 116c 08E7     		b	.L284
 4017              	.LVL281:
 4018              	.L315:
 4019              	.LBE394:
 4020              	.LBE419:
 4021              	.LBB420:
 4022              	.LBB404:
 4023              		.loc 1 1002 0
 4024 116e 0520     		movs	r0, #5
 4025 1170 3146     		mov	r1, r6
 4026              	.LVL282:
ARM GAS  /var/folders/28/j9jfyj_n4wz3qtvnym210h2c0000gn/T//ccpoR13X.s 			page 72


 4027 1172 FFF7FEFF 		bl	LCD_drawStringN
 4028              	.LVL283:
 4029 1176 6FE7     		b	.L316
 4030              	.LVL284:
 4031              	.L509:
 4032              	.LBE404:
 4033              	.LBE420:
 4034              		.loc 1 1062 0
 4035 1178 DA68     		ldr	r2, [r3, #12]
 4036 117a 5869     		ldr	r0, [r3, #20]
 4037              	.LBE443:
 4038              	.LBE462:
 4039              		.loc 1 401 0
 4040 117c 01B0     		add	sp, sp, #4
 4041              		.cfi_remember_state
 4042              		.cfi_def_cfa_offset 36
 4043              		@ sp needed
 4044 117e BDE8F04F 		pop	{r4, r5, r6, r7, r8, r9, r10, fp, lr}
 4045              		.cfi_restore 14
 4046              		.cfi_restore 11
 4047              		.cfi_restore 10
 4048              		.cfi_restore 9
 4049              		.cfi_restore 8
 4050              		.cfi_restore 7
 4051              		.cfi_restore 6
 4052              		.cfi_restore 5
 4053              		.cfi_restore 4
 4054              		.cfi_def_cfa_offset 0
 4055              	.LBB463:
 4056              	.LBB444:
 4057              		.loc 1 1062 0
 4058 1182 1047     		bx	r2	@ indirect register sibling call
 4059              	.LVL285:
 4060              	.L282:
 4061              		.cfi_restore_state
 4062              	.LBB421:
 4063              		.loc 1 920 0
 4064 1184 B9F1010F 		cmp	r9, #1
 4065 1188 00F03582 		beq	.L524
 4066              	.LVL286:
 4067              	.LBB395:
 4068              		.loc 1 940 0
 4069 118c A9F10207 		sub	r7, r9, #2
 4070              	.LVL287:
 4071              		.loc 1 941 0
 4072 1190 BC42     		cmp	r4, r7
 4073 1192 00F30F81 		bgt	.L525
 4074              		.loc 1 944 0
 4075 1196 0520     		movs	r0, #5
 4076 1198 0121     		movs	r1, #1
 4077 119a 5C4A     		ldr	r2, .L531
 4078 119c 8023     		movs	r3, #128
 4079 119e FFF7FEFF 		bl	LCD_drawStringN
 4080              	.LVL288:
 4081              	.L293:
 4082              		.loc 1 948 0
 4083 11a2 0520     		movs	r0, #5
ARM GAS  /var/folders/28/j9jfyj_n4wz3qtvnym210h2c0000gn/T//ccpoR13X.s 			page 73


 4084 11a4 0221     		movs	r1, #2
 4085 11a6 594A     		ldr	r2, .L531
 4086 11a8 8023     		movs	r3, #128
 4087 11aa FFF7FEFF 		bl	LCD_drawStringN
 4088              	.LVL289:
 4089              	.L295:
 4090              		.loc 1 952 0
 4091 11ae 0520     		movs	r0, #5
 4092 11b0 0321     		movs	r1, #3
 4093 11b2 564A     		ldr	r2, .L531
 4094 11b4 8023     		movs	r3, #128
 4095 11b6 FFF7FEFF 		bl	LCD_drawStringN
 4096              	.LVL290:
 4097              	.L297:
 4098              		.loc 1 949 0
 4099 11ba 0326     		movs	r6, #3
 4100              	.LVL291:
 4101              	.L296:
 4102              		.loc 1 956 0
 4103 11bc 07EB4702 		add	r2, r7, r7, lsl #1
 4104              		.loc 1 955 0
 4105 11c0 BC42     		cmp	r4, r7
 4106              		.loc 1 956 0
 4107 11c2 07F10108 		add	r8, r7, #1
 4108              	.LVL292:
 4109 11c6 4FF00500 		mov	r0, #5
 4110 11ca 3146     		mov	r1, r6
 4111 11cc 0AEBC202 		add	r2, r10, r2, lsl #3
 4112              		.loc 1 958 0
 4113 11d0 4FF08003 		mov	r3, #128
 4114              		.loc 1 955 0
 4115 11d4 40F3F481 		ble	.L298
 4116              		.loc 1 956 0
 4117 11d8 FFF7FEFF 		bl	KVP_Display
 4118              	.LVL293:
 4119 11dc 4746     		mov	r7, r8
 4120              	.L299:
 4121              	.LVL294:
 4122              		.loc 1 954 0
 4123 11de 0136     		adds	r6, r6, #1
 4124              	.LVL295:
 4125 11e0 072E     		cmp	r6, #7
 4126 11e2 EBD1     		bne	.L296
 4127 11e4 35E5     		b	.L286
 4128              	.LVL296:
 4129              	.L314:
 4130              	.LBE395:
 4131              	.LBE421:
 4132              	.LBB422:
 4133              		.loc 1 1005 0
 4134 11e6 B8F1010F 		cmp	r8, #1
 4135 11ea 00F02481 		beq	.L526
 4136              	.LVL297:
 4137              	.LBB405:
 4138              		.loc 1 1025 0
 4139 11ee A8F10209 		sub	r9, r8, #2
 4140              	.LVL298:
ARM GAS  /var/folders/28/j9jfyj_n4wz3qtvnym210h2c0000gn/T//ccpoR13X.s 			page 74


 4141              		.loc 1 1026 0
 4142 11f2 4C45     		cmp	r4, r9
 4143 11f4 40F32682 		ble	.L323
 4144              		.loc 1 1027 0
 4145 11f8 08F1FF3A 		add	r10, r8, #-1
 4146              	.LVL299:
 4147 11fc 57F82920 		ldr	r2, [r7, r9, lsl #2]
 4148 1200 3046     		mov	r0, r6
 4149 1202 0121     		movs	r1, #1
 4150 1204 FFF7FEFF 		bl	KVP_Display
 4151              	.LVL300:
 4152              		.loc 1 1030 0
 4153 1208 5445     		cmp	r4, r10
 4154              		.loc 1 1027 0
 4155 120a 4FEA8909 		lsl	r9, r9, #2
 4156              		.loc 1 1030 0
 4157 120e D8BF     		it	le
 4158 1210 D146     		movle	r9, r10
 4159 1212 40F31D82 		ble	.L325
 4160              	.LVL301:
 4161              		.loc 1 1031 0
 4162 1216 B944     		add	r9, r9, r7
 4163 1218 3046     		mov	r0, r6
 4164 121a D9F80420 		ldr	r2, [r9, #4]
 4165 121e 0221     		movs	r1, #2
 4166 1220 FFF7FEFF 		bl	KVP_Display
 4167              	.LVL302:
 4168              		.loc 1 1034 0
 4169 1224 A045     		cmp	r8, r4
 4170 1226 A8BF     		it	ge
 4171 1228 C146     		movge	r9, r8
 4172 122a 80F21782 		bge	.L327
 4173              		.loc 1 1035 0
 4174 122e D9F80820 		ldr	r2, [r9, #8]
 4175 1232 3046     		mov	r0, r6
 4176 1234 0321     		movs	r1, #3
 4177 1236 08F10109 		add	r9, r8, #1
 4178              	.LVL303:
 4179 123a FFF7FEFF 		bl	KVP_DisplayInv
 4180              	.LVL304:
 4181              	.L329:
 4182              		.loc 1 1034 0
 4183 123e 0426     		movs	r6, #4
 4184              	.LVL305:
 4185              	.L328:
 4186              		.loc 1 1040 0
 4187 1240 A145     		cmp	r9, r4
 4188              		.loc 1 1041 0
 4189 1242 09F10108 		add	r8, r9, #1
 4190              	.LVL306:
 4191 1246 4FF00500 		mov	r0, #5
 4192 124a 3146     		mov	r1, r6
 4193              		.loc 1 1043 0
 4194 124c 2F4A     		ldr	r2, .L531
 4195 124e 4FF08003 		mov	r3, #128
 4196              		.loc 1 1040 0
 4197 1252 80F2BB81 		bge	.L330
ARM GAS  /var/folders/28/j9jfyj_n4wz3qtvnym210h2c0000gn/T//ccpoR13X.s 			page 75


 4198              		.loc 1 1041 0
 4199 1256 57F82920 		ldr	r2, [r7, r9, lsl #2]
 4200 125a FFF7FEFF 		bl	KVP_Display
 4201              	.LVL307:
 4202 125e C146     		mov	r9, r8
 4203              	.L331:
 4204              	.LVL308:
 4205              		.loc 1 1039 0
 4206 1260 0136     		adds	r6, r6, #1
 4207              	.LVL309:
 4208 1262 072E     		cmp	r6, #7
 4209 1264 ECD1     		bne	.L328
 4210 1266 DEE5     		b	.L318
 4211              	.LVL310:
 4212              	.L516:
 4213              	.LBE405:
 4214              	.LBE422:
 4215              	.LBE444:
 4216              	.LBE463:
 4217              	.LBB464:
 4218              	.LBB386:
 4219              	.LBB373:
 4220              	.LBB306:
 4221              	.LBB307:
 4222              		.loc 1 102 0
 4223 1268 18F80420 		ldrb	r2, [r8, r4]	@ zero_extendqisi2
 4224 126c 0C2A     		cmp	r2, #12
 4225 126e 3FF66EAD 		bhi	.L173
 4226 1272 01A1     		adr	r1, .L175
 4227 1274 51F822F0 		ldr	pc, [r1, r2, lsl #2]
 4228              		.p2align 2
 4229              	.L175:
 4230 1278 D1140000 		.word	.L174+1
 4231 127c 4F0D0000 		.word	.L173+1
 4232 1280 4F0D0000 		.word	.L173+1
 4233 1284 11140000 		.word	.L177+1
 4234 1288 4F0D0000 		.word	.L173+1
 4235 128c 11140000 		.word	.L177+1
 4236 1290 4F0D0000 		.word	.L173+1
 4237 1294 4F0D0000 		.word	.L173+1
 4238 1298 4F0D0000 		.word	.L173+1
 4239 129c 4F0D0000 		.word	.L173+1
 4240 12a0 4F0D0000 		.word	.L173+1
 4241 12a4 99140000 		.word	.L178+1
 4242 12a8 B9140000 		.word	.L179+1
 4243              	.LVL311:
 4244              		.p2align 1
 4245              	.L515:
 4246              	.LBE307:
 4247              	.LBE306:
 4248              	.LBB313:
 4249              	.LBB314:
 4250              		.loc 1 135 0
 4251 12ac 18F80420 		ldrb	r2, [r8, r4]	@ zero_extendqisi2
 4252 12b0 0C2A     		cmp	r2, #12
 4253 12b2 3FF646AD 		bhi	.L165
 4254 12b6 01A1     		adr	r1, .L167
ARM GAS  /var/folders/28/j9jfyj_n4wz3qtvnym210h2c0000gn/T//ccpoR13X.s 			page 76


 4255 12b8 51F822F0 		ldr	pc, [r1, r2, lsl #2]
 4256              		.p2align 2
 4257              	.L167:
 4258 12bc 21150000 		.word	.L166+1
 4259 12c0 430D0000 		.word	.L165+1
 4260 12c4 430D0000 		.word	.L165+1
 4261 12c8 FF130000 		.word	.L169+1
 4262 12cc 430D0000 		.word	.L165+1
 4263 12d0 FF130000 		.word	.L169+1
 4264 12d4 430D0000 		.word	.L165+1
 4265 12d8 430D0000 		.word	.L165+1
 4266 12dc 430D0000 		.word	.L165+1
 4267 12e0 430D0000 		.word	.L165+1
 4268 12e4 430D0000 		.word	.L165+1
 4269 12e8 E9140000 		.word	.L170+1
 4270 12ec 09150000 		.word	.L171+1
 4271              	.LVL312:
 4272              		.p2align 1
 4273              	.L514:
 4274              	.LBE314:
 4275              	.LBE313:
 4276              	.LBB320:
 4277              	.LBB321:
 4278              		.loc 1 141 0
 4279 12f0 5169     		ldr	r1, [r2, #20]
 4280 12f2 0029     		cmp	r1, #0
 4281              		.loc 1 142 0
 4282 12f4 C4BF     		itt	gt
 4283 12f6 01F1FF31 		addgt	r1, r1, #-1
 4284 12fa 5161     		strgt	r1, [r2, #20]
 4285 12fc 1BE5     		b	.L164
 4286              	.LVL313:
 4287              	.L513:
 4288              	.LBE321:
 4289              	.LBE320:
 4290              	.LBB322:
 4291              	.LBB323:
 4292              		.loc 1 108 0
 4293 12fe 1069     		ldr	r0, [r2, #16]
 4294 1300 0138     		subs	r0, r0, #1
 4295 1302 8142     		cmp	r1, r0
 4296              		.loc 1 109 0
 4297 1304 BCBF     		itt	lt
 4298 1306 0131     		addlt	r1, r1, #1
 4299 1308 5161     		strlt	r1, [r2, #20]
 4300 130a 0EE5     		b	.L163
 4301              	.L532:
 4302              		.align	2
 4303              	.L531:
 4304 130c CC000000 		.word	.LC24
 4305              	.LVL314:
 4306              	.L522:
 4307              	.LBE323:
 4308              	.LBE322:
 4309              	.LBE373:
 4310              	.LBB374:
 4311              	.LBB346:
ARM GAS  /var/folders/28/j9jfyj_n4wz3qtvnym210h2c0000gn/T//ccpoR13X.s 			page 77


 4312              	.LBB347:
 4313              		.loc 1 135 0
 4314 1310 2278     		ldrb	r2, [r4]	@ zero_extendqisi2
 4315 1312 0C2A     		cmp	r2, #12
 4316 1314 3FF6BEAD 		bhi	.L192
 4317 1318 01A1     		adr	r1, .L194
 4318 131a 51F822F0 		ldr	pc, [r1, r2, lsl #2]
 4319 131e 00BF     		.p2align 2
 4320              	.L194:
 4321 1320 91150000 		.word	.L193+1
 4322 1324 950E0000 		.word	.L192+1
 4323 1328 950E0000 		.word	.L192+1
 4324 132c 79140000 		.word	.L196+1
 4325 1330 950E0000 		.word	.L192+1
 4326 1334 79140000 		.word	.L196+1
 4327 1338 950E0000 		.word	.L192+1
 4328 133c 950E0000 		.word	.L192+1
 4329 1340 950E0000 		.word	.L192+1
 4330 1344 950E0000 		.word	.L192+1
 4331 1348 950E0000 		.word	.L192+1
 4332 134c A5150000 		.word	.L197+1
 4333 1350 7D150000 		.word	.L198+1
 4334              	.LVL315:
 4335              		.p2align 1
 4336              	.L523:
 4337              	.LBE347:
 4338              	.LBE346:
 4339              	.LBB353:
 4340              	.LBB354:
 4341              		.loc 1 102 0
 4342 1354 2278     		ldrb	r2, [r4]	@ zero_extendqisi2
 4343 1356 0C2A     		cmp	r2, #12
 4344 1358 3FF6A2AD 		bhi	.L200
 4345 135c 01A1     		adr	r1, .L202
 4346 135e 51F822F0 		ldr	pc, [r1, r2, lsl #2]
 4347 1362 00BF     		.p2align 2
 4348              	.L202:
 4349 1364 69150000 		.word	.L201+1
 4350 1368 A10E0000 		.word	.L200+1
 4351 136c A10E0000 		.word	.L200+1
 4352 1370 87140000 		.word	.L204+1
 4353 1374 A10E0000 		.word	.L200+1
 4354 1378 87140000 		.word	.L204+1
 4355 137c A10E0000 		.word	.L200+1
 4356 1380 A10E0000 		.word	.L200+1
 4357 1384 A10E0000 		.word	.L200+1
 4358 1388 A10E0000 		.word	.L200+1
 4359 138c A10E0000 		.word	.L200+1
 4360 1390 39150000 		.word	.L205+1
 4361 1394 55150000 		.word	.L206+1
 4362              	.LVL316:
 4363              		.p2align 1
 4364              	.L520:
 4365              	.LBE354:
 4366              	.LBE353:
 4367              	.LBB360:
 4368              	.LBB361:
ARM GAS  /var/folders/28/j9jfyj_n4wz3qtvnym210h2c0000gn/T//ccpoR13X.s 			page 78


 4369              		.loc 1 112 0
 4370 1398 1069     		ldr	r0, [r2, #16]
 4371 139a 0138     		subs	r0, r0, #1
 4372 139c 8142     		cmp	r1, r0
 4373              		.loc 1 113 0
 4374 139e BCBF     		itt	lt
 4375 13a0 0131     		addlt	r1, r1, #1
 4376 13a2 5161     		strlt	r1, [r2, #20]
 4377 13a4 6AE5     		b	.L190
 4378              	.LVL317:
 4379              	.L521:
 4380              	.LBE361:
 4381              	.LBE360:
 4382              	.LBB362:
 4383              	.LBB363:
 4384              		.loc 1 145 0
 4385 13a6 5169     		ldr	r1, [r2, #20]
 4386 13a8 0029     		cmp	r1, #0
 4387              		.loc 1 146 0
 4388 13aa C4BF     		itt	gt
 4389 13ac 01F1FF31 		addgt	r1, r1, #-1
 4390 13b0 5161     		strgt	r1, [r2, #20]
 4391 13b2 69E5     		b	.L191
 4392              	.LVL318:
 4393              	.L525:
 4394              	.LBE363:
 4395              	.LBE362:
 4396              	.LBE374:
 4397              	.LBE386:
 4398              	.LBE464:
 4399              	.LBB465:
 4400              	.LBB445:
 4401              	.LBB423:
 4402              	.LBB396:
 4403              		.loc 1 942 0
 4404 13b4 07EB4707 		add	r7, r7, r7, lsl #1
 4405              	.LVL319:
 4406 13b8 4FEAC708 		lsl	r8, r7, #3
 4407 13bc 0AEB0802 		add	r2, r10, r8
 4408 13c0 09F1FF37 		add	r7, r9, #-1
 4409              	.LVL320:
 4410 13c4 0520     		movs	r0, #5
 4411 13c6 0121     		movs	r1, #1
 4412 13c8 FFF7FEFF 		bl	KVP_Display
 4413              	.LVL321:
 4414              		.loc 1 945 0
 4415 13cc BC42     		cmp	r4, r7
 4416 13ce 7FF7E8AE 		ble	.L293
 4417              	.LVL322:
 4418              		.loc 1 946 0
 4419 13d2 08F11802 		add	r2, r8, #24
 4420 13d6 5244     		add	r2, r2, r10
 4421 13d8 0520     		movs	r0, #5
 4422 13da 0221     		movs	r1, #2
 4423 13dc FFF7FEFF 		bl	KVP_Display
 4424              	.LVL323:
 4425              		.loc 1 949 0
ARM GAS  /var/folders/28/j9jfyj_n4wz3qtvnym210h2c0000gn/T//ccpoR13X.s 			page 79


 4426 13e0 A145     		cmp	r9, r4
 4427 13e2 A8BF     		it	ge
 4428 13e4 4F46     		movge	r7, r9
 4429 13e6 BFF6E2AE 		bge	.L295
 4430              		.loc 1 950 0
 4431 13ea 08F13002 		add	r2, r8, #48
 4432 13ee 5244     		add	r2, r2, r10
 4433 13f0 3146     		mov	r1, r6
 4434 13f2 0520     		movs	r0, #5
 4435 13f4 09F10107 		add	r7, r9, #1
 4436              	.LVL324:
 4437 13f8 FFF7FEFF 		bl	KVP_DisplayInv
 4438              	.LVL325:
 4439 13fc DDE6     		b	.L297
 4440              	.LVL326:
 4441              	.L169:
 4442              	.LBE396:
 4443              	.LBE423:
 4444              	.LBE445:
 4445              	.LBE465:
 4446              	.LBB466:
 4447              	.LBB387:
 4448              	.LBB375:
 4449              	.LBB324:
 4450              	.LBB318:
 4451              		.loc 1 145 0
 4452 13fe D9F81420 		ldr	r2, [r9, #20]
 4453 1402 002A     		cmp	r2, #0
 4454 1404 7FF79DAC 		ble	.L165
 4455              		.loc 1 146 0
 4456 1408 013A     		subs	r2, r2, #1
 4457 140a C9F81420 		str	r2, [r9, #20]
 4458 140e 98E4     		b	.L165
 4459              	.LVL327:
 4460              	.L177:
 4461              	.LBE318:
 4462              	.LBE324:
 4463              	.LBB325:
 4464              	.LBB311:
 4465              		.loc 1 112 0
 4466 1410 D9F81020 		ldr	r2, [r9, #16]
 4467 1414 D9F81410 		ldr	r1, [r9, #20]
 4468 1418 013A     		subs	r2, r2, #1
 4469 141a 9142     		cmp	r1, r2
 4470 141c BFF697AC 		bge	.L173
 4471              		.loc 1 113 0
 4472 1420 0131     		adds	r1, r1, #1
 4473 1422 C9F81410 		str	r1, [r9, #20]
 4474 1426 92E4     		b	.L173
 4475              	.LVL328:
 4476              	.L184:
 4477              	.LBE311:
 4478              	.LBE325:
 4479              		.loc 1 780 0
 4480 1428 C5F80090 		str	r9, [r5]
 4481 142c 4A46     		mov	r2, r9
 4482 142e A4E4     		b	.L497
ARM GAS  /var/folders/28/j9jfyj_n4wz3qtvnym210h2c0000gn/T//ccpoR13X.s 			page 80


 4483              	.LVL329:
 4484              	.L211:
 4485              	.LBE375:
 4486              	.LBB376:
 4487              		.loc 1 804 0
 4488 1430 2C60     		str	r4, [r5]
 4489 1432 2246     		mov	r2, r4
 4490 1434 A1E4     		b	.L497
 4491              	.LVL330:
 4492              	.L526:
 4493              	.LBE376:
 4494              	.LBE387:
 4495              	.LBE466:
 4496              	.LBB467:
 4497              	.LBB446:
 4498              	.LBB424:
 4499              	.LBB406:
 4500              		.loc 1 1008 0
 4501 1436 4146     		mov	r1, r8
 4502 1438 3046     		mov	r0, r6
 4503 143a 3A68     		ldr	r2, [r7]
 4504 143c FFF7FEFF 		bl	KVP_Display
 4505              	.LVL331:
 4506              		.loc 1 1012 0
 4507 1440 3046     		mov	r0, r6
 4508 1442 0221     		movs	r1, #2
 4509 1444 7A68     		ldr	r2, [r7, #4]
 4510 1446 FFF7FEFF 		bl	KVP_DisplayInv
 4511              	.LVL332:
 4512 144a 0326     		movs	r6, #3
 4513 144c 4FF00208 		mov	r8, #2
 4514              	.LVL333:
 4515              	.L322:
 4516              		.loc 1 1017 0
 4517 1450 4445     		cmp	r4, r8
 4518              		.loc 1 1018 0
 4519 1452 08F10109 		add	r9, r8, #1
 4520              	.LVL334:
 4521 1456 4FF00500 		mov	r0, #5
 4522 145a 3146     		mov	r1, r6
 4523              		.loc 1 1020 0
 4524 145c 8E4A     		ldr	r2, .L533
 4525 145e 4FF08003 		mov	r3, #128
 4526              		.loc 1 1017 0
 4527 1462 40F3C380 		ble	.L320
 4528              		.loc 1 1018 0
 4529 1466 57F82820 		ldr	r2, [r7, r8, lsl #2]
 4530 146a FFF7FEFF 		bl	KVP_Display
 4531              	.LVL335:
 4532 146e C846     		mov	r8, r9
 4533              	.L321:
 4534              	.LVL336:
 4535              		.loc 1 1016 0
 4536 1470 0136     		adds	r6, r6, #1
 4537              	.LVL337:
 4538 1472 072E     		cmp	r6, #7
 4539 1474 ECD1     		bne	.L322
ARM GAS  /var/folders/28/j9jfyj_n4wz3qtvnym210h2c0000gn/T//ccpoR13X.s 			page 81


 4540 1476 D6E4     		b	.L318
 4541              	.LVL338:
 4542              	.L196:
 4543              	.LBE406:
 4544              	.LBE424:
 4545              	.LBE446:
 4546              	.LBE467:
 4547              	.LBB468:
 4548              	.LBB388:
 4549              	.LBB377:
 4550              	.LBB364:
 4551              	.LBB351:
 4552              		.loc 1 145 0
 4553 1478 6269     		ldr	r2, [r4, #20]
 4554 147a 002A     		cmp	r2, #0
 4555 147c 7FF70AAD 		ble	.L192
 4556              		.loc 1 146 0
 4557 1480 013A     		subs	r2, r2, #1
 4558 1482 6261     		str	r2, [r4, #20]
 4559 1484 06E5     		b	.L192
 4560              	.LVL339:
 4561              	.L204:
 4562              	.LBE351:
 4563              	.LBE364:
 4564              	.LBB365:
 4565              	.LBB358:
 4566              		.loc 1 112 0
 4567 1486 2269     		ldr	r2, [r4, #16]
 4568 1488 6169     		ldr	r1, [r4, #20]
 4569 148a 013A     		subs	r2, r2, #1
 4570 148c 9142     		cmp	r1, r2
 4571 148e BFF607AD 		bge	.L200
 4572              		.loc 1 113 0
 4573 1492 0131     		adds	r1, r1, #1
 4574 1494 6161     		str	r1, [r4, #20]
 4575 1496 03E5     		b	.L200
 4576              	.LVL340:
 4577              	.L178:
 4578              	.LBE358:
 4579              	.LBE365:
 4580              	.LBE377:
 4581              	.LBB378:
 4582              	.LBB326:
 4583              	.LBB312:
 4584              	.LBB308:
 4585              	.LBB309:
 4586              	.LBB310:
 4587              		.loc 1 120 0
 4588 1498 D9F80C00 		ldr	r0, [r9, #12]
 4589              		.loc 1 121 0
 4590 149c D9F81410 		ldr	r1, [r9, #20]
 4591              		.loc 1 120 0
 4592 14a0 0368     		ldr	r3, [r0]
 4593 14a2 03F58013 		add	r3, r3, #1048576
 4594              	.LVL341:
 4595              		.loc 1 121 0
 4596 14a6 8B42     		cmp	r3, r1
ARM GAS  /var/folders/28/j9jfyj_n4wz3qtvnym210h2c0000gn/T//ccpoR13X.s 			page 82


 4597              		.loc 1 122 0
 4598 14a8 B8BF     		it	lt
 4599 14aa 1946     		movlt	r1, r3
 4600              		.loc 1 125 0
 4601 14ac 6FF01802 		mvn	r2, #24
 4602 14b0 FFF7FEFF 		bl	PExParameterChange
 4603              	.LVL342:
 4604 14b4 3B78     		ldrb	r3, [r7]	@ zero_extendqisi2
 4605 14b6 4AE4     		b	.L173
 4606              	.LVL343:
 4607              	.L179:
 4608              	.LBE310:
 4609              	.LBE309:
 4610              	.LBE308:
 4611              		.loc 1 116 0
 4612 14b8 D9F80C00 		ldr	r0, [r9, #12]
 4613 14bc D9F81410 		ldr	r1, [r9, #20]
 4614 14c0 0278     		ldrb	r2, [r0]	@ zero_extendqisi2
 4615 14c2 8A42     		cmp	r2, r1
 4616 14c4 BFF643AC 		bge	.L173
 4617              		.loc 1 117 0
 4618 14c8 0132     		adds	r2, r2, #1
 4619 14ca 0270     		strb	r2, [r0]
 4620 14cc 3B78     		ldrb	r3, [r7]	@ zero_extendqisi2
 4621 14ce 3EE4     		b	.L173
 4622              	.L174:
 4623              		.loc 1 104 0
 4624 14d0 D9F80C00 		ldr	r0, [r9, #12]
 4625 14d4 D9F81410 		ldr	r1, [r9, #20]
 4626 14d8 0268     		ldr	r2, [r0]
 4627 14da 8A42     		cmp	r2, r1
 4628 14dc BFF637AC 		bge	.L173
 4629              		.loc 1 105 0
 4630 14e0 0132     		adds	r2, r2, #1
 4631 14e2 0260     		str	r2, [r0]
 4632 14e4 3B78     		ldrb	r3, [r7]	@ zero_extendqisi2
 4633 14e6 32E4     		b	.L173
 4634              	.LVL344:
 4635              	.L170:
 4636              	.LBE312:
 4637              	.LBE326:
 4638              	.LBB327:
 4639              	.LBB319:
 4640              	.LBB315:
 4641              	.LBB316:
 4642              	.LBB317:
 4643              		.loc 1 153 0
 4644 14e8 D9F80C00 		ldr	r0, [r9, #12]
 4645              		.loc 1 154 0
 4646 14ec D9F81010 		ldr	r1, [r9, #16]
 4647              		.loc 1 153 0
 4648 14f0 0368     		ldr	r3, [r0]
 4649 14f2 A3F58013 		sub	r3, r3, #1048576
 4650              	.LVL345:
 4651              		.loc 1 154 0
 4652 14f6 8B42     		cmp	r3, r1
 4653              		.loc 1 155 0
ARM GAS  /var/folders/28/j9jfyj_n4wz3qtvnym210h2c0000gn/T//ccpoR13X.s 			page 83


 4654 14f8 C8BF     		it	gt
 4655 14fa 1946     		movgt	r1, r3
 4656              		.loc 1 158 0
 4657 14fc 6FF01802 		mvn	r2, #24
 4658 1500 FFF7FEFF 		bl	PExParameterChange
 4659              	.LVL346:
 4660 1504 3B78     		ldrb	r3, [r7]	@ zero_extendqisi2
 4661 1506 1CE4     		b	.L165
 4662              	.LVL347:
 4663              	.L171:
 4664              	.LBE317:
 4665              	.LBE316:
 4666              	.LBE315:
 4667              		.loc 1 149 0
 4668 1508 D9F80C00 		ldr	r0, [r9, #12]
 4669 150c D9F81010 		ldr	r1, [r9, #16]
 4670 1510 0278     		ldrb	r2, [r0]	@ zero_extendqisi2
 4671 1512 8A42     		cmp	r2, r1
 4672 1514 7FF715AC 		ble	.L165
 4673              		.loc 1 150 0
 4674 1518 013A     		subs	r2, r2, #1
 4675 151a 0270     		strb	r2, [r0]
 4676 151c 3B78     		ldrb	r3, [r7]	@ zero_extendqisi2
 4677 151e 10E4     		b	.L165
 4678              	.L166:
 4679              		.loc 1 137 0
 4680 1520 D9F80C00 		ldr	r0, [r9, #12]
 4681 1524 D9F81010 		ldr	r1, [r9, #16]
 4682 1528 0268     		ldr	r2, [r0]
 4683 152a 8A42     		cmp	r2, r1
 4684 152c 7FF709AC 		ble	.L165
 4685              		.loc 1 138 0
 4686 1530 013A     		subs	r2, r2, #1
 4687 1532 0260     		str	r2, [r0]
 4688 1534 3B78     		ldrb	r3, [r7]	@ zero_extendqisi2
 4689 1536 04E4     		b	.L165
 4690              	.LVL348:
 4691              	.L205:
 4692              	.LBE319:
 4693              	.LBE327:
 4694              	.LBE378:
 4695              	.LBB379:
 4696              	.LBB366:
 4697              	.LBB359:
 4698              	.LBB355:
 4699              	.LBB356:
 4700              	.LBB357:
 4701              		.loc 1 120 0
 4702 1538 E068     		ldr	r0, [r4, #12]
 4703              		.loc 1 121 0
 4704 153a 6169     		ldr	r1, [r4, #20]
 4705              		.loc 1 120 0
 4706 153c 0368     		ldr	r3, [r0]
 4707 153e 03F58013 		add	r3, r3, #1048576
 4708              	.LVL349:
 4709              		.loc 1 121 0
 4710 1542 8B42     		cmp	r3, r1
ARM GAS  /var/folders/28/j9jfyj_n4wz3qtvnym210h2c0000gn/T//ccpoR13X.s 			page 84


 4711              		.loc 1 122 0
 4712 1544 B8BF     		it	lt
 4713 1546 1946     		movlt	r1, r3
 4714              		.loc 1 125 0
 4715 1548 6FF01802 		mvn	r2, #24
 4716 154c FFF7FEFF 		bl	PExParameterChange
 4717              	.LVL350:
 4718 1550 3B78     		ldrb	r3, [r7]	@ zero_extendqisi2
 4719 1552 A5E4     		b	.L200
 4720              	.LVL351:
 4721              	.L206:
 4722              	.LBE357:
 4723              	.LBE356:
 4724              	.LBE355:
 4725              		.loc 1 116 0
 4726 1554 E168     		ldr	r1, [r4, #12]
 4727 1556 6069     		ldr	r0, [r4, #20]
 4728 1558 0A78     		ldrb	r2, [r1]	@ zero_extendqisi2
 4729 155a 8242     		cmp	r2, r0
 4730 155c BFF6A0AC 		bge	.L200
 4731              		.loc 1 117 0
 4732 1560 0132     		adds	r2, r2, #1
 4733 1562 0A70     		strb	r2, [r1]
 4734 1564 3B78     		ldrb	r3, [r7]	@ zero_extendqisi2
 4735 1566 9BE4     		b	.L200
 4736              	.L201:
 4737              		.loc 1 104 0
 4738 1568 E168     		ldr	r1, [r4, #12]
 4739 156a 6069     		ldr	r0, [r4, #20]
 4740 156c 0A68     		ldr	r2, [r1]
 4741 156e 8242     		cmp	r2, r0
 4742 1570 BFF696AC 		bge	.L200
 4743              		.loc 1 105 0
 4744 1574 0132     		adds	r2, r2, #1
 4745 1576 0A60     		str	r2, [r1]
 4746 1578 3B78     		ldrb	r3, [r7]	@ zero_extendqisi2
 4747 157a 91E4     		b	.L200
 4748              	.LVL352:
 4749              	.L198:
 4750              	.LBE359:
 4751              	.LBE366:
 4752              	.LBB367:
 4753              	.LBB352:
 4754              		.loc 1 149 0
 4755 157c E168     		ldr	r1, [r4, #12]
 4756 157e 2069     		ldr	r0, [r4, #16]
 4757 1580 0A78     		ldrb	r2, [r1]	@ zero_extendqisi2
 4758 1582 8242     		cmp	r2, r0
 4759 1584 7FF786AC 		ble	.L192
 4760              		.loc 1 150 0
 4761 1588 013A     		subs	r2, r2, #1
 4762 158a 0A70     		strb	r2, [r1]
 4763 158c 3B78     		ldrb	r3, [r7]	@ zero_extendqisi2
 4764 158e 81E4     		b	.L192
 4765              	.L193:
 4766              		.loc 1 137 0
 4767 1590 E168     		ldr	r1, [r4, #12]
ARM GAS  /var/folders/28/j9jfyj_n4wz3qtvnym210h2c0000gn/T//ccpoR13X.s 			page 85


 4768 1592 2069     		ldr	r0, [r4, #16]
 4769 1594 0A68     		ldr	r2, [r1]
 4770 1596 8242     		cmp	r2, r0
 4771 1598 7FF77CAC 		ble	.L192
 4772              		.loc 1 138 0
 4773 159c 013A     		subs	r2, r2, #1
 4774 159e 0A60     		str	r2, [r1]
 4775 15a0 3B78     		ldrb	r3, [r7]	@ zero_extendqisi2
 4776 15a2 77E4     		b	.L192
 4777              	.L197:
 4778              	.LVL353:
 4779              	.LBB348:
 4780              	.LBB349:
 4781              	.LBB350:
 4782              		.loc 1 153 0
 4783 15a4 E068     		ldr	r0, [r4, #12]
 4784              		.loc 1 154 0
 4785 15a6 2169     		ldr	r1, [r4, #16]
 4786              		.loc 1 153 0
 4787 15a8 0368     		ldr	r3, [r0]
 4788 15aa A3F58013 		sub	r3, r3, #1048576
 4789              	.LVL354:
 4790              		.loc 1 154 0
 4791 15ae 8B42     		cmp	r3, r1
 4792              		.loc 1 155 0
 4793 15b0 C8BF     		it	gt
 4794 15b2 1946     		movgt	r1, r3
 4795              		.loc 1 158 0
 4796 15b4 6FF01802 		mvn	r2, #24
 4797 15b8 FFF7FEFF 		bl	PExParameterChange
 4798              	.LVL355:
 4799 15bc 3B78     		ldrb	r3, [r7]	@ zero_extendqisi2
 4800 15be 69E4     		b	.L192
 4801              	.LVL356:
 4802              	.L298:
 4803              	.LBE350:
 4804              	.LBE349:
 4805              	.LBE348:
 4806              	.LBE352:
 4807              	.LBE367:
 4808              	.LBE379:
 4809              	.LBE388:
 4810              	.LBE468:
 4811              	.LBB469:
 4812              	.LBB447:
 4813              	.LBB425:
 4814              	.LBB397:
 4815              		.loc 1 958 0
 4816 15c0 0520     		movs	r0, #5
 4817 15c2 3146     		mov	r1, r6
 4818              	.LVL357:
 4819 15c4 344A     		ldr	r2, .L533
 4820 15c6 FFF7FEFF 		bl	LCD_drawStringN
 4821              	.LVL358:
 4822 15ca 08E6     		b	.L299
 4823              	.LVL359:
 4824              	.L330:
ARM GAS  /var/folders/28/j9jfyj_n4wz3qtvnym210h2c0000gn/T//ccpoR13X.s 			page 86


 4825              	.LBE397:
 4826              	.LBE425:
 4827              	.LBB426:
 4828              	.LBB407:
 4829              		.loc 1 1043 0
 4830 15cc 0520     		movs	r0, #5
 4831 15ce 3146     		mov	r1, r6
 4832              	.LVL360:
 4833 15d0 FFF7FEFF 		bl	LCD_drawStringN
 4834              	.LVL361:
 4835 15d4 44E6     		b	.L331
 4836              	.LVL362:
 4837              	.L511:
 4838              	.LBE407:
 4839              	.LBE426:
 4840              	.LBB427:
 4841              		.loc 1 966 0
 4842 15d6 0721     		movs	r1, #7
 4843 15d8 304A     		ldr	r2, .L533+4
 4844 15da FFF7FEFF 		bl	LCD_drawString
 4845              	.LVL363:
 4846 15de FFF747BB 		b	.L300
 4847              	.LVL364:
 4848              	.L519:
 4849              	.LBE427:
 4850              	.LBB428:
 4851              		.loc 1 1051 0
 4852 15e2 0721     		movs	r1, #7
 4853 15e4 2D4A     		ldr	r2, .L533+4
 4854 15e6 FFF7FEFF 		bl	LCD_drawString
 4855              	.LVL365:
 4856 15ea 2BE4     		b	.L332
 4857              	.LVL366:
 4858              	.L320:
 4859              	.LBB408:
 4860              		.loc 1 1020 0
 4861 15ec 0520     		movs	r0, #5
 4862 15ee 3146     		mov	r1, r6
 4863              	.LVL367:
 4864 15f0 FFF7FEFF 		bl	LCD_drawStringN
 4865              	.LVL368:
 4866 15f4 3CE7     		b	.L321
 4867              	.LVL369:
 4868              	.L524:
 4869              	.LBE408:
 4870              	.LBE428:
 4871              	.LBB429:
 4872              	.LBB398:
 4873              		.loc 1 923 0
 4874 15f6 4946     		mov	r1, r9
 4875 15f8 0520     		movs	r0, #5
 4876 15fa 5246     		mov	r2, r10
 4877 15fc FFF7FEFF 		bl	KVP_Display
 4878              	.LVL370:
 4879              		.loc 1 927 0
 4880 1600 0520     		movs	r0, #5
 4881 1602 0221     		movs	r1, #2
ARM GAS  /var/folders/28/j9jfyj_n4wz3qtvnym210h2c0000gn/T//ccpoR13X.s 			page 87


 4882 1604 0AF11802 		add	r2, r10, #24
 4883 1608 FFF7FEFF 		bl	KVP_DisplayInv
 4884              	.LVL371:
 4885 160c 0227     		movs	r7, #2
 4886              	.LVL372:
 4887              	.L290:
 4888              		.loc 1 933 0
 4889 160e 07EB4702 		add	r2, r7, r7, lsl #1
 4890              		.loc 1 932 0
 4891 1612 BC42     		cmp	r4, r7
 4892              		.loc 1 933 0
 4893 1614 07F10108 		add	r8, r7, #1
 4894              	.LVL373:
 4895 1618 4FF00500 		mov	r0, #5
 4896 161c 3146     		mov	r1, r6
 4897 161e 0AEBC202 		add	r2, r10, r2, lsl #3
 4898              		.loc 1 935 0
 4899 1622 4FF08003 		mov	r3, #128
 4900              		.loc 1 932 0
 4901 1626 07DD     		ble	.L288
 4902              		.loc 1 933 0
 4903 1628 FFF7FEFF 		bl	KVP_Display
 4904              	.LVL374:
 4905 162c 4746     		mov	r7, r8
 4906              	.L289:
 4907              	.LVL375:
 4908              		.loc 1 931 0
 4909 162e 0136     		adds	r6, r6, #1
 4910              	.LVL376:
 4911 1630 072E     		cmp	r6, #7
 4912 1632 ECD1     		bne	.L290
 4913 1634 FFF70DBB 		b	.L286
 4914              	.LVL377:
 4915              	.L288:
 4916              		.loc 1 935 0
 4917 1638 0520     		movs	r0, #5
 4918 163a 3146     		mov	r1, r6
 4919              	.LVL378:
 4920 163c 164A     		ldr	r2, .L533
 4921 163e FFF7FEFF 		bl	LCD_drawStringN
 4922              	.LVL379:
 4923 1642 F4E7     		b	.L289
 4924              	.LVL380:
 4925              	.L323:
 4926              	.LBE398:
 4927              	.LBE429:
 4928              	.LBB430:
 4929              	.LBB409:
 4930              		.loc 1 1029 0
 4931 1644 3046     		mov	r0, r6
 4932 1646 0121     		movs	r1, #1
 4933 1648 134A     		ldr	r2, .L533
 4934 164a 8023     		movs	r3, #128
 4935 164c FFF7FEFF 		bl	LCD_drawStringN
 4936              	.LVL381:
 4937              	.L325:
 4938              		.loc 1 1033 0
ARM GAS  /var/folders/28/j9jfyj_n4wz3qtvnym210h2c0000gn/T//ccpoR13X.s 			page 88


 4939 1650 0520     		movs	r0, #5
 4940 1652 0221     		movs	r1, #2
 4941 1654 104A     		ldr	r2, .L533
 4942 1656 8023     		movs	r3, #128
 4943 1658 FFF7FEFF 		bl	LCD_drawStringN
 4944              	.LVL382:
 4945              	.L327:
 4946              		.loc 1 1037 0
 4947 165c 0520     		movs	r0, #5
 4948 165e 0321     		movs	r1, #3
 4949 1660 0D4A     		ldr	r2, .L533
 4950 1662 8023     		movs	r3, #128
 4951 1664 FFF7FEFF 		bl	LCD_drawStringN
 4952              	.LVL383:
 4953 1668 E9E5     		b	.L329
 4954              	.LVL384:
 4955              	.L335:
 4956              	.LBE409:
 4957              	.LBE430:
 4958              	.LBB431:
 4959              	.LBB399:
 4960              		.loc 1 897 0
 4961 166a 0024     		movs	r4, #0
 4962              	.LVL385:
 4963 166c FFF7E8BA 		b	.L279
 4964              	.LVL386:
 4965              	.L336:
 4966              	.LBE399:
 4967              	.LBE431:
 4968              	.LBB432:
 4969              	.LBB410:
 4970              		.loc 1 982 0
 4971 1670 0024     		movs	r4, #0
 4972              	.LVL387:
 4973 1672 FFF7CFBB 		b	.L311
 4974              	.LVL388:
 4975              	.L510:
 4976              	.LBE410:
 4977              	.LBE432:
 4978              	.LBB433:
 4979              	.LBB400:
 4980              		.loc 1 899 0
 4981 1676 5A46     		mov	r2, fp
 4982 1678 FFF7FEFF 		bl	KVP_DisplayInv
 4983              	.LVL389:
 4984 167c B046     		mov	r8, r6
 4985 167e FFF7D9BA 		b	.L277
 4986              	.LVL390:
 4987              	.L518:
 4988              	.LBE400:
 4989              	.LBE433:
 4990              	.LBB434:
 4991              	.LBB411:
 4992              		.loc 1 984 0
 4993 1682 4946     		mov	r1, r9
 4994 1684 DAF80020 		ldr	r2, [r10]
 4995 1688 FFF7FEFF 		bl	KVP_DisplayInv
ARM GAS  /var/folders/28/j9jfyj_n4wz3qtvnym210h2c0000gn/T//ccpoR13X.s 			page 89


 4996              	.LVL391:
 4997 168c CB46     		mov	fp, r9
 4998 168e 08F10106 		add	r6, r8, #1
 4999              	.LVL392:
 5000 1692 FFF7BCBB 		b	.L309
 5001              	.L534:
 5002 1696 00BF     		.align	2
 5003              	.L533:
 5004 1698 CC000000 		.word	.LC24
 5005 169c D8000000 		.word	.LC26
 5006              	.LBE411:
 5007              	.LBE434:
 5008              	.LBE447:
 5009              	.LBE469:
 5010              		.cfi_endproc
 5011              	.LFE194:
 5012              		.size	AxolotiControlUpdate, .-AxolotiControlUpdate
 5013              		.global	pControlUpdate
 5014              		.comm	LoadMenu,24,4
 5015              		.comm	memp,4,4
 5016              		.comm	ADCkvps,72,4
 5017              		.comm	TmpMenuKvps,360,4
 5018              		.comm	ObjectKvps,1024,4
 5019              		.comm	ObjectKvpRoot,4,4
 5020              		.comm	KvpsDisplay,4,4
 5021              		.comm	KvpsHead,24,4
 5022              		.comm	EncBuffer,4,4
 5023              		.comm	Btn_Nav_And,4,4
 5024              		.comm	Btn_Nav_Or,4,4
 5025              		.comm	Btn_Nav_PrevStates,4,4
 5026              		.comm	Btn_Nav_CurStates,4,4
 5027              		.data
 5028              		.align	2
 5029              		.set	.LANCHOR0,. + 0
 5030              		.type	pControlUpdate, %object
 5031              		.size	pControlUpdate, 4
 5032              	pControlUpdate:
 5033 0000 00000000 		.word	AxolotiControlUpdate
 5034              		.section	.rodata.str1.4,"aMS",%progbits,1
 5035              		.align	2
 5036              	.LC0:
 5037 0000 00       		.ascii	"\000"
 5038 0001 000000   		.space	3
 5039              	.LC1:
 5040 0004 4C6F6164 		.ascii	"Load SD\000"
 5040      20534400 
 5041              	.LC2:
 5042 000c 756900   		.ascii	"ui\000"
 5043 000f 00       		.space	1
 5044              	.LC3:
 5045 0010 466F726D 		.ascii	"Format failed\000"
 5045      61742066 
 5045      61696C65 
 5045      6400
 5046 001e 0000     		.space	2
 5047              	.LC4:
 5048 0020 466F726D 		.ascii	"Format OK\000"
ARM GAS  /var/folders/28/j9jfyj_n4wz3qtvnym210h2c0000gn/T//ccpoR13X.s 			page 90


 5048      6174204F 
 5048      4B00
 5049 002a 0000     		.space	2
 5050              	.LC5:
 5051 002c 3100     		.ascii	"1\000"
 5052 002e 0000     		.space	2
 5053              	.LC6:
 5054 0030 3000     		.ascii	"0\000"
 5055 0032 0000     		.space	2
 5056              	.LC7:
 5057 0034 2D3100   		.ascii	"-1\000"
 5058 0037 00       		.space	1
 5059              	.LC8:
 5060 0038 4241434B 		.ascii	"BACK\000"
 5060      00
 5061 003d 000000   		.space	3
 5062              	.LC9:
 5063 0040 484F4C44 		.ascii	"HOLD\000"
 5063      00
 5064 0045 000000   		.space	3
 5065              	.LC10:
 5066 0048 2D2E6D73 		.ascii	"-.ms\000"
 5066      00
 5067 004d 000000   		.space	3
 5068              	.LC11:
 5069 0050 496E666F 		.ascii	"Info\000"
 5069      00
 5070 0055 000000   		.space	3
 5071              	.LC12:
 5072 0058 466F726D 		.ascii	"Format\000"
 5072      617400
 5073 005f 00       		.space	1
 5074              	.LC13:
 5075 0060 50617463 		.ascii	"Patch\000"
 5075      6800
 5076 0066 0000     		.space	2
 5077              	.LC14:
 5078 0068 52756E6E 		.ascii	"Running\000"
 5078      696E6700 
 5079              	.LC15:
 5080 0070 4E6F2053 		.ascii	"No SDCard\000"
 5080      44436172 
 5080      6400
 5081 007a 0000     		.space	2
 5082              	.LC16:
 5083 007c 53444361 		.ascii	"SDCard Tools\000"
 5083      72642054 
 5083      6F6F6C73 
 5083      00
 5084 0089 000000   		.space	3
 5085              	.LC17:
 5086 008c 41444373 		.ascii	"ADCs\000"
 5086      00
 5087 0091 000000   		.space	3
 5088              	.LC18:
 5089 0094 64737025 		.ascii	"dsp%\000"
 5089      00
ARM GAS  /var/folders/28/j9jfyj_n4wz3qtvnym210h2c0000gn/T//ccpoR13X.s 			page 91


 5090 0099 000000   		.space	3
 5091              	.LC19:
 5092 009c 2D2D2D20 		.ascii	"--- AXOLOTI ---\000"
 5092      41584F4C 
 5092      4F544920 
 5092      2D2D2D00 
 5093              	.LC20:
 5094 00ac 20202020 		.ascii	"     F\000"
 5094      204600
 5095 00b3 00       		.space	1
 5096              	.LC21:
 5097 00b4 20202020 		.ascii	"     *\000"
 5097      202A00
 5098 00bb 00       		.space	1
 5099              	.LC22:
 5100 00bc 20202020 		.ascii	"     #\000"
 5100      202300
 5101 00c3 00       		.space	1
 5102              	.LC23:
 5103 00c4 20202020 		.ascii	"     @\000"
 5103      204000
 5104 00cb 00       		.space	1
 5105              	.LC24:
 5106 00cc 2000     		.ascii	" \000"
 5107 00ce 0000     		.space	2
 5108              	.LC25:
 5109 00d0 20202020 		.ascii	"     \000"
 5109      2000
 5110 00d6 0000     		.space	2
 5111              	.LC26:
 5112 00d8 20202020 		.ascii	"          \000"
 5112      20202020 
 5112      202000
 5113 00e3 00       		.space	1
 5114              	.LC27:
 5115 00e4 454E5445 		.ascii	"ENTER\000"
 5115      5200
 5116              		.bss
 5117              		.align	3
 5118              		.set	.LANCHOR1,. + 0
 5119              		.type	waThreadUI, %object
 5120              		.size	waThreadUI, 1504
 5121              	waThreadUI:
 5122 0000 00000000 		.space	1504
 5122      00000000 
 5122      00000000 
 5122      00000000 
 5122      00000000 
 5123              		.text
 5124              	.Letext0:
 5125              		.file 3 "/Applications/axoloti_runtime/platform_osx/arm-none-eabi/include/machine/_default_types.h
 5126              		.file 4 "/Applications/axoloti_runtime/platform_osx/arm-none-eabi/include/sys/_stdint.h"
 5127              		.file 5 "parameters.h"
 5128              		.file 6 "ui.h"
 5129              		.file 7 "/Applications/axoloti_runtime/platform_osx/lib/gcc/arm-none-eabi/4.9.3/include/stddef.h"
 5130              		.file 8 "/Applications/Axoloti.app/Contents/Java/chibios/os/ports/GCC/ARMCMx/chtypes.h"
 5131              		.file 9 "/Applications/Axoloti.app/Contents/Java/chibios/os/kernel/include/chlists.h"
ARM GAS  /var/folders/28/j9jfyj_n4wz3qtvnym210h2c0000gn/T//ccpoR13X.s 			page 92


 5132              		.file 10 "/Applications/Axoloti.app/Contents/Java/chibios/os/kernel/include/chthreads.h"
 5133              		.file 11 "/Applications/Axoloti.app/Contents/Java/chibios/os/ports/GCC/ARMCMx/chcore_v7m.h"
 5134              		.file 12 "/Applications/Axoloti.app/Contents/Java/chibios/os/kernel/include/chschd.h"
 5135              		.file 13 "/Applications/Axoloti.app/Contents/Java/chibios/os/kernel/include/chsem.h"
 5136              		.file 14 "/Applications/Axoloti.app/Contents/Java/chibios/os/kernel/include/chmtx.h"
 5137              		.file 15 "/Applications/Axoloti.app/Contents/Java/chibios/ext/fatfs/src/integer.h"
 5138              		.file 16 "/Applications/Axoloti.app/Contents/Java/chibios/ext/fatfs/src/ff.h"
 5139              		.file 17 "patch.h"
 5140              		.file 18 "/Applications/Axoloti.app/Contents/Java/CMSIS//Include/core_cm4.h"
 5141              		.file 19 "axoloti_board.h"
 5142              		.file 20 "sdcard.h"
 5143              		.file 21 "axoloti_control.h"
 5144              		.file 22 "<built-in>"
 5145              		.file 23 "/Applications/axoloti_runtime/platform_osx/arm-none-eabi/include/string.h"
 5146              		.file 24 "pconnection.h"
 5147              		.file 25 "/Applications/Axoloti.app/Contents/Java/chibios/os/kernel/include/chmemcore.h"