ARM GAS  /var/folders/28/j9jfyj_n4wz3qtvnym210h2c0000gn/T//ccpoR13X.s 			page 1


   1              		.syntax unified
   2              		.cpu cortex-m4
   3              		.eabi_attribute 27, 1
   4              		.eabi_attribute 28, 1
   5              		.fpu fpv4-sp-d16
   6              		.eabi_attribute 20, 1
   7              		.eabi_attribute 21, 1
   8              		.eabi_attribute 23, 3
   9              		.eabi_attribute 24, 1
  10              		.eabi_attribute 25, 1
  11              		.eabi_attribute 26, 1
  12              		.eabi_attribute 30, 2
  13              		.eabi_attribute 34, 1
  14              		.eabi_attribute 18, 4
  15              		.thumb
  16              		.file	"ui.c"
  17              		.text
  18              	.Ltext0:
  19              		.cfi_sections	.debug_frame
  20              		.align	2
  21              		.p2align 4,,15
  22              		.global	EnterMenuLoadFile
  23              		.thumb
  24              		.thumb_func
  25              		.type	EnterMenuLoadFile, %function
  26              	EnterMenuLoadFile:
  27              	.LFB191:
  28              		.file 1 "ui.c"
  29              		.loc 1 293 0
  30              		.cfi_startproc
  31              		@ args = 0, pretend = 0, frame = 24
  32              		@ frame_needed = 0, uses_anonymous_args = 0
  33 0000 00B5     		push	{lr}
  34              		.cfi_def_cfa_offset 4
  35              		.cfi_offset 14, -4
  36              		.loc 1 295 0
  37 0002 0D4A     		ldr	r2, .L3
  38 0004 5369     		ldr	r3, [r2, #20]
  39              		.loc 1 294 0
  40 0006 D268     		ldr	r2, [r2, #12]
  41              		.loc 1 293 0
  42 0008 87B0     		sub	sp, sp, #28
  43              		.cfi_def_cfa_offset 32
  44              		.loc 1 295 0
  45 000a 03EB4303 		add	r3, r3, r3, lsl #1
  46              		.loc 1 294 0
  47 000e 02EBC302 		add	r2, r2, r3, lsl #3
  48              	.LVL0:
  49              		.loc 1 297 0
  50 0012 43F63021 		movw	r1, #14896
  51 0016 0023     		movs	r3, #0
  52 0018 0293     		str	r3, [sp, #8]
  53 001a 0393     		str	r3, [sp, #12]
  54 001c 0493     		str	r3, [sp, #16]
  55 001e 0593     		str	r3, [sp, #20]
  56 0020 0191     		str	r1, [sp, #4]
  57              		.loc 1 298 0
ARM GAS  /var/folders/28/j9jfyj_n4wz3qtvnym210h2c0000gn/T//ccpoR13X.s 			page 2


  58 0022 9168     		ldr	r1, [r2, #8]
  59 0024 0DF10600 		add	r0, sp, #6
  60 0028 FFF7FEFF 		bl	strcpy
  61              	.LVL1:
  62              		.loc 1 300 0
  63 002c 01A8     		add	r0, sp, #4
  64 002e FFF7FEFF 		bl	LoadPatch
  65              	.LVL2:
  66              		.loc 1 301 0
  67 0032 07B0     		add	sp, sp, #28
  68              		.cfi_def_cfa_offset 4
  69              		@ sp needed
  70 0034 5DF804FB 		ldr	pc, [sp], #4
  71              	.L4:
  72              		.align	2
  73              	.L3:
  74 0038 00000000 		.word	LoadMenu
  75              		.cfi_endproc
  76              	.LFE191:
  77              		.size	EnterMenuLoadFile, .-EnterMenuLoadFile
  78              		.align	2
  79 003c AFF30080 		.p2align 4,,15
  80              		.global	EnterMenuLoad
  81              		.thumb
  82              		.thumb_func
  83              		.type	EnterMenuLoad, %function
  84              	EnterMenuLoad:
  85              	.LFB192:
  86              		.loc 1 303 0
  87              		.cfi_startproc
  88              		@ args = 0, pretend = 0, frame = 72
  89              		@ frame_needed = 0, uses_anonymous_args = 0
  90 0040 2DE9F047 		push	{r4, r5, r6, r7, r8, r9, r10, lr}
  91              		.cfi_def_cfa_offset 32
  92              		.cfi_offset 4, -32
  93              		.cfi_offset 5, -28
  94              		.cfi_offset 6, -24
  95              		.cfi_offset 7, -20
  96              		.cfi_offset 8, -16
  97              		.cfi_offset 9, -12
  98              		.cfi_offset 10, -8
  99              		.cfi_offset 14, -4
 100              		.loc 1 304 0
 101 0044 324D     		ldr	r5, .L19
 102 0046 334B     		ldr	r3, .L19+4
 103 0048 2B60     		str	r3, [r5]
 104              	.LVL3:
 105              		.loc 1 303 0
 106 004a 92B0     		sub	sp, sp, #72
 107              		.cfi_def_cfa_offset 104
 108              		.loc 1 311 0
 109 004c 0023     		movs	r3, #0
 110              		.loc 1 314 0
 111 004e 3249     		ldr	r1, .L19+8
 112              		.loc 1 311 0
 113 0050 0793     		str	r3, [sp, #28]
 114              		.loc 1 314 0
ARM GAS  /var/folders/28/j9jfyj_n4wz3qtvnym210h2c0000gn/T//ccpoR13X.s 			page 3


 115 0052 09A8     		add	r0, sp, #36
 116              		.loc 1 312 0
 117 0054 0893     		str	r3, [sp, #32]
 118              		.loc 1 314 0
 119 0056 FFF7FEFF 		bl	f_opendir
 120              	.LVL4:
 121              		.loc 1 315 0
 122 005a 0028     		cmp	r0, #0
 123 005c 55D1     		bne	.L5
 124 005e 2F4E     		ldr	r6, .L19+12
 125              	.LBB45:
 126              	.LBB46:
 127              	.LBB47:
 128              	.LBB48:
 129              		.loc 1 98 0
 130 0060 DFF8CC80 		ldr	r8, .L19+32
 131              	.LBE48:
 132              	.LBE47:
 133              	.LBE46:
 134              	.LBE45:
 135 0064 0446     		mov	r4, r0
 136              	.LBB59:
 137              	.LBB57:
 138              	.LBB53:
 139              	.LBB49:
 140              		.loc 1 95 0
 141 0066 0D27     		movs	r7, #13
 142              	.LVL5:
 143              	.L6:
 144              	.LBE49:
 145              	.LBE53:
 146              	.LBE57:
 147              	.LBE59:
 148              		.loc 1 317 0
 149 0068 09A8     		add	r0, sp, #36
 150 006a 01A9     		add	r1, sp, #4
 151 006c FFF7FEFF 		bl	f_readdir
 152              	.LVL6:
 153              		.loc 1 318 0
 154 0070 0028     		cmp	r0, #0
 155 0072 3DD1     		bne	.L8
 156              		.loc 1 318 0 is_stmt 0 discriminator 1
 157 0074 9DF80D30 		ldrb	r3, [sp, #13]	@ zero_extendqisi2
 158 0078 002B     		cmp	r3, #0
 159 007a 39D0     		beq	.L8
 160              		.loc 1 320 0 is_stmt 1
 161 007c 2E2B     		cmp	r3, #46
 162 007e F3D0     		beq	.L6
 163              		.loc 1 323 0
 164 0080 9DF80C30 		ldrb	r3, [sp, #12]	@ zero_extendqisi2
 165 0084 03F01003 		and	r3, r3, #16
 166              	.LBB60:
 167              		.loc 1 327 0
 168 0088 0DF10D00 		add	r0, sp, #13
 169              	.LVL7:
 170              	.LBE60:
 171              		.loc 1 323 0
ARM GAS  /var/folders/28/j9jfyj_n4wz3qtvnym210h2c0000gn/T//ccpoR13X.s 			page 4


 172 008c 03F0FF09 		and	r9, r3, #255
 173 0090 002B     		cmp	r3, #0
 174 0092 E9D1     		bne	.L6
 175              	.LBB61:
 176              		.loc 1 327 0
 177 0094 FFF7FEFF 		bl	strlen
 178              	.LVL8:
 179              		.loc 1 328 0
 180 0098 12AB     		add	r3, sp, #72
 181 009a 0344     		add	r3, r3, r0
 182 009c 13F83F2C 		ldrb	r2, [r3, #-63]	@ zero_extendqisi2
 183 00a0 2E2A     		cmp	r2, #46
 184 00a2 E1D1     		bne	.L6
 185              		.loc 1 328 0 is_stmt 0 discriminator 1
 186 00a4 13F83E2C 		ldrb	r2, [r3, #-62]	@ zero_extendqisi2
 187 00a8 422A     		cmp	r2, #66
 188 00aa DDD1     		bne	.L6
 189              		.loc 1 328 0 discriminator 2
 190 00ac 13F83D2C 		ldrb	r2, [r3, #-61]	@ zero_extendqisi2
 191 00b0 492A     		cmp	r2, #73
 192 00b2 D9D1     		bne	.L6
 193              		.loc 1 329 0 is_stmt 1
 194 00b4 13F83C3C 		ldrb	r3, [r3, #-60]	@ zero_extendqisi2
 195 00b8 4E2B     		cmp	r3, #78
 196 00ba D5D1     		bne	.L6
 197              	.LBB58:
 198              		.loc 1 331 0
 199 00bc 2B68     		ldr	r3, [r5]
 200              	.LVL9:
 201              		.loc 1 332 0
 202 00be 00F1010A 		add	r10, r0, #1
 203 00c2 5246     		mov	r2, r10
 204 00c4 1846     		mov	r0, r3
 205              	.LVL10:
 206 00c6 0DF10D01 		add	r1, sp, #13
 207              	.LVL11:
 208 00ca FFF7FEFF 		bl	memcpy
 209              	.LVL12:
 210              	.LBB54:
 211              	.LBB50:
 212              		.loc 1 95 0
 213 00ce 04EB4401 		add	r1, r4, r4, lsl #1
 214              	.LBE50:
 215              	.LBE54:
 216              		.loc 1 332 0
 217 00d2 0346     		mov	r3, r0
 218              		.loc 1 333 0
 219 00d4 2868     		ldr	r0, [r5]
 220              	.LBB55:
 221              	.LBB51:
 222              		.loc 1 95 0
 223 00d6 06F83170 		strb	r7, [r6, r1, lsl #3]
 224 00da 06EBC102 		add	r2, r6, r1, lsl #3
 225              	.LBE51:
 226              	.LBE55:
 227              		.loc 1 333 0
 228 00de 5044     		add	r0, r0, r10
ARM GAS  /var/folders/28/j9jfyj_n4wz3qtvnym210h2c0000gn/T//ccpoR13X.s 			page 5


 229 00e0 2860     		str	r0, [r5]
 230              	.LVL13:
 231              	.LBB56:
 232              	.LBB52:
 233              		.loc 1 97 0
 234 00e2 9360     		str	r3, [r2, #8]
 235              		.loc 1 96 0
 236 00e4 C2F80490 		str	r9, [r2, #4]
 237              		.loc 1 98 0
 238 00e8 C2F80C80 		str	r8, [r2, #12]
 239              	.LBE52:
 240              	.LBE56:
 241              		.loc 1 335 0
 242 00ec 0134     		adds	r4, r4, #1
 243              	.LVL14:
 244 00ee BBE7     		b	.L6
 245              	.LVL15:
 246              	.L8:
 247              	.LBE58:
 248              	.LBE61:
 249              	.LBB62:
 250              	.LBB63:
 251              		.loc 1 63 0
 252 00f0 0B4B     		ldr	r3, .L19+16
 253              	.LBE63:
 254              	.LBE62:
 255              		.loc 1 340 0
 256 00f2 0C4A     		ldr	r2, .L19+20
 257              	.LBB65:
 258              	.LBB64:
 259              		.loc 1 64 0
 260 00f4 0C4D     		ldr	r5, .L19+24
 261              		.loc 1 65 0
 262 00f6 0D48     		ldr	r0, .L19+28
 263              	.LVL16:
 264              		.loc 1 66 0
 265 00f8 1C61     		str	r4, [r3, #16]
 266              		.loc 1 67 0
 267 00fa 0021     		movs	r1, #0
 268              		.loc 1 63 0
 269 00fc 0324     		movs	r4, #3
 270              	.LVL17:
 271              		.loc 1 68 0
 272 00fe DE60     		str	r6, [r3, #12]
 273              		.loc 1 63 0
 274 0100 1C70     		strb	r4, [r3]
 275              		.loc 1 64 0
 276 0102 5D60     		str	r5, [r3, #4]
 277              		.loc 1 65 0
 278 0104 9860     		str	r0, [r3, #8]
 279              		.loc 1 67 0
 280 0106 5961     		str	r1, [r3, #20]
 281              	.LBE64:
 282              	.LBE65:
 283              		.loc 1 340 0
 284 0108 1360     		str	r3, [r2]
 285              	.LVL18:
ARM GAS  /var/folders/28/j9jfyj_n4wz3qtvnym210h2c0000gn/T//ccpoR13X.s 			page 6


 286              	.L5:
 287              		.loc 1 343 0
 288 010a 12B0     		add	sp, sp, #72
 289              		.cfi_def_cfa_offset 32
 290              		@ sp needed
 291 010c BDE8F087 		pop	{r4, r5, r6, r7, r8, r9, r10, pc}
 292              	.L20:
 293              		.align	2
 294              	.L19:
 295 0110 00000000 		.word	memp
 296 0114 00000000 		.word	fbuff
 297 0118 00000000 		.word	.LC0
 298 011c 00000000 		.word	TmpMenuKvps
 299 0120 00000000 		.word	LoadMenu
 300 0124 00000000 		.word	KvpsDisplay
 301 0128 00000000 		.word	KvpsHead
 302 012c 04000000 		.word	.LC1
 303 0130 00000000 		.word	EnterMenuLoadFile
 304              		.cfi_endproc
 305              	.LFE192:
 306              		.size	EnterMenuLoad, .-EnterMenuLoad
 307              		.align	2
 308 0134 AFF30080 		.p2align 4,,15
 308      AFF30080 
 308      AFF30080 
 309              		.thumb
 310              		.thumb_func
 311              		.type	ThreadUI, %function
 312              	ThreadUI:
 313              	.LFB195:
 314              		.loc 1 406 0
 315              		.cfi_startproc
 316              		@ Volatile: function does not return.
 317              		@ args = 0, pretend = 0, frame = 0
 318              		@ frame_needed = 0, uses_anonymous_args = 0
 319              	.LVL19:
 320 0140 08B5     		push	{r3, lr}
 321              		.cfi_def_cfa_offset 8
 322              		.cfi_offset 3, -8
 323              		.cfi_offset 14, -4
 324              		.loc 1 409 0
 325 0142 084B     		ldr	r3, .L28
 326 0144 084A     		ldr	r2, .L28+4
 327 0146 9B69     		ldr	r3, [r3, #24]
 328 0148 084C     		ldr	r4, .L28+8
 329 014a 9A61     		str	r2, [r3, #24]
 330              	.LVL20:
 331              	.L23:
 332              		.loc 1 413 0
 333 014c FFF7FEFF 		bl	PExTransmit
 334              	.LVL21:
 335              		.loc 1 414 0
 336 0150 FFF7FEFF 		bl	PExReceive
 337              	.LVL22:
 338              		.loc 1 415 0
 339 0154 2368     		ldr	r3, [r4]
 340 0156 03B1     		cbz	r3, .L22
ARM GAS  /var/folders/28/j9jfyj_n4wz3qtvnym210h2c0000gn/T//ccpoR13X.s 			page 7


 341              		.loc 1 416 0
 342 0158 9847     		blx	r3
 343              	.LVL23:
 344              	.L22:
 345              		.loc 1 418 0
 346 015a 0220     		movs	r0, #2
 347 015c FFF7FEFF 		bl	chThdSleep
 348              	.LVL24:
 349              		.loc 1 419 0
 350 0160 F4E7     		b	.L23
 351              	.L29:
 352 0162 00BF     		.align	2
 353              	.L28:
 354 0164 00000000 		.word	rlist
 355 0168 0C000000 		.word	.LC2
 356 016c 00000000 		.word	.LANCHOR0
 357              		.cfi_endproc
 358              	.LFE195:
 359              		.size	ThreadUI, .-ThreadUI
 360              		.align	2
 361              		.p2align 4,,15
 362              		.global	EnterMenuFormat
 363              		.thumb
 364              		.thumb_func
 365              		.type	EnterMenuFormat, %function
 366              	EnterMenuFormat:
 367              	.LFB193:
 368              		.loc 1 345 0
 369              		.cfi_startproc
 370              		@ args = 0, pretend = 0, frame = 0
 371              		@ frame_needed = 0, uses_anonymous_args = 0
 372              		.loc 1 347 0
 373 0170 0020     		movs	r0, #0
 374              		.loc 1 345 0
 375 0172 38B5     		push	{r3, r4, r5, lr}
 376              		.cfi_def_cfa_offset 16
 377              		.cfi_offset 3, -16
 378              		.cfi_offset 4, -12
 379              		.cfi_offset 5, -8
 380              		.cfi_offset 14, -4
 381              		.loc 1 347 0
 382 0174 0146     		mov	r1, r0
 383 0176 0246     		mov	r2, r0
 384 0178 FFF7FEFF 		bl	f_mkfs
 385              	.LVL25:
 386              	.LBB74:
 387              	.LBB75:
 388              	.LBB76:
 389              	.LBB77:
 390              		.loc 1 63 0
 391 017c 0D4B     		ldr	r3, .L35
 392              	.LBE77:
 393              	.LBE76:
 394              	.LBE75:
 395              	.LBE74:
 396              		.loc 1 348 0
 397 017e 58B9     		cbnz	r0, .L34
ARM GAS  /var/folders/28/j9jfyj_n4wz3qtvnym210h2c0000gn/T//ccpoR13X.s 			page 8


 398              	.LVL26:
 399              		.loc 1 354 0
 400 0180 0D4A     		ldr	r2, .L35+4
 401              	.LBB83:
 402              	.LBB84:
 403              		.loc 1 64 0
 404 0182 0E4C     		ldr	r4, .L35+8
 405              		.loc 1 65 0
 406 0184 0E49     		ldr	r1, .L35+12
 407              		.loc 1 66 0
 408 0186 1861     		str	r0, [r3, #16]
 409              		.loc 1 63 0
 410 0188 0325     		movs	r5, #3
 411              		.loc 1 67 0
 412 018a 5861     		str	r0, [r3, #20]
 413              		.loc 1 68 0
 414 018c D860     		str	r0, [r3, #12]
 415              		.loc 1 63 0
 416 018e 1D70     		strb	r5, [r3]
 417              		.loc 1 64 0
 418 0190 5C60     		str	r4, [r3, #4]
 419              		.loc 1 65 0
 420 0192 9960     		str	r1, [r3, #8]
 421              	.LBE84:
 422              	.LBE83:
 423              		.loc 1 354 0
 424 0194 1360     		str	r3, [r2]
 425 0196 38BD     		pop	{r3, r4, r5, pc}
 426              	.LVL27:
 427              	.L34:
 428              	.LBB85:
 429              	.LBB82:
 430              	.LBB80:
 431              	.LBB78:
 432              		.loc 1 64 0
 433 0198 084A     		ldr	r2, .L35+8
 434              	.LBE78:
 435              	.LBE80:
 436              		.loc 1 350 0
 437 019a 0749     		ldr	r1, .L35+4
 438              	.LBB81:
 439              	.LBB79:
 440              		.loc 1 64 0
 441 019c 5A60     		str	r2, [r3, #4]
 442              		.loc 1 66 0
 443 019e 0022     		movs	r2, #0
 444              		.loc 1 65 0
 445 01a0 0848     		ldr	r0, .L35+16
 446              	.LVL28:
 447              		.loc 1 66 0
 448 01a2 1A61     		str	r2, [r3, #16]
 449              		.loc 1 63 0
 450 01a4 0324     		movs	r4, #3
 451              		.loc 1 67 0
 452 01a6 5A61     		str	r2, [r3, #20]
 453              		.loc 1 68 0
 454 01a8 DA60     		str	r2, [r3, #12]
ARM GAS  /var/folders/28/j9jfyj_n4wz3qtvnym210h2c0000gn/T//ccpoR13X.s 			page 9


 455              		.loc 1 63 0
 456 01aa 1C70     		strb	r4, [r3]
 457              		.loc 1 65 0
 458 01ac 9860     		str	r0, [r3, #8]
 459              	.LBE79:
 460              	.LBE81:
 461              		.loc 1 350 0
 462 01ae 0B60     		str	r3, [r1]
 463 01b0 38BD     		pop	{r3, r4, r5, pc}
 464              	.L36:
 465 01b2 00BF     		.align	2
 466              	.L35:
 467 01b4 00000000 		.word	TmpMenuKvps
 468 01b8 00000000 		.word	KvpsDisplay
 469 01bc 00000000 		.word	KvpsHead
 470 01c0 20000000 		.word	.LC4
 471 01c4 10000000 		.word	.LC3
 472              	.LBE82:
 473              	.LBE85:
 474              		.cfi_endproc
 475              	.LFE193:
 476              		.size	EnterMenuFormat, .-EnterMenuFormat
 477              		.align	2
 478 01c8 AFF30080 		.p2align 4,,15
 478      AFF30080 
 479              		.global	SetKVP_APVP
 480              		.thumb
 481              		.thumb_func
 482              		.type	SetKVP_APVP, %function
 483              	SetKVP_APVP:
 484              	.LFB179:
 485              		.loc 1 52 0
 486              		.cfi_startproc
 487              		@ args = 4, pretend = 0, frame = 0
 488              		@ frame_needed = 0, uses_anonymous_args = 0
 489              		@ link register save eliminated.
 490              	.LVL29:
 491 01d0 70B4     		push	{r4, r5, r6}
 492              		.cfi_def_cfa_offset 12
 493              		.cfi_offset 4, -12
 494              		.cfi_offset 5, -8
 495              		.cfi_offset 6, -4
 496              		.loc 1 52 0
 497 01d2 039C     		ldr	r4, [sp, #12]
 498              		.loc 1 58 0
 499 01d4 C460     		str	r4, [r0, #12]
 500              		.loc 1 53 0
 501 01d6 0526     		movs	r6, #5
 502              		.loc 1 57 0
 503 01d8 0025     		movs	r5, #0
 504              		.loc 1 53 0
 505 01da 0670     		strb	r6, [r0]
 506              		.loc 1 57 0
 507 01dc 4561     		str	r5, [r0, #20]
 508              		.loc 1 54 0
 509 01de 4160     		str	r1, [r0, #4]
 510              		.loc 1 55 0
ARM GAS  /var/folders/28/j9jfyj_n4wz3qtvnym210h2c0000gn/T//ccpoR13X.s 			page 10


 511 01e0 8260     		str	r2, [r0, #8]
 512              		.loc 1 56 0
 513 01e2 0361     		str	r3, [r0, #16]
 514              		.loc 1 59 0
 515 01e4 70BC     		pop	{r4, r5, r6}
 516              		.cfi_restore 6
 517              		.cfi_restore 5
 518              		.cfi_restore 4
 519              		.cfi_def_cfa_offset 0
 520              	.LVL30:
 521 01e6 7047     		bx	lr
 522              		.cfi_endproc
 523              	.LFE179:
 524              		.size	SetKVP_APVP, .-SetKVP_APVP
 525              		.align	2
 526 01e8 AFF30080 		.p2align 4,,15
 526      AFF30080 
 527              		.global	SetKVP_AVP
 528              		.thumb
 529              		.thumb_func
 530              		.type	SetKVP_AVP, %function
 531              	SetKVP_AVP:
 532              	.LFB180:
 533              		.loc 1 62 0
 534              		.cfi_startproc
 535              		@ args = 4, pretend = 0, frame = 0
 536              		@ frame_needed = 0, uses_anonymous_args = 0
 537              		@ link register save eliminated.
 538              	.LVL31:
 539 01f0 70B4     		push	{r4, r5, r6}
 540              		.cfi_def_cfa_offset 12
 541              		.cfi_offset 4, -12
 542              		.cfi_offset 5, -8
 543              		.cfi_offset 6, -4
 544              		.loc 1 62 0
 545 01f2 039C     		ldr	r4, [sp, #12]
 546              		.loc 1 68 0
 547 01f4 C460     		str	r4, [r0, #12]
 548              		.loc 1 63 0
 549 01f6 0326     		movs	r6, #3
 550              		.loc 1 67 0
 551 01f8 0025     		movs	r5, #0
 552              		.loc 1 63 0
 553 01fa 0670     		strb	r6, [r0]
 554              		.loc 1 67 0
 555 01fc 4561     		str	r5, [r0, #20]
 556              		.loc 1 64 0
 557 01fe 4160     		str	r1, [r0, #4]
 558              		.loc 1 65 0
 559 0200 8260     		str	r2, [r0, #8]
 560              		.loc 1 66 0
 561 0202 0361     		str	r3, [r0, #16]
 562              		.loc 1 69 0
 563 0204 70BC     		pop	{r4, r5, r6}
 564              		.cfi_restore 6
 565              		.cfi_restore 5
 566              		.cfi_restore 4
ARM GAS  /var/folders/28/j9jfyj_n4wz3qtvnym210h2c0000gn/T//ccpoR13X.s 			page 11


 567              		.cfi_def_cfa_offset 0
 568              	.LVL32:
 569 0206 7047     		bx	lr
 570              		.cfi_endproc
 571              	.LFE180:
 572              		.size	SetKVP_AVP, .-SetKVP_AVP
 573              		.align	2
 574 0208 AFF30080 		.p2align 4,,15
 574      AFF30080 
 575              		.global	SetKVP_IVP
 576              		.thumb
 577              		.thumb_func
 578              		.type	SetKVP_IVP, %function
 579              	SetKVP_IVP:
 580              	.LFB181:
 581              		.loc 1 72 0
 582              		.cfi_startproc
 583              		@ args = 8, pretend = 0, frame = 0
 584              		@ frame_needed = 0, uses_anonymous_args = 0
 585              		@ link register save eliminated.
 586              	.LVL33:
 587 0210 70B4     		push	{r4, r5, r6}
 588              		.cfi_def_cfa_offset 12
 589              		.cfi_offset 4, -12
 590              		.cfi_offset 5, -8
 591              		.cfi_offset 6, -4
 592              		.loc 1 72 0
 593 0212 039D     		ldr	r5, [sp, #12]
 594 0214 049C     		ldr	r4, [sp, #16]
 595              		.loc 1 77 0
 596 0216 0561     		str	r5, [r0, #16]
 597              		.loc 1 73 0
 598 0218 0026     		movs	r6, #0
 599 021a 0670     		strb	r6, [r0]
 600              		.loc 1 78 0
 601 021c 4461     		str	r4, [r0, #20]
 602              		.loc 1 74 0
 603 021e 4160     		str	r1, [r0, #4]
 604              		.loc 1 75 0
 605 0220 8260     		str	r2, [r0, #8]
 606              		.loc 1 76 0
 607 0222 C360     		str	r3, [r0, #12]
 608              		.loc 1 79 0
 609 0224 70BC     		pop	{r4, r5, r6}
 610              		.cfi_restore 6
 611              		.cfi_restore 5
 612              		.cfi_restore 4
 613              		.cfi_def_cfa_offset 0
 614              	.LVL34:
 615 0226 7047     		bx	lr
 616              		.cfi_endproc
 617              	.LFE181:
 618              		.size	SetKVP_IVP, .-SetKVP_IVP
 619              		.align	2
 620 0228 AFF30080 		.p2align 4,,15
 620      AFF30080 
 621              		.global	SetKVP_IPVP
ARM GAS  /var/folders/28/j9jfyj_n4wz3qtvnym210h2c0000gn/T//ccpoR13X.s 			page 12


 622              		.thumb
 623              		.thumb_func
 624              		.type	SetKVP_IPVP, %function
 625              	SetKVP_IPVP:
 626              	.LFB182:
 627              		.loc 1 83 0
 628              		.cfi_startproc
 629              		@ args = 8, pretend = 0, frame = 0
 630              		@ frame_needed = 0, uses_anonymous_args = 0
 631              		@ link register save eliminated.
 632              	.LVL35:
 633 0230 F0B4     		push	{r4, r5, r6, r7}
 634              		.cfi_def_cfa_offset 16
 635              		.cfi_offset 4, -16
 636              		.cfi_offset 5, -12
 637              		.cfi_offset 6, -8
 638              		.cfi_offset 7, -4
 639              		.loc 1 83 0
 640 0232 049D     		ldr	r5, [sp, #16]
 641 0234 059C     		ldr	r4, [sp, #20]
 642              		.loc 1 84 0
 643 0236 0F27     		movs	r7, #15
 644              		.loc 1 85 0
 645 0238 0B26     		movs	r6, #11
 646              		.loc 1 84 0
 647 023a 1F61     		str	r7, [r3, #16]
 648              		.loc 1 85 0
 649 023c 0670     		strb	r6, [r0]
 650              		.loc 1 89 0
 651 023e 0561     		str	r5, [r0, #16]
 652              		.loc 1 90 0
 653 0240 4461     		str	r4, [r0, #20]
 654              		.loc 1 86 0
 655 0242 4160     		str	r1, [r0, #4]
 656              		.loc 1 87 0
 657 0244 8260     		str	r2, [r0, #8]
 658              		.loc 1 88 0
 659 0246 C360     		str	r3, [r0, #12]
 660              		.loc 1 91 0
 661 0248 F0BC     		pop	{r4, r5, r6, r7}
 662              		.cfi_restore 7
 663              		.cfi_restore 6
 664              		.cfi_restore 5
 665              		.cfi_restore 4
 666              		.cfi_def_cfa_offset 0
 667              	.LVL36:
 668 024a 7047     		bx	lr
 669              		.cfi_endproc
 670              	.LFE182:
 671              		.size	SetKVP_IPVP, .-SetKVP_IPVP
 672              		.align	2
 673 024c AFF30080 		.p2align 4,,15
 674              		.global	SetKVP_FNCTN
 675              		.thumb
 676              		.thumb_func
 677              		.type	SetKVP_FNCTN, %function
 678              	SetKVP_FNCTN:
ARM GAS  /var/folders/28/j9jfyj_n4wz3qtvnym210h2c0000gn/T//ccpoR13X.s 			page 13


 679              	.LFB183:
 680              		.loc 1 94 0
 681              		.cfi_startproc
 682              		@ args = 0, pretend = 0, frame = 0
 683              		@ frame_needed = 0, uses_anonymous_args = 0
 684              		@ link register save eliminated.
 685              	.LVL37:
 686 0250 10B4     		push	{r4}
 687              		.cfi_def_cfa_offset 4
 688              		.cfi_offset 4, -4
 689              		.loc 1 95 0
 690 0252 0D24     		movs	r4, #13
 691 0254 0470     		strb	r4, [r0]
 692              		.loc 1 96 0
 693 0256 4160     		str	r1, [r0, #4]
 694              		.loc 1 97 0
 695 0258 8260     		str	r2, [r0, #8]
 696              		.loc 1 98 0
 697 025a C360     		str	r3, [r0, #12]
 698              		.loc 1 99 0
 699 025c 5DF8044B 		ldr	r4, [sp], #4
 700              		.cfi_restore 4
 701              		.cfi_def_cfa_offset 0
 702 0260 7047     		bx	lr
 703              		.cfi_endproc
 704              	.LFE183:
 705              		.size	SetKVP_FNCTN, .-SetKVP_FNCTN
 706 0262 00BF     		.align	2
 707 0264 AFF30080 		.p2align 4,,15
 707      AFF30080 
 707      AFF30080 
 708              		.global	KVP_Increment
 709              		.thumb
 710              		.thumb_func
 711              		.type	KVP_Increment, %function
 712              	KVP_Increment:
 713              	.LFB184:
 714              		.loc 1 101 0
 715              		.cfi_startproc
 716              		@ args = 0, pretend = 0, frame = 0
 717              		@ frame_needed = 0, uses_anonymous_args = 0
 718              		@ link register save eliminated.
 719              	.LVL38:
 720              		.loc 1 102 0
 721 0270 0378     		ldrb	r3, [r0]	@ zero_extendqisi2
 722 0272 0C2B     		cmp	r3, #12
 723 0274 0DD8     		bhi	.L47
 724 0276 DFE803F0 		tbb	[pc, r3]
 725              	.L50:
 726 027a 21       		.byte	(.L49-.L50)/2
 727 027b 0C       		.byte	(.L47-.L50)/2
 728 027c 0C       		.byte	(.L47-.L50)/2
 729 027d 07       		.byte	(.L52-.L50)/2
 730 027e 0C       		.byte	(.L47-.L50)/2
 731 027f 07       		.byte	(.L52-.L50)/2
 732 0280 0C       		.byte	(.L47-.L50)/2
 733 0281 0C       		.byte	(.L47-.L50)/2
ARM GAS  /var/folders/28/j9jfyj_n4wz3qtvnym210h2c0000gn/T//ccpoR13X.s 			page 14


 734 0282 0C       		.byte	(.L47-.L50)/2
 735 0283 0C       		.byte	(.L47-.L50)/2
 736 0284 0C       		.byte	(.L47-.L50)/2
 737 0285 15       		.byte	(.L53-.L50)/2
 738 0286 0D       		.byte	(.L54-.L50)/2
 739 0287 00       		.p2align 1
 740              	.L52:
 741              		.loc 1 112 0
 742 0288 0369     		ldr	r3, [r0, #16]
 743 028a 4269     		ldr	r2, [r0, #20]
 744 028c 013B     		subs	r3, r3, #1
 745 028e 9A42     		cmp	r2, r3
 746 0290 1CDB     		blt	.L58
 747              	.L47:
 748 0292 7047     		bx	lr
 749              	.L54:
 750              		.loc 1 116 0
 751 0294 C268     		ldr	r2, [r0, #12]
 752 0296 4169     		ldr	r1, [r0, #20]
 753 0298 1378     		ldrb	r3, [r2]	@ zero_extendqisi2
 754 029a 8B42     		cmp	r3, r1
 755 029c F9DA     		bge	.L47
 756              		.loc 1 117 0
 757 029e 0133     		adds	r3, r3, #1
 758 02a0 1370     		strb	r3, [r2]
 759 02a2 7047     		bx	lr
 760              	.L53:
 761              	.LVL39:
 762              	.LBB89:
 763              	.LBB90:
 764              	.LBB91:
 765              		.loc 1 120 0
 766 02a4 C268     		ldr	r2, [r0, #12]
 767              		.loc 1 121 0
 768 02a6 4169     		ldr	r1, [r0, #20]
 769              		.loc 1 120 0
 770 02a8 1368     		ldr	r3, [r2]
 771 02aa 03F58013 		add	r3, r3, #1048576
 772              	.LVL40:
 773              		.loc 1 121 0
 774 02ae 8B42     		cmp	r3, r1
 775              		.loc 1 122 0
 776 02b0 1046     		mov	r0, r2
 777              	.LVL41:
 778              		.loc 1 121 0
 779 02b2 0EDB     		blt	.L59
 780              		.loc 1 125 0
 781 02b4 6FF01802 		mvn	r2, #24
 782 02b8 FFF7FEBF 		b	PExParameterChange
 783              	.LVL42:
 784              	.L49:
 785              	.LBE91:
 786              	.LBE90:
 787              	.LBE89:
 788              		.loc 1 104 0
 789 02bc C268     		ldr	r2, [r0, #12]
 790 02be 4169     		ldr	r1, [r0, #20]
ARM GAS  /var/folders/28/j9jfyj_n4wz3qtvnym210h2c0000gn/T//ccpoR13X.s 			page 15


 791 02c0 1368     		ldr	r3, [r2]
 792 02c2 8B42     		cmp	r3, r1
 793 02c4 E5DA     		bge	.L47
 794              		.loc 1 105 0
 795 02c6 0133     		adds	r3, r3, #1
 796 02c8 1360     		str	r3, [r2]
 797 02ca 7047     		bx	lr
 798              	.L58:
 799              		.loc 1 113 0
 800 02cc 0132     		adds	r2, r2, #1
 801 02ce 4261     		str	r2, [r0, #20]
 802 02d0 7047     		bx	lr
 803              	.LVL43:
 804              	.L59:
 805              	.LBB94:
 806              	.LBB93:
 807              	.LBB92:
 808              		.loc 1 122 0
 809 02d2 1946     		mov	r1, r3
 810 02d4 6FF01802 		mvn	r2, #24
 811 02d8 FFF7FEBF 		b	PExParameterChange
 812              	.LVL44:
 813              	.LBE92:
 814              	.LBE93:
 815              	.LBE94:
 816              		.cfi_endproc
 817              	.LFE184:
 818              		.size	KVP_Increment, .-KVP_Increment
 819              		.align	2
 820 02dc AFF30080 		.p2align 4,,15
 821              		.global	KVP_Decrement
 822              		.thumb
 823              		.thumb_func
 824              		.type	KVP_Decrement, %function
 825              	KVP_Decrement:
 826              	.LFB185:
 827              		.loc 1 134 0
 828              		.cfi_startproc
 829              		@ args = 0, pretend = 0, frame = 0
 830              		@ frame_needed = 0, uses_anonymous_args = 0
 831              		@ link register save eliminated.
 832              	.LVL45:
 833              		.loc 1 135 0
 834 02e0 0378     		ldrb	r3, [r0]	@ zero_extendqisi2
 835 02e2 0C2B     		cmp	r3, #12
 836 02e4 08D8     		bhi	.L60
 837 02e6 DFE803F0 		tbb	[pc, r3]
 838              	.L63:
 839 02ea 22       		.byte	(.L62-.L63)/2
 840 02eb 07       		.byte	(.L60-.L63)/2
 841 02ec 07       		.byte	(.L60-.L63)/2
 842 02ed 08       		.byte	(.L65-.L63)/2
 843 02ee 07       		.byte	(.L60-.L63)/2
 844 02ef 08       		.byte	(.L65-.L63)/2
 845 02f0 07       		.byte	(.L60-.L63)/2
 846 02f1 07       		.byte	(.L60-.L63)/2
 847 02f2 07       		.byte	(.L60-.L63)/2
ARM GAS  /var/folders/28/j9jfyj_n4wz3qtvnym210h2c0000gn/T//ccpoR13X.s 			page 16


 848 02f3 07       		.byte	(.L60-.L63)/2
 849 02f4 07       		.byte	(.L60-.L63)/2
 850 02f5 16       		.byte	(.L66-.L63)/2
 851 02f6 0E       		.byte	(.L67-.L63)/2
 852 02f7 00       		.p2align 1
 853              	.L60:
 854 02f8 7047     		bx	lr
 855              	.L65:
 856              		.loc 1 145 0
 857 02fa 4369     		ldr	r3, [r0, #20]
 858 02fc 002B     		cmp	r3, #0
 859 02fe FBDD     		ble	.L60
 860              		.loc 1 146 0
 861 0300 013B     		subs	r3, r3, #1
 862 0302 4361     		str	r3, [r0, #20]
 863 0304 7047     		bx	lr
 864              	.L67:
 865              		.loc 1 149 0
 866 0306 C268     		ldr	r2, [r0, #12]
 867 0308 0169     		ldr	r1, [r0, #16]
 868 030a 1378     		ldrb	r3, [r2]	@ zero_extendqisi2
 869 030c 8B42     		cmp	r3, r1
 870 030e F3DD     		ble	.L60
 871              		.loc 1 150 0
 872 0310 013B     		subs	r3, r3, #1
 873 0312 1370     		strb	r3, [r2]
 874 0314 7047     		bx	lr
 875              	.L66:
 876              	.LVL46:
 877              	.LBB98:
 878              	.LBB99:
 879              	.LBB100:
 880              		.loc 1 153 0
 881 0316 C268     		ldr	r2, [r0, #12]
 882              		.loc 1 154 0
 883 0318 0169     		ldr	r1, [r0, #16]
 884              		.loc 1 153 0
 885 031a 1368     		ldr	r3, [r2]
 886 031c A3F58013 		sub	r3, r3, #1048576
 887              	.LVL47:
 888              		.loc 1 154 0
 889 0320 8B42     		cmp	r3, r1
 890              		.loc 1 155 0
 891 0322 1046     		mov	r0, r2
 892              	.LVL48:
 893              		.loc 1 154 0
 894 0324 0BDC     		bgt	.L71
 895              		.loc 1 158 0
 896 0326 6FF01802 		mvn	r2, #24
 897 032a FFF7FEBF 		b	PExParameterChange
 898              	.LVL49:
 899              	.L62:
 900              	.LBE100:
 901              	.LBE99:
 902              	.LBE98:
 903              		.loc 1 137 0
 904 032e C268     		ldr	r2, [r0, #12]
ARM GAS  /var/folders/28/j9jfyj_n4wz3qtvnym210h2c0000gn/T//ccpoR13X.s 			page 17


 905 0330 0169     		ldr	r1, [r0, #16]
 906 0332 1368     		ldr	r3, [r2]
 907 0334 8B42     		cmp	r3, r1
 908 0336 DFDD     		ble	.L60
 909              		.loc 1 138 0
 910 0338 013B     		subs	r3, r3, #1
 911 033a 1360     		str	r3, [r2]
 912 033c 7047     		bx	lr
 913              	.LVL50:
 914              	.L71:
 915              	.LBB103:
 916              	.LBB102:
 917              	.LBB101:
 918              		.loc 1 155 0
 919 033e 1946     		mov	r1, r3
 920 0340 6FF01802 		mvn	r2, #24
 921 0344 FFF7FEBF 		b	PExParameterChange
 922              	.LVL51:
 923              	.LBE101:
 924              	.LBE102:
 925              	.LBE103:
 926              		.cfi_endproc
 927              	.LFE185:
 928              		.size	KVP_Decrement, .-KVP_Decrement
 929              		.align	2
 930 0348 AFF30080 		.p2align 4,,15
 930      AFF30080 
 931              		.global	k_scope_DisplayFunction
 932              		.thumb
 933              		.thumb_func
 934              		.type	k_scope_DisplayFunction, %function
 935              	k_scope_DisplayFunction:
 936              	.LFB186:
 937              		.loc 1 167 0
 938              		.cfi_startproc
 939              		@ args = 0, pretend = 0, frame = 0
 940              		@ frame_needed = 0, uses_anonymous_args = 0
 941              	.LVL52:
 942 0350 70B5     		push	{r4, r5, r6, lr}
 943              		.cfi_def_cfa_offset 16
 944              		.cfi_offset 4, -16
 945              		.cfi_offset 5, -12
 946              		.cfi_offset 6, -8
 947              		.cfi_offset 14, -4
 948              		.loc 1 167 0
 949 0352 0646     		mov	r6, r0
 950              		.loc 1 170 0
 951 0354 FFF7FEFF 		bl	LCD_clearDisplay
 952              	.LVL53:
 953              		.loc 1 171 0
 954 0358 0024     		movs	r4, #0
 955              	.LVL54:
 956              	.L73:
 957              		.loc 1 172 0 discriminator 3
 958 035a 2146     		mov	r1, r4
 959 035c 0E20     		movs	r0, #14
 960              		.loc 1 171 0 discriminator 3
ARM GAS  /var/folders/28/j9jfyj_n4wz3qtvnym210h2c0000gn/T//ccpoR13X.s 			page 18


 961 035e 0134     		adds	r4, r4, #1
 962              	.LVL55:
 963              		.loc 1 172 0 discriminator 3
 964 0360 FFF7FEFF 		bl	LCD_setPixel
 965              	.LVL56:
 966              		.loc 1 171 0 discriminator 3
 967 0364 302C     		cmp	r4, #48
 968 0366 F8D1     		bne	.L73
 969              		.loc 1 174 0
 970 0368 0520     		movs	r0, #5
 971 036a 0021     		movs	r1, #0
 972 036c 264A     		ldr	r2, .L84
 973 036e FFF7FEFF 		bl	LCD_drawString
 974              	.LVL57:
 975              		.loc 1 175 0
 976 0372 0520     		movs	r0, #5
 977 0374 0221     		movs	r1, #2
 978 0376 254A     		ldr	r2, .L84+4
 979 0378 FFF7FEFF 		bl	LCD_drawString
 980              	.LVL58:
 981              		.loc 1 176 0
 982 037c 244A     		ldr	r2, .L84+8
 983 037e 0020     		movs	r0, #0
 984 0380 0421     		movs	r1, #4
 985 0382 FFF7FEFF 		bl	LCD_drawString
 986              	.LVL59:
 987              		.loc 1 177 0
 988 0386 0D20     		movs	r0, #13
 989 0388 1521     		movs	r1, #21
 990 038a FFF7FEFF 		bl	LCD_setPixel
 991              	.LVL60:
 992              		.loc 1 178 0
 993 038e 0C20     		movs	r0, #12
 994 0390 1521     		movs	r1, #21
 995 0392 FFF7FEFF 		bl	LCD_setPixel
 996              	.LVL61:
 997              		.loc 1 179 0
 998 0396 0D20     		movs	r0, #13
 999 0398 2521     		movs	r1, #37
 1000 039a FFF7FEFF 		bl	LCD_setPixel
 1001              	.LVL62:
 1002              		.loc 1 180 0
 1003 039e 0C20     		movs	r0, #12
 1004 03a0 2521     		movs	r1, #37
 1005 03a2 FFF7FEFF 		bl	LCD_setPixel
 1006              	.LVL63:
 1007              		.loc 1 181 0
 1008 03a6 0D20     		movs	r0, #13
 1009 03a8 0521     		movs	r1, #5
 1010 03aa FFF7FEFF 		bl	LCD_setPixel
 1011              	.LVL64:
 1012              		.loc 1 182 0
 1013 03ae 0C20     		movs	r0, #12
 1014 03b0 0521     		movs	r1, #5
 1015 03b2 FFF7FEFF 		bl	LCD_setPixel
 1016              	.LVL65:
 1017              		.loc 1 183 0
ARM GAS  /var/folders/28/j9jfyj_n4wz3qtvnym210h2c0000gn/T//ccpoR13X.s 			page 19


 1018 03b6 0020     		movs	r0, #0
 1019 03b8 0521     		movs	r1, #5
 1020 03ba 164A     		ldr	r2, .L84+12
 1021 03bc FFF7FEFF 		bl	LCD_drawStringInv
 1022              	.LVL66:
 1023              		.loc 1 184 0
 1024 03c0 3A20     		movs	r0, #58
 1025 03c2 0521     		movs	r1, #5
 1026 03c4 144A     		ldr	r2, .L84+16
 1027 03c6 351F     		subs	r5, r6, #4
 1028 03c8 FFF7FEFF 		bl	LCD_drawStringInv
 1029              	.LVL67:
 1030 03cc FC36     		adds	r6, r6, #252
 1031              	.LVL68:
 1032 03ce 0F24     		movs	r4, #15
 1033 03d0 09E0     		b	.L76
 1034              	.LVL69:
 1035              	.L83:
 1036              	.LBB104:
 1037              		.loc 1 191 0
 1038 03d2 2F29     		cmp	r1, #47
 1039 03d4 A8BF     		it	ge
 1040 03d6 2F21     		movge	r1, #47
 1041              	.LVL70:
 1042              		.loc 1 192 0
 1043 03d8 2046     		mov	r0, r4
 1044 03da FFF7FEFF 		bl	LCD_setPixel
 1045              	.LVL71:
 1046              	.LBE104:
 1047              		.loc 1 185 0
 1048 03de B542     		cmp	r5, r6
 1049 03e0 04F10104 		add	r4, r4, #1
 1050              	.LVL72:
 1051 03e4 0ED0     		beq	.L82
 1052              	.LVL73:
 1053              	.L76:
 1054              	.LBB105:
 1055              		.loc 1 187 0
 1056 03e6 55F8041F 		ldr	r1, [r5, #4]!
 1057              	.LVL74:
 1058 03ea C915     		asrs	r1, r1, #23
 1059 03ec C1F11501 		rsb	r1, r1, #21
 1060              	.LVL75:
 1061              		.loc 1 188 0
 1062 03f0 0029     		cmp	r1, #0
 1063 03f2 EEDC     		bgt	.L83
 1064              		.loc 1 192 0
 1065 03f4 2046     		mov	r0, r4
 1066              		.loc 1 189 0
 1067 03f6 0121     		movs	r1, #1
 1068              	.LVL76:
 1069              		.loc 1 192 0
 1070 03f8 FFF7FEFF 		bl	LCD_setPixel
 1071              	.LVL77:
 1072              	.LBE105:
 1073              		.loc 1 185 0
 1074 03fc B542     		cmp	r5, r6
ARM GAS  /var/folders/28/j9jfyj_n4wz3qtvnym210h2c0000gn/T//ccpoR13X.s 			page 20


 1075 03fe 04F10104 		add	r4, r4, #1
 1076              	.LVL78:
 1077 0402 F0D1     		bne	.L76
 1078              	.LVL79:
 1079              	.L82:
 1080              		.loc 1 194 0
 1081 0404 70BD     		pop	{r4, r5, r6, pc}
 1082              	.LVL80:
 1083              	.L85:
 1084 0406 00BF     		.align	2
 1085              	.L84:
 1086 0408 2C000000 		.word	.LC5
 1087 040c 30000000 		.word	.LC6
 1088 0410 34000000 		.word	.LC7
 1089 0414 38000000 		.word	.LC8
 1090 0418 40000000 		.word	.LC9
 1091              		.cfi_endproc
 1092              	.LFE186:
 1093              		.size	k_scope_DisplayFunction, .-k_scope_DisplayFunction
 1094              		.align	2
 1095 041c AFF30080 		.p2align 4,,15
 1096              		.global	k_scope_DisplayFunction2
 1097              		.thumb
 1098              		.thumb_func
 1099              		.type	k_scope_DisplayFunction2, %function
 1100              	k_scope_DisplayFunction2:
 1101              	.LFB187:
 1102              		.loc 1 196 0
 1103              		.cfi_startproc
 1104              		@ args = 0, pretend = 0, frame = 0
 1105              		@ frame_needed = 0, uses_anonymous_args = 0
 1106              	.LVL81:
 1107 0420 2DE9F843 		push	{r3, r4, r5, r6, r7, r8, r9, lr}
 1108              		.cfi_def_cfa_offset 32
 1109              		.cfi_offset 3, -32
 1110              		.cfi_offset 4, -28
 1111              		.cfi_offset 5, -24
 1112              		.cfi_offset 6, -20
 1113              		.cfi_offset 7, -16
 1114              		.cfi_offset 8, -12
 1115              		.cfi_offset 9, -8
 1116              		.cfi_offset 14, -4
 1117              		.loc 1 196 0
 1118 0424 8146     		mov	r9, r0
 1119              		.loc 1 199 0
 1120 0426 FFF7FEFF 		bl	LCD_clearDisplay
 1121              	.LVL82:
 1122              		.loc 1 200 0
 1123 042a 0024     		movs	r4, #0
 1124              	.LVL83:
 1125              	.L87:
 1126              		.loc 1 201 0 discriminator 3
 1127 042c 2146     		mov	r1, r4
 1128 042e 0E20     		movs	r0, #14
 1129              		.loc 1 200 0 discriminator 3
 1130 0430 0134     		adds	r4, r4, #1
 1131              	.LVL84:
ARM GAS  /var/folders/28/j9jfyj_n4wz3qtvnym210h2c0000gn/T//ccpoR13X.s 			page 21


 1132              		.loc 1 201 0 discriminator 3
 1133 0432 FFF7FEFF 		bl	LCD_setPixel
 1134              	.LVL85:
 1135              		.loc 1 200 0 discriminator 3
 1136 0436 302C     		cmp	r4, #48
 1137 0438 F8D1     		bne	.L87
 1138              		.loc 1 203 0
 1139 043a 0520     		movs	r0, #5
 1140 043c 0021     		movs	r1, #0
 1141 043e 334A     		ldr	r2, .L104
 1142 0440 FFF7FEFF 		bl	LCD_drawString
 1143              	.LVL86:
 1144              		.loc 1 204 0
 1145 0444 0520     		movs	r0, #5
 1146 0446 0221     		movs	r1, #2
 1147 0448 314A     		ldr	r2, .L104+4
 1148 044a FFF7FEFF 		bl	LCD_drawString
 1149              	.LVL87:
 1150              		.loc 1 205 0
 1151 044e 314A     		ldr	r2, .L104+8
 1152 0450 0020     		movs	r0, #0
 1153 0452 0421     		movs	r1, #4
 1154 0454 FFF7FEFF 		bl	LCD_drawString
 1155              	.LVL88:
 1156              		.loc 1 206 0
 1157 0458 0D20     		movs	r0, #13
 1158 045a 1521     		movs	r1, #21
 1159 045c FFF7FEFF 		bl	LCD_setPixel
 1160              	.LVL89:
 1161              		.loc 1 207 0
 1162 0460 0C20     		movs	r0, #12
 1163 0462 1521     		movs	r1, #21
 1164 0464 FFF7FEFF 		bl	LCD_setPixel
 1165              	.LVL90:
 1166              		.loc 1 208 0
 1167 0468 0D20     		movs	r0, #13
 1168 046a 2521     		movs	r1, #37
 1169 046c FFF7FEFF 		bl	LCD_setPixel
 1170              	.LVL91:
 1171              		.loc 1 209 0
 1172 0470 0C20     		movs	r0, #12
 1173 0472 2521     		movs	r1, #37
 1174 0474 FFF7FEFF 		bl	LCD_setPixel
 1175              	.LVL92:
 1176              		.loc 1 210 0
 1177 0478 0D20     		movs	r0, #13
 1178 047a 0521     		movs	r1, #5
 1179 047c FFF7FEFF 		bl	LCD_setPixel
 1180              	.LVL93:
 1181              		.loc 1 211 0
 1182 0480 0C20     		movs	r0, #12
 1183 0482 0521     		movs	r1, #5
 1184 0484 FFF7FEFF 		bl	LCD_setPixel
 1185              	.LVL94:
 1186              		.loc 1 212 0
 1187 0488 0020     		movs	r0, #0
 1188 048a 0521     		movs	r1, #5
ARM GAS  /var/folders/28/j9jfyj_n4wz3qtvnym210h2c0000gn/T//ccpoR13X.s 			page 22


 1189 048c 224A     		ldr	r2, .L104+12
 1190 048e FFF7FEFF 		bl	LCD_drawStringInv
 1191              	.LVL95:
 1192              		.loc 1 213 0
 1193 0492 3A20     		movs	r0, #58
 1194 0494 0521     		movs	r1, #5
 1195 0496 214A     		ldr	r2, .L104+16
 1196 0498 FFF7FEFF 		bl	LCD_drawStringInv
 1197              	.LVL96:
 1198              		.loc 1 215 0
 1199 049c 1B20     		movs	r0, #27
 1200 049e 0521     		movs	r1, #5
 1201 04a0 1F4A     		ldr	r2, .L104+20
 1202 04a2 FFF7FEFF 		bl	LCD_drawString
 1203              	.LVL97:
 1204 04a6 C846     		mov	r8, r9
 1205              		.loc 1 217 0
 1206 04a8 0027     		movs	r7, #0
 1207              	.LVL98:
 1208              	.L94:
 1209              	.LBB106:
 1210              		.loc 1 219 0
 1211 04aa D8F80430 		ldr	r3, [r8, #4]
 1212 04ae DB15     		asrs	r3, r3, #23
 1213 04b0 C3F11504 		rsb	r4, r3, #21
 1214              	.LVL99:
 1215              		.loc 1 220 0
 1216 04b4 002C     		cmp	r4, #0
 1217 04b6 22DD     		ble	.L95
 1218              		.loc 1 222 0
 1219 04b8 2F2C     		cmp	r4, #47
 1220 04ba 23DD     		ble	.L103
 1221 04bc 3023     		movs	r3, #48
 1222              		.loc 1 223 0
 1223 04be 2F24     		movs	r4, #47
 1224              	.LVL100:
 1225              	.L89:
 1226              		.loc 1 225 0
 1227 04c0 59F83750 		ldr	r5, [r9, r7, lsl #3]
 1228 04c4 ED15     		asrs	r5, r5, #23
 1229 04c6 C5F11505 		rsb	r5, r5, #21
 1230              	.LVL101:
 1231              		.loc 1 226 0
 1232 04ca 002D     		cmp	r5, #0
 1233 04cc 15DD     		ble	.L97
 1234              		.loc 1 229 0
 1235 04ce 2F2D     		cmp	r5, #47
 1236 04d0 A8BF     		it	ge
 1237 04d2 2F25     		movge	r5, #47
 1238              	.LVL102:
 1239              	.L91:
 1240              		.loc 1 235 0
 1241 04d4 AC42     		cmp	r4, r5
 1242 04d6 A8BF     		it	ge
 1243 04d8 1D46     		movge	r5, r3
 1244              	.LVL103:
 1245 04da 07F10F06 		add	r6, r7, #15
ARM GAS  /var/folders/28/j9jfyj_n4wz3qtvnym210h2c0000gn/T//ccpoR13X.s 			page 23


 1246              	.LVL104:
 1247              	.L93:
 1248              		.loc 1 237 0 discriminator 3
 1249 04de 2146     		mov	r1, r4
 1250 04e0 3046     		mov	r0, r6
 1251              		.loc 1 236 0 discriminator 3
 1252 04e2 0134     		adds	r4, r4, #1
 1253              	.LVL105:
 1254              		.loc 1 237 0 discriminator 3
 1255 04e4 FFF7FEFF 		bl	LCD_setPixel
 1256              	.LVL106:
 1257              		.loc 1 236 0 discriminator 3
 1258 04e8 AC42     		cmp	r4, r5
 1259 04ea F8DB     		blt	.L93
 1260              	.LBE106:
 1261              		.loc 1 217 0 discriminator 2
 1262 04ec 0137     		adds	r7, r7, #1
 1263              	.LVL107:
 1264 04ee 402F     		cmp	r7, #64
 1265 04f0 08F10808 		add	r8, r8, #8
 1266 04f4 D9D1     		bne	.L94
 1267              		.loc 1 239 0
 1268 04f6 BDE8F883 		pop	{r3, r4, r5, r6, r7, r8, r9, pc}
 1269              	.LVL108:
 1270              	.L97:
 1271              	.LBB107:
 1272              		.loc 1 227 0
 1273 04fa 0125     		movs	r5, #1
 1274              	.LVL109:
 1275 04fc EAE7     		b	.L91
 1276              	.LVL110:
 1277              	.L95:
 1278 04fe 0223     		movs	r3, #2
 1279              		.loc 1 221 0
 1280 0500 0124     		movs	r4, #1
 1281              	.LVL111:
 1282 0502 DDE7     		b	.L89
 1283              	.L103:
 1284 0504 C3F11603 		rsb	r3, r3, #22
 1285 0508 DAE7     		b	.L89
 1286              	.L105:
 1287 050a 00BF     		.align	2
 1288              	.L104:
 1289 050c 2C000000 		.word	.LC5
 1290 0510 30000000 		.word	.LC6
 1291 0514 34000000 		.word	.LC7
 1292 0518 38000000 		.word	.LC8
 1293 051c 40000000 		.word	.LC9
 1294 0520 48000000 		.word	.LC10
 1295              	.LBE107:
 1296              		.cfi_endproc
 1297              	.LFE187:
 1298              		.size	k_scope_DisplayFunction2, .-k_scope_DisplayFunction2
 1299              		.align	2
 1300 0524 AFF30080 		.p2align 4,,15
 1300      AFF30080 
 1300      AFF30080 
ARM GAS  /var/folders/28/j9jfyj_n4wz3qtvnym210h2c0000gn/T//ccpoR13X.s 			page 24


 1301              		.global	k_scope_DisplayFunction3
 1302              		.thumb
 1303              		.thumb_func
 1304              		.type	k_scope_DisplayFunction3, %function
 1305              	k_scope_DisplayFunction3:
 1306              	.LFB188:
 1307              		.loc 1 241 0
 1308              		.cfi_startproc
 1309              		@ args = 0, pretend = 0, frame = 0
 1310              		@ frame_needed = 0, uses_anonymous_args = 0
 1311              		@ link register save eliminated.
 1312              	.LVL112:
 1313 0530 7047     		bx	lr
 1314              		.cfi_endproc
 1315              	.LFE188:
 1316              		.size	k_scope_DisplayFunction3, .-k_scope_DisplayFunction3
 1317 0532 00BF     		.align	2
 1318 0534 AFF30080 		.p2align 4,,15
 1318      AFF30080 
 1318      AFF30080 
 1319              		.global	k_scope_DisplayFunction4
 1320              		.thumb
 1321              		.thumb_func
 1322              		.type	k_scope_DisplayFunction4, %function
 1323              	k_scope_DisplayFunction4:
 1324              	.LFB189:
 1325              		.loc 1 245 0
 1326              		.cfi_startproc
 1327              		@ args = 0, pretend = 0, frame = 0
 1328              		@ frame_needed = 0, uses_anonymous_args = 0
 1329              		@ link register save eliminated.
 1330              	.LVL113:
 1331 0540 7047     		bx	lr
 1332              		.cfi_endproc
 1333              	.LFE189:
 1334              		.size	k_scope_DisplayFunction4, .-k_scope_DisplayFunction4
 1335 0542 00BF     		.align	2
 1336 0544 AFF30080 		.p2align 4,,15
 1336      AFF30080 
 1336      AFF30080 
 1337              		.global	k_value_DisplayFunction
 1338              		.thumb
 1339              		.thumb_func
 1340              		.type	k_value_DisplayFunction, %function
 1341              	k_value_DisplayFunction:
 1342              	.LFB190:
 1343              		.loc 1 249 0
 1344              		.cfi_startproc
 1345              		@ args = 0, pretend = 0, frame = 0
 1346              		@ frame_needed = 0, uses_anonymous_args = 0
 1347              		@ link register save eliminated.
 1348              	.LVL114:
 1349 0550 7047     		bx	lr
 1350              		.cfi_endproc
 1351              	.LFE190:
 1352              		.size	k_value_DisplayFunction, .-k_value_DisplayFunction
 1353 0552 00BF     		.align	2
ARM GAS  /var/folders/28/j9jfyj_n4wz3qtvnym210h2c0000gn/T//ccpoR13X.s 			page 25


 1354 0554 AFF30080 		.p2align 4,,15
 1354      AFF30080 
 1354      AFF30080 
 1355              		.global	UIGoSafe
 1356              		.thumb
 1357              		.thumb_func
 1358              		.type	UIGoSafe, %function
 1359              	UIGoSafe:
 1360              	.LFB196:
 1361              		.loc 1 424 0
 1362              		.cfi_startproc
 1363              		@ args = 0, pretend = 0, frame = 0
 1364              		@ frame_needed = 0, uses_anonymous_args = 0
 1365              		@ link register save eliminated.
 1366              		.loc 1 425 0
 1367 0560 014B     		ldr	r3, .L110
 1368 0562 024A     		ldr	r2, .L110+4
 1369 0564 1A60     		str	r2, [r3]
 1370 0566 7047     		bx	lr
 1371              	.L111:
 1372              		.align	2
 1373              	.L110:
 1374 0568 00000000 		.word	KvpsDisplay
 1375 056c 00000000 		.word	KvpsHead
 1376              		.cfi_endproc
 1377              	.LFE196:
 1378              		.size	UIGoSafe, .-UIGoSafe
 1379              		.align	2
 1380              		.p2align 4,,15
 1381              		.global	ui_init
 1382              		.thumb
 1383              		.thumb_func
 1384              		.type	ui_init, %function
 1385              	ui_init:
 1386              	.LFB197:
 1387              		.loc 1 428 0
 1388              		.cfi_startproc
 1389              		@ args = 0, pretend = 0, frame = 0
 1390              		@ frame_needed = 0, uses_anonymous_args = 0
 1391 0570 2DE9F04F 		push	{r4, r5, r6, r7, r8, r9, r10, fp, lr}
 1392              		.cfi_def_cfa_offset 36
 1393              		.cfi_offset 4, -36
 1394              		.cfi_offset 5, -32
 1395              		.cfi_offset 6, -28
 1396              		.cfi_offset 7, -24
 1397              		.cfi_offset 8, -20
 1398              		.cfi_offset 9, -16
 1399              		.cfi_offset 10, -12
 1400              		.cfi_offset 11, -8
 1401              		.cfi_offset 14, -4
 1402              		.loc 1 429 0
 1403 0574 5649     		ldr	r1, .L118
 1404              		.loc 1 430 0
 1405 0576 574B     		ldr	r3, .L118+4
 1406              	.LBB108:
 1407              	.LBB109:
 1408              		.loc 1 96 0
ARM GAS  /var/folders/28/j9jfyj_n4wz3qtvnym210h2c0000gn/T//ccpoR13X.s 			page 26


 1409 0578 574E     		ldr	r6, .L118+8
 1410              	.LBE109:
 1411              	.LBE108:
 1412              		.loc 1 429 0
 1413 057a 0025     		movs	r5, #0
 1414              		.loc 1 430 0
 1415 057c 4FF0FF32 		mov	r2, #-1
 1416              		.loc 1 428 0
 1417 0580 83B0     		sub	sp, sp, #12
 1418              		.cfi_def_cfa_offset 48
 1419              		.loc 1 432 0
 1420 0582 9020     		movs	r0, #144
 1421              		.loc 1 430 0
 1422 0584 1A60     		str	r2, [r3]
 1423              		.loc 1 429 0
 1424 0586 0D60     		str	r5, [r1]
 1425              		.loc 1 432 0
 1426 0588 FFF7FEFF 		bl	chCoreAlloc
 1427              	.LVL115:
 1428              	.LBB114:
 1429              	.LBB110:
 1430              		.loc 1 95 0
 1431 058c 4FF00D08 		mov	r8, #13
 1432              		.loc 1 97 0
 1433 0590 5249     		ldr	r1, .L118+12
 1434              	.LBE110:
 1435              	.LBE114:
 1436              	.LBB115:
 1437              	.LBB116:
 1438 0592 534A     		ldr	r2, .L118+16
 1439              		.loc 1 98 0
 1440 0594 534B     		ldr	r3, .L118+20
 1441              	.LBE116:
 1442              	.LBE115:
 1443              	.LBB120:
 1444              	.LBB111:
 1445              		.loc 1 97 0
 1446 0596 8160     		str	r1, [r0, #8]
 1447              	.LBE111:
 1448              	.LBE120:
 1449              	.LBB121:
 1450              	.LBB117:
 1451 0598 0262     		str	r2, [r0, #32]
 1452              		.loc 1 98 0
 1453 059a 4362     		str	r3, [r0, #36]
 1454              	.LBE117:
 1455              	.LBE121:
 1456              	.LBB122:
 1457              	.LBB112:
 1458 059c C560     		str	r5, [r0, #12]
 1459              		.loc 1 95 0
 1460 059e 80F80080 		strb	r8, [r0]
 1461              	.LBE112:
 1462              	.LBE122:
 1463              	.LBB123:
 1464              	.LBB118:
 1465 05a2 80F81880 		strb	r8, [r0, #24]
ARM GAS  /var/folders/28/j9jfyj_n4wz3qtvnym210h2c0000gn/T//ccpoR13X.s 			page 27


 1466              	.LBE118:
 1467              	.LBE123:
 1468              	.LBB124:
 1469              	.LBB113:
 1470              		.loc 1 96 0
 1471 05a6 4660     		str	r6, [r0, #4]
 1472              	.LBE113:
 1473              	.LBE124:
 1474              	.LBB125:
 1475              	.LBB119:
 1476 05a8 C661     		str	r6, [r0, #28]
 1477              	.LBE119:
 1478              	.LBE125:
 1479              		.loc 1 432 0
 1480 05aa 0746     		mov	r7, r0
 1481              	.LVL116:
 1482              		.loc 1 437 0
 1483 05ac 9020     		movs	r0, #144
 1484              	.LVL117:
 1485 05ae FFF7FEFF 		bl	chCoreAlloc
 1486              	.LVL118:
 1487              		.loc 1 443 0
 1488 05b2 4D4B     		ldr	r3, .L118+24
 1489              	.LBB126:
 1490              	.LBB127:
 1491              		.loc 1 55 0
 1492 05b4 DFF85CC1 		ldr	ip, .L118+68
 1493              	.LBE127:
 1494              	.LBE126:
 1495              		.loc 1 443 0
 1496 05b8 1B78     		ldrb	r3, [r3]	@ zero_extendqisi2
 1497              	.LBB133:
 1498              	.LBB128:
 1499              		.loc 1 58 0
 1500 05ba DFF85CE1 		ldr	lr, .L118+72
 1501              	.LBE128:
 1502              	.LBE133:
 1503              	.LBB134:
 1504              	.LBB135:
 1505              		.loc 1 76 0
 1506 05be 4B49     		ldr	r1, .L118+28
 1507              	.LBE135:
 1508              	.LBE134:
 1509              		.loc 1 437 0
 1510 05c0 0446     		mov	r4, r0
 1511              	.LVL119:
 1512              	.LBB140:
 1513              	.LBB129:
 1514              		.loc 1 53 0
 1515 05c2 4FF00509 		mov	r9, #5
 1516              	.LBE129:
 1517              	.LBE140:
 1518              	.LBB141:
 1519              	.LBB136:
 1520              		.loc 1 75 0
 1521 05c6 4A48     		ldr	r0, .L118+32
 1522              	.LVL120:
ARM GAS  /var/folders/28/j9jfyj_n4wz3qtvnym210h2c0000gn/T//ccpoR13X.s 			page 28


 1523              	.LBE136:
 1524              	.LBE141:
 1525              	.LBB142:
 1526              	.LBB130:
 1527              		.loc 1 54 0
 1528 05c8 6660     		str	r6, [r4, #4]
 1529              	.LBE130:
 1530              	.LBE142:
 1531              	.LBB143:
 1532              	.LBB137:
 1533              		.loc 1 78 0
 1534 05ca 0F22     		movs	r2, #15
 1535              	.LBE137:
 1536              	.LBE143:
 1537              	.LBB144:
 1538              	.LBB131:
 1539              		.loc 1 56 0
 1540 05cc 2561     		str	r5, [r4, #16]
 1541              		.loc 1 57 0
 1542 05ce 6561     		str	r5, [r4, #20]
 1543              	.LBE131:
 1544              	.LBE144:
 1545              	.LBB145:
 1546              	.LBB138:
 1547              		.loc 1 73 0
 1548 05d0 2576     		strb	r5, [r4, #24]
 1549              		.loc 1 74 0
 1550 05d2 E661     		str	r6, [r4, #28]
 1551              		.loc 1 77 0
 1552 05d4 A562     		str	r5, [r4, #40]
 1553              	.LBE138:
 1554              	.LBE145:
 1555              	.LBB146:
 1556              	.LBB132:
 1557              		.loc 1 53 0
 1558 05d6 84F80090 		strb	r9, [r4]
 1559              		.loc 1 55 0
 1560 05da C4F808C0 		str	ip, [r4, #8]
 1561              		.loc 1 58 0
 1562 05de C4F80CE0 		str	lr, [r4, #12]
 1563              	.LVL121:
 1564              	.LBE132:
 1565              	.LBE146:
 1566              	.LBB147:
 1567              	.LBB139:
 1568              		.loc 1 75 0
 1569 05e2 2062     		str	r0, [r4, #32]
 1570              		.loc 1 76 0
 1571 05e4 6162     		str	r1, [r4, #36]
 1572              		.loc 1 78 0
 1573 05e6 E262     		str	r2, [r4, #44]
 1574              	.LBE139:
 1575              	.LBE147:
 1576              		.loc 1 443 0
 1577 05e8 002B     		cmp	r3, #0
 1578 05ea 6AD0     		beq	.L113
 1579              	.LVL122:
ARM GAS  /var/folders/28/j9jfyj_n4wz3qtvnym210h2c0000gn/T//ccpoR13X.s 			page 29


 1580              	.LBB148:
 1581              	.LBB149:
 1582              		.loc 1 97 0
 1583 05ec 414A     		ldr	r2, .L118+36
 1584              		.loc 1 98 0
 1585 05ee 424B     		ldr	r3, .L118+40
 1586              		.loc 1 95 0
 1587 05f0 84F83080 		strb	r8, [r4, #48]
 1588              		.loc 1 96 0
 1589 05f4 6663     		str	r6, [r4, #52]
 1590              		.loc 1 97 0
 1591 05f6 A263     		str	r2, [r4, #56]
 1592              		.loc 1 98 0
 1593 05f8 E363     		str	r3, [r4, #60]
 1594              	.LVL123:
 1595              	.L114:
 1596              	.LBE149:
 1597              	.LBE148:
 1598              		.loc 1 453 0
 1599 05fa DFF820B1 		ldr	fp, .L118+76
 1600              	.LBB150:
 1601              	.LBB151:
 1602              		.loc 1 65 0
 1603 05fe DFF820A1 		ldr	r10, .L118+80
 1604              	.LBE151:
 1605              	.LBE150:
 1606              		.loc 1 453 0
 1607 0602 CBF80060 		str	r6, [fp]
 1608              	.LBB158:
 1609              	.LBB152:
 1610              		.loc 1 67 0
 1611 0606 0023     		movs	r3, #0
 1612              		.loc 1 63 0
 1613 0608 0322     		movs	r2, #3
 1614              		.loc 1 66 0
 1615 060a 0221     		movs	r1, #2
 1616              	.LBE152:
 1617              	.LBE158:
 1618              	.LBB159:
 1619              	.LBB160:
 1620              		.loc 1 64 0
 1621 060c 7360     		str	r3, [r6, #4]
 1622              		.loc 1 67 0
 1623 060e 7361     		str	r3, [r6, #20]
 1624              	.LBE160:
 1625              	.LBE159:
 1626              	.LBB164:
 1627              	.LBB165:
 1628              		.loc 1 68 0
 1629 0610 3A4D     		ldr	r5, .L118+44
 1630              		.loc 1 65 0
 1631 0612 DFF81091 		ldr	r9, .L118+84
 1632              	.LBE165:
 1633              	.LBE164:
 1634              	.LBB171:
 1635              	.LBB172:
 1636              		.loc 1 75 0
ARM GAS  /var/folders/28/j9jfyj_n4wz3qtvnym210h2c0000gn/T//ccpoR13X.s 			page 30


 1637 0616 DFF810C1 		ldr	ip, .L118+88
 1638              		.loc 1 76 0
 1639 061a DFF810E1 		ldr	lr, .L118+92
 1640              	.LBE172:
 1641              	.LBE171:
 1642              	.LBB177:
 1643              	.LBB153:
 1644              		.loc 1 65 0
 1645 061e C4F850A0 		str	r10, [r4, #80]
 1646              	.LBE153:
 1647              	.LBE177:
 1648              	.LBB178:
 1649              	.LBB173:
 1650              		.loc 1 78 0
 1651 0622 6420     		movs	r0, #100
 1652              	.LBE173:
 1653              	.LBE178:
 1654              	.LBB179:
 1655              	.LBB161:
 1656              		.loc 1 66 0
 1657 0624 4FF0060B 		mov	fp, #6
 1658              	.LBE161:
 1659              	.LBE179:
 1660              	.LBB180:
 1661              	.LBB154:
 1662              		.loc 1 67 0
 1663 0628 E365     		str	r3, [r4, #92]
 1664              	.LBE154:
 1665              	.LBE180:
 1666              	.LBB181:
 1667              	.LBB166:
 1668 062a 6367     		str	r3, [r4, #116]
 1669              	.LBE166:
 1670              	.LBE181:
 1671              	.LBB182:
 1672              	.LBB174:
 1673              		.loc 1 73 0
 1674 062c 84F87830 		strb	r3, [r4, #120]
 1675              		.loc 1 77 0
 1676 0630 C4F88830 		str	r3, [r4, #136]
 1677              	.LBE174:
 1678              	.LBE182:
 1679              		.loc 1 456 0
 1680 0634 9A46     		mov	r10, r3
 1681 0636 DFF8F880 		ldr	r8, .L118+96
 1682              	.LBB183:
 1683              	.LBB162:
 1684              		.loc 1 65 0
 1685 063a 314B     		ldr	r3, .L118+48
 1686              	.LBE162:
 1687              	.LBE183:
 1688              	.LBB184:
 1689              	.LBB155:
 1690              		.loc 1 64 0
 1691 063c E664     		str	r6, [r4, #76]
 1692              		.loc 1 68 0
 1693 063e 6765     		str	r7, [r4, #84]
ARM GAS  /var/folders/28/j9jfyj_n4wz3qtvnym210h2c0000gn/T//ccpoR13X.s 			page 31


 1694              	.LVL124:
 1695              	.LBE155:
 1696              	.LBE184:
 1697              	.LBB185:
 1698              	.LBB167:
 1699              		.loc 1 64 0
 1700 0640 6666     		str	r6, [r4, #100]
 1701              	.LBE167:
 1702              	.LBE185:
 1703              	.LBB186:
 1704              	.LBB175:
 1705              		.loc 1 74 0
 1706 0642 E667     		str	r6, [r4, #124]
 1707              	.LBE175:
 1708              	.LBE186:
 1709              	.LBB187:
 1710              	.LBB163:
 1711              		.loc 1 68 0
 1712 0644 F460     		str	r4, [r6, #12]
 1713              		.loc 1 63 0
 1714 0646 3270     		strb	r2, [r6]
 1715              		.loc 1 65 0
 1716 0648 B360     		str	r3, [r6, #8]
 1717              		.loc 1 66 0
 1718 064a C6F810B0 		str	fp, [r6, #16]
 1719              	.LBE163:
 1720              	.LBE187:
 1721              	.LBB188:
 1722              	.LBB168:
 1723              		.loc 1 68 0
 1724 064e E566     		str	r5, [r4, #108]
 1725              	.LVL125:
 1726              	.LBE168:
 1727              	.LBE188:
 1728              	.LBB189:
 1729              	.LBB156:
 1730              		.loc 1 63 0
 1731 0650 84F84820 		strb	r2, [r4, #72]
 1732              	.LBE156:
 1733              	.LBE189:
 1734              	.LBB190:
 1735              	.LBB169:
 1736 0654 84F86020 		strb	r2, [r4, #96]
 1737              		.loc 1 66 0
 1738 0658 2267     		str	r2, [r4, #112]
 1739              	.LBE169:
 1740              	.LBE190:
 1741              	.LBB191:
 1742              	.LBB157:
 1743 065a A165     		str	r1, [r4, #88]
 1744              	.LBE157:
 1745              	.LBE191:
 1746              	.LBB192:
 1747              		.loc 1 457 0
 1748 065c 0F46     		mov	r7, r1
 1749              	.LVL126:
 1750              	.LBE192:
ARM GAS  /var/folders/28/j9jfyj_n4wz3qtvnym210h2c0000gn/T//ccpoR13X.s 			page 32


 1751              	.LBB193:
 1752              	.LBB170:
 1753              		.loc 1 65 0
 1754 065e C4F86890 		str	r9, [r4, #104]
 1755              	.LBE170:
 1756              	.LBE193:
 1757              	.LBB194:
 1758              	.LBB176:
 1759              		.loc 1 75 0
 1760 0662 C4F880C0 		str	ip, [r4, #128]
 1761              		.loc 1 76 0
 1762 0666 C4F884E0 		str	lr, [r4, #132]
 1763              		.loc 1 78 0
 1764 066a C4F88C00 		str	r0, [r4, #140]
 1765              	.LVL127:
 1766              	.LBE176:
 1767              	.LBE194:
 1768              	.LBB195:
 1769              		.loc 1 460 0
 1770 066e 4126     		movs	r6, #65
 1771              	.LVL128:
 1772              	.L115:
 1773 0670 08EB4A03 		add	r3, r8, r10, lsl #1
 1774              		.loc 1 458 0 discriminator 3
 1775 0674 EB60     		str	r3, [r5, #12]
 1776              		.loc 1 457 0 discriminator 3
 1777 0676 2F70     		strb	r7, [r5]
 1778              		.loc 1 459 0 discriminator 3
 1779 0678 0620     		movs	r0, #6
 1780 067a FFF7FEFF 		bl	chCoreAlloc
 1781              	.LVL129:
 1782 067e 0AF13002 		add	r2, r10, #48
 1783              	.LBE195:
 1784              		.loc 1 456 0 discriminator 3
 1785 0682 0AF1010A 		add	r10, r10, #1
 1786              	.LVL130:
 1787              	.LBB196:
 1788              		.loc 1 461 0 discriminator 3
 1789 0686 4FF0440E 		mov	lr, #68
 1790              		.loc 1 462 0 discriminator 3
 1791 068a 4321     		movs	r1, #67
 1792              		.loc 1 464 0 discriminator 3
 1793 068c 0023     		movs	r3, #0
 1794              	.LBE196:
 1795              		.loc 1 456 0 discriminator 3
 1796 068e BAF1030F 		cmp	r10, #3
 1797              	.LBB197:
 1798              		.loc 1 460 0 discriminator 3
 1799 0692 0670     		strb	r6, [r0]
 1800              		.loc 1 461 0 discriminator 3
 1801 0694 80F801E0 		strb	lr, [r0, #1]
 1802              		.loc 1 462 0 discriminator 3
 1803 0698 8170     		strb	r1, [r0, #2]
 1804              		.loc 1 463 0 discriminator 3
 1805 069a C270     		strb	r2, [r0, #3]
 1806              		.loc 1 464 0 discriminator 3
 1807 069c 0371     		strb	r3, [r0, #4]
ARM GAS  /var/folders/28/j9jfyj_n4wz3qtvnym210h2c0000gn/T//ccpoR13X.s 			page 33


 1808 069e 05F11805 		add	r5, r5, #24
 1809              		.loc 1 466 0 discriminator 3
 1810 06a2 45F8100C 		str	r0, [r5, #-16]
 1811              	.LBE197:
 1812              		.loc 1 456 0 discriminator 3
 1813 06a6 E3D1     		bne	.L115
 1814              		.loc 1 469 0
 1815 06a8 164A     		ldr	r2, .L118+52
 1816              		.loc 1 471 0
 1817 06aa 0093     		str	r3, [sp]
 1818 06ac 4FF4BC61 		mov	r1, #1504
 1819              		.loc 1 469 0
 1820 06b0 1460     		str	r4, [r2]
 1821              		.loc 1 471 0
 1822 06b2 154B     		ldr	r3, .L118+56
 1823 06b4 1548     		ldr	r0, .L118+60
 1824              	.LVL131:
 1825 06b6 4022     		movs	r2, #64
 1826 06b8 FFF7FEFF 		bl	chThdCreateStatic
 1827              	.LVL132:
 1828              		.loc 1 472 0
 1829 06bc 03B0     		add	sp, sp, #12
 1830              		.cfi_remember_state
 1831              		.cfi_def_cfa_offset 36
 1832              		@ sp needed
 1833 06be BDE8F08F 		pop	{r4, r5, r6, r7, r8, r9, r10, fp, pc}
 1834              	.LVL133:
 1835              	.L113:
 1836              		.cfi_restore_state
 1837              	.LBB198:
 1838              	.LBB199:
 1839              		.loc 1 97 0
 1840 06c2 134A     		ldr	r2, .L118+64
 1841              		.loc 1 95 0
 1842 06c4 84F83080 		strb	r8, [r4, #48]
 1843              		.loc 1 96 0
 1844 06c8 6663     		str	r6, [r4, #52]
 1845              		.loc 1 98 0
 1846 06ca E363     		str	r3, [r4, #60]
 1847              		.loc 1 97 0
 1848 06cc A263     		str	r2, [r4, #56]
 1849 06ce 94E7     		b	.L114
 1850              	.L119:
 1851              		.align	2
 1852              	.L118:
 1853 06d0 00000000 		.word	Btn_Nav_Or
 1854 06d4 00000000 		.word	Btn_Nav_And
 1855 06d8 00000000 		.word	KvpsHead
 1856 06dc 50000000 		.word	.LC11
 1857 06e0 58000000 		.word	.LC12
 1858 06e4 00000000 		.word	EnterMenuFormat
 1859 06e8 00000000 		.word	fs_ready
 1860 06ec 00000000 		.word	patchStatus
 1861 06f0 68000000 		.word	.LC14
 1862 06f4 04000000 		.word	.LC1
 1863 06f8 00000000 		.word	EnterMenuLoad
 1864 06fc 00000000 		.word	ADCkvps
ARM GAS  /var/folders/28/j9jfyj_n4wz3qtvnym210h2c0000gn/T//ccpoR13X.s 			page 34


 1865 0700 9C000000 		.word	.LC19
 1866 0704 00000000 		.word	ObjectKvpRoot
 1867 0708 00000000 		.word	ThreadUI
 1868 070c 00000000 		.word	.LANCHOR1
 1869 0710 70000000 		.word	.LC15
 1870 0714 60000000 		.word	.LC13
 1871 0718 00000000 		.word	ObjectKvps
 1872 071c 00000000 		.word	KvpsDisplay
 1873 0720 7C000000 		.word	.LC16
 1874 0724 8C000000 		.word	.LC17
 1875 0728 94000000 		.word	.LC18
 1876 072c 00000000 		.word	dspLoadPct
 1877 0730 00000000 		.word	adcvalues
 1878              	.LBE199:
 1879              	.LBE198:
 1880              		.cfi_endproc
 1881              	.LFE197:
 1882              		.size	ui_init, .-ui_init
 1883              		.align	2
 1884 0734 AFF30080 		.p2align 4,,15
 1884      AFF30080 
 1884      AFF30080 
 1885              		.global	KVP_ClearObjects
 1886              		.thumb
 1887              		.thumb_func
 1888              		.type	KVP_ClearObjects, %function
 1889              	KVP_ClearObjects:
 1890              	.LFB198:
 1891              		.loc 1 474 0
 1892              		.cfi_startproc
 1893              		@ args = 0, pretend = 0, frame = 0
 1894              		@ frame_needed = 0, uses_anonymous_args = 0
 1895              		@ link register save eliminated.
 1896              		.loc 1 475 0
 1897 0740 034B     		ldr	r3, .L121
 1898              		.loc 1 476 0
 1899 0742 044A     		ldr	r2, .L121+4
 1900              		.loc 1 475 0
 1901 0744 1B68     		ldr	r3, [r3]
 1902              		.loc 1 476 0
 1903 0746 0449     		ldr	r1, .L121+8
 1904 0748 1160     		str	r1, [r2]
 1905              		.loc 1 475 0
 1906 074a 0022     		movs	r2, #0
 1907 074c 1A61     		str	r2, [r3, #16]
 1908 074e 7047     		bx	lr
 1909              	.L122:
 1910              		.align	2
 1911              	.L121:
 1912 0750 00000000 		.word	ObjectKvpRoot
 1913 0754 00000000 		.word	KvpsDisplay
 1914 0758 00000000 		.word	KvpsHead
 1915              		.cfi_endproc
 1916              	.LFE198:
 1917              		.size	KVP_ClearObjects, .-KVP_ClearObjects
 1918              		.align	2
 1919 075c AFF30080 		.p2align 4,,15
ARM GAS  /var/folders/28/j9jfyj_n4wz3qtvnym210h2c0000gn/T//ccpoR13X.s 			page 35


 1920              		.global	KVP_RegisterObject
 1921              		.thumb
 1922              		.thumb_func
 1923              		.type	KVP_RegisterObject, %function
 1924              	KVP_RegisterObject:
 1925              	.LFB199:
 1926              		.loc 1 479 0
 1927              		.cfi_startproc
 1928              		@ args = 0, pretend = 0, frame = 0
 1929              		@ frame_needed = 0, uses_anonymous_args = 0
 1930              		@ link register save eliminated.
 1931              	.LVL134:
 1932 0760 10B4     		push	{r4}
 1933              		.cfi_def_cfa_offset 4
 1934              		.cfi_offset 4, -4
 1935              		.loc 1 480 0
 1936 0762 054B     		ldr	r3, .L125
 1937 0764 054C     		ldr	r4, .L125+4
 1938 0766 1B68     		ldr	r3, [r3]
 1939 0768 1A69     		ldr	r2, [r3, #16]
 1940              		.loc 1 482 0
 1941 076a 511C     		adds	r1, r2, #1
 1942              		.loc 1 480 0
 1943 076c 44F82200 		str	r0, [r4, r2, lsl #2]
 1944              		.loc 1 482 0
 1945 0770 1961     		str	r1, [r3, #16]
 1946              		.loc 1 483 0
 1947 0772 5DF8044B 		ldr	r4, [sp], #4
 1948              		.cfi_restore 4
 1949              		.cfi_def_cfa_offset 0
 1950 0776 7047     		bx	lr
 1951              	.L126:
 1952              		.align	2
 1953              	.L125:
 1954 0778 00000000 		.word	ObjectKvpRoot
 1955 077c 00000000 		.word	ObjectKvps
 1956              		.cfi_endproc
 1957              	.LFE199:
 1958              		.size	KVP_RegisterObject, .-KVP_RegisterObject
 1959              		.align	2
 1960              		.p2align 4,,15
 1961              		.global	KVP_DisplayInv
 1962              		.thumb
 1963              		.thumb_func
 1964              		.type	KVP_DisplayInv, %function
 1965              	KVP_DisplayInv:
 1966              	.LFB200:
 1967              		.loc 1 491 0
 1968              		.cfi_startproc
 1969              		@ args = 0, pretend = 0, frame = 0
 1970              		@ frame_needed = 0, uses_anonymous_args = 0
 1971              	.LVL135:
 1972 0780 70B5     		push	{r4, r5, r6, lr}
 1973              		.cfi_def_cfa_offset 16
 1974              		.cfi_offset 4, -16
 1975              		.cfi_offset 5, -12
 1976              		.cfi_offset 6, -8
ARM GAS  /var/folders/28/j9jfyj_n4wz3qtvnym210h2c0000gn/T//ccpoR13X.s 			page 36


 1977              		.cfi_offset 14, -4
 1978              		.loc 1 491 0
 1979 0782 1446     		mov	r4, r2
 1980              		.loc 1 492 0
 1981 0784 5B23     		movs	r3, #91
 1982 0786 9268     		ldr	r2, [r2, #8]
 1983              	.LVL136:
 1984              		.loc 1 491 0
 1985 0788 0D46     		mov	r5, r1
 1986              		.loc 1 492 0
 1987 078a FFF7FEFF 		bl	LCD_drawStringInvN
 1988              	.LVL137:
 1989              		.loc 1 493 0
 1990 078e 2378     		ldrb	r3, [r4]	@ zero_extendqisi2
 1991 0790 0C2B     		cmp	r3, #12
 1992 0792 67D8     		bhi	.L127
 1993 0794 DFE803F0 		tbb	[pc, r3]
 1994              	.L130:
 1995 0798 14       		.byte	(.L129-.L130)/2
 1996 0799 21       		.byte	(.L131-.L130)/2
 1997 079a 29       		.byte	(.L132-.L130)/2
 1998 079b 37       		.byte	(.L133-.L130)/2
 1999 079c 3F       		.byte	(.L134-.L130)/2
 2000 079d 48       		.byte	(.L135-.L130)/2
 2001 079e 50       		.byte	(.L136-.L130)/2
 2002 079f 66       		.byte	(.L127-.L130)/2
 2003 07a0 66       		.byte	(.L127-.L130)/2
 2004 07a1 66       		.byte	(.L127-.L130)/2
 2005 07a2 66       		.byte	(.L127-.L130)/2
 2006 07a3 58       		.byte	(.L137-.L130)/2
 2007 07a4 07       		.byte	(.L138-.L130)/2
 2008 07a5 00       		.p2align 1
 2009              	.L138:
 2010              		.loc 1 495 0
 2011 07a6 2946     		mov	r1, r5
 2012 07a8 5B20     		movs	r0, #91
 2013 07aa 3D22     		movs	r2, #61
 2014 07ac FFF7FEFF 		bl	LCD_drawCharInv
 2015              	.LVL138:
 2016              		.loc 1 496 0
 2017 07b0 E368     		ldr	r3, [r4, #12]
 2018 07b2 2946     		mov	r1, r5
 2019 07b4 1A78     		ldrb	r2, [r3]	@ zero_extendqisi2
 2020 07b6 6120     		movs	r0, #97
 2021              		.loc 1 528 0
 2022 07b8 BDE87040 		pop	{r4, r5, r6, lr}
 2023              		.cfi_remember_state
 2024              		.cfi_restore 14
 2025              		.cfi_restore 6
 2026              		.cfi_restore 5
 2027              		.cfi_restore 4
 2028              		.cfi_def_cfa_offset 0
 2029              	.LVL139:
 2030              		.loc 1 496 0
 2031 07bc FFF7FEBF 		b	LCD_drawNumber3DInv
 2032              	.LVL140:
 2033              	.L129:
ARM GAS  /var/folders/28/j9jfyj_n4wz3qtvnym210h2c0000gn/T//ccpoR13X.s 			page 37


 2034              		.cfi_restore_state
 2035              		.loc 1 499 0
 2036 07c0 2946     		mov	r1, r5
 2037 07c2 5B20     		movs	r0, #91
 2038 07c4 3D22     		movs	r2, #61
 2039 07c6 FFF7FEFF 		bl	LCD_drawCharInv
 2040              	.LVL141:
 2041              		.loc 1 500 0
 2042 07ca E368     		ldr	r3, [r4, #12]
 2043 07cc 2946     		mov	r1, r5
 2044 07ce 1A68     		ldr	r2, [r3]
 2045 07d0 6120     		movs	r0, #97
 2046              		.loc 1 528 0
 2047 07d2 BDE87040 		pop	{r4, r5, r6, lr}
 2048              		.cfi_remember_state
 2049              		.cfi_restore 14
 2050              		.cfi_restore 6
 2051              		.cfi_restore 5
 2052              		.cfi_restore 4
 2053              		.cfi_def_cfa_offset 0
 2054              	.LVL142:
 2055              		.loc 1 500 0
 2056 07d6 FFF7FEBF 		b	LCD_drawNumber3DInv
 2057              	.LVL143:
 2058              	.L131:
 2059              		.cfi_restore_state
 2060              		.loc 1 503 0
 2061 07da 2946     		mov	r1, r5
 2062 07dc 5B20     		movs	r0, #91
 2063 07de 224A     		ldr	r2, .L140
 2064 07e0 8023     		movs	r3, #128
 2065              		.loc 1 528 0
 2066 07e2 BDE87040 		pop	{r4, r5, r6, lr}
 2067              		.cfi_remember_state
 2068              		.cfi_restore 14
 2069              		.cfi_restore 6
 2070              		.cfi_restore 5
 2071              		.cfi_restore 4
 2072              		.cfi_def_cfa_offset 0
 2073              	.LVL144:
 2074              		.loc 1 503 0
 2075 07e6 FFF7FEBF 		b	LCD_drawStringInvN
 2076              	.LVL145:
 2077              	.L132:
 2078              		.cfi_restore_state
 2079              		.loc 1 512 0
 2080 07ea 2946     		mov	r1, r5
 2081 07ec 5B20     		movs	r0, #91
 2082 07ee 3D22     		movs	r2, #61
 2083 07f0 FFF7FEFF 		bl	LCD_drawCharInv
 2084              	.LVL146:
 2085              		.loc 1 513 0
 2086 07f4 E368     		ldr	r3, [r4, #12]
 2087 07f6 2946     		mov	r1, r5
 2088 07f8 B3F90020 		ldrsh	r2, [r3]
 2089 07fc 6120     		movs	r0, #97
 2090              		.loc 1 528 0
ARM GAS  /var/folders/28/j9jfyj_n4wz3qtvnym210h2c0000gn/T//ccpoR13X.s 			page 38


 2091 07fe BDE87040 		pop	{r4, r5, r6, lr}
 2092              		.cfi_remember_state
 2093              		.cfi_restore 14
 2094              		.cfi_restore 6
 2095              		.cfi_restore 5
 2096              		.cfi_restore 4
 2097              		.cfi_def_cfa_offset 0
 2098              	.LVL147:
 2099              		.loc 1 513 0
 2100 0802 FFF7FEBF 		b	LCD_drawNumber5DInv
 2101              	.LVL148:
 2102              	.L133:
 2103              		.cfi_restore_state
 2104              		.loc 1 506 0
 2105 0806 2946     		mov	r1, r5
 2106 0808 5B20     		movs	r0, #91
 2107 080a 184A     		ldr	r2, .L140+4
 2108 080c 8023     		movs	r3, #128
 2109              		.loc 1 528 0
 2110 080e BDE87040 		pop	{r4, r5, r6, lr}
 2111              		.cfi_remember_state
 2112              		.cfi_restore 14
 2113              		.cfi_restore 6
 2114              		.cfi_restore 5
 2115              		.cfi_restore 4
 2116              		.cfi_def_cfa_offset 0
 2117              	.LVL149:
 2118              		.loc 1 506 0
 2119 0812 FFF7FEBF 		b	LCD_drawStringInvN
 2120              	.LVL150:
 2121              	.L134:
 2122              		.cfi_restore_state
 2123              		.loc 1 509 0
 2124 0816 E368     		ldr	r3, [r4, #12]
 2125 0818 2946     		mov	r1, r5
 2126 081a 1A68     		ldr	r2, [r3]
 2127 081c 5B20     		movs	r0, #91
 2128 081e 8023     		movs	r3, #128
 2129              		.loc 1 528 0
 2130 0820 BDE87040 		pop	{r4, r5, r6, lr}
 2131              		.cfi_remember_state
 2132              		.cfi_restore 14
 2133              		.cfi_restore 6
 2134              		.cfi_restore 5
 2135              		.cfi_restore 4
 2136              		.cfi_def_cfa_offset 0
 2137              	.LVL151:
 2138              		.loc 1 509 0
 2139 0824 FFF7FEBF 		b	LCD_drawIBAR
 2140              	.LVL152:
 2141              	.L135:
 2142              		.cfi_restore_state
 2143              		.loc 1 516 0
 2144 0828 2946     		mov	r1, r5
 2145 082a 5B20     		movs	r0, #91
 2146 082c 104A     		ldr	r2, .L140+8
 2147 082e 8023     		movs	r3, #128
ARM GAS  /var/folders/28/j9jfyj_n4wz3qtvnym210h2c0000gn/T//ccpoR13X.s 			page 39


 2148              		.loc 1 528 0
 2149 0830 BDE87040 		pop	{r4, r5, r6, lr}
 2150              		.cfi_remember_state
 2151              		.cfi_restore 14
 2152              		.cfi_restore 6
 2153              		.cfi_restore 5
 2154              		.cfi_restore 4
 2155              		.cfi_def_cfa_offset 0
 2156              	.LVL153:
 2157              		.loc 1 516 0
 2158 0834 FFF7FEBF 		b	LCD_drawStringInvN
 2159              	.LVL154:
 2160              	.L136:
 2161              		.cfi_restore_state
 2162              		.loc 1 519 0
 2163 0838 2946     		mov	r1, r5
 2164 083a 5B20     		movs	r0, #91
 2165 083c 0D4A     		ldr	r2, .L140+12
 2166 083e 8023     		movs	r3, #128
 2167              		.loc 1 528 0
 2168 0840 BDE87040 		pop	{r4, r5, r6, lr}
 2169              		.cfi_remember_state
 2170              		.cfi_restore 14
 2171              		.cfi_restore 6
 2172              		.cfi_restore 5
 2173              		.cfi_restore 4
 2174              		.cfi_def_cfa_offset 0
 2175              	.LVL155:
 2176              		.loc 1 519 0
 2177 0844 FFF7FEBF 		b	LCD_drawStringInvN
 2178              	.LVL156:
 2179              	.L137:
 2180              		.cfi_restore_state
 2181              		.loc 1 522 0
 2182 0848 2946     		mov	r1, r5
 2183 084a 5B20     		movs	r0, #91
 2184 084c 3D22     		movs	r2, #61
 2185 084e FFF7FEFF 		bl	LCD_drawCharInv
 2186              	.LVL157:
 2187              		.loc 1 523 0
 2188 0852 E368     		ldr	r3, [r4, #12]
 2189 0854 1A68     		ldr	r2, [r3]
 2190 0856 2946     		mov	r1, r5
 2191 0858 1215     		asrs	r2, r2, #20
 2192 085a 6120     		movs	r0, #97
 2193              		.loc 1 528 0
 2194 085c BDE87040 		pop	{r4, r5, r6, lr}
 2195              		.cfi_remember_state
 2196              		.cfi_restore 14
 2197              		.cfi_restore 6
 2198              		.cfi_restore 5
 2199              		.cfi_restore 4
 2200              		.cfi_def_cfa_offset 0
 2201              	.LVL158:
 2202              		.loc 1 523 0
 2203 0860 FFF7FEBF 		b	LCD_drawNumber3DInv
 2204              	.LVL159:
ARM GAS  /var/folders/28/j9jfyj_n4wz3qtvnym210h2c0000gn/T//ccpoR13X.s 			page 40


 2205              	.L127:
 2206              		.cfi_restore_state
 2207 0864 70BD     		pop	{r4, r5, r6, pc}
 2208              	.LVL160:
 2209              	.L141:
 2210 0866 00BF     		.align	2
 2211              	.L140:
 2212 0868 AC000000 		.word	.LC20
 2213 086c B4000000 		.word	.LC21
 2214 0870 BC000000 		.word	.LC22
 2215 0874 C4000000 		.word	.LC23
 2216              		.cfi_endproc
 2217              	.LFE200:
 2218              		.size	KVP_DisplayInv, .-KVP_DisplayInv
 2219              		.align	2
 2220 0878 AFF30080 		.p2align 4,,15
 2220      AFF30080 
 2221              		.global	KVP_Display
 2222              		.thumb
 2223              		.thumb_func
 2224              		.type	KVP_Display, %function
 2225              	KVP_Display:
 2226              	.LFB201:
 2227              		.loc 1 530 0
 2228              		.cfi_startproc
 2229              		@ args = 0, pretend = 0, frame = 0
 2230              		@ frame_needed = 0, uses_anonymous_args = 0
 2231              	.LVL161:
 2232 0880 2DE9F041 		push	{r4, r5, r6, r7, r8, lr}
 2233              		.cfi_def_cfa_offset 24
 2234              		.cfi_offset 4, -24
 2235              		.cfi_offset 5, -20
 2236              		.cfi_offset 6, -16
 2237              		.cfi_offset 7, -12
 2238              		.cfi_offset 8, -8
 2239              		.cfi_offset 14, -4
 2240              		.loc 1 530 0
 2241 0884 1446     		mov	r4, r2
 2242              		.loc 1 531 0
 2243 0886 5B23     		movs	r3, #91
 2244 0888 9268     		ldr	r2, [r2, #8]
 2245              	.LVL162:
 2246              		.loc 1 530 0
 2247 088a 0646     		mov	r6, r0
 2248 088c 0D46     		mov	r5, r1
 2249              		.loc 1 531 0
 2250 088e FFF7FEFF 		bl	LCD_drawStringN
 2251              	.LVL163:
 2252              		.loc 1 532 0
 2253 0892 2378     		ldrb	r3, [r4]	@ zero_extendqisi2
 2254 0894 0C2B     		cmp	r3, #12
 2255 0896 00F2A280 		bhi	.L142
 2256 089a DFE803F0 		tbb	[pc, r3]
 2257              	.L145:
 2258 089e 5C       		.byte	(.L144-.L145)/2
 2259 089f 69       		.byte	(.L146-.L145)/2
 2260 08a0 71       		.byte	(.L147-.L145)/2
ARM GAS  /var/folders/28/j9jfyj_n4wz3qtvnym210h2c0000gn/T//ccpoR13X.s 			page 41


 2261 08a1 7F       		.byte	(.L148-.L145)/2
 2262 08a2 87       		.byte	(.L149-.L145)/2
 2263 08a3 90       		.byte	(.L150-.L145)/2
 2264 08a4 98       		.byte	(.L151-.L145)/2
 2265 08a5 07       		.byte	(.L153-.L145)/2
 2266 08a6 07       		.byte	(.L153-.L145)/2
 2267 08a7 22       		.byte	(.L154-.L145)/2
 2268 08a8 34       		.byte	(.L155-.L145)/2
 2269 08a9 07       		.byte	(.L153-.L145)/2
 2270 08aa 15       		.byte	(.L157-.L145)/2
 2271 08ab 00       		.p2align 1
 2272              	.L153:
 2273              		.loc 1 571 0
 2274 08ac 2946     		mov	r1, r5
 2275 08ae 5B20     		movs	r0, #91
 2276 08b0 3D22     		movs	r2, #61
 2277 08b2 FFF7FEFF 		bl	LCD_drawChar
 2278              	.LVL164:
 2279              		.loc 1 572 0
 2280 08b6 E368     		ldr	r3, [r4, #12]
 2281 08b8 1A68     		ldr	r2, [r3]
 2282 08ba 2946     		mov	r1, r5
 2283 08bc 1215     		asrs	r2, r2, #20
 2284 08be 6120     		movs	r0, #97
 2285              		.loc 1 593 0
 2286 08c0 BDE8F041 		pop	{r4, r5, r6, r7, r8, lr}
 2287              		.cfi_remember_state
 2288              		.cfi_restore 14
 2289              		.cfi_restore 8
 2290              		.cfi_restore 7
 2291              		.cfi_restore 6
 2292              		.cfi_restore 5
 2293              		.cfi_restore 4
 2294              		.cfi_def_cfa_offset 0
 2295              	.LVL165:
 2296              		.loc 1 572 0
 2297 08c4 FFF7FEBF 		b	LCD_drawNumber3D
 2298              	.LVL166:
 2299              	.L157:
 2300              		.cfi_restore_state
 2301              		.loc 1 534 0
 2302 08c8 2946     		mov	r1, r5
 2303 08ca 5B20     		movs	r0, #91
 2304 08cc 3D22     		movs	r2, #61
 2305 08ce FFF7FEFF 		bl	LCD_drawChar
 2306              	.LVL167:
 2307              		.loc 1 535 0
 2308 08d2 E368     		ldr	r3, [r4, #12]
 2309 08d4 2946     		mov	r1, r5
 2310 08d6 1A78     		ldrb	r2, [r3]	@ zero_extendqisi2
 2311 08d8 6120     		movs	r0, #97
 2312              		.loc 1 593 0
 2313 08da BDE8F041 		pop	{r4, r5, r6, r7, r8, lr}
 2314              		.cfi_remember_state
 2315              		.cfi_restore 14
 2316              		.cfi_restore 8
 2317              		.cfi_restore 7
ARM GAS  /var/folders/28/j9jfyj_n4wz3qtvnym210h2c0000gn/T//ccpoR13X.s 			page 42


 2318              		.cfi_restore 6
 2319              		.cfi_restore 5
 2320              		.cfi_restore 4
 2321              		.cfi_def_cfa_offset 0
 2322              	.LVL168:
 2323              		.loc 1 535 0
 2324 08de FFF7FEBF 		b	LCD_drawNumber3D
 2325              	.LVL169:
 2326              	.L154:
 2327              		.cfi_restore_state
 2328              	.LBB200:
 2329              		.loc 1 577 0
 2330 08e2 E368     		ldr	r3, [r4, #12]
 2331              	.LBB201:
 2332              	.LBB202:
 2333              		.file 2 "axoloti_math.h"
 2334              		.loc 2 65 0
 2335 08e4 4BF68034 		movw	r4, #48000
 2336              	.LVL170:
 2337 08e8 1B68     		ldr	r3, [r3]
 2338              	.LVL171:
 2339              	@ 65 "axoloti_math.h" 1
 2340 08ea 53FB04F4 		smmul r4, r3, r4
 2341              	@ 0 "" 2
 2342              	.LVL172:
 2343              		.thumb
 2344              	.LBE202:
 2345              	.LBE201:
 2346              		.loc 1 578 0
 2347 08ee 5B20     		movs	r0, #91
 2348 08f0 2946     		mov	r1, r5
 2349 08f2 3D22     		movs	r2, #61
 2350 08f4 FFF7FEFF 		bl	LCD_drawChar
 2351              	.LVL173:
 2352              		.loc 1 579 0
 2353 08f8 2946     		mov	r1, r5
 2354 08fa 2246     		mov	r2, r4
 2355 08fc 6120     		movs	r0, #97
 2356              	.LBE200:
 2357              		.loc 1 593 0
 2358 08fe BDE8F041 		pop	{r4, r5, r6, r7, r8, lr}
 2359              		.cfi_remember_state
 2360              		.cfi_restore 14
 2361              		.cfi_restore 8
 2362              		.cfi_restore 7
 2363              		.cfi_restore 6
 2364              		.cfi_restore 5
 2365              		.cfi_restore 4
 2366              		.cfi_def_cfa_offset 0
 2367              	.LVL174:
 2368              	.LBB203:
 2369              		.loc 1 579 0
 2370 0902 FFF7FEBF 		b	LCD_drawNumber5D
 2371              	.LVL175:
 2372              	.L155:
 2373              		.cfi_restore_state
 2374              	.LBE203:
ARM GAS  /var/folders/28/j9jfyj_n4wz3qtvnym210h2c0000gn/T//ccpoR13X.s 			page 43


 2375              	.LBB204:
 2376              		.loc 1 583 0
 2377 0906 E368     		ldr	r3, [r4, #12]
 2378              	.LBB205:
 2379              	.LBB206:
 2380              		.loc 2 65 0
 2381 0908 A024     		movs	r4, #160
 2382              	.LVL176:
 2383 090a 1B68     		ldr	r3, [r3]
 2384              	.LVL177:
 2385              	@ 65 "axoloti_math.h" 1
 2386 090c 53FB04F4 		smmul r4, r3, r4
 2387              	@ 0 "" 2
 2388              	.LVL178:
 2389              		.thumb
 2390              	.LBE206:
 2391              	.LBE205:
 2392              		.loc 1 585 0
 2393 0910 344F     		ldr	r7, .L159
 2394              		.loc 1 584 0
 2395 0912 2946     		mov	r1, r5
 2396 0914 3D22     		movs	r2, #61
 2397 0916 5B20     		movs	r0, #91
 2398 0918 FFF7FEFF 		bl	LCD_drawChar
 2399              	.LVL179:
 2400              		.loc 1 585 0
 2401 091c E317     		asrs	r3, r4, #31
 2402 091e 87FB0427 		smull	r2, r7, r7, r4
 2403 0922 C3EBA707 		rsb	r7, r3, r7, asr #2
 2404 0926 3A46     		mov	r2, r7
 2405 0928 2946     		mov	r1, r5
 2406 092a 6120     		movs	r0, #97
 2407 092c FFF7FEFF 		bl	LCD_drawNumber3D
 2408              	.LVL180:
 2409              		.loc 1 586 0
 2410 0930 06F17900 		add	r0, r6, #121
 2411 0934 2946     		mov	r1, r5
 2412 0936 2E22     		movs	r2, #46
 2413 0938 FFF7FEFF 		bl	LCD_drawChar
 2414              	.LVL181:
 2415              		.loc 1 587 0
 2416 093c 07EB8702 		add	r2, r7, r7, lsl #2
 2417 0940 A4EB4202 		sub	r2, r4, r2, lsl #1
 2418 0944 3032     		adds	r2, r2, #48
 2419 0946 06F17F00 		add	r0, r6, #127
 2420 094a 2946     		mov	r1, r5
 2421 094c D2B2     		uxtb	r2, r2
 2422              	.LBE204:
 2423              		.loc 1 593 0
 2424 094e BDE8F041 		pop	{r4, r5, r6, r7, r8, lr}
 2425              		.cfi_remember_state
 2426              		.cfi_restore 14
 2427              		.cfi_restore 8
 2428              		.cfi_restore 7
 2429              		.cfi_restore 6
 2430              		.cfi_restore 5
 2431              		.cfi_restore 4
ARM GAS  /var/folders/28/j9jfyj_n4wz3qtvnym210h2c0000gn/T//ccpoR13X.s 			page 44


 2432              		.cfi_def_cfa_offset 0
 2433              	.LVL182:
 2434              	.LBB207:
 2435              		.loc 1 587 0
 2436 0952 FFF7FEBF 		b	LCD_drawChar
 2437              	.LVL183:
 2438              	.L144:
 2439              		.cfi_restore_state
 2440              	.LBE207:
 2441              		.loc 1 538 0
 2442 0956 2946     		mov	r1, r5
 2443 0958 5B20     		movs	r0, #91
 2444 095a 3D22     		movs	r2, #61
 2445 095c FFF7FEFF 		bl	LCD_drawChar
 2446              	.LVL184:
 2447              		.loc 1 539 0
 2448 0960 E368     		ldr	r3, [r4, #12]
 2449 0962 2946     		mov	r1, r5
 2450 0964 1A68     		ldr	r2, [r3]
 2451 0966 6120     		movs	r0, #97
 2452              		.loc 1 593 0
 2453 0968 BDE8F041 		pop	{r4, r5, r6, r7, r8, lr}
 2454              		.cfi_remember_state
 2455              		.cfi_restore 14
 2456              		.cfi_restore 8
 2457              		.cfi_restore 7
 2458              		.cfi_restore 6
 2459              		.cfi_restore 5
 2460              		.cfi_restore 4
 2461              		.cfi_def_cfa_offset 0
 2462              	.LVL185:
 2463              		.loc 1 539 0
 2464 096c FFF7FEBF 		b	LCD_drawNumber3D
 2465              	.LVL186:
 2466              	.L146:
 2467              		.cfi_restore_state
 2468              		.loc 1 542 0
 2469 0970 2946     		mov	r1, r5
 2470 0972 5B20     		movs	r0, #91
 2471 0974 1C4A     		ldr	r2, .L159+4
 2472 0976 8023     		movs	r3, #128
 2473              		.loc 1 593 0
 2474 0978 BDE8F041 		pop	{r4, r5, r6, r7, r8, lr}
 2475              		.cfi_remember_state
 2476              		.cfi_restore 14
 2477              		.cfi_restore 8
 2478              		.cfi_restore 7
 2479              		.cfi_restore 6
 2480              		.cfi_restore 5
 2481              		.cfi_restore 4
 2482              		.cfi_def_cfa_offset 0
 2483              	.LVL187:
 2484              		.loc 1 542 0
 2485 097c FFF7FEBF 		b	LCD_drawStringN
 2486              	.LVL188:
 2487              	.L147:
 2488              		.cfi_restore_state
ARM GAS  /var/folders/28/j9jfyj_n4wz3qtvnym210h2c0000gn/T//ccpoR13X.s 			page 45


 2489              		.loc 1 551 0
 2490 0980 2946     		mov	r1, r5
 2491 0982 5B20     		movs	r0, #91
 2492 0984 3D22     		movs	r2, #61
 2493 0986 FFF7FEFF 		bl	LCD_drawChar
 2494              	.LVL189:
 2495              		.loc 1 552 0
 2496 098a E368     		ldr	r3, [r4, #12]
 2497 098c 2946     		mov	r1, r5
 2498 098e B3F90020 		ldrsh	r2, [r3]
 2499 0992 6120     		movs	r0, #97
 2500              		.loc 1 593 0
 2501 0994 BDE8F041 		pop	{r4, r5, r6, r7, r8, lr}
 2502              		.cfi_remember_state
 2503              		.cfi_restore 14
 2504              		.cfi_restore 8
 2505              		.cfi_restore 7
 2506              		.cfi_restore 6
 2507              		.cfi_restore 5
 2508              		.cfi_restore 4
 2509              		.cfi_def_cfa_offset 0
 2510              	.LVL190:
 2511              		.loc 1 552 0
 2512 0998 FFF7FEBF 		b	LCD_drawNumber5D
 2513              	.LVL191:
 2514              	.L148:
 2515              		.cfi_restore_state
 2516              		.loc 1 545 0
 2517 099c 2946     		mov	r1, r5
 2518 099e 5B20     		movs	r0, #91
 2519 09a0 124A     		ldr	r2, .L159+8
 2520 09a2 8023     		movs	r3, #128
 2521              		.loc 1 593 0
 2522 09a4 BDE8F041 		pop	{r4, r5, r6, r7, r8, lr}
 2523              		.cfi_remember_state
 2524              		.cfi_restore 14
 2525              		.cfi_restore 8
 2526              		.cfi_restore 7
 2527              		.cfi_restore 6
 2528              		.cfi_restore 5
 2529              		.cfi_restore 4
 2530              		.cfi_def_cfa_offset 0
 2531              	.LVL192:
 2532              		.loc 1 545 0
 2533 09a8 FFF7FEBF 		b	LCD_drawStringN
 2534              	.LVL193:
 2535              	.L149:
 2536              		.cfi_restore_state
 2537              		.loc 1 548 0
 2538 09ac E368     		ldr	r3, [r4, #12]
 2539 09ae 2946     		mov	r1, r5
 2540 09b0 1A68     		ldr	r2, [r3]
 2541 09b2 5B20     		movs	r0, #91
 2542 09b4 8023     		movs	r3, #128
 2543              		.loc 1 593 0
 2544 09b6 BDE8F041 		pop	{r4, r5, r6, r7, r8, lr}
 2545              		.cfi_remember_state
ARM GAS  /var/folders/28/j9jfyj_n4wz3qtvnym210h2c0000gn/T//ccpoR13X.s 			page 46


 2546              		.cfi_restore 14
 2547              		.cfi_restore 8
 2548              		.cfi_restore 7
 2549              		.cfi_restore 6
 2550              		.cfi_restore 5
 2551              		.cfi_restore 4
 2552              		.cfi_def_cfa_offset 0
 2553              	.LVL194:
 2554              		.loc 1 548 0
 2555 09ba FFF7FEBF 		b	LCD_drawIBAR
 2556              	.LVL195:
 2557              	.L150:
 2558              		.cfi_restore_state
 2559              		.loc 1 555 0
 2560 09be 2946     		mov	r1, r5
 2561 09c0 5B20     		movs	r0, #91
 2562 09c2 0B4A     		ldr	r2, .L159+12
 2563 09c4 8023     		movs	r3, #128
 2564              		.loc 1 593 0
 2565 09c6 BDE8F041 		pop	{r4, r5, r6, r7, r8, lr}
 2566              		.cfi_remember_state
 2567              		.cfi_restore 14
 2568              		.cfi_restore 8
 2569              		.cfi_restore 7
 2570              		.cfi_restore 6
 2571              		.cfi_restore 5
 2572              		.cfi_restore 4
 2573              		.cfi_def_cfa_offset 0
 2574              	.LVL196:
 2575              		.loc 1 555 0
 2576 09ca FFF7FEBF 		b	LCD_drawStringN
 2577              	.LVL197:
 2578              	.L151:
 2579              		.cfi_restore_state
 2580              		.loc 1 558 0
 2581 09ce 2946     		mov	r1, r5
 2582 09d0 5B20     		movs	r0, #91
 2583 09d2 084A     		ldr	r2, .L159+16
 2584 09d4 8023     		movs	r3, #128
 2585              		.loc 1 593 0
 2586 09d6 BDE8F041 		pop	{r4, r5, r6, r7, r8, lr}
 2587              		.cfi_restore 14
 2588              		.cfi_restore 8
 2589              		.cfi_restore 7
 2590              		.cfi_restore 6
 2591              		.cfi_restore 5
 2592              		.cfi_restore 4
 2593              		.cfi_def_cfa_offset 0
 2594              	.LVL198:
 2595              		.loc 1 558 0
 2596 09da FFF7FEBF 		b	LCD_drawStringN
 2597              	.LVL199:
 2598              	.L142:
 2599 09de BDE8F081 		pop	{r4, r5, r6, r7, r8, pc}
 2600              	.LVL200:
 2601              	.L160:
 2602 09e2 00BF     		.align	2
ARM GAS  /var/folders/28/j9jfyj_n4wz3qtvnym210h2c0000gn/T//ccpoR13X.s 			page 47


 2603              	.L159:
 2604 09e4 67666666 		.word	1717986919
 2605 09e8 AC000000 		.word	.LC20
 2606 09ec B4000000 		.word	.LC21
 2607 09f0 BC000000 		.word	.LC22
 2608 09f4 C4000000 		.word	.LC23
 2609              		.cfi_endproc
 2610              	.LFE201:
 2611              		.size	KVP_Display, .-KVP_Display
 2612              		.align	2
 2613 09f8 AFF30080 		.p2align 4,,15
 2613      AFF30080 
 2614              		.global	AxolotiControlUpdate
 2615              		.thumb
 2616              		.thumb_func
 2617              		.type	AxolotiControlUpdate, %function
 2618              	AxolotiControlUpdate:
 2619              	.LFB194:
 2620              		.loc 1 395 0
 2621              		.cfi_startproc
 2622              		@ args = 0, pretend = 0, frame = 0
 2623              		@ frame_needed = 0, uses_anonymous_args = 0
 2624 0a00 2DE9F04F 		push	{r4, r5, r6, r7, r8, r9, r10, fp, lr}
 2625              		.cfi_def_cfa_offset 36
 2626              		.cfi_offset 4, -36
 2627              		.cfi_offset 5, -32
 2628              		.cfi_offset 6, -28
 2629              		.cfi_offset 7, -24
 2630              		.cfi_offset 8, -20
 2631              		.cfi_offset 9, -16
 2632              		.cfi_offset 10, -12
 2633              		.cfi_offset 11, -8
 2634              		.cfi_offset 14, -4
 2635 0a04 81B0     		sub	sp, sp, #4
 2636              		.cfi_def_cfa_offset 40
 2637              		.loc 1 397 0
 2638 0a06 FFF7FEFF 		bl	do_axoloti_control
 2639              	.LVL201:
 2640              	.LBB286:
 2641              	.LBB287:
 2642              		.loc 1 762 0
 2643 0a0a A54F     		ldr	r7, .L527
 2644 0a0c A549     		ldr	r1, .L527+4
 2645 0a0e 3B68     		ldr	r3, [r7]
 2646 0a10 0A68     		ldr	r2, [r1]
 2647              		.loc 1 766 0
 2648 0a12 A54D     		ldr	r5, .L527+8
 2649              		.loc 1 762 0
 2650 0a14 1343     		orrs	r3, r3, r2
 2651              		.loc 1 764 0
 2652 0a16 0020     		movs	r0, #0
 2653              		.loc 1 766 0
 2654 0a18 2A68     		ldr	r2, [r5]
 2655              		.loc 1 762 0
 2656 0a1a 3B60     		str	r3, [r7]
 2657              		.loc 1 764 0
 2658 0a1c 0860     		str	r0, [r1]
ARM GAS  /var/folders/28/j9jfyj_n4wz3qtvnym210h2c0000gn/T//ccpoR13X.s 			page 48


 2659              		.loc 1 766 0
 2660 0a1e 1378     		ldrb	r3, [r2]	@ zero_extendqisi2
 2661 0a20 032B     		cmp	r3, #3
 2662 0a22 00F07281 		beq	.L503
 2663              		.loc 1 790 0
 2664 0a26 052B     		cmp	r3, #5
 2665 0a28 00F01C82 		beq	.L504
 2666              		.loc 1 814 0
 2667 0a2c 062B     		cmp	r3, #6
 2668 0a2e 00F05082 		beq	.L462
 2669 0a32 9E4E     		ldr	r6, .L527+12
 2670              	.L188:
 2671              		.loc 1 821 0
 2672 0a34 BB78     		ldrb	r3, [r7, #2]	@ zero_extendqisi2
 2673 0a36 D807     		lsls	r0, r3, #31
 2674 0a38 09D5     		bpl	.L215
 2675 0a3a B178     		ldrb	r1, [r6, #2]	@ zero_extendqisi2
 2676 0a3c C907     		lsls	r1, r1, #31
 2677 0a3e 06D4     		bmi	.L215
 2678              		.loc 1 822 0
 2679 0a40 9B48     		ldr	r0, .L527+16
 2680 0a42 0179     		ldrb	r1, [r0, #4]	@ zero_extendqisi2
 2681 0a44 B1FA81F1 		clz	r1, r1
 2682 0a48 4909     		lsrs	r1, r1, #5
 2683 0a4a 4942     		negs	r1, r1
 2684 0a4c 0171     		strb	r1, [r0, #4]
 2685              	.L215:
 2686              		.loc 1 823 0
 2687 0a4e 9C07     		lsls	r4, r3, #30
 2688 0a50 09D5     		bpl	.L216
 2689 0a52 B178     		ldrb	r1, [r6, #2]	@ zero_extendqisi2
 2690 0a54 8807     		lsls	r0, r1, #30
 2691 0a56 06D4     		bmi	.L216
 2692              		.loc 1 824 0
 2693 0a58 9548     		ldr	r0, .L527+16
 2694 0a5a 4179     		ldrb	r1, [r0, #5]	@ zero_extendqisi2
 2695 0a5c B1FA81F1 		clz	r1, r1
 2696 0a60 4909     		lsrs	r1, r1, #5
 2697 0a62 4942     		negs	r1, r1
 2698 0a64 4171     		strb	r1, [r0, #5]
 2699              	.L216:
 2700              		.loc 1 825 0
 2701 0a66 5907     		lsls	r1, r3, #29
 2702 0a68 09D5     		bpl	.L217
 2703 0a6a B178     		ldrb	r1, [r6, #2]	@ zero_extendqisi2
 2704 0a6c 4C07     		lsls	r4, r1, #29
 2705 0a6e 06D4     		bmi	.L217
 2706              		.loc 1 826 0
 2707 0a70 8F48     		ldr	r0, .L527+16
 2708 0a72 8179     		ldrb	r1, [r0, #6]	@ zero_extendqisi2
 2709 0a74 B1FA81F1 		clz	r1, r1
 2710 0a78 4909     		lsrs	r1, r1, #5
 2711 0a7a 4942     		negs	r1, r1
 2712 0a7c 8171     		strb	r1, [r0, #6]
 2713              	.L217:
 2714              		.loc 1 827 0
 2715 0a7e 1807     		lsls	r0, r3, #28
ARM GAS  /var/folders/28/j9jfyj_n4wz3qtvnym210h2c0000gn/T//ccpoR13X.s 			page 49


 2716 0a80 09D5     		bpl	.L218
 2717 0a82 B178     		ldrb	r1, [r6, #2]	@ zero_extendqisi2
 2718 0a84 0907     		lsls	r1, r1, #28
 2719 0a86 06D4     		bmi	.L218
 2720              		.loc 1 828 0
 2721 0a88 8948     		ldr	r0, .L527+16
 2722 0a8a C179     		ldrb	r1, [r0, #7]	@ zero_extendqisi2
 2723 0a8c B1FA81F1 		clz	r1, r1
 2724 0a90 4909     		lsrs	r1, r1, #5
 2725 0a92 4942     		negs	r1, r1
 2726 0a94 C171     		strb	r1, [r0, #7]
 2727              	.L218:
 2728              		.loc 1 829 0
 2729 0a96 DC06     		lsls	r4, r3, #27
 2730 0a98 09D5     		bpl	.L219
 2731 0a9a B178     		ldrb	r1, [r6, #2]	@ zero_extendqisi2
 2732 0a9c C806     		lsls	r0, r1, #27
 2733 0a9e 06D4     		bmi	.L219
 2734              		.loc 1 830 0
 2735 0aa0 8348     		ldr	r0, .L527+16
 2736 0aa2 017A     		ldrb	r1, [r0, #8]	@ zero_extendqisi2
 2737 0aa4 B1FA81F1 		clz	r1, r1
 2738 0aa8 4909     		lsrs	r1, r1, #5
 2739 0aaa 4942     		negs	r1, r1
 2740 0aac 0172     		strb	r1, [r0, #8]
 2741              	.L219:
 2742              		.loc 1 831 0
 2743 0aae 9906     		lsls	r1, r3, #26
 2744 0ab0 09D5     		bpl	.L220
 2745 0ab2 B178     		ldrb	r1, [r6, #2]	@ zero_extendqisi2
 2746 0ab4 8C06     		lsls	r4, r1, #26
 2747 0ab6 06D4     		bmi	.L220
 2748              		.loc 1 832 0
 2749 0ab8 7D48     		ldr	r0, .L527+16
 2750 0aba 417A     		ldrb	r1, [r0, #9]	@ zero_extendqisi2
 2751 0abc B1FA81F1 		clz	r1, r1
 2752 0ac0 4909     		lsrs	r1, r1, #5
 2753 0ac2 4942     		negs	r1, r1
 2754 0ac4 4172     		strb	r1, [r0, #9]
 2755              	.L220:
 2756              		.loc 1 833 0
 2757 0ac6 5806     		lsls	r0, r3, #25
 2758 0ac8 09D5     		bpl	.L221
 2759 0aca B178     		ldrb	r1, [r6, #2]	@ zero_extendqisi2
 2760 0acc 4906     		lsls	r1, r1, #25
 2761 0ace 06D4     		bmi	.L221
 2762              		.loc 1 834 0
 2763 0ad0 7748     		ldr	r0, .L527+16
 2764 0ad2 817A     		ldrb	r1, [r0, #10]	@ zero_extendqisi2
 2765 0ad4 B1FA81F1 		clz	r1, r1
 2766 0ad8 4909     		lsrs	r1, r1, #5
 2767 0ada 4942     		negs	r1, r1
 2768 0adc 8172     		strb	r1, [r0, #10]
 2769              	.L221:
 2770              		.loc 1 835 0
 2771 0ade 1C06     		lsls	r4, r3, #24
 2772 0ae0 09D5     		bpl	.L222
ARM GAS  /var/folders/28/j9jfyj_n4wz3qtvnym210h2c0000gn/T//ccpoR13X.s 			page 50


 2773 0ae2 B378     		ldrb	r3, [r6, #2]	@ zero_extendqisi2
 2774 0ae4 1806     		lsls	r0, r3, #24
 2775 0ae6 06D4     		bmi	.L222
 2776              		.loc 1 836 0
 2777 0ae8 7149     		ldr	r1, .L527+16
 2778 0aea CB7A     		ldrb	r3, [r1, #11]	@ zero_extendqisi2
 2779 0aec B3FA83F3 		clz	r3, r3
 2780 0af0 5B09     		lsrs	r3, r3, #5
 2781 0af2 5B42     		negs	r3, r3
 2782 0af4 CB72     		strb	r3, [r1, #11]
 2783              	.L222:
 2784              		.loc 1 837 0
 2785 0af6 FB78     		ldrb	r3, [r7, #3]	@ zero_extendqisi2
 2786 0af8 D907     		lsls	r1, r3, #31
 2787 0afa 09D5     		bpl	.L223
 2788 0afc F178     		ldrb	r1, [r6, #3]	@ zero_extendqisi2
 2789 0afe CC07     		lsls	r4, r1, #31
 2790 0b00 06D4     		bmi	.L223
 2791              		.loc 1 838 0
 2792 0b02 6B48     		ldr	r0, .L527+16
 2793 0b04 017B     		ldrb	r1, [r0, #12]	@ zero_extendqisi2
 2794 0b06 B1FA81F1 		clz	r1, r1
 2795 0b0a 4909     		lsrs	r1, r1, #5
 2796 0b0c 4942     		negs	r1, r1
 2797 0b0e 0173     		strb	r1, [r0, #12]
 2798              	.L223:
 2799              		.loc 1 839 0
 2800 0b10 9807     		lsls	r0, r3, #30
 2801 0b12 09D5     		bpl	.L224
 2802 0b14 F178     		ldrb	r1, [r6, #3]	@ zero_extendqisi2
 2803 0b16 8907     		lsls	r1, r1, #30
 2804 0b18 06D4     		bmi	.L224
 2805              		.loc 1 840 0
 2806 0b1a 6548     		ldr	r0, .L527+16
 2807 0b1c 417B     		ldrb	r1, [r0, #13]	@ zero_extendqisi2
 2808 0b1e B1FA81F1 		clz	r1, r1
 2809 0b22 4909     		lsrs	r1, r1, #5
 2810 0b24 4942     		negs	r1, r1
 2811 0b26 4173     		strb	r1, [r0, #13]
 2812              	.L224:
 2813              		.loc 1 841 0
 2814 0b28 5C07     		lsls	r4, r3, #29
 2815 0b2a 09D5     		bpl	.L225
 2816 0b2c F178     		ldrb	r1, [r6, #3]	@ zero_extendqisi2
 2817 0b2e 4807     		lsls	r0, r1, #29
 2818 0b30 06D4     		bmi	.L225
 2819              		.loc 1 842 0
 2820 0b32 5F48     		ldr	r0, .L527+16
 2821 0b34 817B     		ldrb	r1, [r0, #14]	@ zero_extendqisi2
 2822 0b36 B1FA81F1 		clz	r1, r1
 2823 0b3a 4909     		lsrs	r1, r1, #5
 2824 0b3c 4942     		negs	r1, r1
 2825 0b3e 8173     		strb	r1, [r0, #14]
 2826              	.L225:
 2827              		.loc 1 843 0
 2828 0b40 1907     		lsls	r1, r3, #28
 2829 0b42 09D5     		bpl	.L226
ARM GAS  /var/folders/28/j9jfyj_n4wz3qtvnym210h2c0000gn/T//ccpoR13X.s 			page 51


 2830 0b44 F178     		ldrb	r1, [r6, #3]	@ zero_extendqisi2
 2831 0b46 0C07     		lsls	r4, r1, #28
 2832 0b48 06D4     		bmi	.L226
 2833              		.loc 1 844 0
 2834 0b4a 5948     		ldr	r0, .L527+16
 2835 0b4c C17B     		ldrb	r1, [r0, #15]	@ zero_extendqisi2
 2836 0b4e B1FA81F1 		clz	r1, r1
 2837 0b52 4909     		lsrs	r1, r1, #5
 2838 0b54 4942     		negs	r1, r1
 2839 0b56 C173     		strb	r1, [r0, #15]
 2840              	.L226:
 2841              		.loc 1 845 0
 2842 0b58 D806     		lsls	r0, r3, #27
 2843 0b5a 09D5     		bpl	.L227
 2844 0b5c F178     		ldrb	r1, [r6, #3]	@ zero_extendqisi2
 2845 0b5e C906     		lsls	r1, r1, #27
 2846 0b60 06D4     		bmi	.L227
 2847              		.loc 1 846 0
 2848 0b62 5348     		ldr	r0, .L527+16
 2849 0b64 017C     		ldrb	r1, [r0, #16]	@ zero_extendqisi2
 2850 0b66 B1FA81F1 		clz	r1, r1
 2851 0b6a 4909     		lsrs	r1, r1, #5
 2852 0b6c 4942     		negs	r1, r1
 2853 0b6e 0174     		strb	r1, [r0, #16]
 2854              	.L227:
 2855              		.loc 1 847 0
 2856 0b70 9C06     		lsls	r4, r3, #26
 2857 0b72 09D5     		bpl	.L228
 2858 0b74 F178     		ldrb	r1, [r6, #3]	@ zero_extendqisi2
 2859 0b76 8806     		lsls	r0, r1, #26
 2860 0b78 06D4     		bmi	.L228
 2861              		.loc 1 848 0
 2862 0b7a 4D48     		ldr	r0, .L527+16
 2863 0b7c 417C     		ldrb	r1, [r0, #17]	@ zero_extendqisi2
 2864 0b7e B1FA81F1 		clz	r1, r1
 2865 0b82 4909     		lsrs	r1, r1, #5
 2866 0b84 4942     		negs	r1, r1
 2867 0b86 4174     		strb	r1, [r0, #17]
 2868              	.L228:
 2869              		.loc 1 849 0
 2870 0b88 5906     		lsls	r1, r3, #25
 2871 0b8a 09D5     		bpl	.L229
 2872 0b8c F178     		ldrb	r1, [r6, #3]	@ zero_extendqisi2
 2873 0b8e 4C06     		lsls	r4, r1, #25
 2874 0b90 06D4     		bmi	.L229
 2875              		.loc 1 850 0
 2876 0b92 4748     		ldr	r0, .L527+16
 2877 0b94 817C     		ldrb	r1, [r0, #18]	@ zero_extendqisi2
 2878 0b96 B1FA81F1 		clz	r1, r1
 2879 0b9a 4909     		lsrs	r1, r1, #5
 2880 0b9c 4942     		negs	r1, r1
 2881 0b9e 8174     		strb	r1, [r0, #18]
 2882              	.L229:
 2883              		.loc 1 851 0
 2884 0ba0 1806     		lsls	r0, r3, #24
 2885 0ba2 09D5     		bpl	.L230
 2886 0ba4 F378     		ldrb	r3, [r6, #3]	@ zero_extendqisi2
ARM GAS  /var/folders/28/j9jfyj_n4wz3qtvnym210h2c0000gn/T//ccpoR13X.s 			page 52


 2887 0ba6 1906     		lsls	r1, r3, #24
 2888 0ba8 06D4     		bmi	.L230
 2889              		.loc 1 852 0
 2890 0baa 4149     		ldr	r1, .L527+16
 2891 0bac CB7C     		ldrb	r3, [r1, #19]	@ zero_extendqisi2
 2892 0bae B3FA83F3 		clz	r3, r3
 2893 0bb2 5B09     		lsrs	r3, r3, #5
 2894 0bb4 5B42     		negs	r3, r3
 2895 0bb6 CB74     		strb	r3, [r1, #19]
 2896              	.L230:
 2897              		.loc 1 855 0
 2898 0bb8 1378     		ldrb	r3, [r2]	@ zero_extendqisi2
 2899 0bba 032B     		cmp	r3, #3
 2900 0bbc 00F08280 		beq	.L505
 2901              		.loc 1 869 0
 2902 0bc0 052B     		cmp	r3, #5
 2903 0bc2 00F0E880 		beq	.L506
 2904              	.L233:
 2905              		.loc 1 884 0
 2906 0bc6 3B4C     		ldr	r4, .L527+20
 2907 0bc8 3B68     		ldr	r3, [r7]
 2908 0bca 2168     		ldr	r1, [r4]
 2909              	.LBE287:
 2910              	.LBE286:
 2911              	.LBB389:
 2912              	.LBB390:
 2913              		.loc 1 890 0
 2914 0bcc 0020     		movs	r0, #0
 2915              	.LBE390:
 2916              	.LBE389:
 2917              	.LBB448:
 2918              	.LBB380:
 2919              		.loc 1 884 0
 2920 0bce 0B40     		ands	r3, r3, r1
 2921              		.loc 1 886 0
 2922 0bd0 4FF0FF3E 		mov	lr, #-1
 2923              	.LBE380:
 2924              	.LBE448:
 2925              	.LBB449:
 2926              	.LBB435:
 2927              		.loc 1 890 0
 2928 0bd4 0146     		mov	r1, r0
 2929              	.LBE435:
 2930              	.LBE449:
 2931              	.LBB450:
 2932              	.LBB381:
 2933              		.loc 1 885 0
 2934 0bd6 3360     		str	r3, [r6]
 2935              		.loc 1 884 0
 2936 0bd8 3B60     		str	r3, [r7]
 2937              		.loc 1 886 0
 2938 0bda C4F800E0 		str	lr, [r4]
 2939              	.LBE381:
 2940              	.LBE450:
 2941              	.LBB451:
 2942              	.LBB436:
 2943              		.loc 1 890 0
ARM GAS  /var/folders/28/j9jfyj_n4wz3qtvnym210h2c0000gn/T//ccpoR13X.s 			page 53


 2944 0bde FFF7FEFF 		bl	KVP_DisplayInv
 2945              	.LVL202:
 2946              		.loc 1 891 0
 2947 0be2 2B68     		ldr	r3, [r5]
 2948 0be4 1E78     		ldrb	r6, [r3]	@ zero_extendqisi2
 2949 0be6 032E     		cmp	r6, #3
 2950 0be8 08D0     		beq	.L507
 2951              		.loc 1 976 0
 2952 0bea 052E     		cmp	r6, #5
 2953 0bec 00F0F480 		beq	.L508
 2954              		.loc 1 1061 0
 2955 0bf0 062E     		cmp	r6, #6
 2956 0bf2 00F0C182 		beq	.L509
 2957              	.LBE436:
 2958              	.LBE451:
 2959              		.loc 1 401 0
 2960 0bf6 01B0     		add	sp, sp, #4
 2961              		.cfi_remember_state
 2962              		.cfi_def_cfa_offset 36
 2963              		@ sp needed
 2964 0bf8 BDE8F08F 		pop	{r4, r5, r6, r7, r8, r9, r10, fp, pc}
 2965              	.L507:
 2966              		.cfi_restore_state
 2967              	.LBB452:
 2968              	.LBB437:
 2969              	.LBB391:
 2970              		.loc 1 893 0
 2971 0bfc 1C69     		ldr	r4, [r3, #16]
 2972              		.loc 1 892 0
 2973 0bfe D3F81490 		ldr	r9, [r3, #20]
 2974              	.LVL203:
 2975              		.loc 1 894 0
 2976 0c02 D3F80CA0 		ldr	r10, [r3, #12]
 2977              	.LVL204:
 2978              		.loc 1 895 0
 2979 0c06 062C     		cmp	r4, #6
 2980 0c08 00F39E81 		bgt	.L274
 2981              	.LVL205:
 2982              	.LBB392:
 2983              		.loc 1 897 0
 2984 0c0c 002C     		cmp	r4, #0
 2985 0c0e 40F32C85 		ble	.L335
 2986              		.loc 1 899 0
 2987 0c12 09EB490B 		add	fp, r9, r9, lsl #1
 2988 0c16 0AEBCB0B 		add	fp, r10, fp, lsl #3
 2989 0c1a 5746     		mov	r7, r10
 2990 0c1c 0126     		movs	r6, #1
 2991              	.LVL206:
 2992              	.L278:
 2993 0c1e 731E     		subs	r3, r6, #1
 2994              	.LVL207:
 2995              		.loc 1 898 0
 2996 0c20 9945     		cmp	r9, r3
 2997              		.loc 1 901 0
 2998 0c22 3146     		mov	r1, r6
 2999 0c24 3A46     		mov	r2, r7
 3000 0c26 4FF00500 		mov	r0, #5
ARM GAS  /var/folders/28/j9jfyj_n4wz3qtvnym210h2c0000gn/T//ccpoR13X.s 			page 54


 3001              		.loc 1 898 0
 3002 0c2a 00F02485 		beq	.L510
 3003              		.loc 1 901 0
 3004 0c2e B046     		mov	r8, r6
 3005 0c30 FFF7FEFF 		bl	KVP_Display
 3006              	.LVL208:
 3007              	.L277:
 3008              		.loc 1 897 0
 3009 0c34 4445     		cmp	r4, r8
 3010 0c36 06F10106 		add	r6, r6, #1
 3011              	.LVL209:
 3012 0c3a 07F11807 		add	r7, r7, #24
 3013 0c3e EEDC     		bgt	.L278
 3014              	.LVL210:
 3015              	.L279:
 3016              		.loc 1 904 0
 3017 0c40 0134     		adds	r4, r4, #1
 3018              	.LVL211:
 3019 0c42 2146     		mov	r1, r4
 3020 0c44 0520     		movs	r0, #5
 3021 0c46 1C4A     		ldr	r2, .L527+24
 3022 0c48 4E23     		movs	r3, #78
 3023 0c4a FFF7FEFF 		bl	LCD_drawStringN
 3024              	.LVL212:
 3025              		.loc 1 903 0
 3026 0c4e 072C     		cmp	r4, #7
 3027 0c50 F6D1     		bne	.L279
 3028              	.LVL213:
 3029              	.L286:
 3030              	.LBE392:
 3031              		.loc 1 961 0
 3032 0c52 2B68     		ldr	r3, [r5]
 3033 0c54 5868     		ldr	r0, [r3, #4]
 3034 0c56 0028     		cmp	r0, #0
 3035 0c58 00F0BD84 		beq	.L511
 3036              		.loc 1 962 0
 3037 0c5c 0020     		movs	r0, #0
 3038 0c5e 0721     		movs	r1, #7
 3039 0c60 164A     		ldr	r2, .L527+28
 3040 0c62 FFF7FEFF 		bl	LCD_drawStringInv
 3041              	.LVL214:
 3042              		.loc 1 963 0
 3043 0c66 1820     		movs	r0, #24
 3044 0c68 0721     		movs	r1, #7
 3045 0c6a 154A     		ldr	r2, .L527+32
 3046 0c6c FFF7FEFF 		bl	LCD_drawString
 3047              	.LVL215:
 3048              	.L300:
 3049              		.loc 1 967 0
 3050 0c70 2B68     		ldr	r3, [r5]
 3051 0c72 5B69     		ldr	r3, [r3, #20]
 3052 0c74 03EB4303 		add	r3, r3, r3, lsl #1
 3053 0c78 1AF83330 		ldrb	r3, [r10, r3, lsl #3]	@ zero_extendqisi2
 3054 0c7c 032B     		cmp	r3, #3
 3055 0c7e 00F0E980 		beq	.L302
 3056              	.LVL216:
 3057              	.L492:
ARM GAS  /var/folders/28/j9jfyj_n4wz3qtvnym210h2c0000gn/T//ccpoR13X.s 			page 55


 3058              		.loc 1 968 0
 3059 0c82 5A1F     		subs	r2, r3, #5
 3060 0c84 012A     		cmp	r2, #1
 3061 0c86 40F2E580 		bls	.L302
 3062              	.LBE391:
 3063              	.LBB401:
 3064              		.loc 1 1056 0
 3065 0c8a 0D2B     		cmp	r3, #13
 3066 0c8c 00F0E280 		beq	.L302
 3067              	.LBE401:
 3068              	.LBB412:
 3069              		.loc 1 974 0
 3070 0c90 0B4A     		ldr	r2, .L527+32
 3071 0c92 6120     		movs	r0, #97
 3072 0c94 0721     		movs	r1, #7
 3073              	.LBE412:
 3074              	.LBE437:
 3075              	.LBE452:
 3076              		.loc 1 401 0
 3077 0c96 01B0     		add	sp, sp, #4
 3078              		.cfi_remember_state
 3079              		.cfi_def_cfa_offset 36
 3080              		@ sp needed
 3081 0c98 BDE8F04F 		pop	{r4, r5, r6, r7, r8, r9, r10, fp, lr}
 3082              		.cfi_restore 14
 3083              		.cfi_restore 11
 3084              		.cfi_restore 10
 3085              		.cfi_restore 9
 3086              		.cfi_restore 8
 3087              		.cfi_restore 7
 3088              		.cfi_restore 6
 3089              		.cfi_restore 5
 3090              		.cfi_restore 4
 3091              		.cfi_def_cfa_offset 0
 3092              	.LBB453:
 3093              	.LBB438:
 3094              	.LBB413:
 3095              		.loc 1 974 0
 3096 0c9c FFF7FEBF 		b	LCD_drawString
 3097              	.LVL217:
 3098              	.L528:
 3099              		.align	2
 3100              	.L527:
 3101 0ca0 00000000 		.word	Btn_Nav_CurStates
 3102 0ca4 00000000 		.word	Btn_Nav_Or
 3103 0ca8 00000000 		.word	KvpsDisplay
 3104 0cac 00000000 		.word	Btn_Nav_PrevStates
 3105 0cb0 00000000 		.word	led_buffer
 3106 0cb4 00000000 		.word	Btn_Nav_And
 3107 0cb8 CC000000 		.word	.LC24
 3108 0cbc 38000000 		.word	.LC8
 3109 0cc0 D0000000 		.word	.LC25
 3110              	.L505:
 3111              		.cfi_restore_state
 3112              	.LBE413:
 3113              	.LBE438:
 3114              	.LBE453:
ARM GAS  /var/folders/28/j9jfyj_n4wz3qtvnym210h2c0000gn/T//ccpoR13X.s 			page 56


 3115              	.LBB454:
 3116              	.LBB382:
 3117              	.LBB288:
 3118              		.loc 1 857 0
 3119 0cc4 5369     		ldr	r3, [r2, #20]
 3120              		.loc 1 856 0
 3121 0cc6 D168     		ldr	r1, [r2, #12]
 3122              		.loc 1 857 0
 3123 0cc8 03EB4303 		add	r3, r3, r3, lsl #1
 3124 0ccc DB00     		lsls	r3, r3, #3
 3125              		.loc 1 856 0
 3126 0cce 01EB0308 		add	r8, r1, r3
 3127              	.LVL218:
 3128              		.loc 1 858 0
 3129 0cd2 C95C     		ldrb	r1, [r1, r3]	@ zero_extendqisi2
 3130 0cd4 0029     		cmp	r1, #0
 3131 0cd6 40F05781 		bne	.L512
 3132              	.L232:
 3133              		.loc 1 859 0
 3134 0cda AD4C     		ldr	r4, .L529
 3135 0cdc 2378     		ldrb	r3, [r4]	@ zero_extendqisi2
 3136 0cde 5AB2     		sxtb	r2, r3
 3137 0ce0 002A     		cmp	r2, #0
 3138 0ce2 40F3BD81 		ble	.L234
 3139              	.L243:
 3140              	.LBB289:
 3141              	.LBB290:
 3142              		.loc 1 102 0
 3143 0ce6 0C29     		cmp	r1, #12
 3144 0ce8 00F20081 		bhi	.L235
 3145 0cec DFE811F0 		tbh	[pc, r1, lsl #1]
 3146              	.L237:
 3147 0cf0 0901     		.2byte	(.L236-.L237)/2
 3148 0cf2 FE00     		.2byte	(.L235-.L237)/2
 3149 0cf4 FE00     		.2byte	(.L235-.L237)/2
 3150 0cf6 F400     		.2byte	(.L239-.L237)/2
 3151 0cf8 FE00     		.2byte	(.L235-.L237)/2
 3152 0cfa F400     		.2byte	(.L239-.L237)/2
 3153 0cfc FE00     		.2byte	(.L235-.L237)/2
 3154 0cfe FE00     		.2byte	(.L235-.L237)/2
 3155 0d00 FE00     		.2byte	(.L235-.L237)/2
 3156 0d02 FE00     		.2byte	(.L235-.L237)/2
 3157 0d04 FE00     		.2byte	(.L235-.L237)/2
 3158 0d06 1D01     		.2byte	(.L240-.L237)/2
 3159 0d08 1301     		.2byte	(.L241-.L237)/2
 3160              	.LVL219:
 3161              		.p2align 1
 3162              	.L503:
 3163              	.LBE290:
 3164              	.LBE289:
 3165              	.LBE288:
 3166              	.LBB305:
 3167              		.loc 1 768 0
 3168 0d0a 5169     		ldr	r1, [r2, #20]
 3169              		.loc 1 769 0
 3170 0d0c 3B78     		ldrb	r3, [r7]	@ zero_extendqisi2
 3171              		.loc 1 767 0
ARM GAS  /var/folders/28/j9jfyj_n4wz3qtvnym210h2c0000gn/T//ccpoR13X.s 			page 57


 3172 0d0e D2F80C80 		ldr	r8, [r2, #12]
 3173              		.loc 1 769 0
 3174 0d12 A04E     		ldr	r6, .L529+4
 3175              		.loc 1 768 0
 3176 0d14 01EB4104 		add	r4, r1, r1, lsl #1
 3177 0d18 E400     		lsls	r4, r4, #3
 3178              		.loc 1 769 0
 3179 0d1a 9807     		lsls	r0, r3, #30
 3180              		.loc 1 767 0
 3181 0d1c 08EB0409 		add	r9, r8, r4
 3182              	.LVL220:
 3183              		.loc 1 769 0
 3184 0d20 03D5     		bpl	.L163
 3185 0d22 3078     		ldrb	r0, [r6]	@ zero_extendqisi2
 3186 0d24 8007     		lsls	r0, r0, #30
 3187 0d26 40F1EA82 		bpl	.L513
 3188              	.L163:
 3189              		.loc 1 771 0
 3190 0d2a D807     		lsls	r0, r3, #31
 3191 0d2c 03D5     		bpl	.L164
 3192 0d2e 3178     		ldrb	r1, [r6]	@ zero_extendqisi2
 3193 0d30 C907     		lsls	r1, r1, #31
 3194 0d32 40F1DD82 		bpl	.L514
 3195              	.L164:
 3196              		.loc 1 773 0
 3197 0d36 5807     		lsls	r0, r3, #29
 3198 0d38 03D5     		bpl	.L165
 3199 0d3a 3278     		ldrb	r2, [r6]	@ zero_extendqisi2
 3200 0d3c 5107     		lsls	r1, r2, #29
 3201 0d3e 40F1B582 		bpl	.L515
 3202              	.L165:
 3203              		.loc 1 775 0
 3204 0d42 1A07     		lsls	r2, r3, #28
 3205 0d44 03D5     		bpl	.L173
 3206 0d46 3278     		ldrb	r2, [r6]	@ zero_extendqisi2
 3207 0d48 1007     		lsls	r0, r2, #28
 3208 0d4a 40F18D82 		bpl	.L516
 3209              	.L173:
 3210              		.loc 1 777 0
 3211 0d4e D906     		lsls	r1, r3, #27
 3212 0d50 12D5     		bpl	.L473
 3213 0d52 3278     		ldrb	r2, [r6]	@ zero_extendqisi2
 3214 0d54 D206     		lsls	r2, r2, #27
 3215 0d56 0FD4     		bmi	.L473
 3216              		.loc 1 778 0
 3217 0d58 18F80420 		ldrb	r2, [r8, r4]	@ zero_extendqisi2
 3218 0d5c 032A     		cmp	r2, #3
 3219 0d5e 00F06383 		beq	.L184
 3220 0d62 511F     		subs	r1, r2, #5
 3221 0d64 0129     		cmp	r1, #1
 3222 0d66 40F25F83 		bls	.L184
 3223              		.loc 1 781 0
 3224 0d6a 0D2A     		cmp	r2, #13
 3225 0d6c 04D1     		bne	.L473
 3226              		.loc 1 782 0
 3227 0d6e D9F80C20 		ldr	r2, [r9, #12]
 3228 0d72 002A     		cmp	r2, #0
ARM GAS  /var/folders/28/j9jfyj_n4wz3qtvnym210h2c0000gn/T//ccpoR13X.s 			page 58


 3229 0d74 40F0AA80 		bne	.L214
 3230              	.LVL221:
 3231              	.L473:
 3232 0d78 2A68     		ldr	r2, [r5]
 3233              	.L497:
 3234              	.LBE305:
 3235              		.loc 1 815 0
 3236 0d7a 5B06     		lsls	r3, r3, #25
 3237 0d7c 7FF55AAE 		bpl	.L188
 3238 0d80 3378     		ldrb	r3, [r6]	@ zero_extendqisi2
 3239 0d82 5C06     		lsls	r4, r3, #25
 3240 0d84 3FF556AE 		bmi	.L188
 3241              		.loc 1 816 0
 3242 0d88 5368     		ldr	r3, [r2, #4]
 3243 0d8a 002B     		cmp	r3, #0
 3244 0d8c 3FF452AE 		beq	.L188
 3245              		.loc 1 817 0
 3246 0d90 2B60     		str	r3, [r5]
 3247 0d92 1A46     		mov	r2, r3
 3248 0d94 4EE6     		b	.L188
 3249              	.L506:
 3250              	.LBB328:
 3251              		.loc 1 871 0
 3252 0d96 5169     		ldr	r1, [r2, #20]
 3253 0d98 D368     		ldr	r3, [r2, #12]
 3254              		.loc 1 870 0
 3255 0d9a 53F82180 		ldr	r8, [r3, r1, lsl #2]
 3256              	.LVL222:
 3257              		.loc 1 872 0
 3258 0d9e 98F80010 		ldrb	r1, [r8]	@ zero_extendqisi2
 3259 0da2 0029     		cmp	r1, #0
 3260 0da4 40F03881 		bne	.L517
 3261              	.L253:
 3262              		.loc 1 873 0
 3263 0da8 794C     		ldr	r4, .L529
 3264 0daa 2378     		ldrb	r3, [r4]	@ zero_extendqisi2
 3265 0dac 5AB2     		sxtb	r2, r3
 3266 0dae 002A     		cmp	r2, #0
 3267 0db0 40F39681 		ble	.L254
 3268              	.L263:
 3269              	.LBB329:
 3270              	.LBB330:
 3271              		.loc 1 102 0
 3272 0db4 0C29     		cmp	r1, #12
 3273 0db6 00F20181 		bhi	.L255
 3274 0dba DFE811F0 		tbh	[pc, r1, lsl #1]
 3275              	.L257:
 3276 0dbe 1401     		.2byte	(.L256-.L257)/2
 3277 0dc0 FF00     		.2byte	(.L255-.L257)/2
 3278 0dc2 FF00     		.2byte	(.L255-.L257)/2
 3279 0dc4 F500     		.2byte	(.L259-.L257)/2
 3280 0dc6 FF00     		.2byte	(.L255-.L257)/2
 3281 0dc8 F500     		.2byte	(.L259-.L257)/2
 3282 0dca FF00     		.2byte	(.L255-.L257)/2
 3283 0dcc FF00     		.2byte	(.L255-.L257)/2
 3284 0dce FF00     		.2byte	(.L255-.L257)/2
 3285 0dd0 FF00     		.2byte	(.L255-.L257)/2
ARM GAS  /var/folders/28/j9jfyj_n4wz3qtvnym210h2c0000gn/T//ccpoR13X.s 			page 59


 3286 0dd2 FF00     		.2byte	(.L255-.L257)/2
 3287 0dd4 1E01     		.2byte	(.L260-.L257)/2
 3288 0dd6 0A01     		.2byte	(.L261-.L257)/2
 3289              	.LVL223:
 3290              		.p2align 1
 3291              	.L508:
 3292              	.LBE330:
 3293              	.LBE329:
 3294              	.LBE328:
 3295              	.LBE382:
 3296              	.LBE454:
 3297              	.LBB455:
 3298              	.LBB439:
 3299              	.LBB414:
 3300              		.loc 1 978 0
 3301 0dd8 1C69     		ldr	r4, [r3, #16]
 3302              		.loc 1 977 0
 3303 0dda D3F81480 		ldr	r8, [r3, #20]
 3304              	.LVL224:
 3305              		.loc 1 979 0
 3306 0dde DF68     		ldr	r7, [r3, #12]
 3307              	.LVL225:
 3308              		.loc 1 980 0
 3309 0de0 062C     		cmp	r4, #6
 3310 0de2 00F31D81 		bgt	.L306
 3311              	.LVL226:
 3312              	.LBB402:
 3313              		.loc 1 982 0
 3314 0de6 002C     		cmp	r4, #0
 3315 0de8 40F34284 		ble	.L336
 3316              		.loc 1 984 0
 3317 0dec 07EB880A 		add	r10, r7, r8, lsl #2
 3318 0df0 0023     		movs	r3, #0
 3319 0df2 08F10109 		add	r9, r8, #1
 3320              	.LVL227:
 3321              	.L310:
 3322 0df6 5E1C     		adds	r6, r3, #1
 3323              		.loc 1 983 0
 3324 0df8 9845     		cmp	r8, r3
 3325              		.loc 1 986 0
 3326 0dfa 4FF00500 		mov	r0, #5
 3327 0dfe 3146     		mov	r1, r6
 3328              		.loc 1 983 0
 3329 0e00 00F03F84 		beq	.L518
 3330              		.loc 1 986 0
 3331 0e04 57F82320 		ldr	r2, [r7, r3, lsl #2]
 3332 0e08 B346     		mov	fp, r6
 3333 0e0a FFF7FEFF 		bl	KVP_Display
 3334              	.LVL228:
 3335              	.L309:
 3336              		.loc 1 982 0
 3337 0e0e 5C45     		cmp	r4, fp
 3338 0e10 3346     		mov	r3, r6
 3339 0e12 F0DC     		bgt	.L310
 3340              	.LVL229:
 3341              	.L311:
 3342              		.loc 1 989 0
ARM GAS  /var/folders/28/j9jfyj_n4wz3qtvnym210h2c0000gn/T//ccpoR13X.s 			page 60


 3343 0e14 0134     		adds	r4, r4, #1
 3344              	.LVL230:
 3345 0e16 2146     		mov	r1, r4
 3346 0e18 0520     		movs	r0, #5
 3347 0e1a 5F4A     		ldr	r2, .L529+8
 3348 0e1c 4E23     		movs	r3, #78
 3349 0e1e FFF7FEFF 		bl	LCD_drawStringN
 3350              	.LVL231:
 3351              		.loc 1 988 0
 3352 0e22 072C     		cmp	r4, #7
 3353 0e24 F6D1     		bne	.L311
 3354              	.LVL232:
 3355              	.L318:
 3356              	.LBE402:
 3357              		.loc 1 1046 0
 3358 0e26 2B68     		ldr	r3, [r5]
 3359 0e28 5868     		ldr	r0, [r3, #4]
 3360 0e2a 0028     		cmp	r0, #0
 3361 0e2c 00F0D983 		beq	.L519
 3362              		.loc 1 1047 0
 3363 0e30 0020     		movs	r0, #0
 3364 0e32 0721     		movs	r1, #7
 3365 0e34 594A     		ldr	r2, .L529+12
 3366 0e36 FFF7FEFF 		bl	LCD_drawStringInv
 3367              	.LVL233:
 3368              		.loc 1 1048 0
 3369 0e3a 1820     		movs	r0, #24
 3370 0e3c 0721     		movs	r1, #7
 3371 0e3e 584A     		ldr	r2, .L529+16
 3372 0e40 FFF7FEFF 		bl	LCD_drawString
 3373              	.LVL234:
 3374              	.L332:
 3375              		.loc 1 1052 0
 3376 0e44 2B68     		ldr	r3, [r5]
 3377 0e46 5B69     		ldr	r3, [r3, #20]
 3378 0e48 57F82330 		ldr	r3, [r7, r3, lsl #2]
 3379 0e4c 1B78     		ldrb	r3, [r3]	@ zero_extendqisi2
 3380 0e4e 032B     		cmp	r3, #3
 3381 0e50 7FF417AF 		bne	.L492
 3382              	.LVL235:
 3383              	.L302:
 3384              	.LBE414:
 3385              	.LBB415:
 3386              		.loc 1 970 0
 3387 0e54 534A     		ldr	r2, .L529+20
 3388 0e56 6120     		movs	r0, #97
 3389 0e58 0721     		movs	r1, #7
 3390              	.LBE415:
 3391              	.LBE439:
 3392              	.LBE455:
 3393              		.loc 1 401 0
 3394 0e5a 01B0     		add	sp, sp, #4
 3395              		.cfi_remember_state
 3396              		.cfi_def_cfa_offset 36
 3397              		@ sp needed
 3398 0e5c BDE8F04F 		pop	{r4, r5, r6, r7, r8, r9, r10, fp, lr}
 3399              		.cfi_restore 14
ARM GAS  /var/folders/28/j9jfyj_n4wz3qtvnym210h2c0000gn/T//ccpoR13X.s 			page 61


 3400              		.cfi_restore 11
 3401              		.cfi_restore 10
 3402              		.cfi_restore 9
 3403              		.cfi_restore 8
 3404              		.cfi_restore 7
 3405              		.cfi_restore 6
 3406              		.cfi_restore 5
 3407              		.cfi_restore 4
 3408              		.cfi_def_cfa_offset 0
 3409              	.LBB456:
 3410              	.LBB440:
 3411              	.LBB416:
 3412              		.loc 1 970 0
 3413 0e60 FFF7FEBF 		b	LCD_drawStringInv
 3414              	.LVL236:
 3415              	.L504:
 3416              		.cfi_restore_state
 3417              	.LBE416:
 3418              	.LBE440:
 3419              	.LBE456:
 3420              	.LBB457:
 3421              	.LBB383:
 3422              	.LBB345:
 3423              		.loc 1 792 0
 3424 0e64 D068     		ldr	r0, [r2, #12]
 3425 0e66 5169     		ldr	r1, [r2, #20]
 3426              		.loc 1 793 0
 3427 0e68 3B78     		ldrb	r3, [r7]	@ zero_extendqisi2
 3428              		.loc 1 791 0
 3429 0e6a 50F82140 		ldr	r4, [r0, r1, lsl #2]
 3430              	.LVL237:
 3431              		.loc 1 793 0
 3432 0e6e 494E     		ldr	r6, .L529+4
 3433 0e70 9807     		lsls	r0, r3, #30
 3434 0e72 03D5     		bpl	.L190
 3435 0e74 3078     		ldrb	r0, [r6]	@ zero_extendqisi2
 3436 0e76 8007     		lsls	r0, r0, #30
 3437 0e78 40F18E82 		bpl	.L520
 3438              	.L190:
 3439              		.loc 1 795 0
 3440 0e7c D807     		lsls	r0, r3, #31
 3441 0e7e 03D5     		bpl	.L191
 3442 0e80 3178     		ldrb	r1, [r6]	@ zero_extendqisi2
 3443 0e82 C907     		lsls	r1, r1, #31
 3444 0e84 40F18F82 		bpl	.L521
 3445              	.L191:
 3446              		.loc 1 797 0
 3447 0e88 5807     		lsls	r0, r3, #29
 3448 0e8a 03D5     		bpl	.L192
 3449 0e8c 3278     		ldrb	r2, [r6]	@ zero_extendqisi2
 3450 0e8e 5107     		lsls	r1, r2, #29
 3451 0e90 40F13E82 		bpl	.L522
 3452              	.L192:
 3453              		.loc 1 799 0
 3454 0e94 1A07     		lsls	r2, r3, #28
 3455 0e96 03D5     		bpl	.L200
 3456 0e98 3278     		ldrb	r2, [r6]	@ zero_extendqisi2
ARM GAS  /var/folders/28/j9jfyj_n4wz3qtvnym210h2c0000gn/T//ccpoR13X.s 			page 62


 3457 0e9a 1007     		lsls	r0, r2, #28
 3458 0e9c 40F15A82 		bpl	.L523
 3459              	.L200:
 3460              		.loc 1 801 0
 3461 0ea0 D906     		lsls	r1, r3, #27
 3462 0ea2 7FF569AF 		bpl	.L473
 3463 0ea6 3278     		ldrb	r2, [r6]	@ zero_extendqisi2
 3464 0ea8 D206     		lsls	r2, r2, #27
 3465 0eaa 3FF565AF 		bmi	.L473
 3466              		.loc 1 802 0
 3467 0eae 2278     		ldrb	r2, [r4]	@ zero_extendqisi2
 3468 0eb0 032A     		cmp	r2, #3
 3469 0eb2 00F0BD82 		beq	.L211
 3470 0eb6 511F     		subs	r1, r2, #5
 3471 0eb8 0129     		cmp	r1, #1
 3472 0eba 40F2B982 		bls	.L211
 3473              		.loc 1 805 0
 3474 0ebe 0D2A     		cmp	r2, #13
 3475 0ec0 7FF45AAF 		bne	.L473
 3476              		.loc 1 806 0
 3477 0ec4 E268     		ldr	r2, [r4, #12]
 3478 0ec6 002A     		cmp	r2, #0
 3479 0ec8 3FF456AF 		beq	.L473
 3480              	.LVL238:
 3481              	.L214:
 3482              		.loc 1 807 0
 3483 0ecc 9047     		blx	r2
 3484              	.LVL239:
 3485 0ece 3B78     		ldrb	r3, [r7]	@ zero_extendqisi2
 3486 0ed0 52E7     		b	.L473
 3487              	.L462:
 3488              	.LBE345:
 3489              		.loc 1 815 0
 3490 0ed2 3B78     		ldrb	r3, [r7]	@ zero_extendqisi2
 3491 0ed4 2F4E     		ldr	r6, .L529+4
 3492 0ed6 50E7     		b	.L497
 3493              	.LVL240:
 3494              	.L239:
 3495              	.LBB368:
 3496              	.LBB296:
 3497              	.LBB294:
 3498              		.loc 1 112 0
 3499 0ed8 D8F81030 		ldr	r3, [r8, #16]
 3500 0edc D8F81420 		ldr	r2, [r8, #20]
 3501 0ee0 013B     		subs	r3, r3, #1
 3502 0ee2 9A42     		cmp	r2, r3
 3503 0ee4 02DA     		bge	.L235
 3504              		.loc 1 113 0
 3505 0ee6 0132     		adds	r2, r2, #1
 3506 0ee8 C8F81420 		str	r2, [r8, #20]
 3507              	.L235:
 3508              	.LBE294:
 3509              	.LBE296:
 3510              		.loc 1 861 0
 3511 0eec 2378     		ldrb	r3, [r4]	@ zero_extendqisi2
 3512 0eee 013B     		subs	r3, r3, #1
 3513 0ef0 DBB2     		uxtb	r3, r3
ARM GAS  /var/folders/28/j9jfyj_n4wz3qtvnym210h2c0000gn/T//ccpoR13X.s 			page 63


 3514              		.loc 1 859 0
 3515 0ef2 5AB2     		sxtb	r2, r3
 3516 0ef4 002A     		cmp	r2, #0
 3517              		.loc 1 861 0
 3518 0ef6 2370     		strb	r3, [r4]
 3519              		.loc 1 859 0
 3520 0ef8 40F3B280 		ble	.L234
 3521 0efc 98F80010 		ldrb	r1, [r8]	@ zero_extendqisi2
 3522 0f00 F1E6     		b	.L243
 3523              	.L236:
 3524              	.LBB297:
 3525              	.LBB295:
 3526              		.loc 1 104 0
 3527 0f02 D8F80C20 		ldr	r2, [r8, #12]
 3528 0f06 D8F81410 		ldr	r1, [r8, #20]
 3529 0f0a 1368     		ldr	r3, [r2]
 3530 0f0c 8B42     		cmp	r3, r1
 3531 0f0e EDDA     		bge	.L235
 3532              		.loc 1 105 0
 3533 0f10 0133     		adds	r3, r3, #1
 3534 0f12 1360     		str	r3, [r2]
 3535 0f14 EAE7     		b	.L235
 3536              	.L241:
 3537              		.loc 1 116 0
 3538 0f16 D8F80C20 		ldr	r2, [r8, #12]
 3539 0f1a D8F81410 		ldr	r1, [r8, #20]
 3540 0f1e 1378     		ldrb	r3, [r2]	@ zero_extendqisi2
 3541 0f20 8B42     		cmp	r3, r1
 3542 0f22 E3DA     		bge	.L235
 3543              		.loc 1 117 0
 3544 0f24 0133     		adds	r3, r3, #1
 3545 0f26 1370     		strb	r3, [r2]
 3546 0f28 E0E7     		b	.L235
 3547              	.L240:
 3548              	.LVL241:
 3549              	.LBB291:
 3550              	.LBB292:
 3551              	.LBB293:
 3552              		.loc 1 120 0
 3553 0f2a D8F80C00 		ldr	r0, [r8, #12]
 3554              		.loc 1 121 0
 3555 0f2e D8F81410 		ldr	r1, [r8, #20]
 3556              		.loc 1 120 0
 3557 0f32 0368     		ldr	r3, [r0]
 3558 0f34 03F58013 		add	r3, r3, #1048576
 3559              	.LVL242:
 3560              		.loc 1 121 0
 3561 0f38 8B42     		cmp	r3, r1
 3562              		.loc 1 122 0
 3563 0f3a B8BF     		it	lt
 3564 0f3c 1946     		movlt	r1, r3
 3565              		.loc 1 125 0
 3566 0f3e 6FF01802 		mvn	r2, #24
 3567 0f42 FFF7FEFF 		bl	PExParameterChange
 3568              	.LVL243:
 3569 0f46 D1E7     		b	.L235
 3570              	.LVL244:
ARM GAS  /var/folders/28/j9jfyj_n4wz3qtvnym210h2c0000gn/T//ccpoR13X.s 			page 64


 3571              	.L274:
 3572              	.LBE293:
 3573              	.LBE292:
 3574              	.LBE291:
 3575              	.LBE295:
 3576              	.LBE297:
 3577              	.LBE368:
 3578              	.LBE383:
 3579              	.LBE457:
 3580              	.LBB458:
 3581              	.LBB441:
 3582              	.LBB417:
 3583              		.loc 1 907 0
 3584 0f48 B9F1000F 		cmp	r9, #0
 3585 0f4c 40F01A81 		bne	.L282
 3586              	.LVL245:
 3587              	.LBB393:
 3588              		.loc 1 909 0
 3589 0f50 0520     		movs	r0, #5
 3590 0f52 0121     		movs	r1, #1
 3591 0f54 5246     		mov	r2, r10
 3592 0f56 FFF7FEFF 		bl	KVP_DisplayInv
 3593              	.LVL246:
 3594 0f5a 0227     		movs	r7, #2
 3595 0f5c 0126     		movs	r6, #1
 3596              	.LVL247:
 3597              	.L285:
 3598              		.loc 1 915 0
 3599 0f5e 06EB4602 		add	r2, r6, r6, lsl #1
 3600              		.loc 1 914 0
 3601 0f62 B442     		cmp	r4, r6
 3602              		.loc 1 915 0
 3603 0f64 06F10108 		add	r8, r6, #1
 3604              	.LVL248:
 3605 0f68 4FF00500 		mov	r0, #5
 3606 0f6c 3946     		mov	r1, r7
 3607 0f6e 0AEBC202 		add	r2, r10, r2, lsl #3
 3608              		.loc 1 917 0
 3609 0f72 4FF08003 		mov	r3, #128
 3610              		.loc 1 914 0
 3611 0f76 40F3F480 		ble	.L283
 3612              		.loc 1 915 0
 3613 0f7a FFF7FEFF 		bl	KVP_Display
 3614              	.LVL249:
 3615 0f7e 4646     		mov	r6, r8
 3616              	.L284:
 3617              	.LVL250:
 3618              		.loc 1 913 0
 3619 0f80 0137     		adds	r7, r7, #1
 3620              	.LVL251:
 3621 0f82 072F     		cmp	r7, #7
 3622 0f84 EBD1     		bne	.L285
 3623 0f86 64E6     		b	.L286
 3624              	.LVL252:
 3625              	.L512:
 3626              	.LBE393:
 3627              	.LBE417:
ARM GAS  /var/folders/28/j9jfyj_n4wz3qtvnym210h2c0000gn/T//ccpoR13X.s 			page 65


 3628              	.LBE441:
 3629              	.LBE458:
 3630              	.LBB459:
 3631              	.LBB384:
 3632              	.LBB369:
 3633              		.loc 1 858 0
 3634 0f88 0B29     		cmp	r1, #11
 3635 0f8a 7FF41CAE 		bne	.L233
 3636 0f8e A4E6     		b	.L232
 3637              	.L530:
 3638              		.align	2
 3639              	.L529:
 3640 0f90 00000000 		.word	EncBuffer
 3641 0f94 00000000 		.word	Btn_Nav_PrevStates
 3642 0f98 CC000000 		.word	.LC24
 3643 0f9c 38000000 		.word	.LC8
 3644 0fa0 D0000000 		.word	.LC25
 3645 0fa4 E4000000 		.word	.LC27
 3646              	.LVL253:
 3647              	.L259:
 3648              	.LBE369:
 3649              	.LBB370:
 3650              	.LBB336:
 3651              	.LBB334:
 3652              		.loc 1 112 0
 3653 0fa8 D8F81030 		ldr	r3, [r8, #16]
 3654 0fac D8F81420 		ldr	r2, [r8, #20]
 3655 0fb0 013B     		subs	r3, r3, #1
 3656 0fb2 9A42     		cmp	r2, r3
 3657 0fb4 02DA     		bge	.L255
 3658              		.loc 1 113 0
 3659 0fb6 0132     		adds	r2, r2, #1
 3660 0fb8 C8F81420 		str	r2, [r8, #20]
 3661              	.L255:
 3662              	.LBE334:
 3663              	.LBE336:
 3664              		.loc 1 875 0
 3665 0fbc 2378     		ldrb	r3, [r4]	@ zero_extendqisi2
 3666 0fbe 013B     		subs	r3, r3, #1
 3667 0fc0 DBB2     		uxtb	r3, r3
 3668              		.loc 1 873 0
 3669 0fc2 5AB2     		sxtb	r2, r3
 3670 0fc4 002A     		cmp	r2, #0
 3671              		.loc 1 875 0
 3672 0fc6 2370     		strb	r3, [r4]
 3673              		.loc 1 873 0
 3674 0fc8 40F38A80 		ble	.L254
 3675 0fcc 98F80010 		ldrb	r1, [r8]	@ zero_extendqisi2
 3676 0fd0 F0E6     		b	.L263
 3677              	.L261:
 3678              	.LBB337:
 3679              	.LBB335:
 3680              		.loc 1 116 0
 3681 0fd2 D8F80C20 		ldr	r2, [r8, #12]
 3682 0fd6 D8F81410 		ldr	r1, [r8, #20]
 3683 0fda 1378     		ldrb	r3, [r2]	@ zero_extendqisi2
 3684 0fdc 8B42     		cmp	r3, r1
ARM GAS  /var/folders/28/j9jfyj_n4wz3qtvnym210h2c0000gn/T//ccpoR13X.s 			page 66


 3685 0fde EDDA     		bge	.L255
 3686              		.loc 1 117 0
 3687 0fe0 0133     		adds	r3, r3, #1
 3688 0fe2 1370     		strb	r3, [r2]
 3689 0fe4 EAE7     		b	.L255
 3690              	.L256:
 3691              		.loc 1 104 0
 3692 0fe6 D8F80C20 		ldr	r2, [r8, #12]
 3693 0fea D8F81410 		ldr	r1, [r8, #20]
 3694 0fee 1368     		ldr	r3, [r2]
 3695 0ff0 8B42     		cmp	r3, r1
 3696 0ff2 E3DA     		bge	.L255
 3697              		.loc 1 105 0
 3698 0ff4 0133     		adds	r3, r3, #1
 3699 0ff6 1360     		str	r3, [r2]
 3700 0ff8 E0E7     		b	.L255
 3701              	.L260:
 3702              	.LVL254:
 3703              	.LBB331:
 3704              	.LBB332:
 3705              	.LBB333:
 3706              		.loc 1 120 0
 3707 0ffa D8F80C00 		ldr	r0, [r8, #12]
 3708              		.loc 1 121 0
 3709 0ffe D8F81410 		ldr	r1, [r8, #20]
 3710              		.loc 1 120 0
 3711 1002 0368     		ldr	r3, [r0]
 3712 1004 03F58013 		add	r3, r3, #1048576
 3713              	.LVL255:
 3714              		.loc 1 121 0
 3715 1008 8B42     		cmp	r3, r1
 3716              		.loc 1 122 0
 3717 100a B8BF     		it	lt
 3718 100c 1946     		movlt	r1, r3
 3719              		.loc 1 125 0
 3720 100e 6FF01802 		mvn	r2, #24
 3721 1012 FFF7FEFF 		bl	PExParameterChange
 3722              	.LVL256:
 3723 1016 D1E7     		b	.L255
 3724              	.LVL257:
 3725              	.L517:
 3726              	.LBE333:
 3727              	.LBE332:
 3728              	.LBE331:
 3729              	.LBE335:
 3730              	.LBE337:
 3731              		.loc 1 872 0
 3732 1018 0B29     		cmp	r1, #11
 3733 101a 7FF4D4AD 		bne	.L233
 3734 101e C3E6     		b	.L253
 3735              	.LVL258:
 3736              	.L306:
 3737              	.LBE370:
 3738              	.LBE384:
 3739              	.LBE459:
 3740              	.LBB460:
 3741              	.LBB442:
ARM GAS  /var/folders/28/j9jfyj_n4wz3qtvnym210h2c0000gn/T//ccpoR13X.s 			page 67


 3742              	.LBB418:
 3743              		.loc 1 992 0
 3744 1020 B8F1000F 		cmp	r8, #0
 3745 1024 40F0DF80 		bne	.L314
 3746              	.LVL259:
 3747              	.LBB403:
 3748              		.loc 1 994 0
 3749 1028 3046     		mov	r0, r6
 3750 102a 0121     		movs	r1, #1
 3751 102c 3A68     		ldr	r2, [r7]
 3752 102e FFF7FEFF 		bl	KVP_DisplayInv
 3753              	.LVL260:
 3754 1032 0226     		movs	r6, #2
 3755 1034 4FF00108 		mov	r8, #1
 3756              	.LVL261:
 3757              	.L317:
 3758              		.loc 1 999 0
 3759 1038 4445     		cmp	r4, r8
 3760              		.loc 1 1000 0
 3761 103a 08F10109 		add	r9, r8, #1
 3762              	.LVL262:
 3763 103e 4FF00500 		mov	r0, #5
 3764 1042 3146     		mov	r1, r6
 3765              		.loc 1 1002 0
 3766 1044 B14A     		ldr	r2, .L531
 3767 1046 4FF08003 		mov	r3, #128
 3768              		.loc 1 999 0
 3769 104a 40F39080 		ble	.L315
 3770              		.loc 1 1000 0
 3771 104e 57F82820 		ldr	r2, [r7, r8, lsl #2]
 3772 1052 FFF7FEFF 		bl	KVP_Display
 3773              	.LVL263:
 3774 1056 C846     		mov	r8, r9
 3775              	.L316:
 3776              	.LVL264:
 3777              		.loc 1 998 0
 3778 1058 0136     		adds	r6, r6, #1
 3779              	.LVL265:
 3780 105a 072E     		cmp	r6, #7
 3781 105c ECD1     		bne	.L317
 3782 105e E2E6     		b	.L318
 3783              	.LVL266:
 3784              	.L234:
 3785              	.LBE403:
 3786              	.LBE418:
 3787              	.LBE442:
 3788              	.LBE460:
 3789              	.LBB461:
 3790              	.LBB385:
 3791              	.LBB371:
 3792              		.loc 1 863 0
 3793 1060 CBB1     		cbz	r3, .L479
 3794              	.L412:
 3795              	.LVL267:
 3796              	.LBB298:
 3797              	.LBB299:
 3798              		.loc 1 135 0
ARM GAS  /var/folders/28/j9jfyj_n4wz3qtvnym210h2c0000gn/T//ccpoR13X.s 			page 68


 3799 1062 98F80030 		ldrb	r3, [r8]	@ zero_extendqisi2
 3800 1066 0C2B     		cmp	r3, #12
 3801 1068 0FD8     		bhi	.L245
 3802 106a DFE803F0 		tbb	[pc, r3]
 3803              	.L247:
 3804 106e 16       		.byte	(.L246-.L247)/2
 3805 106f 0E       		.byte	(.L245-.L247)/2
 3806 1070 0E       		.byte	(.L245-.L247)/2
 3807 1071 07       		.byte	(.L249-.L247)/2
 3808 1072 0E       		.byte	(.L245-.L247)/2
 3809 1073 07       		.byte	(.L249-.L247)/2
 3810 1074 0E       		.byte	(.L245-.L247)/2
 3811 1075 0E       		.byte	(.L245-.L247)/2
 3812 1076 0E       		.byte	(.L245-.L247)/2
 3813 1077 0E       		.byte	(.L245-.L247)/2
 3814 1078 0E       		.byte	(.L245-.L247)/2
 3815 1079 2A       		.byte	(.L250-.L247)/2
 3816 107a 20       		.byte	(.L251-.L247)/2
 3817 107b 00       		.p2align 1
 3818              	.L249:
 3819              		.loc 1 145 0
 3820 107c D8F81430 		ldr	r3, [r8, #20]
 3821 1080 002B     		cmp	r3, #0
 3822 1082 02DD     		ble	.L245
 3823              		.loc 1 146 0
 3824 1084 013B     		subs	r3, r3, #1
 3825 1086 C8F81430 		str	r3, [r8, #20]
 3826              	.L245:
 3827              	.LBE299:
 3828              	.LBE298:
 3829              		.loc 1 865 0
 3830 108a 2378     		ldrb	r3, [r4]	@ zero_extendqisi2
 3831 108c 0133     		adds	r3, r3, #1
 3832 108e DBB2     		uxtb	r3, r3
 3833              		.loc 1 863 0
 3834 1090 1A06     		lsls	r2, r3, #24
 3835              		.loc 1 865 0
 3836 1092 2370     		strb	r3, [r4]
 3837              		.loc 1 863 0
 3838 1094 E5D4     		bmi	.L412
 3839              	.LVL268:
 3840              	.L479:
 3841 1096 2A68     		ldr	r2, [r5]
 3842 1098 95E5     		b	.L233
 3843              	.LVL269:
 3844              	.L246:
 3845              	.LBB304:
 3846              	.LBB303:
 3847              		.loc 1 137 0
 3848 109a D8F80C20 		ldr	r2, [r8, #12]
 3849 109e D8F81010 		ldr	r1, [r8, #16]
 3850 10a2 1368     		ldr	r3, [r2]
 3851 10a4 8B42     		cmp	r3, r1
 3852 10a6 F0DD     		ble	.L245
 3853              		.loc 1 138 0
 3854 10a8 013B     		subs	r3, r3, #1
 3855 10aa 1360     		str	r3, [r2]
ARM GAS  /var/folders/28/j9jfyj_n4wz3qtvnym210h2c0000gn/T//ccpoR13X.s 			page 69


 3856 10ac EDE7     		b	.L245
 3857              	.L251:
 3858              		.loc 1 149 0
 3859 10ae D8F80C20 		ldr	r2, [r8, #12]
 3860 10b2 D8F81010 		ldr	r1, [r8, #16]
 3861 10b6 1378     		ldrb	r3, [r2]	@ zero_extendqisi2
 3862 10b8 8B42     		cmp	r3, r1
 3863 10ba E6DD     		ble	.L245
 3864              		.loc 1 150 0
 3865 10bc 013B     		subs	r3, r3, #1
 3866 10be 1370     		strb	r3, [r2]
 3867 10c0 E3E7     		b	.L245
 3868              	.L250:
 3869              	.LVL270:
 3870              	.LBB300:
 3871              	.LBB301:
 3872              	.LBB302:
 3873              		.loc 1 153 0
 3874 10c2 D8F80C00 		ldr	r0, [r8, #12]
 3875              		.loc 1 154 0
 3876 10c6 D8F81010 		ldr	r1, [r8, #16]
 3877              		.loc 1 153 0
 3878 10ca 0368     		ldr	r3, [r0]
 3879 10cc A3F58013 		sub	r3, r3, #1048576
 3880              	.LVL271:
 3881              		.loc 1 154 0
 3882 10d0 8B42     		cmp	r3, r1
 3883              		.loc 1 155 0
 3884 10d2 C8BF     		it	gt
 3885 10d4 1946     		movgt	r1, r3
 3886              		.loc 1 158 0
 3887 10d6 6FF01802 		mvn	r2, #24
 3888 10da FFF7FEFF 		bl	PExParameterChange
 3889              	.LVL272:
 3890 10de D4E7     		b	.L245
 3891              	.LVL273:
 3892              	.L254:
 3893              	.LBE302:
 3894              	.LBE301:
 3895              	.LBE300:
 3896              	.LBE303:
 3897              	.LBE304:
 3898              	.LBE371:
 3899              	.LBB372:
 3900              		.loc 1 877 0
 3901 10e0 002B     		cmp	r3, #0
 3902 10e2 D8D0     		beq	.L479
 3903              	.L413:
 3904              	.LVL274:
 3905              	.LBB338:
 3906              	.LBB339:
 3907              		.loc 1 135 0
 3908 10e4 98F80030 		ldrb	r3, [r8]	@ zero_extendqisi2
 3909 10e8 0C2B     		cmp	r3, #12
 3910 10ea 0FD8     		bhi	.L265
 3911 10ec DFE803F0 		tbb	[pc, r3]
 3912              	.L267:
ARM GAS  /var/folders/28/j9jfyj_n4wz3qtvnym210h2c0000gn/T//ccpoR13X.s 			page 70


 3913 10f0 20       		.byte	(.L266-.L267)/2
 3914 10f1 0E       		.byte	(.L265-.L267)/2
 3915 10f2 0E       		.byte	(.L265-.L267)/2
 3916 10f3 07       		.byte	(.L269-.L267)/2
 3917 10f4 0E       		.byte	(.L265-.L267)/2
 3918 10f5 07       		.byte	(.L269-.L267)/2
 3919 10f6 0E       		.byte	(.L265-.L267)/2
 3920 10f7 0E       		.byte	(.L265-.L267)/2
 3921 10f8 0E       		.byte	(.L265-.L267)/2
 3922 10f9 0E       		.byte	(.L265-.L267)/2
 3923 10fa 0E       		.byte	(.L265-.L267)/2
 3924 10fb 2A       		.byte	(.L270-.L267)/2
 3925 10fc 16       		.byte	(.L271-.L267)/2
 3926 10fd 00       		.p2align 1
 3927              	.L269:
 3928              		.loc 1 145 0
 3929 10fe D8F81430 		ldr	r3, [r8, #20]
 3930 1102 002B     		cmp	r3, #0
 3931 1104 02DD     		ble	.L265
 3932              		.loc 1 146 0
 3933 1106 013B     		subs	r3, r3, #1
 3934 1108 C8F81430 		str	r3, [r8, #20]
 3935              	.L265:
 3936              	.LBE339:
 3937              	.LBE338:
 3938              		.loc 1 879 0
 3939 110c 2378     		ldrb	r3, [r4]	@ zero_extendqisi2
 3940 110e 0133     		adds	r3, r3, #1
 3941 1110 DBB2     		uxtb	r3, r3
 3942 1112 2370     		strb	r3, [r4]
 3943              		.loc 1 877 0
 3944 1114 1B06     		lsls	r3, r3, #24
 3945 1116 E5D4     		bmi	.L413
 3946 1118 2A68     		ldr	r2, [r5]
 3947 111a 54E5     		b	.L233
 3948              	.L271:
 3949              	.LBB344:
 3950              	.LBB343:
 3951              		.loc 1 149 0
 3952 111c D8F80C20 		ldr	r2, [r8, #12]
 3953 1120 D8F81010 		ldr	r1, [r8, #16]
 3954 1124 1378     		ldrb	r3, [r2]	@ zero_extendqisi2
 3955 1126 8B42     		cmp	r3, r1
 3956 1128 F0DD     		ble	.L265
 3957              		.loc 1 150 0
 3958 112a 013B     		subs	r3, r3, #1
 3959 112c 1370     		strb	r3, [r2]
 3960 112e EDE7     		b	.L265
 3961              	.L266:
 3962              		.loc 1 137 0
 3963 1130 D8F80C20 		ldr	r2, [r8, #12]
 3964 1134 D8F81010 		ldr	r1, [r8, #16]
 3965 1138 1368     		ldr	r3, [r2]
 3966 113a 8B42     		cmp	r3, r1
 3967 113c E6DD     		ble	.L265
 3968              		.loc 1 138 0
 3969 113e 013B     		subs	r3, r3, #1
ARM GAS  /var/folders/28/j9jfyj_n4wz3qtvnym210h2c0000gn/T//ccpoR13X.s 			page 71


 3970 1140 1360     		str	r3, [r2]
 3971 1142 E3E7     		b	.L265
 3972              	.L270:
 3973              	.LVL275:
 3974              	.LBB340:
 3975              	.LBB341:
 3976              	.LBB342:
 3977              		.loc 1 153 0
 3978 1144 D8F80C00 		ldr	r0, [r8, #12]
 3979              		.loc 1 154 0
 3980 1148 D8F81010 		ldr	r1, [r8, #16]
 3981              		.loc 1 153 0
 3982 114c 0368     		ldr	r3, [r0]
 3983 114e A3F58013 		sub	r3, r3, #1048576
 3984              	.LVL276:
 3985              		.loc 1 154 0
 3986 1152 8B42     		cmp	r3, r1
 3987              		.loc 1 155 0
 3988 1154 C8BF     		it	gt
 3989 1156 1946     		movgt	r1, r3
 3990              		.loc 1 158 0
 3991 1158 6FF01802 		mvn	r2, #24
 3992 115c FFF7FEFF 		bl	PExParameterChange
 3993              	.LVL277:
 3994 1160 D4E7     		b	.L265
 3995              	.LVL278:
 3996              	.L283:
 3997              	.LBE342:
 3998              	.LBE341:
 3999              	.LBE340:
 4000              	.LBE343:
 4001              	.LBE344:
 4002              	.LBE372:
 4003              	.LBE385:
 4004              	.LBE461:
 4005              	.LBB462:
 4006              	.LBB443:
 4007              	.LBB419:
 4008              	.LBB394:
 4009              		.loc 1 917 0
 4010 1162 0520     		movs	r0, #5
 4011 1164 3946     		mov	r1, r7
 4012              	.LVL279:
 4013 1166 694A     		ldr	r2, .L531
 4014 1168 FFF7FEFF 		bl	LCD_drawStringN
 4015              	.LVL280:
 4016 116c 08E7     		b	.L284
 4017              	.LVL281:
 4018              	.L315:
 4019              	.LBE394:
 4020              	.LBE419:
 4021              	.LBB420:
 4022              	.LBB404:
 4023              		.loc 1 1002 0
 4024 116e 0520     		movs	r0, #5
 4025 1170 3146     		mov	r1, r6
 4026              	.LVL282:
ARM GAS  /var/folders/28/j9jfyj_n4wz3qtvnym210h2c0000gn/T//ccpoR13X.s 			page 72


 4027 1172 FFF7FEFF 		bl	LCD_drawStringN
 4028              	.LVL283:
 4029 1176 6FE7     		b	.L316
 4030              	.LVL284:
 4031              	.L509:
 4032              	.LBE404:
 4033              	.LBE420:
 4034              		.loc 1 1062 0
 4035 1178 DA68     		ldr	r2, [r3, #12]
 4036 117a 5869     		ldr	r0, [r3, #20]
 4037              	.LBE443:
 4038              	.LBE462:
 4039              		.loc 1 401 0
 4040 117c 01B0     		add	sp, sp, #4
 4041              		.cfi_remember_state
 4042              		.cfi_def_cfa_offset 36
 4043              		@ sp needed
 4044 117e BDE8F04F 		pop	{r4, r5, r6, r7, r8, r9, r10, fp, lr}
 4045              		.cfi_restore 14
 4046              		.cfi_restore 11
 4047              		.cfi_restore 10
 4048              		.cfi_restore 9
 4049              		.cfi_restore 8
 4050              		.cfi_restore 7
 4051              		.cfi_restore 6
 4052              		.cfi_restore 5
 4053              		.cfi_restore 4
 4054              		.cfi_def_cfa_offset 0
 4055              	.LBB463:
 4056              	.LBB444:
 4057              		.loc 1 1062 0
 4058 1182 1047     		bx	r2	@ indirect register sibling call
 4059              	.LVL285:
 4060              	.L282:
 4061              		.cfi_restore_state
 4062              	.LBB421:
 4063              		.loc 1 920 0
 4064 1184 B9F1010F 		cmp	r9, #1
 4065 1188 00F03582 		beq	.L524
 4066              	.LVL286:
 4067              	.LBB395:
 4068              		.loc 1 940 0
 4069 118c A9F10207 		sub	r7, r9, #2
 4070              	.LVL287:
 4071              		.loc 1 941 0
 4072 1190 BC42     		cmp	r4, r7
 4073 1192 00F30F81 		bgt	.L525
 4074              		.loc 1 944 0
 4075 1196 0520     		movs	r0, #5
 4076 1198 0121     		movs	r1, #1
 4077 119a 5C4A     		ldr	r2, .L531
 4078 119c 8023     		movs	r3, #128
 4079 119e FFF7FEFF 		bl	LCD_drawStringN
 4080              	.LVL288:
 4081              	.L293:
 4082              		.loc 1 948 0
 4083 11a2 0520     		movs	r0, #5
ARM GAS  /var/folders/28/j9jfyj_n4wz3qtvnym210h2c0000gn/T//ccpoR13X.s 			page 73


 4084 11a4 0221     		movs	r1, #2
 4085 11a6 594A     		ldr	r2, .L531
 4086 11a8 8023     		movs	r3, #128
 4087 11aa FFF7FEFF 		bl	LCD_drawStringN
 4088              	.LVL289:
 4089              	.L295:
 4090              		.loc 1 952 0
 4091 11ae 0520     		movs	r0, #5
 4092 11b0 0321     		movs	r1, #3
 4093 11b2 564A     		ldr	r2, .L531
 4094 11b4 8023     		movs	r3, #128
 4095 11b6 FFF7FEFF 		bl	LCD_drawStringN
 4096              	.LVL290:
 4097              	.L297:
 4098              		.loc 1 949 0
 4099 11ba 0326     		movs	r6, #3
 4100              	.LVL291:
 4101              	.L296:
 4102              		.loc 1 956 0
 4103 11bc 07EB4702 		add	r2, r7, r7, lsl #1
 4104              		.loc 1 955 0
 4105 11c0 BC42     		cmp	r4, r7
 4106              		.loc 1 956 0
 4107 11c2 07F10108 		add	r8, r7, #1
 4108              	.LVL292:
 4109 11c6 4FF00500 		mov	r0, #5
 4110 11ca 3146     		mov	r1, r6
 4111 11cc 0AEBC202 		add	r2, r10, r2, lsl #3
 4112              		.loc 1 958 0
 4113 11d0 4FF08003 		mov	r3, #128
 4114              		.loc 1 955 0
 4115 11d4 40F3F481 		ble	.L298
 4116              		.loc 1 956 0
 4117 11d8 FFF7FEFF 		bl	KVP_Display
 4118              	.LVL293:
 4119 11dc 4746     		mov	r7, r8
 4120              	.L299:
 4121              	.LVL294:
 4122              		.loc 1 954 0
 4123 11de 0136     		adds	r6, r6, #1
 4124              	.LVL295:
 4125 11e0 072E     		cmp	r6, #7
 4126 11e2 EBD1     		bne	.L296
 4127 11e4 35E5     		b	.L286
 4128              	.LVL296:
 4129              	.L314:
 4130              	.LBE395:
 4131              	.LBE421:
 4132              	.LBB422:
 4133              		.loc 1 1005 0
 4134 11e6 B8F1010F 		cmp	r8, #1
 4135 11ea 00F02481 		beq	.L526
 4136              	.LVL297:
 4137              	.LBB405:
 4138              		.loc 1 1025 0
 4139 11ee A8F10209 		sub	r9, r8, #2
 4140              	.LVL298:
ARM GAS  /var/folders/28/j9jfyj_n4wz3qtvnym210h2c0000gn/T//ccpoR13X.s 			page 74


 4141              		.loc 1 1026 0
 4142 11f2 4C45     		cmp	r4, r9
 4143 11f4 40F32682 		ble	.L323
 4144              		.loc 1 1027 0
 4145 11f8 08F1FF3A 		add	r10, r8, #-1
 4146              	.LVL299:
 4147 11fc 57F82920 		ldr	r2, [r7, r9, lsl #2]
 4148 1200 3046     		mov	r0, r6
 4149 1202 0121     		movs	r1, #1
 4150 1204 FFF7FEFF 		bl	KVP_Display
 4151              	.LVL300:
 4152              		.loc 1 1030 0
 4153 1208 5445     		cmp	r4, r10
 4154              		.loc 1 1027 0
 4155 120a 4FEA8909 		lsl	r9, r9, #2
 4156              		.loc 1 1030 0
 4157 120e D8BF     		it	le
 4158 1210 D146     		movle	r9, r10
 4159 1212 40F31D82 		ble	.L325
 4160              	.LVL301:
 4161              		.loc 1 1031 0
 4162 1216 B944     		add	r9, r9, r7
 4163 1218 3046     		mov	r0, r6
 4164 121a D9F80420 		ldr	r2, [r9, #4]
 4165 121e 0221     		movs	r1, #2
 4166 1220 FFF7FEFF 		bl	KVP_Display
 4167              	.LVL302:
 4168              		.loc 1 1034 0
 4169 1224 A045     		cmp	r8, r4
 4170 1226 A8BF     		it	ge
 4171 1228 C146     		movge	r9, r8
 4172 122a 80F21782 		bge	.L327
 4173              		.loc 1 1035 0
 4174 122e D9F80820 		ldr	r2, [r9, #8]
 4175 1232 3046     		mov	r0, r6
 4176 1234 0321     		movs	r1, #3
 4177 1236 08F10109 		add	r9, r8, #1
 4178              	.LVL303:
 4179 123a FFF7FEFF 		bl	KVP_DisplayInv
 4180              	.LVL304:
 4181              	.L329:
 4182              		.loc 1 1034 0
 4183 123e 0426     		movs	r6, #4
 4184              	.LVL305:
 4185              	.L328:
 4186              		.loc 1 1040 0
 4187 1240 A145     		cmp	r9, r4
 4188              		.loc 1 1041 0
 4189 1242 09F10108 		add	r8, r9, #1
 4190              	.LVL306:
 4191 1246 4FF00500 		mov	r0, #5
 4192 124a 3146     		mov	r1, r6
 4193              		.loc 1 1043 0
 4194 124c 2F4A     		ldr	r2, .L531
 4195 124e 4FF08003 		mov	r3, #128
 4196              		.loc 1 1040 0
 4197 1252 80F2BB81 		bge	.L330
ARM GAS  /var/folders/28/j9jfyj_n4wz3qtvnym210h2c0000gn/T//ccpoR13X.s 			page 75


 4198              		.loc 1 1041 0
 4199 1256 57F82920 		ldr	r2, [r7, r9, lsl #2]
 4200 125a FFF7FEFF 		bl	KVP_Display
 4201              	.LVL307:
 4202 125e C146     		mov	r9, r8
 4203              	.L331:
 4204              	.LVL308:
 4205              		.loc 1 1039 0
 4206 1260 0136     		adds	r6, r6, #1
 4207              	.LVL309:
 4208 1262 072E     		cmp	r6, #7
 4209 1264 ECD1     		bne	.L328
 4210 1266 DEE5     		b	.L318
 4211              	.LVL310:
 4212              	.L516:
 4213              	.LBE405:
 4214              	.LBE422:
 4215              	.LBE444:
 4216              	.LBE463:
 4217              	.LBB464:
 4218              	.LBB386:
 4219              	.LBB373:
 4220              	.LBB306:
 4221              	.LBB307:
 4222              		.loc 1 102 0
 4223 1268 18F80420 		ldrb	r2, [r8, r4]	@ zero_extendqisi2
 4224 126c 0C2A     		cmp	r2, #12
 4225 126e 3FF66EAD 		bhi	.L173
 4226 1272 01A1     		adr	r1, .L175
 4227 1274 51F822F0 		ldr	pc, [r1, r2, lsl #2]
 4228              		.p2align 2
 4229              	.L175:
 4230 1278 D1140000 		.word	.L174+1
 4231 127c 4F0D0000 		.word	.L173+1
 4232 1280 4F0D0000 		.word	.L173+1
 4233 1284 11140000 		.word	.L177+1
 4234 1288 4F0D0000 		.word	.L173+1
 4235 128c 11140000 		.word	.L177+1
 4236 1290 4F0D0000 		.word	.L173+1
 4237 1294 4F0D0000 		.word	.L173+1
 4238 1298 4F0D0000 		.word	.L173+1
 4239 129c 4F0D0000 		.word	.L173+1
 4240 12a0 4F0D0000 		.word	.L173+1
 4241 12a4 99140000 		.word	.L178+1
 4242 12a8 B9140000 		.word	.L179+1
 4243              	.LVL311:
 4244              		.p2align 1
 4245              	.L515:
 4246              	.LBE307:
 4247              	.LBE306:
 4248              	.LBB313:
 4249              	.LBB314:
 4250              		.loc 1 135 0
 4251 12ac 18F80420 		ldrb	r2, [r8, r4]	@ zero_extendqisi2
 4252 12b0 0C2A     		cmp	r2, #12
 4253 12b2 3FF646AD 		bhi	.L165
 4254 12b6 01A1     		adr	r1, .L167
ARM GAS  /var/folders/28/j9jfyj_n4wz3qtvnym210h2c0000gn/T//ccpoR13X.s 			page 76


 4255 12b8 51F822F0 		ldr	pc, [r1, r2, lsl #2]
 4256              		.p2align 2
 4257              	.L167:
 4258 12bc 21150000 		.word	.L166+1
 4259 12c0 430D0000 		.word	.L165+1
 4260 12c4 430D0000 		.word	.L165+1
 4261 12c8 FF130000 		.word	.L169+1
 4262 12cc 430D0000 		.word	.L165+1
 4263 12d0 FF130000 		.word	.L169+1
 4264 12d4 430D0000 		.word	.L165+1
 4265 12d8 430D0000 		.word	.L165+1
 4266 12dc 430D0000 		.word	.L165+1
 4267 12e0 430D0000 		.word	.L165+1
 4268 12e4 430D0000 		.word	.L165+1
 4269 12e8 E9140000 		.word	.L170+1
 4270 12ec 09150000 		.word	.L171+1
 4271              	.LVL312:
 4272              		.p2align 1
 4273              	.L514:
 4274              	.LBE314:
 4275              	.LBE313:
 4276              	.LBB320:
 4277              	.LBB321:
 4278              		.loc 1 141 0
 4279 12f0 5169     		ldr	r1, [r2, #20]
 4280 12f2 0029     		cmp	r1, #0
 4281              		.loc 1 142 0
 4282 12f4 C4BF     		itt	gt
 4283 12f6 01F1FF31 		addgt	r1, r1, #-1
 4284 12fa 5161     		strgt	r1, [r2, #20]
 4285 12fc 1BE5     		b	.L164
 4286              	.LVL313:
 4287              	.L513:
 4288              	.LBE321:
 4289              	.LBE320:
 4290              	.LBB322:
 4291              	.LBB323:
 4292              		.loc 1 108 0
 4293 12fe 1069     		ldr	r0, [r2, #16]
 4294 1300 0138     		subs	r0, r0, #1
 4295 1302 8142     		cmp	r1, r0
 4296              		.loc 1 109 0
 4297 1304 BCBF     		itt	lt
 4298 1306 0131     		addlt	r1, r1, #1
 4299 1308 5161     		strlt	r1, [r2, #20]
 4300 130a 0EE5     		b	.L163
 4301              	.L532:
 4302              		.align	2
 4303              	.L531:
 4304 130c CC000000 		.word	.LC24
 4305              	.LVL314:
 4306              	.L522:
 4307              	.LBE323:
 4308              	.LBE322:
 4309              	.LBE373:
 4310              	.LBB374:
 4311              	.LBB346:
ARM GAS  /var/folders/28/j9jfyj_n4wz3qtvnym210h2c0000gn/T//ccpoR13X.s 			page 77


 4312              	.LBB347:
 4313              		.loc 1 135 0
 4314 1310 2278     		ldrb	r2, [r4]	@ zero_extendqisi2
 4315 1312 0C2A     		cmp	r2, #12
 4316 1314 3FF6BEAD 		bhi	.L192
 4317 1318 01A1     		adr	r1, .L194
 4318 131a 51F822F0 		ldr	pc, [r1, r2, lsl #2]
 4319 131e 00BF     		.p2align 2
 4320              	.L194:
 4321 1320 91150000 		.word	.L193+1
 4322 1324 950E0000 		.word	.L192+1
 4323 1328 950E0000 		.word	.L192+1
 4324 132c 79140000 		.word	.L196+1
 4325 1330 950E0000 		.word	.L192+1
 4326 1334 79140000 		.word	.L196+1
 4327 1338 950E0000 		.word	.L192+1
 4328 133c 950E0000 		.word	.L192+1
 4329 1340 950E0000 		.word	.L192+1
 4330 1344 950E0000 		.word	.L192+1
 4331 1348 950E0000 		.word	.L192+1
 4332 134c A5150000 		.word	.L197+1
 4333 1350 7D150000 		.word	.L198+1
 4334              	.LVL315:
 4335              		.p2align 1
 4336              	.L523:
 4337              	.LBE347:
 4338              	.LBE346:
 4339              	.LBB353:
 4340              	.LBB354:
 4341              		.loc 1 102 0
 4342 1354 2278     		ldrb	r2, [r4]	@ zero_extendqisi2
 4343 1356 0C2A     		cmp	r2, #12
 4344 1358 3FF6A2AD 		bhi	.L200
 4345 135c 01A1     		adr	r1, .L202
 4346 135e 51F822F0 		ldr	pc, [r1, r2, lsl #2]
 4347 1362 00BF     		.p2align 2
 4348              	.L202:
 4349 1364 69150000 		.word	.L201+1
 4350 1368 A10E0000 		.word	.L200+1
 4351 136c A10E0000 		.word	.L200+1
 4352 1370 87140000 		.word	.L204+1
 4353 1374 A10E0000 		.word	.L200+1
 4354 1378 87140000 		.word	.L204+1
 4355 137c A10E0000 		.word	.L200+1
 4356 1380 A10E0000 		.word	.L200+1
 4357 1384 A10E0000 		.word	.L200+1
 4358 1388 A10E0000 		.word	.L200+1
 4359 138c A10E0000 		.word	.L200+1
 4360 1390 39150000 		.word	.L205+1
 4361 1394 55150000 		.word	.L206+1
 4362              	.LVL316:
 4363              		.p2align 1
 4364              	.L520:
 4365              	.LBE354:
 4366              	.LBE353:
 4367              	.LBB360:
 4368              	.LBB361:
ARM GAS  /var/folders/28/j9jfyj_n4wz3qtvnym210h2c0000gn/T//ccpoR13X.s 			page 78


 4369              		.loc 1 112 0
 4370 1398 1069     		ldr	r0, [r2, #16]
 4371 139a 0138     		subs	r0, r0, #1
 4372 139c 8142     		cmp	r1, r0
 4373              		.loc 1 113 0
 4374 139e BCBF     		itt	lt
 4375 13a0 0131     		addlt	r1, r1, #1
 4376 13a2 5161     		strlt	r1, [r2, #20]
 4377 13a4 6AE5     		b	.L190
 4378              	.LVL317:
 4379              	.L521:
 4380              	.LBE361:
 4381              	.LBE360:
 4382              	.LBB362:
 4383              	.LBB363:
 4384              		.loc 1 145 0
 4385 13a6 5169     		ldr	r1, [r2, #20]
 4386 13a8 0029     		cmp	r1, #0
 4387              		.loc 1 146 0
 4388 13aa C4BF     		itt	gt
 4389 13ac 01F1FF31 		addgt	r1, r1, #-1
 4390 13b0 5161     		strgt	r1, [r2, #20]
 4391 13b2 69E5     		b	.L191
 4392              	.LVL318:
 4393              	.L525:
 4394              	.LBE363:
 4395              	.LBE362:
 4396              	.LBE374:
 4397              	.LBE386:
 4398              	.LBE464:
 4399              	.LBB465:
 4400              	.LBB445:
 4401              	.LBB423:
 4402              	.LBB396:
 4403              		.loc 1 942 0
 4404 13b4 07EB4707 		add	r7, r7, r7, lsl #1
 4405              	.LVL319:
 4406 13b8 4FEAC708 		lsl	r8, r7, #3
 4407 13bc 0AEB0802 		add	r2, r10, r8
 4408 13c0 09F1FF37 		add	r7, r9, #-1
 4409              	.LVL320:
 4410 13c4 0520     		movs	r0, #5
 4411 13c6 0121     		movs	r1, #1
 4412 13c8 FFF7FEFF 		bl	KVP_Display
 4413              	.LVL321:
 4414              		.loc 1 945 0
 4415 13cc BC42     		cmp	r4, r7
 4416 13ce 7FF7E8AE 		ble	.L293
 4417              	.LVL322:
 4418              		.loc 1 946 0
 4419 13d2 08F11802 		add	r2, r8, #24
 4420 13d6 5244     		add	r2, r2, r10
 4421 13d8 0520     		movs	r0, #5
 4422 13da 0221     		movs	r1, #2
 4423 13dc FFF7FEFF 		bl	KVP_Display
 4424              	.LVL323:
 4425              		.loc 1 949 0
ARM GAS  /var/folders/28/j9jfyj_n4wz3qtvnym210h2c0000gn/T//ccpoR13X.s 			page 79


 4426 13e0 A145     		cmp	r9, r4
 4427 13e2 A8BF     		it	ge
 4428 13e4 4F46     		movge	r7, r9
 4429 13e6 BFF6E2AE 		bge	.L295
 4430              		.loc 1 950 0
 4431 13ea 08F13002 		add	r2, r8, #48
 4432 13ee 5244     		add	r2, r2, r10
 4433 13f0 3146     		mov	r1, r6
 4434 13f2 0520     		movs	r0, #5
 4435 13f4 09F10107 		add	r7, r9, #1
 4436              	.LVL324:
 4437 13f8 FFF7FEFF 		bl	KVP_DisplayInv
 4438              	.LVL325:
 4439 13fc DDE6     		b	.L297
 4440              	.LVL326:
 4441              	.L169:
 4442              	.LBE396:
 4443              	.LBE423:
 4444              	.LBE445:
 4445              	.LBE465:
 4446              	.LBB466:
 4447              	.LBB387:
 4448              	.LBB375:
 4449              	.LBB324:
 4450              	.LBB318:
 4451              		.loc 1 145 0
 4452 13fe D9F81420 		ldr	r2, [r9, #20]
 4453 1402 002A     		cmp	r2, #0
 4454 1404 7FF79DAC 		ble	.L165
 4455              		.loc 1 146 0
 4456 1408 013A     		subs	r2, r2, #1
 4457 140a C9F81420 		str	r2, [r9, #20]
 4458 140e 98E4     		b	.L165
 4459              	.LVL327:
 4460              	.L177:
 4461              	.LBE318:
 4462              	.LBE324:
 4463              	.LBB325:
 4464              	.LBB311:
 4465              		.loc 1 112 0
 4466 1410 D9F81020 		ldr	r2, [r9, #16]
 4467 1414 D9F81410 		ldr	r1, [r9, #20]
 4468 1418 013A     		subs	r2, r2, #1
 4469 141a 9142     		cmp	r1, r2
 4470 141c BFF697AC 		bge	.L173
 4471              		.loc 1 113 0
 4472 1420 0131     		adds	r1, r1, #1
 4473 1422 C9F81410 		str	r1, [r9, #20]
 4474 1426 92E4     		b	.L173
 4475              	.LVL328:
 4476              	.L184:
 4477              	.LBE311:
 4478              	.LBE325:
 4479              		.loc 1 780 0
 4480 1428 C5F80090 		str	r9, [r5]
 4481 142c 4A46     		mov	r2, r9
 4482 142e A4E4     		b	.L497
ARM GAS  /var/folders/28/j9jfyj_n4wz3qtvnym210h2c0000gn/T//ccpoR13X.s 			page 80


 4483              	.LVL329:
 4484              	.L211:
 4485              	.LBE375:
 4486              	.LBB376:
 4487              		.loc 1 804 0
 4488 1430 2C60     		str	r4, [r5]
 4489 1432 2246     		mov	r2, r4
 4490 1434 A1E4     		b	.L497
 4491              	.LVL330:
 4492              	.L526:
 4493              	.LBE376:
 4494              	.LBE387:
 4495              	.LBE466:
 4496              	.LBB467:
 4497              	.LBB446:
 4498              	.LBB424:
 4499              	.LBB406:
 4500              		.loc 1 1008 0
 4501 1436 4146     		mov	r1, r8
 4502 1438 3046     		mov	r0, r6
 4503 143a 3A68     		ldr	r2, [r7]
 4504 143c FFF7FEFF 		bl	KVP_Display
 4505              	.LVL331:
 4506              		.loc 1 1012 0
 4507 1440 3046     		mov	r0, r6
 4508 1442 0221     		movs	r1, #2
 4509 1444 7A68     		ldr	r2, [r7, #4]
 4510 1446 FFF7FEFF 		bl	KVP_DisplayInv
 4511              	.LVL332:
 4512 144a 0326     		movs	r6, #3
 4513 144c 4FF00208 		mov	r8, #2
 4514              	.LVL333:
 4515              	.L322:
 4516              		.loc 1 1017 0
 4517 1450 4445     		cmp	r4, r8
 4518              		.loc 1 1018 0
 4519 1452 08F10109 		add	r9, r8, #1
 4520              	.LVL334:
 4521 1456 4FF00500 		mov	r0, #5
 4522 145a 3146     		mov	r1, r6
 4523              		.loc 1 1020 0
 4524 145c 8E4A     		ldr	r2, .L533
 4525 145e 4FF08003 		mov	r3, #128
 4526              		.loc 1 1017 0
 4527 1462 40F3C380 		ble	.L320
 4528              		.loc 1 1018 0
 4529 1466 57F82820 		ldr	r2, [r7, r8, lsl #2]
 4530 146a FFF7FEFF 		bl	KVP_Display
 4531              	.LVL335:
 4532 146e C846     		mov	r8, r9
 4533              	.L321:
 4534              	.LVL336:
 4535              		.loc 1 1016 0
 4536 1470 0136     		adds	r6, r6, #1
 4537              	.LVL337:
 4538 1472 072E     		cmp	r6, #7
 4539 1474 ECD1     		bne	.L322
ARM GAS  /var/folders/28/j9jfyj_n4wz3qtvnym210h2c0000gn/T//ccpoR13X.s 			page 81


 4540 1476 D6E4     		b	.L318
 4541              	.LVL338:
 4542              	.L196:
 4543              	.LBE406:
 4544              	.LBE424:
 4545              	.LBE446:
 4546              	.LBE467:
 4547              	.LBB468:
 4548              	.LBB388:
 4549              	.LBB377:
 4550              	.LBB364:
 4551              	.LBB351:
 4552              		.loc 1 145 0
 4553 1478 6269     		ldr	r2, [r4, #20]
 4554 147a 002A     		cmp	r2, #0
 4555 147c 7FF70AAD 		ble	.L192
 4556              		.loc 1 146 0
 4557 1480 013A     		subs	r2, r2, #1
 4558 1482 6261     		str	r2, [r4, #20]
 4559 1484 06E5     		b	.L192
 4560              	.LVL339:
 4561              	.L204:
 4562              	.LBE351:
 4563              	.LBE364:
 4564              	.LBB365:
 4565              	.LBB358:
 4566              		.loc 1 112 0
 4567 1486 2269     		ldr	r2, [r4, #16]
 4568 1488 6169     		ldr	r1, [r4, #20]
 4569 148a 013A     		subs	r2, r2, #1
 4570 148c 9142     		cmp	r1, r2
 4571 148e BFF607AD 		bge	.L200
 4572              		.loc 1 113 0
 4573 1492 0131     		adds	r1, r1, #1
 4574 1494 6161     		str	r1, [r4, #20]
 4575 1496 03E5     		b	.L200
 4576              	.LVL340:
 4577              	.L178:
 4578              	.LBE358:
 4579              	.LBE365:
 4580              	.LBE377:
 4581              	.LBB378:
 4582              	.LBB326:
 4583              	.LBB312:
 4584              	.LBB308:
 4585              	.LBB309:
 4586              	.LBB310:
 4587              		.loc 1 120 0
 4588 1498 D9F80C00 		ldr	r0, [r9, #12]
 4589              		.loc 1 121 0
 4590 149c D9F81410 		ldr	r1, [r9, #20]
 4591              		.loc 1 120 0
 4592 14a0 0368     		ldr	r3, [r0]
 4593 14a2 03F58013 		add	r3, r3, #1048576
 4594              	.LVL341:
 4595              		.loc 1 121 0
 4596 14a6 8B42     		cmp	r3, r1
ARM GAS  /var/folders/28/j9jfyj_n4wz3qtvnym210h2c0000gn/T//ccpoR13X.s 			page 82


 4597              		.loc 1 122 0
 4598 14a8 B8BF     		it	lt
 4599 14aa 1946     		movlt	r1, r3
 4600              		.loc 1 125 0
 4601 14ac 6FF01802 		mvn	r2, #24
 4602 14b0 FFF7FEFF 		bl	PExParameterChange
 4603              	.LVL342:
 4604 14b4 3B78     		ldrb	r3, [r7]	@ zero_extendqisi2
 4605 14b6 4AE4     		b	.L173
 4606              	.LVL343:
 4607              	.L179:
 4608              	.LBE310:
 4609              	.LBE309:
 4610              	.LBE308:
 4611              		.loc 1 116 0
 4612 14b8 D9F80C00 		ldr	r0, [r9, #12]
 4613 14bc D9F81410 		ldr	r1, [r9, #20]
 4614 14c0 0278     		ldrb	r2, [r0]	@ zero_extendqisi2
 4615 14c2 8A42     		cmp	r2, r1
 4616 14c4 BFF643AC 		bge	.L173
 4617              		.loc 1 117 0
 4618 14c8 0132     		adds	r2, r2, #1
 4619 14ca 0270     		strb	r2, [r0]
 4620 14cc 3B78     		ldrb	r3, [r7]	@ zero_extendqisi2
 4621 14ce 3EE4     		b	.L173
 4622              	.L174:
 4623              		.loc 1 104 0
 4624 14d0 D9F80C00 		ldr	r0, [r9, #12]
 4625 14d4 D9F81410 		ldr	r1, [r9, #20]
 4626 14d8 0268     		ldr	r2, [r0]
 4627 14da 8A42     		cmp	r2, r1
 4628 14dc BFF637AC 		bge	.L173
 4629              		.loc 1 105 0
 4630 14e0 0132     		adds	r2, r2, #1
 4631 14e2 0260     		str	r2, [r0]
 4632 14e4 3B78     		ldrb	r3, [r7]	@ zero_extendqisi2
 4633 14e6 32E4     		b	.L173
 4634              	.LVL344:
 4635              	.L170:
 4636              	.LBE312:
 4637              	.LBE326:
 4638              	.LBB327:
 4639              	.LBB319:
 4640              	.LBB315:
 4641              	.LBB316:
 4642              	.LBB317:
 4643              		.loc 1 153 0
 4644 14e8 D9F80C00 		ldr	r0, [r9, #12]
 4645              		.loc 1 154 0
 4646 14ec D9F81010 		ldr	r1, [r9, #16]
 4647              		.loc 1 153 0
 4648 14f0 0368     		ldr	r3, [r0]
 4649 14f2 A3F58013 		sub	r3, r3, #1048576
 4650              	.LVL345:
 4651              		.loc 1 154 0
 4652 14f6 8B42     		cmp	r3, r1
 4653              		.loc 1 155 0
ARM GAS  /var/folders/28/j9jfyj_n4wz3qtvnym210h2c0000gn/T//ccpoR13X.s 			page 83


 4654 14f8 C8BF     		it	gt
 4655 14fa 1946     		movgt	r1, r3
 4656              		.loc 1 158 0
 4657 14fc 6FF01802 		mvn	r2, #24
 4658 1500 FFF7FEFF 		bl	PExParameterChange
 4659              	.LVL346:
 4660 1504 3B78     		ldrb	r3, [r7]	@ zero_extendqisi2
 4661 1506 1CE4     		b	.L165
 4662              	.LVL347:
 4663              	.L171:
 4664              	.LBE317:
 4665              	.LBE316:
 4666              	.LBE315:
 4667              		.loc 1 149 0
 4668 1508 D9F80C00 		ldr	r0, [r9, #12]
 4669 150c D9F81010 		ldr	r1, [r9, #16]
 4670 1510 0278     		ldrb	r2, [r0]	@ zero_extendqisi2
 4671 1512 8A42     		cmp	r2, r1
 4672 1514 7FF715AC 		ble	.L165
 4673              		.loc 1 150 0
 4674 1518 013A     		subs	r2, r2, #1
 4675 151a 0270     		strb	r2, [r0]
 4676 151c 3B78     		ldrb	r3, [r7]	@ zero_extendqisi2
 4677 151e 10E4     		b	.L165
 4678              	.L166:
 4679              		.loc 1 137 0
 4680 1520 D9F80C00 		ldr	r0, [r9, #12]
 4681 1524 D9F81010 		ldr	r1, [r9, #16]
 4682 1528 0268     		ldr	r2, [r0]
 4683 152a 8A42     		cmp	r2, r1
 4684 152c 7FF709AC 		ble	.L165
 4685              		.loc 1 138 0
 4686 1530 013A     		subs	r2, r2, #1
 4687 1532 0260     		str	r2, [r0]
 4688 1534 3B78     		ldrb	r3, [r7]	@ zero_extendqisi2
 4689 1536 04E4     		b	.L165
 4690              	.LVL348:
 4691              	.L205:
 4692              	.LBE319:
 4693              	.LBE327:
 4694              	.LBE378:
 4695              	.LBB379:
 4696              	.LBB366:
 4697              	.LBB359:
 4698              	.LBB355:
 4699              	.LBB356:
 4700              	.LBB357:
 4701              		.loc 1 120 0
 4702 1538 E068     		ldr	r0, [r4, #12]
 4703              		.loc 1 121 0
 4704 153a 6169     		ldr	r1, [r4, #20]
 4705              		.loc 1 120 0
 4706 153c 0368     		ldr	r3, [r0]
 4707 153e 03F58013 		add	r3, r3, #1048576
 4708              	.LVL349:
 4709              		.loc 1 121 0
 4710 1542 8B42     		cmp	r3, r1
ARM GAS  /var/folders/28/j9jfyj_n4wz3qtvnym210h2c0000gn/T//ccpoR13X.s 			page 84


 4711              		.loc 1 122 0
 4712 1544 B8BF     		it	lt
 4713 1546 1946     		movlt	r1, r3
 4714              		.loc 1 125 0
 4715 1548 6FF01802 		mvn	r2, #24
 4716 154c FFF7FEFF 		bl	PExParameterChange
 4717              	.LVL350:
 4718 1550 3B78     		ldrb	r3, [r7]	@ zero_extendqisi2
 4719 1552 A5E4     		b	.L200
 4720              	.LVL351:
 4721              	.L206:
 4722              	.LBE357:
 4723              	.LBE356:
 4724              	.LBE355:
 4725              		.loc 1 116 0
 4726 1554 E168     		ldr	r1, [r4, #12]
 4727 1556 6069     		ldr	r0, [r4, #20]
 4728 1558 0A78     		ldrb	r2, [r1]	@ zero_extendqisi2
 4729 155a 8242     		cmp	r2, r0
 4730 155c BFF6A0AC 		bge	.L200
 4731              		.loc 1 117 0
 4732 1560 0132     		adds	r2, r2, #1
 4733 1562 0A70     		strb	r2, [r1]
 4734 1564 3B78     		ldrb	r3, [r7]	@ zero_extendqisi2
 4735 1566 9BE4     		b	.L200
 4736              	.L201:
 4737              		.loc 1 104 0
 4738 1568 E168     		ldr	r1, [r4, #12]
 4739 156a 6069     		ldr	r0, [r4, #20]
 4740 156c 0A68     		ldr	r2, [r1]
 4741 156e 8242     		cmp	r2, r0
 4742 1570 BFF696AC 		bge	.L200
 4743              		.loc 1 105 0
 4744 1574 0132     		adds	r2, r2, #1
 4745 1576 0A60     		str	r2, [r1]
 4746 1578 3B78     		ldrb	r3, [r7]	@ zero_extendqisi2
 4747 157a 91E4     		b	.L200
 4748              	.LVL352:
 4749              	.L198:
 4750              	.LBE359:
 4751              	.LBE366:
 4752              	.LBB367:
 4753              	.LBB352:
 4754              		.loc 1 149 0
 4755 157c E168     		ldr	r1, [r4, #12]
 4756 157e 2069     		ldr	r0, [r4, #16]
 4757 1580 0A78     		ldrb	r2, [r1]	@ zero_extendqisi2
 4758 1582 8242     		cmp	r2, r0
 4759 1584 7FF786AC 		ble	.L192
 4760              		.loc 1 150 0
 4761 1588 013A     		subs	r2, r2, #1
 4762 158a 0A70     		strb	r2, [r1]
 4763 158c 3B78     		ldrb	r3, [r7]	@ zero_extendqisi2
 4764 158e 81E4     		b	.L192
 4765              	.L193:
 4766              		.loc 1 137 0
 4767 1590 E168     		ldr	r1, [r4, #12]
ARM GAS  /var/folders/28/j9jfyj_n4wz3qtvnym210h2c0000gn/T//ccpoR13X.s 			page 85


 4768 1592 2069     		ldr	r0, [r4, #16]
 4769 1594 0A68     		ldr	r2, [r1]
 4770 1596 8242     		cmp	r2, r0
 4771 1598 7FF77CAC 		ble	.L192
 4772              		.loc 1 138 0
 4773 159c 013A     		subs	r2, r2, #1
 4774 159e 0A60     		str	r2, [r1]
 4775 15a0 3B78     		ldrb	r3, [r7]	@ zero_extendqisi2
 4776 15a2 77E4     		b	.L192
 4777              	.L197:
 4778              	.LVL353:
 4779              	.LBB348:
 4780              	.LBB349:
 4781              	.LBB350:
 4782              		.loc 1 153 0
 4783 15a4 E068     		ldr	r0, [r4, #12]
 4784              		.loc 1 154 0
 4785 15a6 2169     		ldr	r1, [r4, #16]
 4786              		.loc 1 153 0
 4787 15a8 0368     		ldr	r3, [r0]
 4788 15aa A3F58013 		sub	r3, r3, #1048576
 4789              	.LVL354:
 4790              		.loc 1 154 0
 4791 15ae 8B42     		cmp	r3, r1
 4792              		.loc 1 155 0
 4793 15b0 C8BF     		it	gt
 4794 15b2 1946     		movgt	r1, r3
 4795              		.loc 1 158 0
 4796 15b4 6FF01802 		mvn	r2, #24
 4797 15b8 FFF7FEFF 		bl	PExParameterChange
 4798              	.LVL355:
 4799 15bc 3B78     		ldrb	r3, [r7]	@ zero_extendqisi2
 4800 15be 69E4     		b	.L192
 4801              	.LVL356:
 4802              	.L298:
 4803              	.LBE350:
 4804              	.LBE349:
 4805              	.LBE348:
 4806              	.LBE352:
 4807              	.LBE367:
 4808              	.LBE379:
 4809              	.LBE388:
 4810              	.LBE468:
 4811              	.LBB469:
 4812              	.LBB447:
 4813              	.LBB425:
 4814              	.LBB397:
 4815              		.loc 1 958 0
 4816 15c0 0520     		movs	r0, #5
 4817 15c2 3146     		mov	r1, r6
 4818              	.LVL357:
 4819 15c4 344A     		ldr	r2, .L533
 4820 15c6 FFF7FEFF 		bl	LCD_drawStringN
 4821              	.LVL358:
 4822 15ca 08E6     		b	.L299
 4823              	.LVL359:
 4824              	.L330:
ARM GAS  /var/folders/28/j9jfyj_n4wz3qtvnym210h2c0000gn/T//ccpoR13X.s 			page 86


 4825              	.LBE397:
 4826              	.LBE425:
 4827              	.LBB426:
 4828              	.LBB407:
 4829              		.loc 1 1043 0
 4830 15cc 0520     		movs	r0, #5
 4831 15ce 3146     		mov	r1, r6
 4832              	.LVL360:
 4833 15d0 FFF7FEFF 		bl	LCD_drawStringN
 4834              	.LVL361:
 4835 15d4 44E6     		b	.L331
 4836              	.LVL362:
 4837              	.L511:
 4838              	.LBE407:
 4839              	.LBE426:
 4840              	.LBB427:
 4841              		.loc 1 966 0
 4842 15d6 0721     		movs	r1, #7
 4843 15d8 304A     		ldr	r2, .L533+4
 4844 15da FFF7FEFF 		bl	LCD_drawString
 4845              	.LVL363:
 4846 15de FFF747BB 		b	.L300
 4847              	.LVL364:
 4848              	.L519:
 4849              	.LBE427:
 4850              	.LBB428:
 4851              		.loc 1 1051 0
 4852 15e2 0721     		movs	r1, #7
 4853 15e4 2D4A     		ldr	r2, .L533+4
 4854 15e6 FFF7FEFF 		bl	LCD_drawString
 4855              	.LVL365:
 4856 15ea 2BE4     		b	.L332
 4857              	.LVL366:
 4858              	.L320:
 4859              	.LBB408:
 4860              		.loc 1 1020 0
 4861 15ec 0520     		movs	r0, #5
 4862 15ee 3146     		mov	r1, r6
 4863              	.LVL367:
 4864 15f0 FFF7FEFF 		bl	LCD_drawStringN
 4865              	.LVL368:
 4866 15f4 3CE7     		b	.L321
 4867              	.LVL369:
 4868              	.L524:
 4869              	.LBE408:
 4870              	.LBE428:
 4871              	.LBB429:
 4872              	.LBB398:
 4873              		.loc 1 923 0
 4874 15f6 4946     		mov	r1, r9
 4875 15f8 0520     		movs	r0, #5
 4876 15fa 5246     		mov	r2, r10
 4877 15fc FFF7FEFF 		bl	KVP_Display
 4878              	.LVL370:
 4879              		.loc 1 927 0
 4880 1600 0520     		movs	r0, #5
 4881 1602 0221     		movs	r1, #2
ARM GAS  /var/folders/28/j9jfyj_n4wz3qtvnym210h2c0000gn/T//ccpoR13X.s 			page 87


 4882 1604 0AF11802 		add	r2, r10, #24
 4883 1608 FFF7FEFF 		bl	KVP_DisplayInv
 4884              	.LVL371:
 4885 160c 0227     		movs	r7, #2
 4886              	.LVL372:
 4887              	.L290:
 4888              		.loc 1 933 0
 4889 160e 07EB4702 		add	r2, r7, r7, lsl #1
 4890              		.loc 1 932 0
 4891 1612 BC42     		cmp	r4, r7
 4892              		.loc 1 933 0
 4893 1614 07F10108 		add	r8, r7, #1
 4894              	.LVL373:
 4895 1618 4FF00500 		mov	r0, #5
 4896 161c 3146     		mov	r1, r6
 4897 161e 0AEBC202 		add	r2, r10, r2, lsl #3
 4898              		.loc 1 935 0
 4899 1622 4FF08003 		mov	r3, #128
 4900              		.loc 1 932 0
 4901 1626 07DD     		ble	.L288
 4902              		.loc 1 933 0
 4903 1628 FFF7FEFF 		bl	KVP_Display
 4904              	.LVL374:
 4905 162c 4746     		mov	r7, r8
 4906              	.L289:
 4907              	.LVL375:
 4908              		.loc 1 931 0
 4909 162e 0136     		adds	r6, r6, #1
 4910              	.LVL376:
 4911 1630 072E     		cmp	r6, #7
 4912 1632 ECD1     		bne	.L290
 4913 1634 FFF70DBB 		b	.L286
 4914              	.LVL377:
 4915              	.L288:
 4916              		.loc 1 935 0
 4917 1638 0520     		movs	r0, #5
 4918 163a 3146     		mov	r1, r6
 4919              	.LVL378:
 4920 163c 164A     		ldr	r2, .L533
 4921 163e FFF7FEFF 		bl	LCD_drawStringN
 4922              	.LVL379:
 4923 1642 F4E7     		b	.L289
 4924              	.LVL380:
 4925              	.L323:
 4926              	.LBE398:
 4927              	.LBE429:
 4928              	.LBB430:
 4929              	.LBB409:
 4930              		.loc 1 1029 0
 4931 1644 3046     		mov	r0, r6
 4932 1646 0121     		movs	r1, #1
 4933 1648 134A     		ldr	r2, .L533
 4934 164a 8023     		movs	r3, #128
 4935 164c FFF7FEFF 		bl	LCD_drawStringN
 4936              	.LVL381:
 4937              	.L325:
 4938              		.loc 1 1033 0
ARM GAS  /var/folders/28/j9jfyj_n4wz3qtvnym210h2c0000gn/T//ccpoR13X.s 			page 88


 4939 1650 0520     		movs	r0, #5
 4940 1652 0221     		movs	r1, #2
 4941 1654 104A     		ldr	r2, .L533
 4942 1656 8023     		movs	r3, #128
 4943 1658 FFF7FEFF 		bl	LCD_drawStringN
 4944              	.LVL382:
 4945              	.L327:
 4946              		.loc 1 1037 0
 4947 165c 0520     		movs	r0, #5
 4948 165e 0321     		movs	r1, #3
 4949 1660 0D4A     		ldr	r2, .L533
 4950 1662 8023     		movs	r3, #128
 4951 1664 FFF7FEFF 		bl	LCD_drawStringN
 4952              	.LVL383:
 4953 1668 E9E5     		b	.L329
 4954              	.LVL384:
 4955              	.L335:
 4956              	.LBE409:
 4957              	.LBE430:
 4958              	.LBB431:
 4959              	.LBB399:
 4960              		.loc 1 897 0
 4961 166a 0024     		movs	r4, #0
 4962              	.LVL385:
 4963 166c FFF7E8BA 		b	.L279
 4964              	.LVL386:
 4965              	.L336:
 4966              	.LBE399:
 4967              	.LBE431:
 4968              	.LBB432:
 4969              	.LBB410:
 4970              		.loc 1 982 0
 4971 1670 0024     		movs	r4, #0
 4972              	.LVL387:
 4973 1672 FFF7CFBB 		b	.L311
 4974              	.LVL388:
 4975              	.L510:
 4976              	.LBE410:
 4977              	.LBE432:
 4978              	.LBB433:
 4979              	.LBB400:
 4980              		.loc 1 899 0
 4981 1676 5A46     		mov	r2, fp
 4982 1678 FFF7FEFF 		bl	KVP_DisplayInv
 4983              	.LVL389:
 4984 167c B046     		mov	r8, r6
 4985 167e FFF7D9BA 		b	.L277
 4986              	.LVL390:
 4987              	.L518:
 4988              	.LBE400:
 4989              	.LBE433:
 4990              	.LBB434:
 4991              	.LBB411:
 4992              		.loc 1 984 0
 4993 1682 4946     		mov	r1, r9
 4994 1684 DAF80020 		ldr	r2, [r10]
 4995 1688 FFF7FEFF 		bl	KVP_DisplayInv
ARM GAS  /var/folders/28/j9jfyj_n4wz3qtvnym210h2c0000gn/T//ccpoR13X.s 			page 89


 4996              	.LVL391:
 4997 168c CB46     		mov	fp, r9
 4998 168e 08F10106 		add	r6, r8, #1
 4999              	.LVL392:
 5000 1692 FFF7BCBB 		b	.L309
 5001              	.L534:
 5002 1696 00BF     		.align	2
 5003              	.L533:
 5004 1698 CC000000 		.word	.LC24
 5005 169c D8000000 		.word	.LC26
 5006              	.LBE411:
 5007              	.LBE434:
 5008              	.LBE447:
 5009              	.LBE469:
 5010              		.cfi_endproc
 5011              	.LFE194:
 5012              		.size	AxolotiControlUpdate, .-AxolotiControlUpdate
 5013              		.global	pControlUpdate
 5014              		.comm	LoadMenu,24,4
 5015              		.comm	memp,4,4
 5016              		.comm	ADCkvps,72,4
 5017              		.comm	TmpMenuKvps,360,4
 5018              		.comm	ObjectKvps,1024,4
 5019              		.comm	ObjectKvpRoot,4,4
 5020              		.comm	KvpsDisplay,4,4
 5021              		.comm	KvpsHead,24,4
 5022              		.comm	EncBuffer,4,4
 5023              		.comm	Btn_Nav_And,4,4
 5024              		.comm	Btn_Nav_Or,4,4
 5025              		.comm	Btn_Nav_PrevStates,4,4
 5026              		.comm	Btn_Nav_CurStates,4,4
 5027              		.data
 5028              		.align	2
 5029              		.set	.LANCHOR0,. + 0
 5030              		.type	pControlUpdate, %object
 5031              		.size	pControlUpdate, 4
 5032              	pControlUpdate:
 5033 0000 00000000 		.word	AxolotiControlUpdate
 5034              		.section	.rodata.str1.4,"aMS",%progbits,1
 5035              		.align	2
 5036              	.LC0:
 5037 0000 00       		.ascii	"\000"
 5038 0001 000000   		.space	3
 5039              	.LC1:
 5040 0004 4C6F6164 		.ascii	"Load SD\000"
 5040      20534400 
 5041              	.LC2:
 5042 000c 756900   		.ascii	"ui\000"
 5043 000f 00       		.space	1
 5044              	.LC3:
 5045 0010 466F726D 		.ascii	"Format failed\000"
 5045      61742066 
 5045      61696C65 
 5045      6400
 5046 001e 0000     		.space	2
 5047              	.LC4:
 5048 0020 466F726D 		.ascii	"Format OK\000"
ARM GAS  /var/folders/28/j9jfyj_n4wz3qtvnym210h2c0000gn/T//ccpoR13X.s 			page 90


 5048      6174204F 
 5048      4B00
 5049 002a 0000     		.space	2
 5050              	.LC5:
 5051 002c 3100     		.ascii	"1\000"
 5052 002e 0000     		.space	2
 5053              	.LC6:
 5054 0030 3000     		.ascii	"0\000"
 5055 0032 0000     		.space	2
 5056              	.LC7:
 5057 0034 2D3100   		.ascii	"-1\000"
 5058 0037 00       		.space	1
 5059              	.LC8:
 5060 0038 4241434B 		.ascii	"BACK\000"
 5060      00
 5061 003d 000000   		.space	3
 5062              	.LC9:
 5063 0040 484F4C44 		.ascii	"HOLD\000"
 5063      00
 5064 0045 000000   		.space	3
 5065              	.LC10:
 5066 0048 2D2E6D73 		.ascii	"-.ms\000"
 5066      00
 5067 004d 000000   		.space	3
 5068              	.LC11:
 5069 0050 496E666F 		.ascii	"Info\000"
 5069      00
 5070 0055 000000   		.space	3
 5071              	.LC12:
 5072 0058 466F726D 		.ascii	"Format\000"
 5072      617400
 5073 005f 00       		.space	1
 5074              	.LC13:
 5075 0060 50617463 		.ascii	"Patch\000"
 5075      6800
 5076 0066 0000     		.space	2
 5077              	.LC14:
 5078 0068 52756E6E 		.ascii	"Running\000"
 5078      696E6700 
 5079              	.LC15:
 5080 0070 4E6F2053 		.ascii	"No SDCard\000"
 5080      44436172 
 5080      6400
 5081 007a 0000     		.space	2
 5082              	.LC16:
 5083 007c 53444361 		.ascii	"SDCard Tools\000"
 5083      72642054 
 5083      6F6F6C73 
 5083      00
 5084 0089 000000   		.space	3
 5085              	.LC17:
 5086 008c 41444373 		.ascii	"ADCs\000"
 5086      00
 5087 0091 000000   		.space	3
 5088              	.LC18:
 5089 0094 64737025 		.ascii	"dsp%\000"
 5089      00
ARM GAS  /var/folders/28/j9jfyj_n4wz3qtvnym210h2c0000gn/T//ccpoR13X.s 			page 91


 5090 0099 000000   		.space	3
 5091              	.LC19:
 5092 009c 2D2D2D20 		.ascii	"--- AXOLOTI ---\000"
 5092      41584F4C 
 5092      4F544920 
 5092      2D2D2D00 
 5093              	.LC20:
 5094 00ac 20202020 		.ascii	"     F\000"
 5094      204600
 5095 00b3 00       		.space	1
 5096              	.LC21:
 5097 00b4 20202020 		.ascii	"     *\000"
 5097      202A00
 5098 00bb 00       		.space	1
 5099              	.LC22:
 5100 00bc 20202020 		.ascii	"     #\000"
 5100      202300
 5101 00c3 00       		.space	1
 5102              	.LC23:
 5103 00c4 20202020 		.ascii	"     @\000"
 5103      204000
 5104 00cb 00       		.space	1
 5105              	.LC24:
 5106 00cc 2000     		.ascii	" \000"
 5107 00ce 0000     		.space	2
 5108              	.LC25:
 5109 00d0 20202020 		.ascii	"     \000"
 5109      2000
 5110 00d6 0000     		.space	2
 5111              	.LC26:
 5112 00d8 20202020 		.ascii	"          \000"
 5112      20202020 
 5112      202000
 5113 00e3 00       		.space	1
 5114              	.LC27:
 5115 00e4 454E5445 		.ascii	"ENTER\000"
 5115      5200
 5116              		.bss
 5117              		.align	3
 5118              		.set	.LANCHOR1,. + 0
 5119              		.type	waThreadUI, %object
 5120              		.size	waThreadUI, 1504
 5121              	waThreadUI:
 5122 0000 00000000 		.space	1504
 5122      00000000 
 5122      00000000 
 5122      00000000 
 5122      00000000 
 5123              		.text
 5124              	.Letext0:
 5125              		.file 3 "/Applications/axoloti_runtime/platform_osx/arm-none-eabi/include/machine/_default_types.h
 5126              		.file 4 "/Applications/axoloti_runtime/platform_osx/arm-none-eabi/include/sys/_stdint.h"
 5127              		.file 5 "parameters.h"
 5128              		.file 6 "ui.h"
 5129              		.file 7 "/Applications/axoloti_runtime/platform_osx/lib/gcc/arm-none-eabi/4.9.3/include/stddef.h"
 5130              		.file 8 "/Applications/Axoloti.app/Contents/Java/chibios/os/ports/GCC/ARMCMx/chtypes.h"
 5131              		.file 9 "/Applications/Axoloti.app/Contents/Java/chibios/os/kernel/include/chlists.h"
ARM GAS  /var/folders/28/j9jfyj_n4wz3qtvnym210h2c0000gn/T//ccpoR13X.s 			page 92


 5132              		.file 10 "/Applications/Axoloti.app/Contents/Java/chibios/os/kernel/include/chthreads.h"
 5133              		.file 11 "/Applications/Axoloti.app/Contents/Java/chibios/os/ports/GCC/ARMCMx/chcore_v7m.h"
 5134              		.file 12 "/Applications/Axoloti.app/Contents/Java/chibios/os/kernel/include/chschd.h"
 5135              		.file 13 "/Applications/Axoloti.app/Contents/Java/chibios/os/kernel/include/chsem.h"
 5136              		.file 14 "/Applications/Axoloti.app/Contents/Java/chibios/os/kernel/include/chmtx.h"
 5137              		.file 15 "/Applications/Axoloti.app/Contents/Java/chibios/ext/fatfs/src/integer.h"
 5138              		.file 16 "/Applications/Axoloti.app/Contents/Java/chibios/ext/fatfs/src/ff.h"
 5139              		.file 17 "patch.h"
 5140              		.file 18 "/Applications/Axoloti.app/Contents/Java/CMSIS//Include/core_cm4.h"
 5141              		.file 19 "axoloti_board.h"
 5142              		.file 20 "sdcard.h"
 5143              		.file 21 "axoloti_control.h"
 5144              		.file 22 "<built-in>"
 5145              		.file 23 "/Applications/axoloti_runtime/platform_osx/arm-none-eabi/include/string.h"
 5146              		.file 24 "pconnection.h"
 5147              		.file 25 "/Applications/Axoloti.app/Contents/Java/chibios/os/kernel/include/chmemcore.h"
 5148              		.section	.debug_info,"",%progbits
 5149              	.Ldebug_info0:
 5150 0000 A7320000 		.4byte	0x32a7
 5151 0004 0400     		.2byte	0x4
 5152 0006 00000000 		.4byte	.Ldebug_abbrev0
 5153 000a 04       		.byte	0x4
 5154 000b 01       		.uleb128 0x1
 5155 000c 2B000000 		.4byte	.LASF311
 5156 0010 01       		.byte	0x1
 5157 0011 600A0000 		.4byte	.LASF312
 5158 0015 CE0D0000 		.4byte	.LASF313
 5159 0019 00000000 		.4byte	.Ltext0
 5160 001d A0160000 		.4byte	.Letext0-.Ltext0
 5161 0021 00000000 		.4byte	.Ldebug_line0
 5162 0025 02       		.uleb128 0x2
 5163 0026 8A080000 		.4byte	.LASF0
 5164 002a 03       		.byte	0x3
 5165 002b 1B       		.byte	0x1b
 5166 002c 30000000 		.4byte	0x30
 5167 0030 03       		.uleb128 0x3
 5168 0031 01       		.byte	0x1
 5169 0032 06       		.byte	0x6
 5170 0033 130D0000 		.4byte	.LASF2
 5171 0037 02       		.uleb128 0x2
 5172 0038 BD0A0000 		.4byte	.LASF1
 5173 003c 03       		.byte	0x3
 5174 003d 1D       		.byte	0x1d
 5175 003e 42000000 		.4byte	0x42
 5176 0042 03       		.uleb128 0x3
 5177 0043 01       		.byte	0x1
 5178 0044 08       		.byte	0x8
 5179 0045 E80B0000 		.4byte	.LASF3
 5180 0049 02       		.uleb128 0x2
 5181 004a C4070000 		.4byte	.LASF4
 5182 004e 03       		.byte	0x3
 5183 004f 29       		.byte	0x29
 5184 0050 54000000 		.4byte	0x54
 5185 0054 03       		.uleb128 0x3
 5186 0055 02       		.byte	0x2
 5187 0056 05       		.byte	0x5
 5188 0057 95090000 		.4byte	.LASF5
ARM GAS  /var/folders/28/j9jfyj_n4wz3qtvnym210h2c0000gn/T//ccpoR13X.s 			page 93


 5189 005b 03       		.uleb128 0x3
 5190 005c 02       		.byte	0x2
 5191 005d 07       		.byte	0x7
 5192 005e 2C0D0000 		.4byte	.LASF6
 5193 0062 02       		.uleb128 0x2
 5194 0063 B30A0000 		.4byte	.LASF7
 5195 0067 03       		.byte	0x3
 5196 0068 3F       		.byte	0x3f
 5197 0069 6D000000 		.4byte	0x6d
 5198 006d 03       		.uleb128 0x3
 5199 006e 04       		.byte	0x4
 5200 006f 05       		.byte	0x5
 5201 0070 D1040000 		.4byte	.LASF8
 5202 0074 02       		.uleb128 0x2
 5203 0075 F60B0000 		.4byte	.LASF9
 5204 0079 03       		.byte	0x3
 5205 007a 41       		.byte	0x41
 5206 007b 7F000000 		.4byte	0x7f
 5207 007f 03       		.uleb128 0x3
 5208 0080 04       		.byte	0x4
 5209 0081 07       		.byte	0x7
 5210 0082 7A0B0000 		.4byte	.LASF10
 5211 0086 03       		.uleb128 0x3
 5212 0087 08       		.byte	0x8
 5213 0088 05       		.byte	0x5
 5214 0089 29070000 		.4byte	.LASF11
 5215 008d 02       		.uleb128 0x2
 5216 008e 4A050000 		.4byte	.LASF12
 5217 0092 03       		.byte	0x3
 5218 0093 5B       		.byte	0x5b
 5219 0094 98000000 		.4byte	0x98
 5220 0098 03       		.uleb128 0x3
 5221 0099 08       		.byte	0x8
 5222 009a 07       		.byte	0x7
 5223 009b D3030000 		.4byte	.LASF13
 5224 009f 04       		.uleb128 0x4
 5225 00a0 04       		.byte	0x4
 5226 00a1 05       		.byte	0x5
 5227 00a2 696E7400 		.ascii	"int\000"
 5228 00a6 03       		.uleb128 0x3
 5229 00a7 04       		.byte	0x4
 5230 00a8 07       		.byte	0x7
 5231 00a9 EC010000 		.4byte	.LASF14
 5232 00ad 02       		.uleb128 0x2
 5233 00ae B8050000 		.4byte	.LASF15
 5234 00b2 04       		.byte	0x4
 5235 00b3 13       		.byte	0x13
 5236 00b4 25000000 		.4byte	0x25
 5237 00b8 02       		.uleb128 0x2
 5238 00b9 84060000 		.4byte	.LASF16
 5239 00bd 04       		.byte	0x4
 5240 00be 14       		.byte	0x14
 5241 00bf 37000000 		.4byte	0x37
 5242 00c3 02       		.uleb128 0x2
 5243 00c4 E6090000 		.4byte	.LASF17
 5244 00c8 04       		.byte	0x4
 5245 00c9 19       		.byte	0x19
ARM GAS  /var/folders/28/j9jfyj_n4wz3qtvnym210h2c0000gn/T//ccpoR13X.s 			page 94


 5246 00ca 49000000 		.4byte	0x49
 5247 00ce 02       		.uleb128 0x2
 5248 00cf BC0B0000 		.4byte	.LASF18
 5249 00d3 04       		.byte	0x4
 5250 00d4 1F       		.byte	0x1f
 5251 00d5 62000000 		.4byte	0x62
 5252 00d9 02       		.uleb128 0x2
 5253 00da 16030000 		.4byte	.LASF19
 5254 00de 04       		.byte	0x4
 5255 00df 20       		.byte	0x20
 5256 00e0 74000000 		.4byte	0x74
 5257 00e4 02       		.uleb128 0x2
 5258 00e5 510A0000 		.4byte	.LASF20
 5259 00e9 04       		.byte	0x4
 5260 00ea 26       		.byte	0x26
 5261 00eb 8D000000 		.4byte	0x8d
 5262 00ef 03       		.uleb128 0x3
 5263 00f0 04       		.byte	0x4
 5264 00f1 07       		.byte	0x7
 5265 00f2 680B0000 		.4byte	.LASF21
 5266 00f6 05       		.uleb128 0x5
 5267 00f7 C10C0000 		.4byte	.LASF105
 5268 00fb 14       		.byte	0x14
 5269 00fc 05       		.byte	0x5
 5270 00fd 26       		.byte	0x26
 5271 00fe 3F010000 		.4byte	0x13f
 5272 0102 06       		.uleb128 0x6
 5273 0103 80040000 		.4byte	.LASF22
 5274 0107 05       		.byte	0x5
 5275 0108 27       		.byte	0x27
 5276 0109 CE000000 		.4byte	0xce
 5277 010d 00       		.byte	0
 5278 010e 06       		.uleb128 0x6
 5279 010f E10C0000 		.4byte	.LASF23
 5280 0113 05       		.byte	0x5
 5281 0114 28       		.byte	0x28
 5282 0115 CE000000 		.4byte	0xce
 5283 0119 04       		.byte	0x4
 5284 011a 06       		.uleb128 0x6
 5285 011b 72050000 		.4byte	.LASF24
 5286 011f 05       		.byte	0x5
 5287 0120 29       		.byte	0x29
 5288 0121 CE000000 		.4byte	0xce
 5289 0125 08       		.byte	0x8
 5290 0126 06       		.uleb128 0x6
 5291 0127 EF070000 		.4byte	.LASF25
 5292 012b 05       		.byte	0x5
 5293 012c 2C       		.byte	0x2c
 5294 012d 50010000 		.4byte	0x150
 5295 0131 0C       		.byte	0xc
 5296 0132 06       		.uleb128 0x6
 5297 0133 28060000 		.4byte	.LASF26
 5298 0137 05       		.byte	0x5
 5299 0138 2D       		.byte	0x2d
 5300 0139 D9000000 		.4byte	0xd9
 5301 013d 10       		.byte	0x10
 5302 013e 00       		.byte	0
ARM GAS  /var/folders/28/j9jfyj_n4wz3qtvnym210h2c0000gn/T//ccpoR13X.s 			page 95


 5303 013f 07       		.uleb128 0x7
 5304 0140 4A010000 		.4byte	0x14a
 5305 0144 08       		.uleb128 0x8
 5306 0145 4A010000 		.4byte	0x14a
 5307 0149 00       		.byte	0
 5308 014a 09       		.uleb128 0x9
 5309 014b 04       		.byte	0x4
 5310 014c F6000000 		.4byte	0xf6
 5311 0150 09       		.uleb128 0x9
 5312 0151 04       		.byte	0x4
 5313 0152 3F010000 		.4byte	0x13f
 5314 0156 02       		.uleb128 0x2
 5315 0157 800E0000 		.4byte	.LASF27
 5316 015b 05       		.byte	0x5
 5317 015c 37       		.byte	0x37
 5318 015d F6000000 		.4byte	0xf6
 5319 0161 0A       		.uleb128 0xa
 5320 0162 04       		.byte	0x4
 5321 0163 06       		.byte	0x6
 5322 0164 1A       		.byte	0x1a
 5323 0165 D2020000 		.4byte	0x2d2
 5324 0169 0B       		.uleb128 0xb
 5325 016a A40D0000 		.4byte	.LASF28
 5326 016e 06       		.byte	0x6
 5327 016f 1B       		.byte	0x1b
 5328 0170 9F000000 		.4byte	0x9f
 5329 0174 04       		.byte	0x4
 5330 0175 01       		.byte	0x1
 5331 0176 1F       		.byte	0x1f
 5332 0177 00       		.byte	0
 5333 0178 0B       		.uleb128 0xb
 5334 0179 5C040000 		.4byte	.LASF29
 5335 017d 06       		.byte	0x6
 5336 017e 1C       		.byte	0x1c
 5337 017f 9F000000 		.4byte	0x9f
 5338 0183 04       		.byte	0x4
 5339 0184 01       		.byte	0x1
 5340 0185 1E       		.byte	0x1e
 5341 0186 00       		.byte	0
 5342 0187 0B       		.uleb128 0xb
 5343 0188 550C0000 		.4byte	.LASF30
 5344 018c 06       		.byte	0x6
 5345 018d 1D       		.byte	0x1d
 5346 018e 9F000000 		.4byte	0x9f
 5347 0192 04       		.byte	0x4
 5348 0193 01       		.byte	0x1
 5349 0194 1D       		.byte	0x1d
 5350 0195 00       		.byte	0
 5351 0196 0B       		.uleb128 0xb
 5352 0197 1E0C0000 		.4byte	.LASF31
 5353 019b 06       		.byte	0x6
 5354 019c 1E       		.byte	0x1e
 5355 019d 9F000000 		.4byte	0x9f
 5356 01a1 04       		.byte	0x4
 5357 01a2 01       		.byte	0x1
 5358 01a3 1C       		.byte	0x1c
 5359 01a4 00       		.byte	0
ARM GAS  /var/folders/28/j9jfyj_n4wz3qtvnym210h2c0000gn/T//ccpoR13X.s 			page 96


 5360 01a5 0B       		.uleb128 0xb
 5361 01a6 98030000 		.4byte	.LASF32
 5362 01aa 06       		.byte	0x6
 5363 01ab 1F       		.byte	0x1f
 5364 01ac 9F000000 		.4byte	0x9f
 5365 01b0 04       		.byte	0x4
 5366 01b1 01       		.byte	0x1
 5367 01b2 1B       		.byte	0x1b
 5368 01b3 00       		.byte	0
 5369 01b4 0B       		.uleb128 0xb
 5370 01b5 53080000 		.4byte	.LASF33
 5371 01b9 06       		.byte	0x6
 5372 01ba 20       		.byte	0x20
 5373 01bb 9F000000 		.4byte	0x9f
 5374 01bf 04       		.byte	0x4
 5375 01c0 01       		.byte	0x1
 5376 01c1 1A       		.byte	0x1a
 5377 01c2 00       		.byte	0
 5378 01c3 0B       		.uleb128 0xb
 5379 01c4 A1040000 		.4byte	.LASF34
 5380 01c8 06       		.byte	0x6
 5381 01c9 21       		.byte	0x21
 5382 01ca 9F000000 		.4byte	0x9f
 5383 01ce 04       		.byte	0x4
 5384 01cf 01       		.byte	0x1
 5385 01d0 19       		.byte	0x19
 5386 01d1 00       		.byte	0
 5387 01d2 0B       		.uleb128 0xb
 5388 01d3 9E0B0000 		.4byte	.LASF35
 5389 01d7 06       		.byte	0x6
 5390 01d8 22       		.byte	0x22
 5391 01d9 9F000000 		.4byte	0x9f
 5392 01dd 04       		.byte	0x4
 5393 01de 09       		.byte	0x9
 5394 01df 10       		.byte	0x10
 5395 01e0 00       		.byte	0
 5396 01e1 0B       		.uleb128 0xb
 5397 01e2 03090000 		.4byte	.LASF36
 5398 01e6 06       		.byte	0x6
 5399 01e7 23       		.byte	0x23
 5400 01e8 9F000000 		.4byte	0x9f
 5401 01ec 04       		.byte	0x4
 5402 01ed 01       		.byte	0x1
 5403 01ee 0F       		.byte	0xf
 5404 01ef 00       		.byte	0
 5405 01f0 0B       		.uleb128 0xb
 5406 01f1 09090000 		.4byte	.LASF37
 5407 01f5 06       		.byte	0x6
 5408 01f6 24       		.byte	0x24
 5409 01f7 9F000000 		.4byte	0x9f
 5410 01fb 04       		.byte	0x4
 5411 01fc 01       		.byte	0x1
 5412 01fd 0E       		.byte	0xe
 5413 01fe 00       		.byte	0
 5414 01ff 0B       		.uleb128 0xb
 5415 0200 0F090000 		.4byte	.LASF38
 5416 0204 06       		.byte	0x6
ARM GAS  /var/folders/28/j9jfyj_n4wz3qtvnym210h2c0000gn/T//ccpoR13X.s 			page 97


 5417 0205 25       		.byte	0x25
 5418 0206 9F000000 		.4byte	0x9f
 5419 020a 04       		.byte	0x4
 5420 020b 01       		.byte	0x1
 5421 020c 0D       		.byte	0xd
 5422 020d 00       		.byte	0
 5423 020e 0B       		.uleb128 0xb
 5424 020f 0B0E0000 		.4byte	.LASF39
 5425 0213 06       		.byte	0x6
 5426 0214 26       		.byte	0x26
 5427 0215 9F000000 		.4byte	0x9f
 5428 0219 04       		.byte	0x4
 5429 021a 01       		.byte	0x1
 5430 021b 0C       		.byte	0xc
 5431 021c 00       		.byte	0
 5432 021d 0B       		.uleb128 0xb
 5433 021e 1C090000 		.4byte	.LASF40
 5434 0222 06       		.byte	0x6
 5435 0223 27       		.byte	0x27
 5436 0224 9F000000 		.4byte	0x9f
 5437 0228 04       		.byte	0x4
 5438 0229 01       		.byte	0x1
 5439 022a 0B       		.byte	0xb
 5440 022b 00       		.byte	0
 5441 022c 0B       		.uleb128 0xb
 5442 022d 22090000 		.4byte	.LASF41
 5443 0231 06       		.byte	0x6
 5444 0232 28       		.byte	0x28
 5445 0233 9F000000 		.4byte	0x9f
 5446 0237 04       		.byte	0x4
 5447 0238 01       		.byte	0x1
 5448 0239 0A       		.byte	0xa
 5449 023a 00       		.byte	0
 5450 023b 0B       		.uleb128 0xb
 5451 023c 28090000 		.4byte	.LASF42
 5452 0240 06       		.byte	0x6
 5453 0241 29       		.byte	0x29
 5454 0242 9F000000 		.4byte	0x9f
 5455 0246 04       		.byte	0x4
 5456 0247 01       		.byte	0x1
 5457 0248 09       		.byte	0x9
 5458 0249 00       		.byte	0
 5459 024a 0B       		.uleb128 0xb
 5460 024b 2E090000 		.4byte	.LASF43
 5461 024f 06       		.byte	0x6
 5462 0250 2A       		.byte	0x2a
 5463 0251 9F000000 		.4byte	0x9f
 5464 0255 04       		.byte	0x4
 5465 0256 01       		.byte	0x1
 5466 0257 08       		.byte	0x8
 5467 0258 00       		.byte	0
 5468 0259 0B       		.uleb128 0xb
 5469 025a 34090000 		.4byte	.LASF44
 5470 025e 06       		.byte	0x6
 5471 025f 2B       		.byte	0x2b
 5472 0260 9F000000 		.4byte	0x9f
 5473 0264 04       		.byte	0x4
ARM GAS  /var/folders/28/j9jfyj_n4wz3qtvnym210h2c0000gn/T//ccpoR13X.s 			page 98


 5474 0265 01       		.byte	0x1
 5475 0266 07       		.byte	0x7
 5476 0267 00       		.byte	0
 5477 0268 0B       		.uleb128 0xb
 5478 0269 1D0B0000 		.4byte	.LASF45
 5479 026d 06       		.byte	0x6
 5480 026e 2C       		.byte	0x2c
 5481 026f 9F000000 		.4byte	0x9f
 5482 0273 04       		.byte	0x4
 5483 0274 01       		.byte	0x1
 5484 0275 06       		.byte	0x6
 5485 0276 00       		.byte	0
 5486 0277 0B       		.uleb128 0xb
 5487 0278 B50B0000 		.4byte	.LASF46
 5488 027c 06       		.byte	0x6
 5489 027d 2D       		.byte	0x2d
 5490 027e 9F000000 		.4byte	0x9f
 5491 0282 04       		.byte	0x4
 5492 0283 01       		.byte	0x1
 5493 0284 05       		.byte	0x5
 5494 0285 00       		.byte	0
 5495 0286 0B       		.uleb128 0xb
 5496 0287 2D0B0000 		.4byte	.LASF47
 5497 028b 06       		.byte	0x6
 5498 028c 2E       		.byte	0x2e
 5499 028d 9F000000 		.4byte	0x9f
 5500 0291 04       		.byte	0x4
 5501 0292 01       		.byte	0x1
 5502 0293 04       		.byte	0x4
 5503 0294 00       		.byte	0
 5504 0295 0B       		.uleb128 0xb
 5505 0296 340B0000 		.4byte	.LASF48
 5506 029a 06       		.byte	0x6
 5507 029b 2F       		.byte	0x2f
 5508 029c 9F000000 		.4byte	0x9f
 5509 02a0 04       		.byte	0x4
 5510 02a1 01       		.byte	0x1
 5511 02a2 03       		.byte	0x3
 5512 02a3 00       		.byte	0
 5513 02a4 0B       		.uleb128 0xb
 5514 02a5 3B0B0000 		.4byte	.LASF49
 5515 02a9 06       		.byte	0x6
 5516 02aa 30       		.byte	0x30
 5517 02ab 9F000000 		.4byte	0x9f
 5518 02af 04       		.byte	0x4
 5519 02b0 01       		.byte	0x1
 5520 02b1 02       		.byte	0x2
 5521 02b2 00       		.byte	0
 5522 02b3 0B       		.uleb128 0xb
 5523 02b4 CF0B0000 		.4byte	.LASF50
 5524 02b8 06       		.byte	0x6
 5525 02b9 31       		.byte	0x31
 5526 02ba 9F000000 		.4byte	0x9f
 5527 02be 04       		.byte	0x4
 5528 02bf 01       		.byte	0x1
 5529 02c0 01       		.byte	0x1
 5530 02c1 00       		.byte	0
ARM GAS  /var/folders/28/j9jfyj_n4wz3qtvnym210h2c0000gn/T//ccpoR13X.s 			page 99


 5531 02c2 0B       		.uleb128 0xb
 5532 02c3 470B0000 		.4byte	.LASF51
 5533 02c7 06       		.byte	0x6
 5534 02c8 32       		.byte	0x32
 5535 02c9 9F000000 		.4byte	0x9f
 5536 02cd 04       		.byte	0x4
 5537 02ce 01       		.byte	0x1
 5538 02cf 00       		.byte	0
 5539 02d0 00       		.byte	0
 5540 02d1 00       		.byte	0
 5541 02d2 0C       		.uleb128 0xc
 5542 02d3 04       		.byte	0x4
 5543 02d4 06       		.byte	0x6
 5544 02d5 19       		.byte	0x19
 5545 02d6 F1020000 		.4byte	0x2f1
 5546 02da 0D       		.uleb128 0xd
 5547 02db 010C0000 		.4byte	.LASF52
 5548 02df 06       		.byte	0x6
 5549 02e0 33       		.byte	0x33
 5550 02e1 61010000 		.4byte	0x161
 5551 02e5 0D       		.uleb128 0xd
 5552 02e6 EA0C0000 		.4byte	.LASF53
 5553 02ea 06       		.byte	0x6
 5554 02eb 34       		.byte	0x34
 5555 02ec 9F000000 		.4byte	0x9f
 5556 02f0 00       		.byte	0
 5557 02f1 02       		.uleb128 0x2
 5558 02f2 DA040000 		.4byte	.LASF54
 5559 02f6 06       		.byte	0x6
 5560 02f7 35       		.byte	0x35
 5561 02f8 D2020000 		.4byte	0x2d2
 5562 02fc 0A       		.uleb128 0xa
 5563 02fd 0C       		.byte	0xc
 5564 02fe 06       		.byte	0x6
 5565 02ff 41       		.byte	0x41
 5566 0300 29030000 		.4byte	0x329
 5567 0304 06       		.uleb128 0x6
 5568 0305 80040000 		.4byte	.LASF22
 5569 0309 06       		.byte	0x6
 5570 030a 42       		.byte	0x42
 5571 030b 29030000 		.4byte	0x329
 5572 030f 00       		.byte	0
 5573 0310 06       		.uleb128 0x6
 5574 0311 2D080000 		.4byte	.LASF55
 5575 0315 06       		.byte	0x6
 5576 0316 43       		.byte	0x43
 5577 0317 9F000000 		.4byte	0x9f
 5578 031b 04       		.byte	0x4
 5579 031c 06       		.uleb128 0x6
 5580 031d 11020000 		.4byte	.LASF56
 5581 0321 06       		.byte	0x6
 5582 0322 44       		.byte	0x44
 5583 0323 9F000000 		.4byte	0x9f
 5584 0327 08       		.byte	0x8
 5585 0328 00       		.byte	0
 5586 0329 09       		.uleb128 0x9
 5587 032a 04       		.byte	0x4
ARM GAS  /var/folders/28/j9jfyj_n4wz3qtvnym210h2c0000gn/T//ccpoR13X.s 			page 100


 5588 032b 9F000000 		.4byte	0x9f
 5589 032f 02       		.uleb128 0x2
 5590 0330 D9070000 		.4byte	.LASF57
 5591 0334 06       		.byte	0x6
 5592 0335 45       		.byte	0x45
 5593 0336 FC020000 		.4byte	0x2fc
 5594 033a 0A       		.uleb128 0xa
 5595 033b 0C       		.byte	0xc
 5596 033c 06       		.byte	0x6
 5597 033d 47       		.byte	0x47
 5598 033e 67030000 		.4byte	0x367
 5599 0342 06       		.uleb128 0x6
 5600 0343 80040000 		.4byte	.LASF22
 5601 0347 06       		.byte	0x6
 5602 0348 48       		.byte	0x48
 5603 0349 67030000 		.4byte	0x367
 5604 034d 00       		.byte	0
 5605 034e 06       		.uleb128 0x6
 5606 034f 2D080000 		.4byte	.LASF55
 5607 0353 06       		.byte	0x6
 5608 0354 49       		.byte	0x49
 5609 0355 67030000 		.4byte	0x367
 5610 0359 04       		.byte	0x4
 5611 035a 06       		.uleb128 0x6
 5612 035b 11020000 		.4byte	.LASF56
 5613 035f 06       		.byte	0x6
 5614 0360 4A       		.byte	0x4a
 5615 0361 67030000 		.4byte	0x367
 5616 0365 08       		.byte	0x8
 5617 0366 00       		.byte	0
 5618 0367 03       		.uleb128 0x3
 5619 0368 04       		.byte	0x4
 5620 0369 04       		.byte	0x4
 5621 036a 76030000 		.4byte	.LASF58
 5622 036e 02       		.uleb128 0x2
 5623 036f 620C0000 		.4byte	.LASF59
 5624 0373 06       		.byte	0x6
 5625 0374 4B       		.byte	0x4b
 5626 0375 3A030000 		.4byte	0x33a
 5627 0379 0A       		.uleb128 0xa
 5628 037a 0C       		.byte	0xc
 5629 037b 06       		.byte	0x6
 5630 037c 4D       		.byte	0x4d
 5631 037d A6030000 		.4byte	0x3a6
 5632 0381 06       		.uleb128 0x6
 5633 0382 C8080000 		.4byte	.LASF60
 5634 0386 06       		.byte	0x6
 5635 0387 4E       		.byte	0x4e
 5636 0388 A6030000 		.4byte	0x3a6
 5637 038c 00       		.byte	0
 5638 038d 06       		.uleb128 0x6
 5639 038e DF090000 		.4byte	.LASF61
 5640 0392 06       		.byte	0x6
 5641 0393 4F       		.byte	0x4f
 5642 0394 9F000000 		.4byte	0x9f
 5643 0398 04       		.byte	0x4
 5644 0399 06       		.uleb128 0x6
ARM GAS  /var/folders/28/j9jfyj_n4wz3qtvnym210h2c0000gn/T//ccpoR13X.s 			page 101


 5645 039a 6F0D0000 		.4byte	.LASF62
 5646 039e 06       		.byte	0x6
 5647 039f 50       		.byte	0x50
 5648 03a0 9F000000 		.4byte	0x9f
 5649 03a4 08       		.byte	0x8
 5650 03a5 00       		.byte	0
 5651 03a6 0E       		.uleb128 0xe
 5652 03a7 04       		.byte	0x4
 5653 03a8 02       		.uleb128 0x2
 5654 03a9 4F030000 		.4byte	.LASF63
 5655 03ad 06       		.byte	0x6
 5656 03ae 51       		.byte	0x51
 5657 03af 79030000 		.4byte	0x379
 5658 03b3 0A       		.uleb128 0xa
 5659 03b4 04       		.byte	0x4
 5660 03b5 06       		.byte	0x6
 5661 03b6 53       		.byte	0x53
 5662 03b7 C8030000 		.4byte	0x3c8
 5663 03bb 06       		.uleb128 0x6
 5664 03bc 80040000 		.4byte	.LASF22
 5665 03c0 06       		.byte	0x6
 5666 03c1 54       		.byte	0x54
 5667 03c2 C8030000 		.4byte	0x3c8
 5668 03c6 00       		.byte	0
 5669 03c7 00       		.byte	0
 5670 03c8 09       		.uleb128 0x9
 5671 03c9 04       		.byte	0x4
 5672 03ca CE000000 		.4byte	0xce
 5673 03ce 02       		.uleb128 0x2
 5674 03cf 5A0E0000 		.4byte	.LASF64
 5675 03d3 06       		.byte	0x6
 5676 03d4 55       		.byte	0x55
 5677 03d5 B3030000 		.4byte	0x3b3
 5678 03d9 0A       		.uleb128 0xa
 5679 03da 04       		.byte	0x4
 5680 03db 06       		.byte	0x6
 5681 03dc 57       		.byte	0x57
 5682 03dd EE030000 		.4byte	0x3ee
 5683 03e1 06       		.uleb128 0x6
 5684 03e2 80040000 		.4byte	.LASF22
 5685 03e6 06       		.byte	0x6
 5686 03e7 58       		.byte	0x58
 5687 03e8 EE030000 		.4byte	0x3ee
 5688 03ec 00       		.byte	0
 5689 03ed 00       		.byte	0
 5690 03ee 09       		.uleb128 0x9
 5691 03ef 04       		.byte	0x4
 5692 03f0 C3000000 		.4byte	0xc3
 5693 03f4 02       		.uleb128 0x2
 5694 03f5 570D0000 		.4byte	.LASF65
 5695 03f9 06       		.byte	0x6
 5696 03fa 59       		.byte	0x59
 5697 03fb D9030000 		.4byte	0x3d9
 5698 03ff 0A       		.uleb128 0xa
 5699 0400 0C       		.byte	0xc
 5700 0401 06       		.byte	0x6
 5701 0402 5B       		.byte	0x5b
ARM GAS  /var/folders/28/j9jfyj_n4wz3qtvnym210h2c0000gn/T//ccpoR13X.s 			page 102


 5702 0403 2C040000 		.4byte	0x42c
 5703 0407 06       		.uleb128 0x6
 5704 0408 C8080000 		.4byte	.LASF60
 5705 040c 06       		.byte	0x6
 5706 040d 5C       		.byte	0x5c
 5707 040e 29030000 		.4byte	0x329
 5708 0412 00       		.byte	0
 5709 0413 06       		.uleb128 0x6
 5710 0414 DF090000 		.4byte	.LASF61
 5711 0418 06       		.byte	0x6
 5712 0419 5D       		.byte	0x5d
 5713 041a 9F000000 		.4byte	0x9f
 5714 041e 04       		.byte	0x4
 5715 041f 06       		.uleb128 0x6
 5716 0420 6F0D0000 		.4byte	.LASF62
 5717 0424 06       		.byte	0x6
 5718 0425 5E       		.byte	0x5e
 5719 0426 9F000000 		.4byte	0x9f
 5720 042a 08       		.byte	0x8
 5721 042b 00       		.byte	0
 5722 042c 02       		.uleb128 0x2
 5723 042d 770D0000 		.4byte	.LASF66
 5724 0431 06       		.byte	0x6
 5725 0432 5F       		.byte	0x5f
 5726 0433 FF030000 		.4byte	0x3ff
 5727 0437 02       		.uleb128 0x2
 5728 0438 D5060000 		.4byte	.LASF67
 5729 043c 06       		.byte	0x6
 5730 043d 61       		.byte	0x61
 5731 043e 42040000 		.4byte	0x442
 5732 0442 09       		.uleb128 0x9
 5733 0443 04       		.byte	0x4
 5734 0444 48040000 		.4byte	0x448
 5735 0448 07       		.uleb128 0x7
 5736 0449 53040000 		.4byte	0x453
 5737 044d 08       		.uleb128 0x8
 5738 044e 9F000000 		.4byte	0x9f
 5739 0452 00       		.byte	0
 5740 0453 02       		.uleb128 0x2
 5741 0454 44020000 		.4byte	.LASF68
 5742 0458 06       		.byte	0x6
 5743 0459 62       		.byte	0x62
 5744 045a 5E040000 		.4byte	0x45e
 5745 045e 09       		.uleb128 0x9
 5746 045f 04       		.byte	0x4
 5747 0460 64040000 		.4byte	0x464
 5748 0464 07       		.uleb128 0x7
 5749 0465 74040000 		.4byte	0x474
 5750 0469 08       		.uleb128 0x8
 5751 046a 9F000000 		.4byte	0x9f
 5752 046e 08       		.uleb128 0x8
 5753 046f 9F000000 		.4byte	0x9f
 5754 0473 00       		.byte	0
 5755 0474 02       		.uleb128 0x2
 5756 0475 7D050000 		.4byte	.LASF69
 5757 0479 06       		.byte	0x6
 5758 047a 64       		.byte	0x64
ARM GAS  /var/folders/28/j9jfyj_n4wz3qtvnym210h2c0000gn/T//ccpoR13X.s 			page 103


 5759 047b 7F040000 		.4byte	0x47f
 5760 047f 09       		.uleb128 0x9
 5761 0480 04       		.byte	0x4
 5762 0481 85040000 		.4byte	0x485
 5763 0485 0F       		.uleb128 0xf
 5764 0486 0A       		.uleb128 0xa
 5765 0487 0C       		.byte	0xc
 5766 0488 06       		.byte	0x6
 5767 0489 66       		.byte	0x66
 5768 048a B3040000 		.4byte	0x4b3
 5769 048e 06       		.uleb128 0x6
 5770 048f 1A020000 		.4byte	.LASF70
 5771 0493 06       		.byte	0x6
 5772 0494 67       		.byte	0x67
 5773 0495 37040000 		.4byte	0x437
 5774 0499 00       		.byte	0
 5775 049a 06       		.uleb128 0x6
 5776 049b 780A0000 		.4byte	.LASF71
 5777 049f 06       		.byte	0x6
 5778 04a0 68       		.byte	0x68
 5779 04a1 53040000 		.4byte	0x453
 5780 04a5 04       		.byte	0x4
 5781 04a6 06       		.uleb128 0x6
 5782 04a7 240B0000 		.4byte	.LASF72
 5783 04ab 06       		.byte	0x6
 5784 04ac 69       		.byte	0x69
 5785 04ad A6030000 		.4byte	0x3a6
 5786 04b1 08       		.byte	0x8
 5787 04b2 00       		.byte	0
 5788 04b3 02       		.uleb128 0x2
 5789 04b4 4E090000 		.4byte	.LASF73
 5790 04b8 06       		.byte	0x6
 5791 04b9 6A       		.byte	0x6a
 5792 04ba 86040000 		.4byte	0x486
 5793 04be 0A       		.uleb128 0xa
 5794 04bf 04       		.byte	0x4
 5795 04c0 06       		.byte	0x6
 5796 04c1 6C       		.byte	0x6c
 5797 04c2 D3040000 		.4byte	0x4d3
 5798 04c6 06       		.uleb128 0x6
 5799 04c7 80040000 		.4byte	.LASF22
 5800 04cb 06       		.byte	0x6
 5801 04cc 6D       		.byte	0x6d
 5802 04cd 29030000 		.4byte	0x329
 5803 04d1 00       		.byte	0
 5804 04d2 00       		.byte	0
 5805 04d3 02       		.uleb128 0x2
 5806 04d4 18060000 		.4byte	.LASF74
 5807 04d8 06       		.byte	0x6
 5808 04d9 6E       		.byte	0x6e
 5809 04da BE040000 		.4byte	0x4be
 5810 04de 0A       		.uleb128 0xa
 5811 04df 04       		.byte	0x4
 5812 04e0 06       		.byte	0x6
 5813 04e1 70       		.byte	0x70
 5814 04e2 F3040000 		.4byte	0x4f3
 5815 04e6 06       		.uleb128 0x6
ARM GAS  /var/folders/28/j9jfyj_n4wz3qtvnym210h2c0000gn/T//ccpoR13X.s 			page 104


 5816 04e7 80040000 		.4byte	.LASF22
 5817 04eb 06       		.byte	0x6
 5818 04ec 71       		.byte	0x71
 5819 04ed 29030000 		.4byte	0x329
 5820 04f1 00       		.byte	0
 5821 04f2 00       		.byte	0
 5822 04f3 02       		.uleb128 0x2
 5823 04f4 EF0C0000 		.4byte	.LASF75
 5824 04f8 06       		.byte	0x6
 5825 04f9 72       		.byte	0x72
 5826 04fa DE040000 		.4byte	0x4de
 5827 04fe 0A       		.uleb128 0xa
 5828 04ff 04       		.byte	0x4
 5829 0500 06       		.byte	0x6
 5830 0501 74       		.byte	0x74
 5831 0502 13050000 		.4byte	0x513
 5832 0506 06       		.uleb128 0x6
 5833 0507 80040000 		.4byte	.LASF22
 5834 050b 06       		.byte	0x6
 5835 050c 75       		.byte	0x75
 5836 050d 29030000 		.4byte	0x329
 5837 0511 00       		.byte	0
 5838 0512 00       		.byte	0
 5839 0513 02       		.uleb128 0x2
 5840 0514 1A000000 		.4byte	.LASF76
 5841 0518 06       		.byte	0x6
 5842 0519 76       		.byte	0x76
 5843 051a FE040000 		.4byte	0x4fe
 5844 051e 0A       		.uleb128 0xa
 5845 051f 04       		.byte	0x4
 5846 0520 06       		.byte	0x6
 5847 0521 78       		.byte	0x78
 5848 0522 33050000 		.4byte	0x533
 5849 0526 06       		.uleb128 0x6
 5850 0527 80040000 		.4byte	.LASF22
 5851 052b 06       		.byte	0x6
 5852 052c 79       		.byte	0x79
 5853 052d 29030000 		.4byte	0x329
 5854 0531 00       		.byte	0
 5855 0532 00       		.byte	0
 5856 0533 02       		.uleb128 0x2
 5857 0534 A1010000 		.4byte	.LASF77
 5858 0538 06       		.byte	0x6
 5859 0539 7A       		.byte	0x7a
 5860 053a 1E050000 		.4byte	0x51e
 5861 053e 0A       		.uleb128 0xa
 5862 053f 0C       		.byte	0xc
 5863 0540 06       		.byte	0x6
 5864 0541 7C       		.byte	0x7c
 5865 0542 6B050000 		.4byte	0x56b
 5866 0546 10       		.uleb128 0x10
 5867 0547 50457800 		.ascii	"PEx\000"
 5868 054b 06       		.byte	0x6
 5869 054c 7D       		.byte	0x7d
 5870 054d 6B050000 		.4byte	0x56b
 5871 0551 00       		.byte	0
 5872 0552 06       		.uleb128 0x6
ARM GAS  /var/folders/28/j9jfyj_n4wz3qtvnym210h2c0000gn/T//ccpoR13X.s 			page 105


 5873 0553 2D080000 		.4byte	.LASF55
 5874 0557 06       		.byte	0x6
 5875 0558 7E       		.byte	0x7e
 5876 0559 9F000000 		.4byte	0x9f
 5877 055d 04       		.byte	0x4
 5878 055e 06       		.uleb128 0x6
 5879 055f 11020000 		.4byte	.LASF56
 5880 0563 06       		.byte	0x6
 5881 0564 7F       		.byte	0x7f
 5882 0565 9F000000 		.4byte	0x9f
 5883 0569 08       		.byte	0x8
 5884 056a 00       		.byte	0
 5885 056b 09       		.uleb128 0x9
 5886 056c 04       		.byte	0x4
 5887 056d 56010000 		.4byte	0x156
 5888 0571 02       		.uleb128 0x2
 5889 0572 3F080000 		.4byte	.LASF78
 5890 0576 06       		.byte	0x6
 5891 0577 80       		.byte	0x80
 5892 0578 3E050000 		.4byte	0x53e
 5893 057c 0A       		.uleb128 0xa
 5894 057d 0C       		.byte	0xc
 5895 057e 06       		.byte	0x6
 5896 057f 82       		.byte	0x82
 5897 0580 A9050000 		.4byte	0x5a9
 5898 0584 06       		.uleb128 0x6
 5899 0585 80040000 		.4byte	.LASF22
 5900 0589 06       		.byte	0x6
 5901 058a 83       		.byte	0x83
 5902 058b A9050000 		.4byte	0x5a9
 5903 058f 00       		.byte	0
 5904 0590 06       		.uleb128 0x6
 5905 0591 2D080000 		.4byte	.LASF55
 5906 0595 06       		.byte	0x6
 5907 0596 84       		.byte	0x84
 5908 0597 9F000000 		.4byte	0x9f
 5909 059b 04       		.byte	0x4
 5910 059c 06       		.uleb128 0x6
 5911 059d 11020000 		.4byte	.LASF56
 5912 05a1 06       		.byte	0x6
 5913 05a2 85       		.byte	0x85
 5914 05a3 9F000000 		.4byte	0x9f
 5915 05a7 08       		.byte	0x8
 5916 05a8 00       		.byte	0
 5917 05a9 09       		.uleb128 0x9
 5918 05aa 04       		.byte	0x4
 5919 05ab B8000000 		.4byte	0xb8
 5920 05af 02       		.uleb128 0x2
 5921 05b0 4E0E0000 		.4byte	.LASF79
 5922 05b4 06       		.byte	0x6
 5923 05b5 86       		.byte	0x86
 5924 05b6 7C050000 		.4byte	0x57c
 5925 05ba 0A       		.uleb128 0xa
 5926 05bb 04       		.byte	0x4
 5927 05bc 06       		.byte	0x6
 5928 05bd 88       		.byte	0x88
 5929 05be CF050000 		.4byte	0x5cf
ARM GAS  /var/folders/28/j9jfyj_n4wz3qtvnym210h2c0000gn/T//ccpoR13X.s 			page 106


 5930 05c2 06       		.uleb128 0x6
 5931 05c3 2C0C0000 		.4byte	.LASF80
 5932 05c7 06       		.byte	0x6
 5933 05c8 89       		.byte	0x89
 5934 05c9 74040000 		.4byte	0x474
 5935 05cd 00       		.byte	0
 5936 05ce 00       		.byte	0
 5937 05cf 02       		.uleb128 0x2
 5938 05d0 950D0000 		.4byte	.LASF81
 5939 05d4 06       		.byte	0x6
 5940 05d5 8A       		.byte	0x8a
 5941 05d6 BA050000 		.4byte	0x5ba
 5942 05da 11       		.uleb128 0x11
 5943 05db 01       		.byte	0x1
 5944 05dc 06       		.byte	0x6
 5945 05dd 8C       		.byte	0x8c
 5946 05de 37060000 		.4byte	0x637
 5947 05e2 12       		.uleb128 0x12
 5948 05e3 1F0D0000 		.4byte	.LASF82
 5949 05e7 00       		.sleb128 0
 5950 05e8 12       		.uleb128 0x12
 5951 05e9 650A0000 		.4byte	.LASF83
 5952 05ed 01       		.sleb128 1
 5953 05ee 12       		.uleb128 0x12
 5954 05ef D40C0000 		.4byte	.LASF84
 5955 05f3 02       		.sleb128 2
 5956 05f4 12       		.uleb128 0x12
 5957 05f5 900A0000 		.4byte	.LASF85
 5958 05f9 03       		.sleb128 3
 5959 05fa 12       		.uleb128 0x12
 5960 05fb 3D0C0000 		.4byte	.LASF86
 5961 05ff 04       		.sleb128 4
 5962 0600 12       		.uleb128 0x12
 5963 0601 00000000 		.4byte	.LASF87
 5964 0605 05       		.sleb128 5
 5965 0606 12       		.uleb128 0x12
 5966 0607 BE0D0000 		.4byte	.LASF88
 5967 060b 06       		.sleb128 6
 5968 060c 12       		.uleb128 0x12
 5969 060d 83020000 		.4byte	.LASF89
 5970 0611 07       		.sleb128 7
 5971 0612 12       		.uleb128 0x12
 5972 0613 E5060000 		.4byte	.LASF90
 5973 0617 08       		.sleb128 8
 5974 0618 12       		.uleb128 0x12
 5975 0619 F9070000 		.4byte	.LASF91
 5976 061d 09       		.sleb128 9
 5977 061e 12       		.uleb128 0x12
 5978 061f 00040000 		.4byte	.LASF92
 5979 0623 0A       		.sleb128 10
 5980 0624 12       		.uleb128 0x12
 5981 0625 CE080000 		.4byte	.LASF93
 5982 0629 0B       		.sleb128 11
 5983 062a 12       		.uleb128 0x12
 5984 062b E4080000 		.4byte	.LASF94
 5985 062f 0C       		.sleb128 12
 5986 0630 12       		.uleb128 0x12
ARM GAS  /var/folders/28/j9jfyj_n4wz3qtvnym210h2c0000gn/T//ccpoR13X.s 			page 107


 5987 0631 D4050000 		.4byte	.LASF95
 5988 0635 0D       		.sleb128 13
 5989 0636 00       		.byte	0
 5990 0637 02       		.uleb128 0x2
 5991 0638 34050000 		.4byte	.LASF96
 5992 063c 06       		.byte	0x6
 5993 063d 9B       		.byte	0x9b
 5994 063e DA050000 		.4byte	0x5da
 5995 0642 0C       		.uleb128 0xc
 5996 0643 0C       		.byte	0xc
 5997 0644 06       		.byte	0x6
 5998 0645 A1       		.byte	0xa1
 5999 0646 E5060000 		.4byte	0x6e5
 6000 064a 13       		.uleb128 0x13
 6001 064b 69767000 		.ascii	"ivp\000"
 6002 064f 06       		.byte	0x6
 6003 0650 A2       		.byte	0xa2
 6004 0651 2F030000 		.4byte	0x32f
 6005 0655 13       		.uleb128 0x13
 6006 0656 66767000 		.ascii	"fvp\000"
 6007 065a 06       		.byte	0x6
 6008 065b A3       		.byte	0xa3
 6009 065c 6E030000 		.4byte	0x36e
 6010 0660 13       		.uleb128 0x13
 6011 0661 73767000 		.ascii	"svp\000"
 6012 0665 06       		.byte	0x6
 6013 0666 A4       		.byte	0xa4
 6014 0667 F4030000 		.4byte	0x3f4
 6015 066b 13       		.uleb128 0x13
 6016 066c 61767000 		.ascii	"avp\000"
 6017 0670 06       		.byte	0x6
 6018 0671 A5       		.byte	0xa5
 6019 0672 A8030000 		.4byte	0x3a8
 6020 0676 0D       		.uleb128 0xd
 6021 0677 110E0000 		.4byte	.LASF97
 6022 067b 06       		.byte	0x6
 6023 067c A6       		.byte	0xa6
 6024 067d CE030000 		.4byte	0x3ce
 6025 0681 0D       		.uleb128 0xd
 6026 0682 C40B0000 		.4byte	.LASF98
 6027 0686 06       		.byte	0x6
 6028 0687 A7       		.byte	0xa7
 6029 0688 2C040000 		.4byte	0x42c
 6030 068c 0D       		.uleb128 0xd
 6031 068d E3050000 		.4byte	.LASF99
 6032 0691 06       		.byte	0x6
 6033 0692 A8       		.byte	0xa8
 6034 0693 B3040000 		.4byte	0x4b3
 6035 0697 13       		.uleb128 0x13
 6036 0698 69647600 		.ascii	"idv\000"
 6037 069c 06       		.byte	0x6
 6038 069d A9       		.byte	0xa9
 6039 069e D3040000 		.4byte	0x4d3
 6040 06a2 13       		.uleb128 0x13
 6041 06a3 70647600 		.ascii	"pdv\000"
 6042 06a7 06       		.byte	0x6
 6043 06a8 AA       		.byte	0xaa
ARM GAS  /var/folders/28/j9jfyj_n4wz3qtvnym210h2c0000gn/T//ccpoR13X.s 			page 108


 6044 06a9 F3040000 		.4byte	0x4f3
 6045 06ad 0D       		.uleb128 0xd
 6046 06ae 3E040000 		.4byte	.LASF100
 6047 06b2 06       		.byte	0x6
 6048 06b3 AB       		.byte	0xab
 6049 06b4 13050000 		.4byte	0x513
 6050 06b8 0D       		.uleb128 0xd
 6051 06b9 A0050000 		.4byte	.LASF101
 6052 06bd 06       		.byte	0x6
 6053 06be AC       		.byte	0xac
 6054 06bf 33050000 		.4byte	0x533
 6055 06c3 0D       		.uleb128 0xd
 6056 06c4 890D0000 		.4byte	.LASF102
 6057 06c8 06       		.byte	0x6
 6058 06c9 AD       		.byte	0xad
 6059 06ca 71050000 		.4byte	0x571
 6060 06ce 0D       		.uleb128 0xd
 6061 06cf FE080000 		.4byte	.LASF103
 6062 06d3 06       		.byte	0x6
 6063 06d4 AE       		.byte	0xae
 6064 06d5 AF050000 		.4byte	0x5af
 6065 06d9 0D       		.uleb128 0xd
 6066 06da EE090000 		.4byte	.LASF104
 6067 06de 06       		.byte	0x6
 6068 06df AF       		.byte	0xaf
 6069 06e0 CF050000 		.4byte	0x5cf
 6070 06e4 00       		.byte	0
 6071 06e5 05       		.uleb128 0x5
 6072 06e6 0E080000 		.4byte	.LASF106
 6073 06ea 18       		.byte	0x18
 6074 06eb 06       		.byte	0x6
 6075 06ec 9D       		.byte	0x9d
 6076 06ed 1C070000 		.4byte	0x71c
 6077 06f1 06       		.uleb128 0x6
 6078 06f2 FF020000 		.4byte	.LASF107
 6079 06f6 06       		.byte	0x6
 6080 06f7 9E       		.byte	0x9e
 6081 06f8 37060000 		.4byte	0x637
 6082 06fc 00       		.byte	0
 6083 06fd 06       		.uleb128 0x6
 6084 06fe 8E090000 		.4byte	.LASF108
 6085 0702 06       		.byte	0x6
 6086 0703 9F       		.byte	0x9f
 6087 0704 1C070000 		.4byte	0x71c
 6088 0708 04       		.byte	0x4
 6089 0709 06       		.uleb128 0x6
 6090 070a 2C050000 		.4byte	.LASF109
 6091 070e 06       		.byte	0x6
 6092 070f A0       		.byte	0xa0
 6093 0710 22070000 		.4byte	0x722
 6094 0714 08       		.byte	0x8
 6095 0715 14       		.uleb128 0x14
 6096 0716 42060000 		.4byte	0x642
 6097 071a 0C       		.byte	0xc
 6098 071b 00       		.byte	0
 6099 071c 09       		.uleb128 0x9
 6100 071d 04       		.byte	0x4
ARM GAS  /var/folders/28/j9jfyj_n4wz3qtvnym210h2c0000gn/T//ccpoR13X.s 			page 109


 6101 071e E5060000 		.4byte	0x6e5
 6102 0722 09       		.uleb128 0x9
 6103 0723 04       		.byte	0x4
 6104 0724 28070000 		.4byte	0x728
 6105 0728 15       		.uleb128 0x15
 6106 0729 2D070000 		.4byte	0x72d
 6107 072d 03       		.uleb128 0x3
 6108 072e 01       		.byte	0x1
 6109 072f 08       		.byte	0x8
 6110 0730 F7050000 		.4byte	.LASF110
 6111 0734 02       		.uleb128 0x2
 6112 0735 AF0D0000 		.4byte	.LASF111
 6113 0739 06       		.byte	0x6
 6114 073a B1       		.byte	0xb1
 6115 073b E5060000 		.4byte	0x6e5
 6116 073f 02       		.uleb128 0x2
 6117 0740 C3040000 		.4byte	.LASF112
 6118 0744 07       		.byte	0x7
 6119 0745 D4       		.byte	0xd4
 6120 0746 A6000000 		.4byte	0xa6
 6121 074a 02       		.uleb128 0x2
 6122 074b FC040000 		.4byte	.LASF113
 6123 074f 08       		.byte	0x8
 6124 0750 2B       		.byte	0x2b
 6125 0751 55070000 		.4byte	0x755
 6126 0755 03       		.uleb128 0x3
 6127 0756 01       		.byte	0x1
 6128 0757 02       		.byte	0x2
 6129 0758 26050000 		.4byte	.LASF114
 6130 075c 02       		.uleb128 0x2
 6131 075d 9D080000 		.4byte	.LASF115
 6132 0761 08       		.byte	0x8
 6133 0762 2C       		.byte	0x2c
 6134 0763 B8000000 		.4byte	0xb8
 6135 0767 02       		.uleb128 0x2
 6136 0768 58060000 		.4byte	.LASF116
 6137 076c 08       		.byte	0x8
 6138 076d 2D       		.byte	0x2d
 6139 076e B8000000 		.4byte	0xb8
 6140 0772 02       		.uleb128 0x2
 6141 0773 BC090000 		.4byte	.LASF117
 6142 0777 08       		.byte	0x8
 6143 0778 2F       		.byte	0x2f
 6144 0779 B8000000 		.4byte	0xb8
 6145 077d 02       		.uleb128 0x2
 6146 077e 90030000 		.4byte	.LASF118
 6147 0782 08       		.byte	0x8
 6148 0783 30       		.byte	0x30
 6149 0784 D9000000 		.4byte	0xd9
 6150 0788 02       		.uleb128 0x2
 6151 0789 80070000 		.4byte	.LASF119
 6152 078d 08       		.byte	0x8
 6153 078e 31       		.byte	0x31
 6154 078f CE000000 		.4byte	0xce
 6155 0793 02       		.uleb128 0x2
 6156 0794 3C030000 		.4byte	.LASF120
 6157 0798 08       		.byte	0x8
ARM GAS  /var/folders/28/j9jfyj_n4wz3qtvnym210h2c0000gn/T//ccpoR13X.s 			page 110


 6158 0799 33       		.byte	0x33
 6159 079a D9000000 		.4byte	0xd9
 6160 079e 02       		.uleb128 0x2
 6161 079f 97010000 		.4byte	.LASF121
 6162 07a3 08       		.byte	0x8
 6163 07a4 35       		.byte	0x35
 6164 07a5 D9000000 		.4byte	0xd9
 6165 07a9 02       		.uleb128 0x2
 6166 07aa 1D040000 		.4byte	.LASF122
 6167 07ae 08       		.byte	0x8
 6168 07af 36       		.byte	0x36
 6169 07b0 CE000000 		.4byte	0xce
 6170 07b4 02       		.uleb128 0x2
 6171 07b5 42060000 		.4byte	.LASF123
 6172 07b9 09       		.byte	0x9
 6173 07ba 2A       		.byte	0x2a
 6174 07bb BF070000 		.4byte	0x7bf
 6175 07bf 05       		.uleb128 0x5
 6176 07c0 42060000 		.4byte	.LASF123
 6177 07c4 40       		.byte	0x40
 6178 07c5 0A       		.byte	0xa
 6179 07c6 5E       		.byte	0x5e
 6180 07c7 98080000 		.4byte	0x898
 6181 07cb 06       		.uleb128 0x6
 6182 07cc B3040000 		.4byte	.LASF124
 6183 07d0 0A       		.byte	0xa
 6184 07d1 5F       		.byte	0x5f
 6185 07d2 B9080000 		.4byte	0x8b9
 6186 07d6 00       		.byte	0
 6187 07d7 06       		.uleb128 0x6
 6188 07d8 4E0B0000 		.4byte	.LASF125
 6189 07dc 0A       		.byte	0xa
 6190 07dd 61       		.byte	0x61
 6191 07de B9080000 		.4byte	0x8b9
 6192 07e2 04       		.byte	0x4
 6193 07e3 06       		.uleb128 0x6
 6194 07e4 59010000 		.4byte	.LASF126
 6195 07e8 0A       		.byte	0xa
 6196 07e9 63       		.byte	0x63
 6197 07ea 7D070000 		.4byte	0x77d
 6198 07ee 08       		.byte	0x8
 6199 07ef 06       		.uleb128 0x6
 6200 07f0 5A0A0000 		.4byte	.LASF127
 6201 07f4 0A       		.byte	0xa
 6202 07f5 64       		.byte	0x64
 6203 07f6 4C0A0000 		.4byte	0xa4c
 6204 07fa 0C       		.byte	0xc
 6205 07fb 06       		.uleb128 0x6
 6206 07fc 78040000 		.4byte	.LASF128
 6207 0800 0A       		.byte	0xa
 6208 0801 66       		.byte	0x66
 6209 0802 B9080000 		.4byte	0x8b9
 6210 0806 10       		.byte	0x10
 6211 0807 06       		.uleb128 0x6
 6212 0808 68060000 		.4byte	.LASF129
 6213 080c 0A       		.byte	0xa
 6214 080d 67       		.byte	0x67
ARM GAS  /var/folders/28/j9jfyj_n4wz3qtvnym210h2c0000gn/T//ccpoR13X.s 			page 111


 6215 080e B9080000 		.4byte	0x8b9
 6216 0812 14       		.byte	0x14
 6217 0813 06       		.uleb128 0x6
 6218 0814 CD050000 		.4byte	.LASF130
 6219 0818 0A       		.byte	0xa
 6220 0819 6E       		.byte	0x6e
 6221 081a 22070000 		.4byte	0x722
 6222 081e 18       		.byte	0x18
 6223 081f 06       		.uleb128 0x6
 6224 0820 70060000 		.4byte	.LASF131
 6225 0824 0A       		.byte	0xa
 6226 0825 79       		.byte	0x79
 6227 0826 67070000 		.4byte	0x767
 6228 082a 1C       		.byte	0x1c
 6229 082b 06       		.uleb128 0x6
 6230 082c 99040000 		.4byte	.LASF132
 6231 0830 0A       		.byte	0xa
 6232 0831 7D       		.byte	0x7d
 6233 0832 5C070000 		.4byte	0x75c
 6234 0836 1D       		.byte	0x1d
 6235 0837 06       		.uleb128 0x6
 6236 0838 4B0C0000 		.4byte	.LASF133
 6237 083c 0A       		.byte	0xa
 6238 083d 88       		.byte	0x88
 6239 083e 72070000 		.4byte	0x772
 6240 0842 1E       		.byte	0x1e
 6241 0843 10       		.uleb128 0x10
 6242 0844 705F7500 		.ascii	"p_u\000"
 6243 0848 0A       		.byte	0xa
 6244 0849 B4       		.byte	0xb4
 6245 084a 3B0B0000 		.4byte	0xb3b
 6246 084e 20       		.byte	0x20
 6247 084f 06       		.uleb128 0x6
 6248 0850 2A020000 		.4byte	.LASF134
 6249 0854 0A       		.byte	0xa
 6250 0855 B9       		.byte	0xb9
 6251 0856 DF080000 		.4byte	0x8df
 6252 085a 24       		.byte	0x24
 6253 085b 06       		.uleb128 0x6
 6254 085c CF010000 		.4byte	.LASF135
 6255 0860 0A       		.byte	0xa
 6256 0861 BF       		.byte	0xbf
 6257 0862 BF080000 		.4byte	0x8bf
 6258 0866 28       		.byte	0x28
 6259 0867 06       		.uleb128 0x6
 6260 0868 84080000 		.4byte	.LASF136
 6261 086c 0A       		.byte	0xa
 6262 086d C3       		.byte	0xc3
 6263 086e 88070000 		.4byte	0x788
 6264 0872 30       		.byte	0x30
 6265 0873 06       		.uleb128 0x6
 6266 0874 A9090000 		.4byte	.LASF137
 6267 0878 0A       		.byte	0xa
 6268 0879 C9       		.byte	0xc9
 6269 087a 93070000 		.4byte	0x793
 6270 087e 34       		.byte	0x34
 6271 087f 06       		.uleb128 0x6
ARM GAS  /var/folders/28/j9jfyj_n4wz3qtvnym210h2c0000gn/T//ccpoR13X.s 			page 112


 6272 0880 8C0B0000 		.4byte	.LASF138
 6273 0884 0A       		.byte	0xa
 6274 0885 D0       		.byte	0xd0
 6275 0886 700B0000 		.4byte	0xb70
 6276 088a 38       		.byte	0x38
 6277 088b 06       		.uleb128 0x6
 6278 088c BD080000 		.4byte	.LASF139
 6279 0890 0A       		.byte	0xa
 6280 0891 D4       		.byte	0xd4
 6281 0892 7D070000 		.4byte	0x77d
 6282 0896 3C       		.byte	0x3c
 6283 0897 00       		.byte	0
 6284 0898 0A       		.uleb128 0xa
 6285 0899 08       		.byte	0x8
 6286 089a 09       		.byte	0x9
 6287 089b 61       		.byte	0x61
 6288 089c B9080000 		.4byte	0x8b9
 6289 08a0 06       		.uleb128 0x6
 6290 08a1 B3040000 		.4byte	.LASF124
 6291 08a5 09       		.byte	0x9
 6292 08a6 62       		.byte	0x62
 6293 08a7 B9080000 		.4byte	0x8b9
 6294 08ab 00       		.byte	0
 6295 08ac 06       		.uleb128 0x6
 6296 08ad 4E0B0000 		.4byte	.LASF125
 6297 08b1 09       		.byte	0x9
 6298 08b2 64       		.byte	0x64
 6299 08b3 B9080000 		.4byte	0x8b9
 6300 08b7 04       		.byte	0x4
 6301 08b8 00       		.byte	0
 6302 08b9 09       		.uleb128 0x9
 6303 08ba 04       		.byte	0x4
 6304 08bb B4070000 		.4byte	0x7b4
 6305 08bf 02       		.uleb128 0x2
 6306 08c0 EA050000 		.4byte	.LASF140
 6307 08c4 09       		.byte	0x9
 6308 08c5 66       		.byte	0x66
 6309 08c6 98080000 		.4byte	0x898
 6310 08ca 0A       		.uleb128 0xa
 6311 08cb 04       		.byte	0x4
 6312 08cc 09       		.byte	0x9
 6313 08cd 6B       		.byte	0x6b
 6314 08ce DF080000 		.4byte	0x8df
 6315 08d2 06       		.uleb128 0x6
 6316 08d3 B3040000 		.4byte	.LASF124
 6317 08d7 09       		.byte	0x9
 6318 08d8 6D       		.byte	0x6d
 6319 08d9 B9080000 		.4byte	0x8b9
 6320 08dd 00       		.byte	0
 6321 08de 00       		.byte	0
 6322 08df 02       		.uleb128 0x2
 6323 08e0 6D0E0000 		.4byte	.LASF141
 6324 08e4 09       		.byte	0x9
 6325 08e5 70       		.byte	0x70
 6326 08e6 CA080000 		.4byte	0x8ca
 6327 08ea 02       		.uleb128 0x2
 6328 08eb 49010000 		.4byte	.LASF142
ARM GAS  /var/folders/28/j9jfyj_n4wz3qtvnym210h2c0000gn/T//ccpoR13X.s 			page 113


 6329 08ef 0B       		.byte	0xb
 6330 08f0 E5       		.byte	0xe5
 6331 08f1 A6030000 		.4byte	0x3a6
 6332 08f5 02       		.uleb128 0x2
 6333 08f6 450D0000 		.4byte	.LASF143
 6334 08fa 0B       		.byte	0xb
 6335 08fb EB       		.byte	0xeb
 6336 08fc E4000000 		.4byte	0xe4
 6337 0900 16       		.uleb128 0x16
 6338 0901 15090000 		.4byte	.LASF144
 6339 0905 64       		.byte	0x64
 6340 0906 0B       		.byte	0xb
 6341 0907 0C01     		.2byte	0x10c
 6342 0909 4C0A0000 		.4byte	0xa4c
 6343 090d 17       		.uleb128 0x17
 6344 090e 73313600 		.ascii	"s16\000"
 6345 0912 0B       		.byte	0xb
 6346 0913 0E01     		.2byte	0x10e
 6347 0915 EA080000 		.4byte	0x8ea
 6348 0919 00       		.byte	0
 6349 091a 17       		.uleb128 0x17
 6350 091b 73313700 		.ascii	"s17\000"
 6351 091f 0B       		.byte	0xb
 6352 0920 0F01     		.2byte	0x10f
 6353 0922 EA080000 		.4byte	0x8ea
 6354 0926 04       		.byte	0x4
 6355 0927 17       		.uleb128 0x17
 6356 0928 73313800 		.ascii	"s18\000"
 6357 092c 0B       		.byte	0xb
 6358 092d 1001     		.2byte	0x110
 6359 092f EA080000 		.4byte	0x8ea
 6360 0933 08       		.byte	0x8
 6361 0934 17       		.uleb128 0x17
 6362 0935 73313900 		.ascii	"s19\000"
 6363 0939 0B       		.byte	0xb
 6364 093a 1101     		.2byte	0x111
 6365 093c EA080000 		.4byte	0x8ea
 6366 0940 0C       		.byte	0xc
 6367 0941 17       		.uleb128 0x17
 6368 0942 73323000 		.ascii	"s20\000"
 6369 0946 0B       		.byte	0xb
 6370 0947 1201     		.2byte	0x112
 6371 0949 EA080000 		.4byte	0x8ea
 6372 094d 10       		.byte	0x10
 6373 094e 17       		.uleb128 0x17
 6374 094f 73323100 		.ascii	"s21\000"
 6375 0953 0B       		.byte	0xb
 6376 0954 1301     		.2byte	0x113
 6377 0956 EA080000 		.4byte	0x8ea
 6378 095a 14       		.byte	0x14
 6379 095b 17       		.uleb128 0x17
 6380 095c 73323200 		.ascii	"s22\000"
 6381 0960 0B       		.byte	0xb
 6382 0961 1401     		.2byte	0x114
 6383 0963 EA080000 		.4byte	0x8ea
 6384 0967 18       		.byte	0x18
 6385 0968 17       		.uleb128 0x17
ARM GAS  /var/folders/28/j9jfyj_n4wz3qtvnym210h2c0000gn/T//ccpoR13X.s 			page 114


 6386 0969 73323300 		.ascii	"s23\000"
 6387 096d 0B       		.byte	0xb
 6388 096e 1501     		.2byte	0x115
 6389 0970 EA080000 		.4byte	0x8ea
 6390 0974 1C       		.byte	0x1c
 6391 0975 17       		.uleb128 0x17
 6392 0976 73323400 		.ascii	"s24\000"
 6393 097a 0B       		.byte	0xb
 6394 097b 1601     		.2byte	0x116
 6395 097d EA080000 		.4byte	0x8ea
 6396 0981 20       		.byte	0x20
 6397 0982 17       		.uleb128 0x17
 6398 0983 73323500 		.ascii	"s25\000"
 6399 0987 0B       		.byte	0xb
 6400 0988 1701     		.2byte	0x117
 6401 098a EA080000 		.4byte	0x8ea
 6402 098e 24       		.byte	0x24
 6403 098f 17       		.uleb128 0x17
 6404 0990 73323600 		.ascii	"s26\000"
 6405 0994 0B       		.byte	0xb
 6406 0995 1801     		.2byte	0x118
 6407 0997 EA080000 		.4byte	0x8ea
 6408 099b 28       		.byte	0x28
 6409 099c 17       		.uleb128 0x17
 6410 099d 73323700 		.ascii	"s27\000"
 6411 09a1 0B       		.byte	0xb
 6412 09a2 1901     		.2byte	0x119
 6413 09a4 EA080000 		.4byte	0x8ea
 6414 09a8 2C       		.byte	0x2c
 6415 09a9 17       		.uleb128 0x17
 6416 09aa 73323800 		.ascii	"s28\000"
 6417 09ae 0B       		.byte	0xb
 6418 09af 1A01     		.2byte	0x11a
 6419 09b1 EA080000 		.4byte	0x8ea
 6420 09b5 30       		.byte	0x30
 6421 09b6 17       		.uleb128 0x17
 6422 09b7 73323900 		.ascii	"s29\000"
 6423 09bb 0B       		.byte	0xb
 6424 09bc 1B01     		.2byte	0x11b
 6425 09be EA080000 		.4byte	0x8ea
 6426 09c2 34       		.byte	0x34
 6427 09c3 17       		.uleb128 0x17
 6428 09c4 73333000 		.ascii	"s30\000"
 6429 09c8 0B       		.byte	0xb
 6430 09c9 1C01     		.2byte	0x11c
 6431 09cb EA080000 		.4byte	0x8ea
 6432 09cf 38       		.byte	0x38
 6433 09d0 17       		.uleb128 0x17
 6434 09d1 73333100 		.ascii	"s31\000"
 6435 09d5 0B       		.byte	0xb
 6436 09d6 1D01     		.2byte	0x11d
 6437 09d8 EA080000 		.4byte	0x8ea
 6438 09dc 3C       		.byte	0x3c
 6439 09dd 17       		.uleb128 0x17
 6440 09de 723400   		.ascii	"r4\000"
 6441 09e1 0B       		.byte	0xb
 6442 09e2 1F01     		.2byte	0x11f
ARM GAS  /var/folders/28/j9jfyj_n4wz3qtvnym210h2c0000gn/T//ccpoR13X.s 			page 115


 6443 09e4 EA080000 		.4byte	0x8ea
 6444 09e8 40       		.byte	0x40
 6445 09e9 17       		.uleb128 0x17
 6446 09ea 723500   		.ascii	"r5\000"
 6447 09ed 0B       		.byte	0xb
 6448 09ee 2001     		.2byte	0x120
 6449 09f0 EA080000 		.4byte	0x8ea
 6450 09f4 44       		.byte	0x44
 6451 09f5 17       		.uleb128 0x17
 6452 09f6 723600   		.ascii	"r6\000"
 6453 09f9 0B       		.byte	0xb
 6454 09fa 2101     		.2byte	0x121
 6455 09fc EA080000 		.4byte	0x8ea
 6456 0a00 48       		.byte	0x48
 6457 0a01 17       		.uleb128 0x17
 6458 0a02 723700   		.ascii	"r7\000"
 6459 0a05 0B       		.byte	0xb
 6460 0a06 2201     		.2byte	0x122
 6461 0a08 EA080000 		.4byte	0x8ea
 6462 0a0c 4C       		.byte	0x4c
 6463 0a0d 17       		.uleb128 0x17
 6464 0a0e 723800   		.ascii	"r8\000"
 6465 0a11 0B       		.byte	0xb
 6466 0a12 2301     		.2byte	0x123
 6467 0a14 EA080000 		.4byte	0x8ea
 6468 0a18 50       		.byte	0x50
 6469 0a19 17       		.uleb128 0x17
 6470 0a1a 723900   		.ascii	"r9\000"
 6471 0a1d 0B       		.byte	0xb
 6472 0a1e 2401     		.2byte	0x124
 6473 0a20 EA080000 		.4byte	0x8ea
 6474 0a24 54       		.byte	0x54
 6475 0a25 17       		.uleb128 0x17
 6476 0a26 72313000 		.ascii	"r10\000"
 6477 0a2a 0B       		.byte	0xb
 6478 0a2b 2501     		.2byte	0x125
 6479 0a2d EA080000 		.4byte	0x8ea
 6480 0a31 58       		.byte	0x58
 6481 0a32 17       		.uleb128 0x17
 6482 0a33 72313100 		.ascii	"r11\000"
 6483 0a37 0B       		.byte	0xb
 6484 0a38 2601     		.2byte	0x126
 6485 0a3a EA080000 		.4byte	0x8ea
 6486 0a3e 5C       		.byte	0x5c
 6487 0a3f 17       		.uleb128 0x17
 6488 0a40 6C7200   		.ascii	"lr\000"
 6489 0a43 0B       		.byte	0xb
 6490 0a44 2701     		.2byte	0x127
 6491 0a46 EA080000 		.4byte	0x8ea
 6492 0a4a 60       		.byte	0x60
 6493 0a4b 00       		.byte	0
 6494 0a4c 16       		.uleb128 0x16
 6495 0a4d 86070000 		.4byte	.LASF145
 6496 0a51 04       		.byte	0x4
 6497 0a52 0B       		.byte	0xb
 6498 0a53 3101     		.2byte	0x131
 6499 0a55 670A0000 		.4byte	0xa67
ARM GAS  /var/folders/28/j9jfyj_n4wz3qtvnym210h2c0000gn/T//ccpoR13X.s 			page 116


 6500 0a59 17       		.uleb128 0x17
 6501 0a5a 72313300 		.ascii	"r13\000"
 6502 0a5e 0B       		.byte	0xb
 6503 0a5f 3201     		.2byte	0x132
 6504 0a61 670A0000 		.4byte	0xa67
 6505 0a65 00       		.byte	0
 6506 0a66 00       		.byte	0
 6507 0a67 09       		.uleb128 0x9
 6508 0a68 04       		.byte	0x4
 6509 0a69 00090000 		.4byte	0x900
 6510 0a6d 0A       		.uleb128 0xa
 6511 0a6e 1C       		.byte	0x1c
 6512 0a6f 0C       		.byte	0xc
 6513 0a70 5E       		.byte	0x5e
 6514 0a71 BE0A0000 		.4byte	0xabe
 6515 0a75 06       		.uleb128 0x6
 6516 0a76 4D070000 		.4byte	.LASF146
 6517 0a7a 0C       		.byte	0xc
 6518 0a7b 5F       		.byte	0x5f
 6519 0a7c BF080000 		.4byte	0x8bf
 6520 0a80 00       		.byte	0
 6521 0a81 06       		.uleb128 0x6
 6522 0a82 48030000 		.4byte	.LASF147
 6523 0a86 0C       		.byte	0xc
 6524 0a87 60       		.byte	0x60
 6525 0a88 7D070000 		.4byte	0x77d
 6526 0a8c 08       		.byte	0x8
 6527 0a8d 06       		.uleb128 0x6
 6528 0a8e 3F0D0000 		.4byte	.LASF148
 6529 0a92 0C       		.byte	0xc
 6530 0a93 62       		.byte	0x62
 6531 0a94 4C0A0000 		.4byte	0xa4c
 6532 0a98 0C       		.byte	0xc
 6533 0a99 06       		.uleb128 0x6
 6534 0a9a 30060000 		.4byte	.LASF149
 6535 0a9e 0C       		.byte	0xc
 6536 0a9f 65       		.byte	0x65
 6537 0aa0 B9080000 		.4byte	0x8b9
 6538 0aa4 10       		.byte	0x10
 6539 0aa5 06       		.uleb128 0x6
 6540 0aa6 25080000 		.4byte	.LASF150
 6541 0aaa 0C       		.byte	0xc
 6542 0aab 66       		.byte	0x66
 6543 0aac B9080000 		.4byte	0x8b9
 6544 0ab0 14       		.byte	0x14
 6545 0ab1 06       		.uleb128 0x6
 6546 0ab2 9F090000 		.4byte	.LASF151
 6547 0ab6 0C       		.byte	0xc
 6548 0ab7 69       		.byte	0x69
 6549 0ab8 B9080000 		.4byte	0x8b9
 6550 0abc 18       		.byte	0x18
 6551 0abd 00       		.byte	0
 6552 0abe 02       		.uleb128 0x2
 6553 0abf 0D0C0000 		.4byte	.LASF152
 6554 0ac3 0C       		.byte	0xc
 6555 0ac4 6B       		.byte	0x6b
 6556 0ac5 6D0A0000 		.4byte	0xa6d
ARM GAS  /var/folders/28/j9jfyj_n4wz3qtvnym210h2c0000gn/T//ccpoR13X.s 			page 117


 6557 0ac9 05       		.uleb128 0x5
 6558 0aca 1B080000 		.4byte	.LASF153
 6559 0ace 0C       		.byte	0xc
 6560 0acf 0D       		.byte	0xd
 6561 0ad0 2C       		.byte	0x2c
 6562 0ad1 EE0A0000 		.4byte	0xaee
 6563 0ad5 06       		.uleb128 0x6
 6564 0ad6 BB010000 		.4byte	.LASF154
 6565 0ada 0D       		.byte	0xd
 6566 0adb 2D       		.byte	0x2d
 6567 0adc BF080000 		.4byte	0x8bf
 6568 0ae0 00       		.byte	0
 6569 0ae1 06       		.uleb128 0x6
 6570 0ae2 E5020000 		.4byte	.LASF155
 6571 0ae6 0D       		.byte	0xd
 6572 0ae7 2F       		.byte	0x2f
 6573 0ae8 A9070000 		.4byte	0x7a9
 6574 0aec 08       		.byte	0x8
 6575 0aed 00       		.byte	0
 6576 0aee 02       		.uleb128 0x2
 6577 0aef 1B080000 		.4byte	.LASF153
 6578 0af3 0D       		.byte	0xd
 6579 0af4 30       		.byte	0x30
 6580 0af5 C90A0000 		.4byte	0xac9
 6581 0af9 05       		.uleb128 0x5
 6582 0afa 8F050000 		.4byte	.LASF156
 6583 0afe 10       		.byte	0x10
 6584 0aff 0E       		.byte	0xe
 6585 0b00 2C       		.byte	0x2c
 6586 0b01 2A0B0000 		.4byte	0xb2a
 6587 0b05 06       		.uleb128 0x6
 6588 0b06 B4090000 		.4byte	.LASF157
 6589 0b0a 0E       		.byte	0xe
 6590 0b0b 2D       		.byte	0x2d
 6591 0b0c BF080000 		.4byte	0x8bf
 6592 0b10 00       		.byte	0
 6593 0b11 06       		.uleb128 0x6
 6594 0b12 B3010000 		.4byte	.LASF158
 6595 0b16 0E       		.byte	0xe
 6596 0b17 2F       		.byte	0x2f
 6597 0b18 B9080000 		.4byte	0x8b9
 6598 0b1c 08       		.byte	0x8
 6599 0b1d 06       		.uleb128 0x6
 6600 0b1e 0C0D0000 		.4byte	.LASF159
 6601 0b22 0E       		.byte	0xe
 6602 0b23 31       		.byte	0x31
 6603 0b24 2A0B0000 		.4byte	0xb2a
 6604 0b28 0C       		.byte	0xc
 6605 0b29 00       		.byte	0
 6606 0b2a 09       		.uleb128 0x9
 6607 0b2b 04       		.byte	0x4
 6608 0b2c F90A0000 		.4byte	0xaf9
 6609 0b30 02       		.uleb128 0x2
 6610 0b31 8F050000 		.4byte	.LASF156
 6611 0b35 0E       		.byte	0xe
 6612 0b36 33       		.byte	0x33
 6613 0b37 F90A0000 		.4byte	0xaf9
ARM GAS  /var/folders/28/j9jfyj_n4wz3qtvnym210h2c0000gn/T//ccpoR13X.s 			page 118


 6614 0b3b 0C       		.uleb128 0xc
 6615 0b3c 04       		.byte	0x4
 6616 0b3d 0A       		.byte	0xa
 6617 0b3e 96       		.byte	0x96
 6618 0b3f 700B0000 		.4byte	0xb70
 6619 0b43 0D       		.uleb128 0xd
 6620 0b44 CA040000 		.4byte	.LASF160
 6621 0b48 0A       		.byte	0xa
 6622 0b49 9D       		.byte	0x9d
 6623 0b4a 88070000 		.4byte	0x788
 6624 0b4e 0D       		.uleb128 0xd
 6625 0b4f 310E0000 		.4byte	.LASF161
 6626 0b53 0A       		.byte	0xa
 6627 0b54 A4       		.byte	0xa4
 6628 0b55 88070000 		.4byte	0x788
 6629 0b59 0D       		.uleb128 0xd
 6630 0b5a 63020000 		.4byte	.LASF162
 6631 0b5e 0A       		.byte	0xa
 6632 0b5f AB       		.byte	0xab
 6633 0b60 A6030000 		.4byte	0x3a6
 6634 0b64 0D       		.uleb128 0xd
 6635 0b65 A7020000 		.4byte	.LASF163
 6636 0b69 0A       		.byte	0xa
 6637 0b6a B2       		.byte	0xb2
 6638 0b6b 93070000 		.4byte	0x793
 6639 0b6f 00       		.byte	0
 6640 0b70 09       		.uleb128 0x9
 6641 0b71 04       		.byte	0x4
 6642 0b72 300B0000 		.4byte	0xb30
 6643 0b76 02       		.uleb128 0x2
 6644 0b77 B2030000 		.4byte	.LASF164
 6645 0b7b 0A       		.byte	0xa
 6646 0b7c E5       		.byte	0xe5
 6647 0b7d 810B0000 		.4byte	0xb81
 6648 0b81 09       		.uleb128 0x9
 6649 0b82 04       		.byte	0x4
 6650 0b83 870B0000 		.4byte	0xb87
 6651 0b87 18       		.uleb128 0x18
 6652 0b88 88070000 		.4byte	0x788
 6653 0b8c 960B0000 		.4byte	0xb96
 6654 0b90 08       		.uleb128 0x8
 6655 0b91 A6030000 		.4byte	0x3a6
 6656 0b95 00       		.byte	0
 6657 0b96 19       		.uleb128 0x19
 6658 0b97 CE000000 		.4byte	0xce
 6659 0b9b 1A       		.uleb128 0x1a
 6660 0b9c D9000000 		.4byte	0xd9
 6661 0ba0 AB0B0000 		.4byte	0xbab
 6662 0ba4 1B       		.uleb128 0x1b
 6663 0ba5 EF000000 		.4byte	0xef
 6664 0ba9 FF       		.byte	0xff
 6665 0baa 00       		.byte	0
 6666 0bab 09       		.uleb128 0x9
 6667 0bac 04       		.byte	0x4
 6668 0bad 2D070000 		.4byte	0x72d
 6669 0bb1 03       		.uleb128 0x3
 6670 0bb2 08       		.byte	0x8
ARM GAS  /var/folders/28/j9jfyj_n4wz3qtvnym210h2c0000gn/T//ccpoR13X.s 			page 119


 6671 0bb3 04       		.byte	0x4
 6672 0bb4 8E0D0000 		.4byte	.LASF165
 6673 0bb8 03       		.uleb128 0x3
 6674 0bb9 08       		.byte	0x8
 6675 0bba 04       		.byte	0x4
 6676 0bbb F2080000 		.4byte	.LASF166
 6677 0bbf 02       		.uleb128 0x2
 6678 0bc0 030B0000 		.4byte	.LASF167
 6679 0bc4 0F       		.byte	0xf
 6680 0bc5 11       		.byte	0x11
 6681 0bc6 A6000000 		.4byte	0xa6
 6682 0bca 02       		.uleb128 0x2
 6683 0bcb BF070000 		.4byte	.LASF168
 6684 0bcf 0F       		.byte	0xf
 6685 0bd0 16       		.byte	0x16
 6686 0bd1 42000000 		.4byte	0x42
 6687 0bd5 02       		.uleb128 0x2
 6688 0bd6 CE070000 		.4byte	.LASF169
 6689 0bda 0F       		.byte	0xf
 6690 0bdb 1B       		.byte	0x1b
 6691 0bdc 5B000000 		.4byte	0x5b
 6692 0be0 02       		.uleb128 0x2
 6693 0be1 07030000 		.4byte	.LASF170
 6694 0be5 0F       		.byte	0xf
 6695 0be6 1C       		.byte	0x1c
 6696 0be7 5B000000 		.4byte	0x5b
 6697 0beb 02       		.uleb128 0x2
 6698 0bec AC030000 		.4byte	.LASF171
 6699 0bf0 0F       		.byte	0xf
 6700 0bf1 21       		.byte	0x21
 6701 0bf2 7F000000 		.4byte	0x7f
 6702 0bf6 02       		.uleb128 0x2
 6703 0bf7 BA030000 		.4byte	.LASF172
 6704 0bfb 10       		.byte	0x10
 6705 0bfc 42       		.byte	0x42
 6706 0bfd 2D070000 		.4byte	0x72d
 6707 0c01 1C       		.uleb128 0x1c
 6708 0c02 3802     		.2byte	0x238
 6709 0c04 10       		.byte	0x10
 6710 0c05 4D       		.byte	0x4d
 6711 0c06 FA0C0000 		.4byte	0xcfa
 6712 0c0a 06       		.uleb128 0x6
 6713 0c0b 3D050000 		.4byte	.LASF173
 6714 0c0f 10       		.byte	0x10
 6715 0c10 4E       		.byte	0x4e
 6716 0c11 CA0B0000 		.4byte	0xbca
 6717 0c15 00       		.byte	0
 6718 0c16 10       		.uleb128 0x10
 6719 0c17 64727600 		.ascii	"drv\000"
 6720 0c1b 10       		.byte	0x10
 6721 0c1c 4F       		.byte	0x4f
 6722 0c1d CA0B0000 		.4byte	0xbca
 6723 0c21 01       		.byte	0x1
 6724 0c22 06       		.uleb128 0x6
 6725 0c23 D3070000 		.4byte	.LASF174
 6726 0c27 10       		.byte	0x10
 6727 0c28 50       		.byte	0x50
ARM GAS  /var/folders/28/j9jfyj_n4wz3qtvnym210h2c0000gn/T//ccpoR13X.s 			page 120


 6728 0c29 CA0B0000 		.4byte	0xbca
 6729 0c2d 02       		.byte	0x2
 6730 0c2e 06       		.uleb128 0x6
 6731 0c2f 0A020000 		.4byte	.LASF175
 6732 0c33 10       		.byte	0x10
 6733 0c34 51       		.byte	0x51
 6734 0c35 CA0B0000 		.4byte	0xbca
 6735 0c39 03       		.byte	0x3
 6736 0c3a 06       		.uleb128 0x6
 6737 0c3b 97020000 		.4byte	.LASF176
 6738 0c3f 10       		.byte	0x10
 6739 0c40 52       		.byte	0x52
 6740 0c41 CA0B0000 		.4byte	0xbca
 6741 0c45 04       		.byte	0x4
 6742 0c46 06       		.uleb128 0x6
 6743 0c47 33030000 		.4byte	.LASF177
 6744 0c4b 10       		.byte	0x10
 6745 0c4c 53       		.byte	0x53
 6746 0c4d CA0B0000 		.4byte	0xbca
 6747 0c51 05       		.byte	0x5
 6748 0c52 10       		.uleb128 0x10
 6749 0c53 696400   		.ascii	"id\000"
 6750 0c56 10       		.byte	0x10
 6751 0c57 54       		.byte	0x54
 6752 0c58 D50B0000 		.4byte	0xbd5
 6753 0c5c 06       		.byte	0x6
 6754 0c5d 06       		.uleb128 0x6
 6755 0c5e 080B0000 		.4byte	.LASF178
 6756 0c62 10       		.byte	0x10
 6757 0c63 55       		.byte	0x55
 6758 0c64 D50B0000 		.4byte	0xbd5
 6759 0c68 08       		.byte	0x8
 6760 0c69 06       		.uleb128 0x6
 6761 0c6a 8A050000 		.4byte	.LASF179
 6762 0c6e 10       		.byte	0x10
 6763 0c6f 5A       		.byte	0x5a
 6764 0c70 FA0C0000 		.4byte	0xcfa
 6765 0c74 0C       		.byte	0xc
 6766 0c75 06       		.uleb128 0x6
 6767 0c76 A5060000 		.4byte	.LASF180
 6768 0c7a 10       		.byte	0x10
 6769 0c7b 5D       		.byte	0x5d
 6770 0c7c EB0B0000 		.4byte	0xbeb
 6771 0c80 10       		.byte	0x10
 6772 0c81 06       		.uleb128 0x6
 6773 0c82 CA060000 		.4byte	.LASF181
 6774 0c86 10       		.byte	0x10
 6775 0c87 5E       		.byte	0x5e
 6776 0c88 EB0B0000 		.4byte	0xbeb
 6777 0c8c 14       		.byte	0x14
 6778 0c8d 06       		.uleb128 0x6
 6779 0c8e B0060000 		.4byte	.LASF182
 6780 0c92 10       		.byte	0x10
 6781 0c93 5F       		.byte	0x5f
 6782 0c94 EB0B0000 		.4byte	0xbeb
 6783 0c98 18       		.byte	0x18
 6784 0c99 06       		.uleb128 0x6
ARM GAS  /var/folders/28/j9jfyj_n4wz3qtvnym210h2c0000gn/T//ccpoR13X.s 			page 121


 6785 0c9a 45050000 		.4byte	.LASF183
 6786 0c9e 10       		.byte	0x10
 6787 0c9f 62       		.byte	0x62
 6788 0ca0 EB0B0000 		.4byte	0xbeb
 6789 0ca4 1C       		.byte	0x1c
 6790 0ca5 06       		.uleb128 0x6
 6791 0ca6 36080000 		.4byte	.LASF184
 6792 0caa 10       		.byte	0x10
 6793 0cab 64       		.byte	0x64
 6794 0cac EB0B0000 		.4byte	0xbeb
 6795 0cb0 20       		.byte	0x20
 6796 0cb1 06       		.uleb128 0x6
 6797 0cb2 47070000 		.4byte	.LASF185
 6798 0cb6 10       		.byte	0x10
 6799 0cb7 65       		.byte	0x65
 6800 0cb8 EB0B0000 		.4byte	0xbeb
 6801 0cbc 24       		.byte	0x24
 6802 0cbd 06       		.uleb128 0x6
 6803 0cbe 54040000 		.4byte	.LASF186
 6804 0cc2 10       		.byte	0x10
 6805 0cc3 66       		.byte	0x66
 6806 0cc4 EB0B0000 		.4byte	0xbeb
 6807 0cc8 28       		.byte	0x28
 6808 0cc9 06       		.uleb128 0x6
 6809 0cca D60A0000 		.4byte	.LASF187
 6810 0cce 10       		.byte	0x10
 6811 0ccf 67       		.byte	0x67
 6812 0cd0 EB0B0000 		.4byte	0xbeb
 6813 0cd4 2C       		.byte	0x2c
 6814 0cd5 06       		.uleb128 0x6
 6815 0cd6 23040000 		.4byte	.LASF188
 6816 0cda 10       		.byte	0x10
 6817 0cdb 68       		.byte	0x68
 6818 0cdc EB0B0000 		.4byte	0xbeb
 6819 0ce0 30       		.byte	0x30
 6820 0ce1 06       		.uleb128 0x6
 6821 0ce2 6A020000 		.4byte	.LASF189
 6822 0ce6 10       		.byte	0x10
 6823 0ce7 69       		.byte	0x69
 6824 0ce8 EB0B0000 		.4byte	0xbeb
 6825 0cec 34       		.byte	0x34
 6826 0ced 10       		.uleb128 0x10
 6827 0cee 77696E00 		.ascii	"win\000"
 6828 0cf2 10       		.byte	0x10
 6829 0cf3 6A       		.byte	0x6a
 6830 0cf4 000D0000 		.4byte	0xd00
 6831 0cf8 38       		.byte	0x38
 6832 0cf9 00       		.byte	0
 6833 0cfa 09       		.uleb128 0x9
 6834 0cfb 04       		.byte	0x4
 6835 0cfc EE0A0000 		.4byte	0xaee
 6836 0d00 1A       		.uleb128 0x1a
 6837 0d01 CA0B0000 		.4byte	0xbca
 6838 0d05 110D0000 		.4byte	0xd11
 6839 0d09 1D       		.uleb128 0x1d
 6840 0d0a EF000000 		.4byte	0xef
 6841 0d0e FF01     		.2byte	0x1ff
ARM GAS  /var/folders/28/j9jfyj_n4wz3qtvnym210h2c0000gn/T//ccpoR13X.s 			page 122


 6842 0d10 00       		.byte	0
 6843 0d11 02       		.uleb128 0x2
 6844 0d12 91010000 		.4byte	.LASF190
 6845 0d16 10       		.byte	0x10
 6846 0d17 6B       		.byte	0x6b
 6847 0d18 010C0000 		.4byte	0xc01
 6848 0d1c 09       		.uleb128 0x9
 6849 0d1d 04       		.byte	0x4
 6850 0d1e 110D0000 		.4byte	0xd11
 6851 0d22 09       		.uleb128 0x9
 6852 0d23 04       		.byte	0x4
 6853 0d24 CA0B0000 		.4byte	0xbca
 6854 0d28 0A       		.uleb128 0xa
 6855 0d29 24       		.byte	0x24
 6856 0d2a 10       		.byte	0x10
 6857 0d2b 8E       		.byte	0x8e
 6858 0d2c A60D0000 		.4byte	0xda6
 6859 0d30 10       		.uleb128 0x10
 6860 0d31 667300   		.ascii	"fs\000"
 6861 0d34 10       		.byte	0x10
 6862 0d35 8F       		.byte	0x8f
 6863 0d36 1C0D0000 		.4byte	0xd1c
 6864 0d3a 00       		.byte	0
 6865 0d3b 10       		.uleb128 0x10
 6866 0d3c 696400   		.ascii	"id\000"
 6867 0d3f 10       		.byte	0x10
 6868 0d40 90       		.byte	0x90
 6869 0d41 D50B0000 		.4byte	0xbd5
 6870 0d45 04       		.byte	0x4
 6871 0d46 06       		.uleb128 0x6
 6872 0d47 A6030000 		.4byte	.LASF191
 6873 0d4b 10       		.byte	0x10
 6874 0d4c 91       		.byte	0x91
 6875 0d4d D50B0000 		.4byte	0xbd5
 6876 0d51 06       		.byte	0x6
 6877 0d52 06       		.uleb128 0x6
 6878 0d53 790E0000 		.4byte	.LASF192
 6879 0d57 10       		.byte	0x10
 6880 0d58 92       		.byte	0x92
 6881 0d59 EB0B0000 		.4byte	0xbeb
 6882 0d5d 08       		.byte	0x8
 6883 0d5e 06       		.uleb128 0x6
 6884 0d5f E20B0000 		.4byte	.LASF193
 6885 0d63 10       		.byte	0x10
 6886 0d64 93       		.byte	0x93
 6887 0d65 EB0B0000 		.4byte	0xbeb
 6888 0d69 0C       		.byte	0xc
 6889 0d6a 06       		.uleb128 0x6
 6890 0d6b C5060000 		.4byte	.LASF194
 6891 0d6f 10       		.byte	0x10
 6892 0d70 94       		.byte	0x94
 6893 0d71 EB0B0000 		.4byte	0xbeb
 6894 0d75 10       		.byte	0x10
 6895 0d76 10       		.uleb128 0x10
 6896 0d77 64697200 		.ascii	"dir\000"
 6897 0d7b 10       		.byte	0x10
 6898 0d7c 95       		.byte	0x95
ARM GAS  /var/folders/28/j9jfyj_n4wz3qtvnym210h2c0000gn/T//ccpoR13X.s 			page 123


 6899 0d7d 220D0000 		.4byte	0xd22
 6900 0d81 14       		.byte	0x14
 6901 0d82 10       		.uleb128 0x10
 6902 0d83 666E00   		.ascii	"fn\000"
 6903 0d86 10       		.byte	0x10
 6904 0d87 96       		.byte	0x96
 6905 0d88 220D0000 		.4byte	0xd22
 6906 0d8c 18       		.byte	0x18
 6907 0d8d 10       		.uleb128 0x10
 6908 0d8e 6C666E00 		.ascii	"lfn\000"
 6909 0d92 10       		.byte	0x10
 6910 0d93 98       		.byte	0x98
 6911 0d94 A60D0000 		.4byte	0xda6
 6912 0d98 1C       		.byte	0x1c
 6913 0d99 06       		.uleb128 0x6
 6914 0d9a 7C030000 		.4byte	.LASF195
 6915 0d9e 10       		.byte	0x10
 6916 0d9f 99       		.byte	0x99
 6917 0da0 D50B0000 		.4byte	0xbd5
 6918 0da4 20       		.byte	0x20
 6919 0da5 00       		.byte	0
 6920 0da6 09       		.uleb128 0x9
 6921 0da7 04       		.byte	0x4
 6922 0da8 E00B0000 		.4byte	0xbe0
 6923 0dac 1E       		.uleb128 0x1e
 6924 0dad 44495200 		.ascii	"DIR\000"
 6925 0db1 10       		.byte	0x10
 6926 0db2 9B       		.byte	0x9b
 6927 0db3 280D0000 		.4byte	0xd28
 6928 0db7 0A       		.uleb128 0xa
 6929 0db8 20       		.byte	0x20
 6930 0db9 10       		.byte	0x10
 6931 0dba A1       		.byte	0xa1
 6932 0dbb 140E0000 		.4byte	0xe14
 6933 0dbf 06       		.uleb128 0x6
 6934 0dc0 47070000 		.4byte	.LASF185
 6935 0dc4 10       		.byte	0x10
 6936 0dc5 A2       		.byte	0xa2
 6937 0dc6 EB0B0000 		.4byte	0xbeb
 6938 0dca 00       		.byte	0
 6939 0dcb 06       		.uleb128 0x6
 6940 0dcc 45040000 		.4byte	.LASF196
 6941 0dd0 10       		.byte	0x10
 6942 0dd1 A3       		.byte	0xa3
 6943 0dd2 D50B0000 		.4byte	0xbd5
 6944 0dd6 04       		.byte	0x4
 6945 0dd7 06       		.uleb128 0x6
 6946 0dd8 BF050000 		.4byte	.LASF197
 6947 0ddc 10       		.byte	0x10
 6948 0ddd A4       		.byte	0xa4
 6949 0dde D50B0000 		.4byte	0xbd5
 6950 0de2 06       		.byte	0x6
 6951 0de3 06       		.uleb128 0x6
 6952 0de4 DE0A0000 		.4byte	.LASF198
 6953 0de8 10       		.byte	0x10
 6954 0de9 A5       		.byte	0xa5
 6955 0dea CA0B0000 		.4byte	0xbca
ARM GAS  /var/folders/28/j9jfyj_n4wz3qtvnym210h2c0000gn/T//ccpoR13X.s 			page 124


 6956 0dee 08       		.byte	0x8
 6957 0def 06       		.uleb128 0x6
 6958 0df0 6C080000 		.4byte	.LASF199
 6959 0df4 10       		.byte	0x10
 6960 0df5 A6       		.byte	0xa6
 6961 0df6 140E0000 		.4byte	0xe14
 6962 0dfa 09       		.byte	0x9
 6963 0dfb 06       		.uleb128 0x6
 6964 0dfc AE0B0000 		.4byte	.LASF200
 6965 0e00 10       		.byte	0x10
 6966 0e01 A8       		.byte	0xa8
 6967 0e02 240E0000 		.4byte	0xe24
 6968 0e06 18       		.byte	0x18
 6969 0e07 06       		.uleb128 0x6
 6970 0e08 FC050000 		.4byte	.LASF201
 6971 0e0c 10       		.byte	0x10
 6972 0e0d A9       		.byte	0xa9
 6973 0e0e BF0B0000 		.4byte	0xbbf
 6974 0e12 1C       		.byte	0x1c
 6975 0e13 00       		.byte	0
 6976 0e14 1A       		.uleb128 0x1a
 6977 0e15 F60B0000 		.4byte	0xbf6
 6978 0e19 240E0000 		.4byte	0xe24
 6979 0e1d 1B       		.uleb128 0x1b
 6980 0e1e EF000000 		.4byte	0xef
 6981 0e22 0C       		.byte	0xc
 6982 0e23 00       		.byte	0
 6983 0e24 09       		.uleb128 0x9
 6984 0e25 04       		.byte	0x4
 6985 0e26 F60B0000 		.4byte	0xbf6
 6986 0e2a 02       		.uleb128 0x2
 6987 0e2b 290E0000 		.4byte	.LASF202
 6988 0e2f 10       		.byte	0x10
 6989 0e30 AB       		.byte	0xab
 6990 0e31 B70D0000 		.4byte	0xdb7
 6991 0e35 11       		.uleb128 0x11
 6992 0e36 01       		.byte	0x1
 6993 0e37 10       		.byte	0x10
 6994 0e38 B1       		.byte	0xb1
 6995 0e39 B60E0000 		.4byte	0xeb6
 6996 0e3d 12       		.uleb128 0x12
 6997 0e3e C90B0000 		.4byte	.LASF203
 6998 0e42 00       		.sleb128 0
 6999 0e43 12       		.uleb128 0x12
 7000 0e44 6F090000 		.4byte	.LASF204
 7001 0e48 01       		.sleb128 1
 7002 0e49 12       		.uleb128 0x12
 7003 0e4a EA030000 		.4byte	.LASF205
 7004 0e4e 02       		.sleb128 2
 7005 0e4f 12       		.uleb128 0x12
 7006 0e50 84010000 		.4byte	.LASF206
 7007 0e54 03       		.sleb128 3
 7008 0e55 12       		.uleb128 0x12
 7009 0e56 B4070000 		.4byte	.LASF207
 7010 0e5a 04       		.sleb128 4
 7011 0e5b 12       		.uleb128 0x12
 7012 0e5c 43090000 		.4byte	.LASF208
ARM GAS  /var/folders/28/j9jfyj_n4wz3qtvnym210h2c0000gn/T//ccpoR13X.s 			page 125


 7013 0e60 05       		.sleb128 5
 7014 0e61 12       		.uleb128 0x12
 7015 0e62 A8050000 		.4byte	.LASF209
 7016 0e66 06       		.sleb128 6
 7017 0e67 12       		.uleb128 0x12
 7018 0e68 93080000 		.4byte	.LASF210
 7019 0e6c 07       		.sleb128 7
 7020 0e6d 12       		.uleb128 0x12
 7021 0e6e BA040000 		.4byte	.LASF211
 7022 0e72 08       		.sleb128 8
 7023 0e73 12       		.uleb128 0x12
 7024 0e74 03050000 		.4byte	.LASF212
 7025 0e78 09       		.sleb128 9
 7026 0e79 12       		.uleb128 0x12
 7027 0e7a 160E0000 		.4byte	.LASF213
 7028 0e7e 0A       		.sleb128 10
 7029 0e7f 12       		.uleb128 0x12
 7030 0e80 F9010000 		.4byte	.LASF214
 7031 0e84 0B       		.sleb128 11
 7032 0e85 12       		.uleb128 0x12
 7033 0e86 49060000 		.4byte	.LASF215
 7034 0e8a 0C       		.sleb128 12
 7035 0e8b 12       		.uleb128 0x12
 7036 0e8c 18070000 		.4byte	.LASF216
 7037 0e90 0D       		.sleb128 13
 7038 0e91 12       		.uleb128 0x12
 7039 0e92 53020000 		.4byte	.LASF217
 7040 0e96 0E       		.sleb128 14
 7041 0e97 12       		.uleb128 0x12
 7042 0e98 6D0C0000 		.4byte	.LASF218
 7043 0e9c 0F       		.sleb128 15
 7044 0e9d 12       		.uleb128 0x12
 7045 0e9e 55050000 		.4byte	.LASF219
 7046 0ea2 10       		.sleb128 16
 7047 0ea3 12       		.uleb128 0x12
 7048 0ea4 8D0C0000 		.4byte	.LASF220
 7049 0ea8 11       		.sleb128 17
 7050 0ea9 12       		.uleb128 0x12
 7051 0eaa C0020000 		.4byte	.LASF221
 7052 0eae 12       		.sleb128 18
 7053 0eaf 12       		.uleb128 0x12
 7054 0eb0 8E070000 		.4byte	.LASF222
 7055 0eb4 13       		.sleb128 19
 7056 0eb5 00       		.byte	0
 7057 0eb6 02       		.uleb128 0x2
 7058 0eb7 960B0000 		.4byte	.LASF223
 7059 0ebb 10       		.byte	0x10
 7060 0ebc C6       		.byte	0xc6
 7061 0ebd 350E0000 		.4byte	0xe35
 7062 0ec1 11       		.uleb128 0x11
 7063 0ec2 01       		.byte	0x1
 7064 0ec3 11       		.byte	0x11
 7065 0ec4 48       		.byte	0x48
 7066 0ec5 E20E0000 		.4byte	0xee2
 7067 0ec9 12       		.uleb128 0x12
 7068 0eca 34020000 		.4byte	.LASF224
 7069 0ece 00       		.sleb128 0
ARM GAS  /var/folders/28/j9jfyj_n4wz3qtvnym210h2c0000gn/T//ccpoR13X.s 			page 126


 7070 0ecf 12       		.uleb128 0x12
 7071 0ed0 DC080000 		.4byte	.LASF225
 7072 0ed4 01       		.sleb128 1
 7073 0ed5 12       		.uleb128 0x12
 7074 0ed6 870A0000 		.4byte	.LASF226
 7075 0eda 02       		.sleb128 2
 7076 0edb 12       		.uleb128 0x12
 7077 0edc F0040000 		.4byte	.LASF227
 7078 0ee0 03       		.sleb128 3
 7079 0ee1 00       		.byte	0
 7080 0ee2 02       		.uleb128 0x2
 7081 0ee3 0A070000 		.4byte	.LASF228
 7082 0ee7 11       		.byte	0x11
 7083 0ee8 4E       		.byte	0x4e
 7084 0ee9 C10E0000 		.4byte	0xec1
 7085 0eed 1F       		.uleb128 0x1f
 7086 0eee 0D060000 		.4byte	.LASF230
 7087 0ef2 01       		.byte	0x1
 7088 0ef3 3D       		.byte	0x3d
 7089 0ef4 01       		.byte	0x1
 7090 0ef5 310F0000 		.4byte	0xf31
 7091 0ef9 20       		.uleb128 0x20
 7092 0efa 6B767000 		.ascii	"kvp\000"
 7093 0efe 01       		.byte	0x1
 7094 0eff 3D       		.byte	0x3d
 7095 0f00 310F0000 		.4byte	0xf31
 7096 0f04 21       		.uleb128 0x21
 7097 0f05 8E090000 		.4byte	.LASF108
 7098 0f09 01       		.byte	0x1
 7099 0f0a 3D       		.byte	0x3d
 7100 0f0b 310F0000 		.4byte	0xf31
 7101 0f0f 21       		.uleb128 0x21
 7102 0f10 B90C0000 		.4byte	.LASF229
 7103 0f14 01       		.byte	0x1
 7104 0f15 3E       		.byte	0x3e
 7105 0f16 22070000 		.4byte	0x722
 7106 0f1a 21       		.uleb128 0x21
 7107 0f1b DF090000 		.4byte	.LASF61
 7108 0f1f 01       		.byte	0x1
 7109 0f20 3E       		.byte	0x3e
 7110 0f21 9F000000 		.4byte	0x9f
 7111 0f25 21       		.uleb128 0x21
 7112 0f26 C8080000 		.4byte	.LASF60
 7113 0f2a 01       		.byte	0x1
 7114 0f2b 3E       		.byte	0x3e
 7115 0f2c 310F0000 		.4byte	0xf31
 7116 0f30 00       		.byte	0
 7117 0f31 09       		.uleb128 0x9
 7118 0f32 04       		.byte	0x4
 7119 0f33 34070000 		.4byte	0x734
 7120 0f37 22       		.uleb128 0x22
 7121 0f38 55070000 		.4byte	.LASF231
 7122 0f3c 01       		.byte	0x1
 7123 0f3d 5901     		.2byte	0x159
 7124 0f3f 01       		.byte	0x1
 7125 0f40 510F0000 		.4byte	0xf51
 7126 0f44 23       		.uleb128 0x23
ARM GAS  /var/folders/28/j9jfyj_n4wz3qtvnym210h2c0000gn/T//ccpoR13X.s 			page 127


 7127 0f45 65727200 		.ascii	"err\000"
 7128 0f49 01       		.byte	0x1
 7129 0f4a 5A01     		.2byte	0x15a
 7130 0f4c B60E0000 		.4byte	0xeb6
 7131 0f50 00       		.byte	0
 7132 0f51 1F       		.uleb128 0x1f
 7133 0f52 620D0000 		.4byte	.LASF232
 7134 0f56 01       		.byte	0x1
 7135 0f57 5D       		.byte	0x5d
 7136 0f58 01       		.byte	0x1
 7137 0f59 8A0F0000 		.4byte	0xf8a
 7138 0f5d 20       		.uleb128 0x20
 7139 0f5e 6B767000 		.ascii	"kvp\000"
 7140 0f62 01       		.byte	0x1
 7141 0f63 5D       		.byte	0x5d
 7142 0f64 310F0000 		.4byte	0xf31
 7143 0f68 21       		.uleb128 0x21
 7144 0f69 8E090000 		.4byte	.LASF108
 7145 0f6d 01       		.byte	0x1
 7146 0f6e 5D       		.byte	0x5d
 7147 0f6f 310F0000 		.4byte	0xf31
 7148 0f73 21       		.uleb128 0x21
 7149 0f74 B90C0000 		.4byte	.LASF229
 7150 0f78 01       		.byte	0x1
 7151 0f79 5E       		.byte	0x5e
 7152 0f7a 22070000 		.4byte	0x722
 7153 0f7e 21       		.uleb128 0x21
 7154 0f7f 2C0C0000 		.4byte	.LASF80
 7155 0f83 01       		.byte	0x1
 7156 0f84 5E       		.byte	0x5e
 7157 0f85 74040000 		.4byte	0x474
 7158 0f89 00       		.byte	0
 7159 0f8a 1F       		.uleb128 0x1f
 7160 0f8b 72070000 		.4byte	.LASF233
 7161 0f8f 01       		.byte	0x1
 7162 0f90 65       		.byte	0x65
 7163 0f91 03       		.byte	0x3
 7164 0f92 AF0F0000 		.4byte	0xfaf
 7165 0f96 20       		.uleb128 0x20
 7166 0f97 6B767000 		.ascii	"kvp\000"
 7167 0f9b 01       		.byte	0x1
 7168 0f9c 65       		.byte	0x65
 7169 0f9d 310F0000 		.4byte	0xf31
 7170 0fa1 24       		.uleb128 0x24
 7171 0fa2 25       		.uleb128 0x25
 7172 0fa3 AE040000 		.4byte	.LASF234
 7173 0fa7 01       		.byte	0x1
 7174 0fa8 78       		.byte	0x78
 7175 0fa9 CE000000 		.4byte	0xce
 7176 0fad 00       		.byte	0
 7177 0fae 00       		.byte	0
 7178 0faf 1F       		.uleb128 0x1f
 7179 0fb0 A50A0000 		.4byte	.LASF235
 7180 0fb4 01       		.byte	0x1
 7181 0fb5 86       		.byte	0x86
 7182 0fb6 03       		.byte	0x3
 7183 0fb7 D40F0000 		.4byte	0xfd4
ARM GAS  /var/folders/28/j9jfyj_n4wz3qtvnym210h2c0000gn/T//ccpoR13X.s 			page 128


 7184 0fbb 20       		.uleb128 0x20
 7185 0fbc 6B767000 		.ascii	"kvp\000"
 7186 0fc0 01       		.byte	0x1
 7187 0fc1 86       		.byte	0x86
 7188 0fc2 310F0000 		.4byte	0xf31
 7189 0fc6 24       		.uleb128 0x24
 7190 0fc7 25       		.uleb128 0x25
 7191 0fc8 AE040000 		.4byte	.LASF234
 7192 0fcc 01       		.byte	0x1
 7193 0fcd 99       		.byte	0x99
 7194 0fce CE000000 		.4byte	0xce
 7195 0fd2 00       		.byte	0
 7196 0fd3 00       		.byte	0
 7197 0fd4 1F       		.uleb128 0x1f
 7198 0fd5 AE020000 		.4byte	.LASF236
 7199 0fd9 01       		.byte	0x1
 7200 0fda 33       		.byte	0x33
 7201 0fdb 01       		.byte	0x1
 7202 0fdc 18100000 		.4byte	0x1018
 7203 0fe0 20       		.uleb128 0x20
 7204 0fe1 6B767000 		.ascii	"kvp\000"
 7205 0fe5 01       		.byte	0x1
 7206 0fe6 33       		.byte	0x33
 7207 0fe7 310F0000 		.4byte	0xf31
 7208 0feb 21       		.uleb128 0x21
 7209 0fec 8E090000 		.4byte	.LASF108
 7210 0ff0 01       		.byte	0x1
 7211 0ff1 33       		.byte	0x33
 7212 0ff2 310F0000 		.4byte	0xf31
 7213 0ff6 21       		.uleb128 0x21
 7214 0ff7 B90C0000 		.4byte	.LASF229
 7215 0ffb 01       		.byte	0x1
 7216 0ffc 34       		.byte	0x34
 7217 0ffd 22070000 		.4byte	0x722
 7218 1001 21       		.uleb128 0x21
 7219 1002 DF090000 		.4byte	.LASF61
 7220 1006 01       		.byte	0x1
 7221 1007 34       		.byte	0x34
 7222 1008 9F000000 		.4byte	0x9f
 7223 100c 21       		.uleb128 0x21
 7224 100d C8080000 		.4byte	.LASF60
 7225 1011 01       		.byte	0x1
 7226 1012 34       		.byte	0x34
 7227 1013 310F0000 		.4byte	0xf31
 7228 1017 00       		.byte	0
 7229 1018 1F       		.uleb128 0x1f
 7230 1019 61080000 		.4byte	.LASF237
 7231 101d 01       		.byte	0x1
 7232 101e 47       		.byte	0x47
 7233 101f 01       		.byte	0x1
 7234 1020 67100000 		.4byte	0x1067
 7235 1024 20       		.uleb128 0x20
 7236 1025 6B767000 		.ascii	"kvp\000"
 7237 1029 01       		.byte	0x1
 7238 102a 47       		.byte	0x47
 7239 102b 310F0000 		.4byte	0xf31
 7240 102f 21       		.uleb128 0x21
ARM GAS  /var/folders/28/j9jfyj_n4wz3qtvnym210h2c0000gn/T//ccpoR13X.s 			page 129


 7241 1030 8E090000 		.4byte	.LASF108
 7242 1034 01       		.byte	0x1
 7243 1035 47       		.byte	0x47
 7244 1036 310F0000 		.4byte	0xf31
 7245 103a 21       		.uleb128 0x21
 7246 103b B90C0000 		.4byte	.LASF229
 7247 103f 01       		.byte	0x1
 7248 1040 48       		.byte	0x48
 7249 1041 22070000 		.4byte	0x722
 7250 1045 21       		.uleb128 0x21
 7251 1046 80040000 		.4byte	.LASF22
 7252 104a 01       		.byte	0x1
 7253 104b 48       		.byte	0x48
 7254 104c 29030000 		.4byte	0x329
 7255 1050 20       		.uleb128 0x20
 7256 1051 6D696E00 		.ascii	"min\000"
 7257 1055 01       		.byte	0x1
 7258 1056 48       		.byte	0x48
 7259 1057 9F000000 		.4byte	0x9f
 7260 105b 20       		.uleb128 0x20
 7261 105c 6D617800 		.ascii	"max\000"
 7262 1060 01       		.byte	0x1
 7263 1061 48       		.byte	0x48
 7264 1062 9F000000 		.4byte	0x9f
 7265 1066 00       		.byte	0
 7266 1067 26       		.uleb128 0x26
 7267 1068 0D030000 		.4byte	.LASF314
 7268 106c 02       		.byte	0x2
 7269 106d 3D       		.byte	0x3d
 7270 106e CE000000 		.4byte	0xce
 7271 1072 03       		.byte	0x3
 7272 1073 99100000 		.4byte	0x1099
 7273 1077 20       		.uleb128 0x20
 7274 1078 6F703100 		.ascii	"op1\000"
 7275 107c 02       		.byte	0x2
 7276 107d 3D       		.byte	0x3d
 7277 107e CE000000 		.4byte	0xce
 7278 1082 20       		.uleb128 0x20
 7279 1083 6F703200 		.ascii	"op2\000"
 7280 1087 02       		.byte	0x2
 7281 1088 3D       		.byte	0x3d
 7282 1089 CE000000 		.4byte	0xce
 7283 108d 25       		.uleb128 0x25
 7284 108e C0030000 		.4byte	.LASF238
 7285 1092 02       		.byte	0x2
 7286 1093 3F       		.byte	0x3f
 7287 1094 CE000000 		.4byte	0xce
 7288 1098 00       		.byte	0
 7289 1099 27       		.uleb128 0x27
 7290 109a DA010000 		.4byte	.LASF239
 7291 109e 01       		.byte	0x1
 7292 109f 2501     		.2byte	0x125
 7293 10a1 00000000 		.4byte	.LFB191
 7294 10a5 3C000000 		.4byte	.LFE191-.LFB191
 7295 10a9 01       		.uleb128 0x1
 7296 10aa 9C       		.byte	0x9c
 7297 10ab F1100000 		.4byte	0x10f1
ARM GAS  /var/folders/28/j9jfyj_n4wz3qtvnym210h2c0000gn/T//ccpoR13X.s 			page 130


 7298 10af 28       		.uleb128 0x28
 7299 10b0 4600     		.ascii	"F\000"
 7300 10b2 01       		.byte	0x1
 7301 10b3 2601     		.2byte	0x126
 7302 10b5 310F0000 		.4byte	0xf31
 7303 10b9 00000000 		.4byte	.LLST0
 7304 10bd 29       		.uleb128 0x29
 7305 10be 73747200 		.ascii	"str\000"
 7306 10c2 01       		.byte	0x1
 7307 10c3 2901     		.2byte	0x129
 7308 10c5 F1100000 		.4byte	0x10f1
 7309 10c9 02       		.uleb128 0x2
 7310 10ca 91       		.byte	0x91
 7311 10cb 64       		.sleb128 -28
 7312 10cc 2A       		.uleb128 0x2a
 7313 10cd 2C000000 		.4byte	.LVL1
 7314 10d1 02300000 		.4byte	0x3002
 7315 10d5 E0100000 		.4byte	0x10e0
 7316 10d9 2B       		.uleb128 0x2b
 7317 10da 01       		.uleb128 0x1
 7318 10db 50       		.byte	0x50
 7319 10dc 02       		.uleb128 0x2
 7320 10dd 91       		.byte	0x91
 7321 10de 66       		.sleb128 -26
 7322 10df 00       		.byte	0
 7323 10e0 2C       		.uleb128 0x2c
 7324 10e1 32000000 		.4byte	.LVL2
 7325 10e5 20300000 		.4byte	0x3020
 7326 10e9 2B       		.uleb128 0x2b
 7327 10ea 01       		.uleb128 0x1
 7328 10eb 50       		.byte	0x50
 7329 10ec 02       		.uleb128 0x2
 7330 10ed 91       		.byte	0x91
 7331 10ee 64       		.sleb128 -28
 7332 10ef 00       		.byte	0
 7333 10f0 00       		.byte	0
 7334 10f1 1A       		.uleb128 0x1a
 7335 10f2 2D070000 		.4byte	0x72d
 7336 10f6 01110000 		.4byte	0x1101
 7337 10fa 1B       		.uleb128 0x1b
 7338 10fb EF000000 		.4byte	0xef
 7339 10ff 13       		.byte	0x13
 7340 1100 00       		.byte	0
 7341 1101 27       		.uleb128 0x27
 7342 1102 D7020000 		.4byte	.LASF240
 7343 1106 01       		.byte	0x1
 7344 1107 2F01     		.2byte	0x12f
 7345 1109 40000000 		.4byte	.LFB192
 7346 110d F4000000 		.4byte	.LFE192-.LFB192
 7347 1111 01       		.uleb128 0x1
 7348 1112 9C       		.byte	0x9c
 7349 1113 70120000 		.4byte	0x1270
 7350 1117 28       		.uleb128 0x28
 7351 1118 72657300 		.ascii	"res\000"
 7352 111c 01       		.byte	0x1
 7353 111d 3101     		.2byte	0x131
 7354 111f B60E0000 		.4byte	0xeb6
ARM GAS  /var/folders/28/j9jfyj_n4wz3qtvnym210h2c0000gn/T//ccpoR13X.s 			page 131


 7355 1123 13000000 		.4byte	.LLST1
 7356 1127 29       		.uleb128 0x29
 7357 1128 666E6F00 		.ascii	"fno\000"
 7358 112c 01       		.byte	0x1
 7359 112d 3201     		.2byte	0x132
 7360 112f 2A0E0000 		.4byte	0xe2a
 7361 1133 03       		.uleb128 0x3
 7362 1134 91       		.byte	0x91
 7363 1135 9C7F     		.sleb128 -100
 7364 1137 29       		.uleb128 0x29
 7365 1138 64697200 		.ascii	"dir\000"
 7366 113c 01       		.byte	0x1
 7367 113d 3301     		.2byte	0x133
 7368 113f AC0D0000 		.4byte	0xdac
 7369 1143 03       		.uleb128 0x3
 7370 1144 91       		.byte	0x91
 7371 1145 BC7F     		.sleb128 -68
 7372 1147 2D       		.uleb128 0x2d
 7373 1148 A6030000 		.4byte	.LASF191
 7374 114c 01       		.byte	0x1
 7375 114d 3401     		.2byte	0x134
 7376 114f 9F000000 		.4byte	0x9f
 7377 1153 3C000000 		.4byte	.LLST2
 7378 1157 28       		.uleb128 0x28
 7379 1158 666E00   		.ascii	"fn\000"
 7380 115b 01       		.byte	0x1
 7381 115c 3501     		.2byte	0x135
 7382 115e AB0B0000 		.4byte	0xbab
 7383 1162 6A000000 		.4byte	.LLST3
 7384 1166 2E       		.uleb128 0x2e
 7385 1167 00000000 		.4byte	.Ldebug_ranges0+0
 7386 116b F7110000 		.4byte	0x11f7
 7387 116f 28       		.uleb128 0x28
 7388 1170 6C00     		.ascii	"l\000"
 7389 1172 01       		.byte	0x1
 7390 1173 4701     		.2byte	0x147
 7391 1175 9F000000 		.4byte	0x9f
 7392 1179 B2000000 		.4byte	.LLST4
 7393 117d 2E       		.uleb128 0x2e
 7394 117e 28000000 		.4byte	.Ldebug_ranges0+0x28
 7395 1182 E5110000 		.4byte	0x11e5
 7396 1186 28       		.uleb128 0x28
 7397 1187 7300     		.ascii	"s\000"
 7398 1189 01       		.byte	0x1
 7399 118a 4A01     		.2byte	0x14a
 7400 118c AB0B0000 		.4byte	0xbab
 7401 1190 DF000000 		.4byte	.LLST5
 7402 1194 2F       		.uleb128 0x2f
 7403 1195 510F0000 		.4byte	0xf51
 7404 1199 60000000 		.4byte	.LBB47
 7405 119d 48000000 		.4byte	.Ldebug_ranges0+0x48
 7406 11a1 01       		.byte	0x1
 7407 11a2 4E01     		.2byte	0x14e
 7408 11a4 CD110000 		.4byte	0x11cd
 7409 11a8 30       		.uleb128 0x30
 7410 11a9 7E0F0000 		.4byte	0xf7e
 7411 11ad F2000000 		.4byte	.LLST6
ARM GAS  /var/folders/28/j9jfyj_n4wz3qtvnym210h2c0000gn/T//ccpoR13X.s 			page 132


 7412 11b1 30       		.uleb128 0x30
 7413 11b2 730F0000 		.4byte	0xf73
 7414 11b6 0A010000 		.4byte	.LLST7
 7415 11ba 30       		.uleb128 0x30
 7416 11bb 680F0000 		.4byte	0xf68
 7417 11bf 1D010000 		.4byte	.LLST8
 7418 11c3 30       		.uleb128 0x30
 7419 11c4 5D0F0000 		.4byte	0xf5d
 7420 11c8 31010000 		.4byte	.LLST9
 7421 11cc 00       		.byte	0
 7422 11cd 2C       		.uleb128 0x2c
 7423 11ce CE000000 		.4byte	.LVL12
 7424 11d2 31300000 		.4byte	0x3031
 7425 11d6 2B       		.uleb128 0x2b
 7426 11d7 01       		.uleb128 0x1
 7427 11d8 52       		.byte	0x52
 7428 11d9 02       		.uleb128 0x2
 7429 11da 7A       		.byte	0x7a
 7430 11db 00       		.sleb128 0
 7431 11dc 2B       		.uleb128 0x2b
 7432 11dd 01       		.uleb128 0x1
 7433 11de 51       		.byte	0x51
 7434 11df 03       		.uleb128 0x3
 7435 11e0 91       		.byte	0x91
 7436 11e1 A57F     		.sleb128 -91
 7437 11e3 00       		.byte	0
 7438 11e4 00       		.byte	0
 7439 11e5 2C       		.uleb128 0x2c
 7440 11e6 98000000 		.4byte	.LVL8
 7441 11ea 55300000 		.4byte	0x3055
 7442 11ee 2B       		.uleb128 0x2b
 7443 11ef 01       		.uleb128 0x1
 7444 11f0 50       		.byte	0x50
 7445 11f1 03       		.uleb128 0x3
 7446 11f2 91       		.byte	0x91
 7447 11f3 A57F     		.sleb128 -91
 7448 11f5 00       		.byte	0
 7449 11f6 00       		.byte	0
 7450 11f7 2F       		.uleb128 0x2f
 7451 11f8 ED0E0000 		.4byte	0xeed
 7452 11fc F0000000 		.4byte	.LBB62
 7453 1200 78000000 		.4byte	.Ldebug_ranges0+0x78
 7454 1204 01       		.byte	0x1
 7455 1205 5301     		.2byte	0x153
 7456 1207 39120000 		.4byte	0x1239
 7457 120b 30       		.uleb128 0x30
 7458 120c 250F0000 		.4byte	0xf25
 7459 1210 63010000 		.4byte	.LLST10
 7460 1214 30       		.uleb128 0x30
 7461 1215 1A0F0000 		.4byte	0xf1a
 7462 1219 7B010000 		.4byte	.LLST11
 7463 121d 30       		.uleb128 0x30
 7464 121e 0F0F0000 		.4byte	0xf0f
 7465 1222 9D010000 		.4byte	.LLST12
 7466 1226 30       		.uleb128 0x30
 7467 1227 040F0000 		.4byte	0xf04
 7468 122b B5010000 		.4byte	.LLST13
ARM GAS  /var/folders/28/j9jfyj_n4wz3qtvnym210h2c0000gn/T//ccpoR13X.s 			page 133


 7469 122f 30       		.uleb128 0x30
 7470 1230 F90E0000 		.4byte	0xef9
 7471 1234 CD010000 		.4byte	.LLST14
 7472 1238 00       		.byte	0
 7473 1239 2A       		.uleb128 0x2a
 7474 123a 5A000000 		.4byte	.LVL4
 7475 123e 6A300000 		.4byte	0x306a
 7476 1242 57120000 		.4byte	0x1257
 7477 1246 2B       		.uleb128 0x2b
 7478 1247 01       		.uleb128 0x1
 7479 1248 51       		.byte	0x51
 7480 1249 05       		.uleb128 0x5
 7481 124a 03       		.byte	0x3
 7482 124b 00000000 		.4byte	.LC0
 7483 124f 2B       		.uleb128 0x2b
 7484 1250 01       		.uleb128 0x1
 7485 1251 50       		.byte	0x50
 7486 1252 03       		.uleb128 0x3
 7487 1253 91       		.byte	0x91
 7488 1254 BC7F     		.sleb128 -68
 7489 1256 00       		.byte	0
 7490 1257 2C       		.uleb128 0x2c
 7491 1258 70000000 		.4byte	.LVL6
 7492 125c 95300000 		.4byte	0x3095
 7493 1260 2B       		.uleb128 0x2b
 7494 1261 01       		.uleb128 0x1
 7495 1262 51       		.byte	0x51
 7496 1263 03       		.uleb128 0x3
 7497 1264 91       		.byte	0x91
 7498 1265 9C7F     		.sleb128 -100
 7499 1267 2B       		.uleb128 0x2b
 7500 1268 01       		.uleb128 0x1
 7501 1269 50       		.byte	0x50
 7502 126a 03       		.uleb128 0x3
 7503 126b 91       		.byte	0x91
 7504 126c BC7F     		.sleb128 -68
 7505 126e 00       		.byte	0
 7506 126f 00       		.byte	0
 7507 1270 31       		.uleb128 0x31
 7508 1271 40010000 		.4byte	.LASF315
 7509 1275 01       		.byte	0x1
 7510 1276 9601     		.2byte	0x196
 7511 1278 88070000 		.4byte	0x788
 7512 127c 40010000 		.4byte	.LFB195
 7513 1280 30000000 		.4byte	.LFE195-.LFB195
 7514 1284 01       		.uleb128 0x1
 7515 1285 9C       		.byte	0x9c
 7516 1286 BC120000 		.4byte	0x12bc
 7517 128a 32       		.uleb128 0x32
 7518 128b 61726700 		.ascii	"arg\000"
 7519 128f 01       		.byte	0x1
 7520 1290 9601     		.2byte	0x196
 7521 1292 A6030000 		.4byte	0x3a6
 7522 1296 E5010000 		.4byte	.LLST15
 7523 129a 33       		.uleb128 0x33
 7524 129b 50010000 		.4byte	.LVL21
 7525 129f B5300000 		.4byte	0x30b5
ARM GAS  /var/folders/28/j9jfyj_n4wz3qtvnym210h2c0000gn/T//ccpoR13X.s 			page 134


 7526 12a3 33       		.uleb128 0x33
 7527 12a4 54010000 		.4byte	.LVL22
 7528 12a8 BC300000 		.4byte	0x30bc
 7529 12ac 2C       		.uleb128 0x2c
 7530 12ad 60010000 		.4byte	.LVL24
 7531 12b1 C3300000 		.4byte	0x30c3
 7532 12b5 2B       		.uleb128 0x2b
 7533 12b6 01       		.uleb128 0x1
 7534 12b7 50       		.byte	0x50
 7535 12b8 01       		.uleb128 0x1
 7536 12b9 32       		.byte	0x32
 7537 12ba 00       		.byte	0
 7538 12bb 00       		.byte	0
 7539 12bc 34       		.uleb128 0x34
 7540 12bd 370F0000 		.4byte	0xf37
 7541 12c1 70010000 		.4byte	.LFB193
 7542 12c5 58000000 		.4byte	.LFE193-.LFB193
 7543 12c9 01       		.uleb128 0x1
 7544 12ca 9C       		.byte	0x9c
 7545 12cb 84130000 		.4byte	0x1384
 7546 12cf 35       		.uleb128 0x35
 7547 12d0 440F0000 		.4byte	0xf44
 7548 12d4 06020000 		.4byte	.LLST16
 7549 12d8 2E       		.uleb128 0x2e
 7550 12d9 90000000 		.4byte	.Ldebug_ranges0+0x90
 7551 12dd 28130000 		.4byte	0x1328
 7552 12e1 36       		.uleb128 0x36
 7553 12e2 440F0000 		.4byte	0xf44
 7554 12e6 37       		.uleb128 0x37
 7555 12e7 ED0E0000 		.4byte	0xeed
 7556 12eb 7C010000 		.4byte	.LBB76
 7557 12ef A8000000 		.4byte	.Ldebug_ranges0+0xa8
 7558 12f3 01       		.byte	0x1
 7559 12f4 5D01     		.2byte	0x15d
 7560 12f6 38       		.uleb128 0x38
 7561 12f7 250F0000 		.4byte	0xf25
 7562 12fb 00       		.byte	0
 7563 12fc 38       		.uleb128 0x38
 7564 12fd 1A0F0000 		.4byte	0xf1a
 7565 1301 00       		.byte	0
 7566 1302 39       		.uleb128 0x39
 7567 1303 0F0F0000 		.4byte	0xf0f
 7568 1307 06       		.uleb128 0x6
 7569 1308 03       		.byte	0x3
 7570 1309 10000000 		.4byte	.LC3
 7571 130d 9F       		.byte	0x9f
 7572 130e 39       		.uleb128 0x39
 7573 130f 040F0000 		.4byte	0xf04
 7574 1313 06       		.uleb128 0x6
 7575 1314 03       		.byte	0x3
 7576 1315 00000000 		.4byte	KvpsHead
 7577 1319 9F       		.byte	0x9f
 7578 131a 39       		.uleb128 0x39
 7579 131b F90E0000 		.4byte	0xef9
 7580 131f 06       		.uleb128 0x6
 7581 1320 03       		.byte	0x3
 7582 1321 00000000 		.4byte	TmpMenuKvps
ARM GAS  /var/folders/28/j9jfyj_n4wz3qtvnym210h2c0000gn/T//ccpoR13X.s 			page 135


 7583 1325 9F       		.byte	0x9f
 7584 1326 00       		.byte	0
 7585 1327 00       		.byte	0
 7586 1328 3A       		.uleb128 0x3a
 7587 1329 ED0E0000 		.4byte	0xeed
 7588 132d 82010000 		.4byte	.LBB83
 7589 1331 12000000 		.4byte	.LBE83-.LBB83
 7590 1335 01       		.byte	0x1
 7591 1336 6101     		.2byte	0x161
 7592 1338 6A130000 		.4byte	0x136a
 7593 133c 30       		.uleb128 0x30
 7594 133d 250F0000 		.4byte	0xf25
 7595 1341 19020000 		.4byte	.LLST17
 7596 1345 30       		.uleb128 0x30
 7597 1346 1A0F0000 		.4byte	0xf1a
 7598 134a 19020000 		.4byte	.LLST17
 7599 134e 30       		.uleb128 0x30
 7600 134f 0F0F0000 		.4byte	0xf0f
 7601 1353 2D020000 		.4byte	.LLST19
 7602 1357 30       		.uleb128 0x30
 7603 1358 040F0000 		.4byte	0xf04
 7604 135c 45020000 		.4byte	.LLST20
 7605 1360 30       		.uleb128 0x30
 7606 1361 F90E0000 		.4byte	0xef9
 7607 1365 5D020000 		.4byte	.LLST21
 7608 1369 00       		.byte	0
 7609 136a 2C       		.uleb128 0x2c
 7610 136b 7C010000 		.4byte	.LVL25
 7611 136f D5300000 		.4byte	0x30d5
 7612 1373 2B       		.uleb128 0x2b
 7613 1374 01       		.uleb128 0x1
 7614 1375 52       		.byte	0x52
 7615 1376 01       		.uleb128 0x1
 7616 1377 30       		.byte	0x30
 7617 1378 2B       		.uleb128 0x2b
 7618 1379 01       		.uleb128 0x1
 7619 137a 51       		.byte	0x51
 7620 137b 01       		.uleb128 0x1
 7621 137c 30       		.byte	0x30
 7622 137d 2B       		.uleb128 0x2b
 7623 137e 01       		.uleb128 0x1
 7624 137f 50       		.byte	0x50
 7625 1380 01       		.uleb128 0x1
 7626 1381 30       		.byte	0x30
 7627 1382 00       		.byte	0
 7628 1383 00       		.byte	0
 7629 1384 34       		.uleb128 0x34
 7630 1385 D40F0000 		.4byte	0xfd4
 7631 1389 D0010000 		.4byte	.LFB179
 7632 138d 18000000 		.4byte	.LFE179-.LFB179
 7633 1391 01       		.uleb128 0x1
 7634 1392 9C       		.byte	0x9c
 7635 1393 BD130000 		.4byte	0x13bd
 7636 1397 39       		.uleb128 0x39
 7637 1398 E00F0000 		.4byte	0xfe0
 7638 139c 01       		.uleb128 0x1
 7639 139d 50       		.byte	0x50
ARM GAS  /var/folders/28/j9jfyj_n4wz3qtvnym210h2c0000gn/T//ccpoR13X.s 			page 136


 7640 139e 39       		.uleb128 0x39
 7641 139f EB0F0000 		.4byte	0xfeb
 7642 13a3 01       		.uleb128 0x1
 7643 13a4 51       		.byte	0x51
 7644 13a5 39       		.uleb128 0x39
 7645 13a6 F60F0000 		.4byte	0xff6
 7646 13aa 01       		.uleb128 0x1
 7647 13ab 52       		.byte	0x52
 7648 13ac 39       		.uleb128 0x39
 7649 13ad 01100000 		.4byte	0x1001
 7650 13b1 01       		.uleb128 0x1
 7651 13b2 53       		.byte	0x53
 7652 13b3 30       		.uleb128 0x30
 7653 13b4 0C100000 		.4byte	0x100c
 7654 13b8 75020000 		.4byte	.LLST22
 7655 13bc 00       		.byte	0
 7656 13bd 34       		.uleb128 0x34
 7657 13be ED0E0000 		.4byte	0xeed
 7658 13c2 F0010000 		.4byte	.LFB180
 7659 13c6 18000000 		.4byte	.LFE180-.LFB180
 7660 13ca 01       		.uleb128 0x1
 7661 13cb 9C       		.byte	0x9c
 7662 13cc F6130000 		.4byte	0x13f6
 7663 13d0 39       		.uleb128 0x39
 7664 13d1 F90E0000 		.4byte	0xef9
 7665 13d5 01       		.uleb128 0x1
 7666 13d6 50       		.byte	0x50
 7667 13d7 39       		.uleb128 0x39
 7668 13d8 040F0000 		.4byte	0xf04
 7669 13dc 01       		.uleb128 0x1
 7670 13dd 51       		.byte	0x51
 7671 13de 39       		.uleb128 0x39
 7672 13df 0F0F0000 		.4byte	0xf0f
 7673 13e3 01       		.uleb128 0x1
 7674 13e4 52       		.byte	0x52
 7675 13e5 39       		.uleb128 0x39
 7676 13e6 1A0F0000 		.4byte	0xf1a
 7677 13ea 01       		.uleb128 0x1
 7678 13eb 53       		.byte	0x53
 7679 13ec 30       		.uleb128 0x30
 7680 13ed 250F0000 		.4byte	0xf25
 7681 13f1 95020000 		.4byte	.LLST23
 7682 13f5 00       		.byte	0
 7683 13f6 34       		.uleb128 0x34
 7684 13f7 18100000 		.4byte	0x1018
 7685 13fb 10020000 		.4byte	.LFB181
 7686 13ff 18000000 		.4byte	.LFE181-.LFB181
 7687 1403 01       		.uleb128 0x1
 7688 1404 9C       		.byte	0x9c
 7689 1405 38140000 		.4byte	0x1438
 7690 1409 39       		.uleb128 0x39
 7691 140a 24100000 		.4byte	0x1024
 7692 140e 01       		.uleb128 0x1
 7693 140f 50       		.byte	0x50
 7694 1410 39       		.uleb128 0x39
 7695 1411 2F100000 		.4byte	0x102f
 7696 1415 01       		.uleb128 0x1
ARM GAS  /var/folders/28/j9jfyj_n4wz3qtvnym210h2c0000gn/T//ccpoR13X.s 			page 137


 7697 1416 51       		.byte	0x51
 7698 1417 39       		.uleb128 0x39
 7699 1418 3A100000 		.4byte	0x103a
 7700 141c 01       		.uleb128 0x1
 7701 141d 52       		.byte	0x52
 7702 141e 39       		.uleb128 0x39
 7703 141f 45100000 		.4byte	0x1045
 7704 1423 01       		.uleb128 0x1
 7705 1424 53       		.byte	0x53
 7706 1425 30       		.uleb128 0x30
 7707 1426 50100000 		.4byte	0x1050
 7708 142a B5020000 		.4byte	.LLST24
 7709 142e 30       		.uleb128 0x30
 7710 142f 5B100000 		.4byte	0x105b
 7711 1433 D5020000 		.4byte	.LLST25
 7712 1437 00       		.byte	0
 7713 1438 3B       		.uleb128 0x3b
 7714 1439 E60A0000 		.4byte	.LASF241
 7715 143d 01       		.byte	0x1
 7716 143e 51       		.byte	0x51
 7717 143f 30020000 		.4byte	.LFB182
 7718 1443 1C000000 		.4byte	.LFE182-.LFB182
 7719 1447 01       		.uleb128 0x1
 7720 1448 9C       		.byte	0x9c
 7721 1449 A0140000 		.4byte	0x14a0
 7722 144d 3C       		.uleb128 0x3c
 7723 144e 6B767000 		.ascii	"kvp\000"
 7724 1452 01       		.byte	0x1
 7725 1453 51       		.byte	0x51
 7726 1454 310F0000 		.4byte	0xf31
 7727 1458 01       		.uleb128 0x1
 7728 1459 50       		.byte	0x50
 7729 145a 3D       		.uleb128 0x3d
 7730 145b 8E090000 		.4byte	.LASF108
 7731 145f 01       		.byte	0x1
 7732 1460 51       		.byte	0x51
 7733 1461 310F0000 		.4byte	0xf31
 7734 1465 01       		.uleb128 0x1
 7735 1466 51       		.byte	0x51
 7736 1467 3D       		.uleb128 0x3d
 7737 1468 B90C0000 		.4byte	.LASF229
 7738 146c 01       		.byte	0x1
 7739 146d 52       		.byte	0x52
 7740 146e 22070000 		.4byte	0x722
 7741 1472 01       		.uleb128 0x1
 7742 1473 52       		.byte	0x52
 7743 1474 3C       		.uleb128 0x3c
 7744 1475 50457800 		.ascii	"PEx\000"
 7745 1479 01       		.byte	0x1
 7746 147a 52       		.byte	0x52
 7747 147b 6B050000 		.4byte	0x56b
 7748 147f 01       		.uleb128 0x1
 7749 1480 53       		.byte	0x53
 7750 1481 3E       		.uleb128 0x3e
 7751 1482 6D696E00 		.ascii	"min\000"
 7752 1486 01       		.byte	0x1
 7753 1487 52       		.byte	0x52
ARM GAS  /var/folders/28/j9jfyj_n4wz3qtvnym210h2c0000gn/T//ccpoR13X.s 			page 138


 7754 1488 9F000000 		.4byte	0x9f
 7755 148c F5020000 		.4byte	.LLST26
 7756 1490 3E       		.uleb128 0x3e
 7757 1491 6D617800 		.ascii	"max\000"
 7758 1495 01       		.byte	0x1
 7759 1496 53       		.byte	0x53
 7760 1497 9F000000 		.4byte	0x9f
 7761 149b 15030000 		.4byte	.LLST27
 7762 149f 00       		.byte	0
 7763 14a0 34       		.uleb128 0x34
 7764 14a1 510F0000 		.4byte	0xf51
 7765 14a5 50020000 		.4byte	.LFB183
 7766 14a9 12000000 		.4byte	.LFE183-.LFB183
 7767 14ad 01       		.uleb128 0x1
 7768 14ae 9C       		.byte	0x9c
 7769 14af D0140000 		.4byte	0x14d0
 7770 14b3 39       		.uleb128 0x39
 7771 14b4 5D0F0000 		.4byte	0xf5d
 7772 14b8 01       		.uleb128 0x1
 7773 14b9 50       		.byte	0x50
 7774 14ba 39       		.uleb128 0x39
 7775 14bb 680F0000 		.4byte	0xf68
 7776 14bf 01       		.uleb128 0x1
 7777 14c0 51       		.byte	0x51
 7778 14c1 39       		.uleb128 0x39
 7779 14c2 730F0000 		.4byte	0xf73
 7780 14c6 01       		.uleb128 0x1
 7781 14c7 52       		.byte	0x52
 7782 14c8 39       		.uleb128 0x39
 7783 14c9 7E0F0000 		.4byte	0xf7e
 7784 14cd 01       		.uleb128 0x1
 7785 14ce 53       		.byte	0x53
 7786 14cf 00       		.byte	0
 7787 14d0 34       		.uleb128 0x34
 7788 14d1 8A0F0000 		.4byte	0xf8a
 7789 14d5 70020000 		.4byte	.LFB184
 7790 14d9 6C000000 		.4byte	.LFE184-.LFB184
 7791 14dd 01       		.uleb128 0x1
 7792 14de 9C       		.byte	0x9c
 7793 14df 2F150000 		.4byte	0x152f
 7794 14e3 30       		.uleb128 0x30
 7795 14e4 960F0000 		.4byte	0xf96
 7796 14e8 35030000 		.4byte	.LLST28
 7797 14ec 3F       		.uleb128 0x3f
 7798 14ed C8000000 		.4byte	.Ldebug_ranges0+0xc8
 7799 14f1 30       		.uleb128 0x30
 7800 14f2 960F0000 		.4byte	0xf96
 7801 14f6 6F030000 		.4byte	.LLST29
 7802 14fa 3F       		.uleb128 0x3f
 7803 14fb E0000000 		.4byte	.Ldebug_ranges0+0xe0
 7804 14ff 35       		.uleb128 0x35
 7805 1500 A20F0000 		.4byte	0xfa2
 7806 1504 9E030000 		.4byte	.LLST30
 7807 1508 40       		.uleb128 0x40
 7808 1509 BC020000 		.4byte	.LVL42
 7809 150d F4300000 		.4byte	0x30f4
 7810 1511 1C150000 		.4byte	0x151c
ARM GAS  /var/folders/28/j9jfyj_n4wz3qtvnym210h2c0000gn/T//ccpoR13X.s 			page 139


 7811 1515 2B       		.uleb128 0x2b
 7812 1516 01       		.uleb128 0x1
 7813 1517 52       		.byte	0x52
 7814 1518 02       		.uleb128 0x2
 7815 1519 09       		.byte	0x9
 7816 151a E7       		.byte	0xe7
 7817 151b 00       		.byte	0
 7818 151c 41       		.uleb128 0x41
 7819 151d DC020000 		.4byte	.LVL44
 7820 1521 F4300000 		.4byte	0x30f4
 7821 1525 2B       		.uleb128 0x2b
 7822 1526 01       		.uleb128 0x1
 7823 1527 52       		.byte	0x52
 7824 1528 02       		.uleb128 0x2
 7825 1529 09       		.byte	0x9
 7826 152a E7       		.byte	0xe7
 7827 152b 00       		.byte	0
 7828 152c 00       		.byte	0
 7829 152d 00       		.byte	0
 7830 152e 00       		.byte	0
 7831 152f 34       		.uleb128 0x34
 7832 1530 AF0F0000 		.4byte	0xfaf
 7833 1534 E0020000 		.4byte	.LFB185
 7834 1538 68000000 		.4byte	.LFE185-.LFB185
 7835 153c 01       		.uleb128 0x1
 7836 153d 9C       		.byte	0x9c
 7837 153e 8E150000 		.4byte	0x158e
 7838 1542 30       		.uleb128 0x30
 7839 1543 BB0F0000 		.4byte	0xfbb
 7840 1547 BC030000 		.4byte	.LLST31
 7841 154b 3F       		.uleb128 0x3f
 7842 154c F8000000 		.4byte	.Ldebug_ranges0+0xf8
 7843 1550 30       		.uleb128 0x30
 7844 1551 BB0F0000 		.4byte	0xfbb
 7845 1555 F6030000 		.4byte	.LLST32
 7846 1559 3F       		.uleb128 0x3f
 7847 155a 10010000 		.4byte	.Ldebug_ranges0+0x110
 7848 155e 35       		.uleb128 0x35
 7849 155f C70F0000 		.4byte	0xfc7
 7850 1563 25040000 		.4byte	.LLST33
 7851 1567 40       		.uleb128 0x40
 7852 1568 2E030000 		.4byte	.LVL49
 7853 156c F4300000 		.4byte	0x30f4
 7854 1570 7B150000 		.4byte	0x157b
 7855 1574 2B       		.uleb128 0x2b
 7856 1575 01       		.uleb128 0x1
 7857 1576 52       		.byte	0x52
 7858 1577 02       		.uleb128 0x2
 7859 1578 09       		.byte	0x9
 7860 1579 E7       		.byte	0xe7
 7861 157a 00       		.byte	0
 7862 157b 41       		.uleb128 0x41
 7863 157c 48030000 		.4byte	.LVL51
 7864 1580 F4300000 		.4byte	0x30f4
 7865 1584 2B       		.uleb128 0x2b
 7866 1585 01       		.uleb128 0x1
 7867 1586 52       		.byte	0x52
ARM GAS  /var/folders/28/j9jfyj_n4wz3qtvnym210h2c0000gn/T//ccpoR13X.s 			page 140


 7868 1587 02       		.uleb128 0x2
 7869 1588 09       		.byte	0x9
 7870 1589 E7       		.byte	0xe7
 7871 158a 00       		.byte	0
 7872 158b 00       		.byte	0
 7873 158c 00       		.byte	0
 7874 158d 00       		.byte	0
 7875 158e 3B       		.uleb128 0x3b
 7876 158f 5E030000 		.4byte	.LASF242
 7877 1593 01       		.byte	0x1
 7878 1594 A7       		.byte	0xa7
 7879 1595 50030000 		.4byte	.LFB186
 7880 1599 CC000000 		.4byte	.LFE186-.LFB186
 7881 159d 01       		.uleb128 0x1
 7882 159e 9C       		.byte	0x9c
 7883 159f 56170000 		.4byte	0x1756
 7884 15a3 42       		.uleb128 0x42
 7885 15a4 240B0000 		.4byte	.LASF72
 7886 15a8 01       		.byte	0x1
 7887 15a9 A7       		.byte	0xa7
 7888 15aa A6030000 		.4byte	0x3a6
 7889 15ae 43040000 		.4byte	.LLST34
 7890 15b2 43       		.uleb128 0x43
 7891 15b3 6900     		.ascii	"i\000"
 7892 15b5 01       		.byte	0x1
 7893 15b6 A9       		.byte	0xa9
 7894 15b7 9F000000 		.4byte	0x9f
 7895 15bb 7D040000 		.4byte	.LLST35
 7896 15bf 2E       		.uleb128 0x2e
 7897 15c0 28010000 		.4byte	.Ldebug_ranges0+0x128
 7898 15c4 FF150000 		.4byte	0x15ff
 7899 15c8 43       		.uleb128 0x43
 7900 15c9 7900     		.ascii	"y\000"
 7901 15cb 01       		.byte	0x1
 7902 15cc BA       		.byte	0xba
 7903 15cd 9F000000 		.4byte	0x9f
 7904 15d1 0C050000 		.4byte	.LLST36
 7905 15d5 2A       		.uleb128 0x2a
 7906 15d6 DE030000 		.4byte	.LVL71
 7907 15da 0F310000 		.4byte	0x310f
 7908 15de E9150000 		.4byte	0x15e9
 7909 15e2 2B       		.uleb128 0x2b
 7910 15e3 01       		.uleb128 0x1
 7911 15e4 50       		.byte	0x50
 7912 15e5 02       		.uleb128 0x2
 7913 15e6 74       		.byte	0x74
 7914 15e7 00       		.sleb128 0
 7915 15e8 00       		.byte	0
 7916 15e9 2C       		.uleb128 0x2c
 7917 15ea FC030000 		.4byte	.LVL77
 7918 15ee 0F310000 		.4byte	0x310f
 7919 15f2 2B       		.uleb128 0x2b
 7920 15f3 01       		.uleb128 0x1
 7921 15f4 51       		.byte	0x51
 7922 15f5 01       		.uleb128 0x1
 7923 15f6 31       		.byte	0x31
 7924 15f7 2B       		.uleb128 0x2b
ARM GAS  /var/folders/28/j9jfyj_n4wz3qtvnym210h2c0000gn/T//ccpoR13X.s 			page 141


 7925 15f8 01       		.uleb128 0x1
 7926 15f9 50       		.byte	0x50
 7927 15fa 02       		.uleb128 0x2
 7928 15fb 74       		.byte	0x74
 7929 15fc 00       		.sleb128 0
 7930 15fd 00       		.byte	0
 7931 15fe 00       		.byte	0
 7932 15ff 33       		.uleb128 0x33
 7933 1600 58030000 		.4byte	.LVL53
 7934 1604 25310000 		.4byte	0x3125
 7935 1608 2A       		.uleb128 0x2a
 7936 1609 64030000 		.4byte	.LVL56
 7937 160d 0F310000 		.4byte	0x310f
 7938 1611 21160000 		.4byte	0x1621
 7939 1615 2B       		.uleb128 0x2b
 7940 1616 01       		.uleb128 0x1
 7941 1617 51       		.byte	0x51
 7942 1618 02       		.uleb128 0x2
 7943 1619 74       		.byte	0x74
 7944 161a 7F       		.sleb128 -1
 7945 161b 2B       		.uleb128 0x2b
 7946 161c 01       		.uleb128 0x1
 7947 161d 50       		.byte	0x50
 7948 161e 01       		.uleb128 0x1
 7949 161f 3E       		.byte	0x3e
 7950 1620 00       		.byte	0
 7951 1621 2A       		.uleb128 0x2a
 7952 1622 72030000 		.4byte	.LVL57
 7953 1626 2C310000 		.4byte	0x312c
 7954 162a 42160000 		.4byte	0x1642
 7955 162e 2B       		.uleb128 0x2b
 7956 162f 01       		.uleb128 0x1
 7957 1630 52       		.byte	0x52
 7958 1631 05       		.uleb128 0x5
 7959 1632 03       		.byte	0x3
 7960 1633 2C000000 		.4byte	.LC5
 7961 1637 2B       		.uleb128 0x2b
 7962 1638 01       		.uleb128 0x1
 7963 1639 51       		.byte	0x51
 7964 163a 01       		.uleb128 0x1
 7965 163b 30       		.byte	0x30
 7966 163c 2B       		.uleb128 0x2b
 7967 163d 01       		.uleb128 0x1
 7968 163e 50       		.byte	0x50
 7969 163f 01       		.uleb128 0x1
 7970 1640 35       		.byte	0x35
 7971 1641 00       		.byte	0
 7972 1642 2A       		.uleb128 0x2a
 7973 1643 7C030000 		.4byte	.LVL58
 7974 1647 2C310000 		.4byte	0x312c
 7975 164b 63160000 		.4byte	0x1663
 7976 164f 2B       		.uleb128 0x2b
 7977 1650 01       		.uleb128 0x1
 7978 1651 52       		.byte	0x52
 7979 1652 05       		.uleb128 0x5
 7980 1653 03       		.byte	0x3
 7981 1654 30000000 		.4byte	.LC6
ARM GAS  /var/folders/28/j9jfyj_n4wz3qtvnym210h2c0000gn/T//ccpoR13X.s 			page 142


 7982 1658 2B       		.uleb128 0x2b
 7983 1659 01       		.uleb128 0x1
 7984 165a 51       		.byte	0x51
 7985 165b 01       		.uleb128 0x1
 7986 165c 32       		.byte	0x32
 7987 165d 2B       		.uleb128 0x2b
 7988 165e 01       		.uleb128 0x1
 7989 165f 50       		.byte	0x50
 7990 1660 01       		.uleb128 0x1
 7991 1661 35       		.byte	0x35
 7992 1662 00       		.byte	0
 7993 1663 2A       		.uleb128 0x2a
 7994 1664 86030000 		.4byte	.LVL59
 7995 1668 2C310000 		.4byte	0x312c
 7996 166c 84160000 		.4byte	0x1684
 7997 1670 2B       		.uleb128 0x2b
 7998 1671 01       		.uleb128 0x1
 7999 1672 52       		.byte	0x52
 8000 1673 05       		.uleb128 0x5
 8001 1674 03       		.byte	0x3
 8002 1675 34000000 		.4byte	.LC7
 8003 1679 2B       		.uleb128 0x2b
 8004 167a 01       		.uleb128 0x1
 8005 167b 51       		.byte	0x51
 8006 167c 01       		.uleb128 0x1
 8007 167d 34       		.byte	0x34
 8008 167e 2B       		.uleb128 0x2b
 8009 167f 01       		.uleb128 0x1
 8010 1680 50       		.byte	0x50
 8011 1681 01       		.uleb128 0x1
 8012 1682 30       		.byte	0x30
 8013 1683 00       		.byte	0
 8014 1684 2A       		.uleb128 0x2a
 8015 1685 8E030000 		.4byte	.LVL60
 8016 1689 0F310000 		.4byte	0x310f
 8017 168d 9C160000 		.4byte	0x169c
 8018 1691 2B       		.uleb128 0x2b
 8019 1692 01       		.uleb128 0x1
 8020 1693 51       		.byte	0x51
 8021 1694 01       		.uleb128 0x1
 8022 1695 45       		.byte	0x45
 8023 1696 2B       		.uleb128 0x2b
 8024 1697 01       		.uleb128 0x1
 8025 1698 50       		.byte	0x50
 8026 1699 01       		.uleb128 0x1
 8027 169a 3D       		.byte	0x3d
 8028 169b 00       		.byte	0
 8029 169c 2A       		.uleb128 0x2a
 8030 169d 96030000 		.4byte	.LVL61
 8031 16a1 0F310000 		.4byte	0x310f
 8032 16a5 B4160000 		.4byte	0x16b4
 8033 16a9 2B       		.uleb128 0x2b
 8034 16aa 01       		.uleb128 0x1
 8035 16ab 51       		.byte	0x51
 8036 16ac 01       		.uleb128 0x1
 8037 16ad 45       		.byte	0x45
 8038 16ae 2B       		.uleb128 0x2b
ARM GAS  /var/folders/28/j9jfyj_n4wz3qtvnym210h2c0000gn/T//ccpoR13X.s 			page 143


 8039 16af 01       		.uleb128 0x1
 8040 16b0 50       		.byte	0x50
 8041 16b1 01       		.uleb128 0x1
 8042 16b2 3C       		.byte	0x3c
 8043 16b3 00       		.byte	0
 8044 16b4 2A       		.uleb128 0x2a
 8045 16b5 9E030000 		.4byte	.LVL62
 8046 16b9 0F310000 		.4byte	0x310f
 8047 16bd CD160000 		.4byte	0x16cd
 8048 16c1 2B       		.uleb128 0x2b
 8049 16c2 01       		.uleb128 0x1
 8050 16c3 51       		.byte	0x51
 8051 16c4 02       		.uleb128 0x2
 8052 16c5 08       		.byte	0x8
 8053 16c6 25       		.byte	0x25
 8054 16c7 2B       		.uleb128 0x2b
 8055 16c8 01       		.uleb128 0x1
 8056 16c9 50       		.byte	0x50
 8057 16ca 01       		.uleb128 0x1
 8058 16cb 3D       		.byte	0x3d
 8059 16cc 00       		.byte	0
 8060 16cd 2A       		.uleb128 0x2a
 8061 16ce A6030000 		.4byte	.LVL63
 8062 16d2 0F310000 		.4byte	0x310f
 8063 16d6 E6160000 		.4byte	0x16e6
 8064 16da 2B       		.uleb128 0x2b
 8065 16db 01       		.uleb128 0x1
 8066 16dc 51       		.byte	0x51
 8067 16dd 02       		.uleb128 0x2
 8068 16de 08       		.byte	0x8
 8069 16df 25       		.byte	0x25
 8070 16e0 2B       		.uleb128 0x2b
 8071 16e1 01       		.uleb128 0x1
 8072 16e2 50       		.byte	0x50
 8073 16e3 01       		.uleb128 0x1
 8074 16e4 3C       		.byte	0x3c
 8075 16e5 00       		.byte	0
 8076 16e6 2A       		.uleb128 0x2a
 8077 16e7 AE030000 		.4byte	.LVL64
 8078 16eb 0F310000 		.4byte	0x310f
 8079 16ef FE160000 		.4byte	0x16fe
 8080 16f3 2B       		.uleb128 0x2b
 8081 16f4 01       		.uleb128 0x1
 8082 16f5 51       		.byte	0x51
 8083 16f6 01       		.uleb128 0x1
 8084 16f7 35       		.byte	0x35
 8085 16f8 2B       		.uleb128 0x2b
 8086 16f9 01       		.uleb128 0x1
 8087 16fa 50       		.byte	0x50
 8088 16fb 01       		.uleb128 0x1
 8089 16fc 3D       		.byte	0x3d
 8090 16fd 00       		.byte	0
 8091 16fe 2A       		.uleb128 0x2a
 8092 16ff B6030000 		.4byte	.LVL65
 8093 1703 0F310000 		.4byte	0x310f
 8094 1707 16170000 		.4byte	0x1716
 8095 170b 2B       		.uleb128 0x2b
ARM GAS  /var/folders/28/j9jfyj_n4wz3qtvnym210h2c0000gn/T//ccpoR13X.s 			page 144


 8096 170c 01       		.uleb128 0x1
 8097 170d 51       		.byte	0x51
 8098 170e 01       		.uleb128 0x1
 8099 170f 35       		.byte	0x35
 8100 1710 2B       		.uleb128 0x2b
 8101 1711 01       		.uleb128 0x1
 8102 1712 50       		.byte	0x50
 8103 1713 01       		.uleb128 0x1
 8104 1714 3C       		.byte	0x3c
 8105 1715 00       		.byte	0
 8106 1716 2A       		.uleb128 0x2a
 8107 1717 C0030000 		.4byte	.LVL66
 8108 171b 47310000 		.4byte	0x3147
 8109 171f 37170000 		.4byte	0x1737
 8110 1723 2B       		.uleb128 0x2b
 8111 1724 01       		.uleb128 0x1
 8112 1725 52       		.byte	0x52
 8113 1726 05       		.uleb128 0x5
 8114 1727 03       		.byte	0x3
 8115 1728 38000000 		.4byte	.LC8
 8116 172c 2B       		.uleb128 0x2b
 8117 172d 01       		.uleb128 0x1
 8118 172e 51       		.byte	0x51
 8119 172f 01       		.uleb128 0x1
 8120 1730 35       		.byte	0x35
 8121 1731 2B       		.uleb128 0x2b
 8122 1732 01       		.uleb128 0x1
 8123 1733 50       		.byte	0x50
 8124 1734 01       		.uleb128 0x1
 8125 1735 30       		.byte	0x30
 8126 1736 00       		.byte	0
 8127 1737 2C       		.uleb128 0x2c
 8128 1738 CC030000 		.4byte	.LVL67
 8129 173c 47310000 		.4byte	0x3147
 8130 1740 2B       		.uleb128 0x2b
 8131 1741 01       		.uleb128 0x1
 8132 1742 52       		.byte	0x52
 8133 1743 05       		.uleb128 0x5
 8134 1744 03       		.byte	0x3
 8135 1745 40000000 		.4byte	.LC9
 8136 1749 2B       		.uleb128 0x2b
 8137 174a 01       		.uleb128 0x1
 8138 174b 51       		.byte	0x51
 8139 174c 01       		.uleb128 0x1
 8140 174d 35       		.byte	0x35
 8141 174e 2B       		.uleb128 0x2b
 8142 174f 01       		.uleb128 0x1
 8143 1750 50       		.byte	0x50
 8144 1751 02       		.uleb128 0x2
 8145 1752 08       		.byte	0x8
 8146 1753 3A       		.byte	0x3a
 8147 1754 00       		.byte	0
 8148 1755 00       		.byte	0
 8149 1756 3B       		.uleb128 0x3b
 8150 1757 F6090000 		.4byte	.LASF243
 8151 175b 01       		.byte	0x1
 8152 175c C4       		.byte	0xc4
ARM GAS  /var/folders/28/j9jfyj_n4wz3qtvnym210h2c0000gn/T//ccpoR13X.s 			page 145


 8153 175d 20040000 		.4byte	.LFB187
 8154 1761 04010000 		.4byte	.LFE187-.LFB187
 8155 1765 01       		.uleb128 0x1
 8156 1766 9C       		.byte	0x9c
 8157 1767 47190000 		.4byte	0x1947
 8158 176b 42       		.uleb128 0x42
 8159 176c 240B0000 		.4byte	.LASF72
 8160 1770 01       		.byte	0x1
 8161 1771 C4       		.byte	0xc4
 8162 1772 A6030000 		.4byte	0x3a6
 8163 1776 4E050000 		.4byte	.LLST37
 8164 177a 43       		.uleb128 0x43
 8165 177b 6900     		.ascii	"i\000"
 8166 177d 01       		.byte	0x1
 8167 177e C6       		.byte	0xc6
 8168 177f 9F000000 		.4byte	0x9f
 8169 1783 6C050000 		.4byte	.LLST38
 8170 1787 2E       		.uleb128 0x2e
 8171 1788 40010000 		.4byte	.Ldebug_ranges0+0x140
 8172 178c CF170000 		.4byte	0x17cf
 8173 1790 43       		.uleb128 0x43
 8174 1791 7900     		.ascii	"y\000"
 8175 1793 01       		.byte	0x1
 8176 1794 DA       		.byte	0xda
 8177 1795 9F000000 		.4byte	0x9f
 8178 1799 C5050000 		.4byte	.LLST39
 8179 179d 43       		.uleb128 0x43
 8180 179e 793200   		.ascii	"y2\000"
 8181 17a1 01       		.byte	0x1
 8182 17a2 E0       		.byte	0xe0
 8183 17a3 9F000000 		.4byte	0x9f
 8184 17a7 EF050000 		.4byte	.LLST40
 8185 17ab 43       		.uleb128 0x43
 8186 17ac 6A00     		.ascii	"j\000"
 8187 17ae 01       		.byte	0x1
 8188 17af E6       		.byte	0xe6
 8189 17b0 9F000000 		.4byte	0x9f
 8190 17b4 1F060000 		.4byte	.LLST41
 8191 17b8 2C       		.uleb128 0x2c
 8192 17b9 E8040000 		.4byte	.LVL106
 8193 17bd 0F310000 		.4byte	0x310f
 8194 17c1 2B       		.uleb128 0x2b
 8195 17c2 01       		.uleb128 0x1
 8196 17c3 51       		.byte	0x51
 8197 17c4 02       		.uleb128 0x2
 8198 17c5 74       		.byte	0x74
 8199 17c6 7F       		.sleb128 -1
 8200 17c7 2B       		.uleb128 0x2b
 8201 17c8 01       		.uleb128 0x1
 8202 17c9 50       		.byte	0x50
 8203 17ca 02       		.uleb128 0x2
 8204 17cb 76       		.byte	0x76
 8205 17cc 00       		.sleb128 0
 8206 17cd 00       		.byte	0
 8207 17ce 00       		.byte	0
 8208 17cf 33       		.uleb128 0x33
 8209 17d0 2A040000 		.4byte	.LVL82
ARM GAS  /var/folders/28/j9jfyj_n4wz3qtvnym210h2c0000gn/T//ccpoR13X.s 			page 146


 8210 17d4 25310000 		.4byte	0x3125
 8211 17d8 2A       		.uleb128 0x2a
 8212 17d9 36040000 		.4byte	.LVL85
 8213 17dd 0F310000 		.4byte	0x310f
 8214 17e1 F1170000 		.4byte	0x17f1
 8215 17e5 2B       		.uleb128 0x2b
 8216 17e6 01       		.uleb128 0x1
 8217 17e7 51       		.byte	0x51
 8218 17e8 02       		.uleb128 0x2
 8219 17e9 74       		.byte	0x74
 8220 17ea 7F       		.sleb128 -1
 8221 17eb 2B       		.uleb128 0x2b
 8222 17ec 01       		.uleb128 0x1
 8223 17ed 50       		.byte	0x50
 8224 17ee 01       		.uleb128 0x1
 8225 17ef 3E       		.byte	0x3e
 8226 17f0 00       		.byte	0
 8227 17f1 2A       		.uleb128 0x2a
 8228 17f2 44040000 		.4byte	.LVL86
 8229 17f6 2C310000 		.4byte	0x312c
 8230 17fa 12180000 		.4byte	0x1812
 8231 17fe 2B       		.uleb128 0x2b
 8232 17ff 01       		.uleb128 0x1
 8233 1800 52       		.byte	0x52
 8234 1801 05       		.uleb128 0x5
 8235 1802 03       		.byte	0x3
 8236 1803 2C000000 		.4byte	.LC5
 8237 1807 2B       		.uleb128 0x2b
 8238 1808 01       		.uleb128 0x1
 8239 1809 51       		.byte	0x51
 8240 180a 01       		.uleb128 0x1
 8241 180b 30       		.byte	0x30
 8242 180c 2B       		.uleb128 0x2b
 8243 180d 01       		.uleb128 0x1
 8244 180e 50       		.byte	0x50
 8245 180f 01       		.uleb128 0x1
 8246 1810 35       		.byte	0x35
 8247 1811 00       		.byte	0
 8248 1812 2A       		.uleb128 0x2a
 8249 1813 4E040000 		.4byte	.LVL87
 8250 1817 2C310000 		.4byte	0x312c
 8251 181b 33180000 		.4byte	0x1833
 8252 181f 2B       		.uleb128 0x2b
 8253 1820 01       		.uleb128 0x1
 8254 1821 52       		.byte	0x52
 8255 1822 05       		.uleb128 0x5
 8256 1823 03       		.byte	0x3
 8257 1824 30000000 		.4byte	.LC6
 8258 1828 2B       		.uleb128 0x2b
 8259 1829 01       		.uleb128 0x1
 8260 182a 51       		.byte	0x51
 8261 182b 01       		.uleb128 0x1
 8262 182c 32       		.byte	0x32
 8263 182d 2B       		.uleb128 0x2b
 8264 182e 01       		.uleb128 0x1
 8265 182f 50       		.byte	0x50
 8266 1830 01       		.uleb128 0x1
ARM GAS  /var/folders/28/j9jfyj_n4wz3qtvnym210h2c0000gn/T//ccpoR13X.s 			page 147


 8267 1831 35       		.byte	0x35
 8268 1832 00       		.byte	0
 8269 1833 2A       		.uleb128 0x2a
 8270 1834 58040000 		.4byte	.LVL88
 8271 1838 2C310000 		.4byte	0x312c
 8272 183c 54180000 		.4byte	0x1854
 8273 1840 2B       		.uleb128 0x2b
 8274 1841 01       		.uleb128 0x1
 8275 1842 52       		.byte	0x52
 8276 1843 05       		.uleb128 0x5
 8277 1844 03       		.byte	0x3
 8278 1845 34000000 		.4byte	.LC7
 8279 1849 2B       		.uleb128 0x2b
 8280 184a 01       		.uleb128 0x1
 8281 184b 51       		.byte	0x51
 8282 184c 01       		.uleb128 0x1
 8283 184d 34       		.byte	0x34
 8284 184e 2B       		.uleb128 0x2b
 8285 184f 01       		.uleb128 0x1
 8286 1850 50       		.byte	0x50
 8287 1851 01       		.uleb128 0x1
 8288 1852 30       		.byte	0x30
 8289 1853 00       		.byte	0
 8290 1854 2A       		.uleb128 0x2a
 8291 1855 60040000 		.4byte	.LVL89
 8292 1859 0F310000 		.4byte	0x310f
 8293 185d 6C180000 		.4byte	0x186c
 8294 1861 2B       		.uleb128 0x2b
 8295 1862 01       		.uleb128 0x1
 8296 1863 51       		.byte	0x51
 8297 1864 01       		.uleb128 0x1
 8298 1865 45       		.byte	0x45
 8299 1866 2B       		.uleb128 0x2b
 8300 1867 01       		.uleb128 0x1
 8301 1868 50       		.byte	0x50
 8302 1869 01       		.uleb128 0x1
 8303 186a 3D       		.byte	0x3d
 8304 186b 00       		.byte	0
 8305 186c 2A       		.uleb128 0x2a
 8306 186d 68040000 		.4byte	.LVL90
 8307 1871 0F310000 		.4byte	0x310f
 8308 1875 84180000 		.4byte	0x1884
 8309 1879 2B       		.uleb128 0x2b
 8310 187a 01       		.uleb128 0x1
 8311 187b 51       		.byte	0x51
 8312 187c 01       		.uleb128 0x1
 8313 187d 45       		.byte	0x45
 8314 187e 2B       		.uleb128 0x2b
 8315 187f 01       		.uleb128 0x1
 8316 1880 50       		.byte	0x50
 8317 1881 01       		.uleb128 0x1
 8318 1882 3C       		.byte	0x3c
 8319 1883 00       		.byte	0
 8320 1884 2A       		.uleb128 0x2a
 8321 1885 70040000 		.4byte	.LVL91
 8322 1889 0F310000 		.4byte	0x310f
 8323 188d 9D180000 		.4byte	0x189d
ARM GAS  /var/folders/28/j9jfyj_n4wz3qtvnym210h2c0000gn/T//ccpoR13X.s 			page 148


 8324 1891 2B       		.uleb128 0x2b
 8325 1892 01       		.uleb128 0x1
 8326 1893 51       		.byte	0x51
 8327 1894 02       		.uleb128 0x2
 8328 1895 08       		.byte	0x8
 8329 1896 25       		.byte	0x25
 8330 1897 2B       		.uleb128 0x2b
 8331 1898 01       		.uleb128 0x1
 8332 1899 50       		.byte	0x50
 8333 189a 01       		.uleb128 0x1
 8334 189b 3D       		.byte	0x3d
 8335 189c 00       		.byte	0
 8336 189d 2A       		.uleb128 0x2a
 8337 189e 78040000 		.4byte	.LVL92
 8338 18a2 0F310000 		.4byte	0x310f
 8339 18a6 B6180000 		.4byte	0x18b6
 8340 18aa 2B       		.uleb128 0x2b
 8341 18ab 01       		.uleb128 0x1
 8342 18ac 51       		.byte	0x51
 8343 18ad 02       		.uleb128 0x2
 8344 18ae 08       		.byte	0x8
 8345 18af 25       		.byte	0x25
 8346 18b0 2B       		.uleb128 0x2b
 8347 18b1 01       		.uleb128 0x1
 8348 18b2 50       		.byte	0x50
 8349 18b3 01       		.uleb128 0x1
 8350 18b4 3C       		.byte	0x3c
 8351 18b5 00       		.byte	0
 8352 18b6 2A       		.uleb128 0x2a
 8353 18b7 80040000 		.4byte	.LVL93
 8354 18bb 0F310000 		.4byte	0x310f
 8355 18bf CE180000 		.4byte	0x18ce
 8356 18c3 2B       		.uleb128 0x2b
 8357 18c4 01       		.uleb128 0x1
 8358 18c5 51       		.byte	0x51
 8359 18c6 01       		.uleb128 0x1
 8360 18c7 35       		.byte	0x35
 8361 18c8 2B       		.uleb128 0x2b
 8362 18c9 01       		.uleb128 0x1
 8363 18ca 50       		.byte	0x50
 8364 18cb 01       		.uleb128 0x1
 8365 18cc 3D       		.byte	0x3d
 8366 18cd 00       		.byte	0
 8367 18ce 2A       		.uleb128 0x2a
 8368 18cf 88040000 		.4byte	.LVL94
 8369 18d3 0F310000 		.4byte	0x310f
 8370 18d7 E6180000 		.4byte	0x18e6
 8371 18db 2B       		.uleb128 0x2b
 8372 18dc 01       		.uleb128 0x1
 8373 18dd 51       		.byte	0x51
 8374 18de 01       		.uleb128 0x1
 8375 18df 35       		.byte	0x35
 8376 18e0 2B       		.uleb128 0x2b
 8377 18e1 01       		.uleb128 0x1
 8378 18e2 50       		.byte	0x50
 8379 18e3 01       		.uleb128 0x1
 8380 18e4 3C       		.byte	0x3c
ARM GAS  /var/folders/28/j9jfyj_n4wz3qtvnym210h2c0000gn/T//ccpoR13X.s 			page 149


 8381 18e5 00       		.byte	0
 8382 18e6 2A       		.uleb128 0x2a
 8383 18e7 92040000 		.4byte	.LVL95
 8384 18eb 47310000 		.4byte	0x3147
 8385 18ef 07190000 		.4byte	0x1907
 8386 18f3 2B       		.uleb128 0x2b
 8387 18f4 01       		.uleb128 0x1
 8388 18f5 52       		.byte	0x52
 8389 18f6 05       		.uleb128 0x5
 8390 18f7 03       		.byte	0x3
 8391 18f8 38000000 		.4byte	.LC8
 8392 18fc 2B       		.uleb128 0x2b
 8393 18fd 01       		.uleb128 0x1
 8394 18fe 51       		.byte	0x51
 8395 18ff 01       		.uleb128 0x1
 8396 1900 35       		.byte	0x35
 8397 1901 2B       		.uleb128 0x2b
 8398 1902 01       		.uleb128 0x1
 8399 1903 50       		.byte	0x50
 8400 1904 01       		.uleb128 0x1
 8401 1905 30       		.byte	0x30
 8402 1906 00       		.byte	0
 8403 1907 2A       		.uleb128 0x2a
 8404 1908 9C040000 		.4byte	.LVL96
 8405 190c 47310000 		.4byte	0x3147
 8406 1910 29190000 		.4byte	0x1929
 8407 1914 2B       		.uleb128 0x2b
 8408 1915 01       		.uleb128 0x1
 8409 1916 52       		.byte	0x52
 8410 1917 05       		.uleb128 0x5
 8411 1918 03       		.byte	0x3
 8412 1919 40000000 		.4byte	.LC9
 8413 191d 2B       		.uleb128 0x2b
 8414 191e 01       		.uleb128 0x1
 8415 191f 51       		.byte	0x51
 8416 1920 01       		.uleb128 0x1
 8417 1921 35       		.byte	0x35
 8418 1922 2B       		.uleb128 0x2b
 8419 1923 01       		.uleb128 0x1
 8420 1924 50       		.byte	0x50
 8421 1925 02       		.uleb128 0x2
 8422 1926 08       		.byte	0x8
 8423 1927 3A       		.byte	0x3a
 8424 1928 00       		.byte	0
 8425 1929 2C       		.uleb128 0x2c
 8426 192a A6040000 		.4byte	.LVL97
 8427 192e 2C310000 		.4byte	0x312c
 8428 1932 2B       		.uleb128 0x2b
 8429 1933 01       		.uleb128 0x1
 8430 1934 52       		.byte	0x52
 8431 1935 05       		.uleb128 0x5
 8432 1936 03       		.byte	0x3
 8433 1937 48000000 		.4byte	.LC10
 8434 193b 2B       		.uleb128 0x2b
 8435 193c 01       		.uleb128 0x1
 8436 193d 51       		.byte	0x51
 8437 193e 01       		.uleb128 0x1
ARM GAS  /var/folders/28/j9jfyj_n4wz3qtvnym210h2c0000gn/T//ccpoR13X.s 			page 150


 8438 193f 35       		.byte	0x35
 8439 1940 2B       		.uleb128 0x2b
 8440 1941 01       		.uleb128 0x1
 8441 1942 50       		.byte	0x50
 8442 1943 01       		.uleb128 0x1
 8443 1944 4B       		.byte	0x4b
 8444 1945 00       		.byte	0
 8445 1946 00       		.byte	0
 8446 1947 3B       		.uleb128 0x3b
 8447 1948 0F0A0000 		.4byte	.LASF244
 8448 194c 01       		.byte	0x1
 8449 194d F1       		.byte	0xf1
 8450 194e 30050000 		.4byte	.LFB188
 8451 1952 02000000 		.4byte	.LFE188-.LFB188
 8452 1956 01       		.uleb128 0x1
 8453 1957 9C       		.byte	0x9c
 8454 1958 6A190000 		.4byte	0x196a
 8455 195c 3D       		.uleb128 0x3d
 8456 195d 240B0000 		.4byte	.LASF72
 8457 1961 01       		.byte	0x1
 8458 1962 F1       		.byte	0xf1
 8459 1963 A6030000 		.4byte	0x3a6
 8460 1967 01       		.uleb128 0x1
 8461 1968 50       		.byte	0x50
 8462 1969 00       		.byte	0
 8463 196a 3B       		.uleb128 0x3b
 8464 196b 280A0000 		.4byte	.LASF245
 8465 196f 01       		.byte	0x1
 8466 1970 F5       		.byte	0xf5
 8467 1971 40050000 		.4byte	.LFB189
 8468 1975 02000000 		.4byte	.LFE189-.LFB189
 8469 1979 01       		.uleb128 0x1
 8470 197a 9C       		.byte	0x9c
 8471 197b 8D190000 		.4byte	0x198d
 8472 197f 3D       		.uleb128 0x3d
 8473 1980 240B0000 		.4byte	.LASF72
 8474 1984 01       		.byte	0x1
 8475 1985 F5       		.byte	0xf5
 8476 1986 A6030000 		.4byte	0x3a6
 8477 198a 01       		.uleb128 0x1
 8478 198b 50       		.byte	0x50
 8479 198c 00       		.byte	0
 8480 198d 3B       		.uleb128 0x3b
 8481 198e A5080000 		.4byte	.LASF246
 8482 1992 01       		.byte	0x1
 8483 1993 F9       		.byte	0xf9
 8484 1994 50050000 		.4byte	.LFB190
 8485 1998 02000000 		.4byte	.LFE190-.LFB190
 8486 199c 01       		.uleb128 0x1
 8487 199d 9C       		.byte	0x9c
 8488 199e B0190000 		.4byte	0x19b0
 8489 19a2 3D       		.uleb128 0x3d
 8490 19a3 240B0000 		.4byte	.LASF72
 8491 19a7 01       		.byte	0x1
 8492 19a8 F9       		.byte	0xf9
 8493 19a9 A6030000 		.4byte	0x3a6
 8494 19ad 01       		.uleb128 0x1
ARM GAS  /var/folders/28/j9jfyj_n4wz3qtvnym210h2c0000gn/T//ccpoR13X.s 			page 151


 8495 19ae 50       		.byte	0x50
 8496 19af 00       		.byte	0
 8497 19b0 44       		.uleb128 0x44
 8498 19b1 A50B0000 		.4byte	.LASF249
 8499 19b5 01       		.byte	0x1
 8500 19b6 A801     		.2byte	0x1a8
 8501 19b8 60050000 		.4byte	.LFB196
 8502 19bc 10000000 		.4byte	.LFE196-.LFB196
 8503 19c0 01       		.uleb128 0x1
 8504 19c1 9C       		.byte	0x9c
 8505 19c2 27       		.uleb128 0x27
 8506 19c3 C5050000 		.4byte	.LASF247
 8507 19c7 01       		.byte	0x1
 8508 19c8 AC01     		.2byte	0x1ac
 8509 19ca 70050000 		.4byte	.LFB197
 8510 19ce C4010000 		.4byte	.LFE197-.LFB197
 8511 19d2 01       		.uleb128 0x1
 8512 19d3 9C       		.byte	0x9c
 8513 19d4 2D1D0000 		.4byte	0x1d2d
 8514 19d8 28       		.uleb128 0x28
 8515 19d9 703100   		.ascii	"p1\000"
 8516 19dc 01       		.byte	0x1
 8517 19dd B001     		.2byte	0x1b0
 8518 19df 310F0000 		.4byte	0xf31
 8519 19e3 55060000 		.4byte	.LLST42
 8520 19e7 28       		.uleb128 0x28
 8521 19e8 713100   		.ascii	"q1\000"
 8522 19eb 01       		.byte	0x1
 8523 19ec B101     		.2byte	0x1b1
 8524 19ee 310F0000 		.4byte	0xf31
 8525 19f2 8B060000 		.4byte	.LLST43
 8526 19f6 28       		.uleb128 0x28
 8527 19f7 7000     		.ascii	"p\000"
 8528 19f9 01       		.byte	0x1
 8529 19fa B501     		.2byte	0x1b5
 8530 19fc 310F0000 		.4byte	0xf31
 8531 1a00 CB060000 		.4byte	.LLST44
 8532 1a04 2D       		.uleb128 0x2d
 8533 1a05 3C020000 		.4byte	.LASF248
 8534 1a09 01       		.byte	0x1
 8535 1a0a B701     		.2byte	0x1b7
 8536 1a0c 9F000000 		.4byte	0x9f
 8537 1a10 E9060000 		.4byte	.LLST45
 8538 1a14 28       		.uleb128 0x28
 8539 1a15 6900     		.ascii	"i\000"
 8540 1a17 01       		.byte	0x1
 8541 1a18 C701     		.2byte	0x1c7
 8542 1a1a 9F000000 		.4byte	0x9f
 8543 1a1e 45070000 		.4byte	.LLST46
 8544 1a22 2F       		.uleb128 0x2f
 8545 1a23 510F0000 		.4byte	0xf51
 8546 1a27 78050000 		.4byte	.LBB108
 8547 1a2b 58010000 		.4byte	.Ldebug_ranges0+0x158
 8548 1a2f 01       		.byte	0x1
 8549 1a30 B201     		.2byte	0x1b2
 8550 1a32 5E1A0000 		.4byte	0x1a5e
 8551 1a36 38       		.uleb128 0x38
ARM GAS  /var/folders/28/j9jfyj_n4wz3qtvnym210h2c0000gn/T//ccpoR13X.s 			page 152


 8552 1a37 7E0F0000 		.4byte	0xf7e
 8553 1a3b 00       		.byte	0
 8554 1a3c 39       		.uleb128 0x39
 8555 1a3d 730F0000 		.4byte	0xf73
 8556 1a41 06       		.uleb128 0x6
 8557 1a42 03       		.byte	0x3
 8558 1a43 50000000 		.4byte	.LC11
 8559 1a47 9F       		.byte	0x9f
 8560 1a48 39       		.uleb128 0x39
 8561 1a49 680F0000 		.4byte	0xf68
 8562 1a4d 06       		.uleb128 0x6
 8563 1a4e 03       		.byte	0x3
 8564 1a4f 00000000 		.4byte	KvpsHead
 8565 1a53 9F       		.byte	0x9f
 8566 1a54 30       		.uleb128 0x30
 8567 1a55 5D0F0000 		.4byte	0xf5d
 8568 1a59 55060000 		.4byte	.LLST42
 8569 1a5d 00       		.byte	0
 8570 1a5e 2F       		.uleb128 0x2f
 8571 1a5f 510F0000 		.4byte	0xf51
 8572 1a63 92050000 		.4byte	.LBB115
 8573 1a67 88010000 		.4byte	.Ldebug_ranges0+0x188
 8574 1a6b 01       		.byte	0x1
 8575 1a6c B301     		.2byte	0x1b3
 8576 1a6e A01A0000 		.4byte	0x1aa0
 8577 1a72 39       		.uleb128 0x39
 8578 1a73 7E0F0000 		.4byte	0xf7e
 8579 1a77 06       		.uleb128 0x6
 8580 1a78 03       		.byte	0x3
 8581 1a79 00000000 		.4byte	EnterMenuFormat
 8582 1a7d 9F       		.byte	0x9f
 8583 1a7e 39       		.uleb128 0x39
 8584 1a7f 730F0000 		.4byte	0xf73
 8585 1a83 06       		.uleb128 0x6
 8586 1a84 03       		.byte	0x3
 8587 1a85 58000000 		.4byte	.LC12
 8588 1a89 9F       		.byte	0x9f
 8589 1a8a 39       		.uleb128 0x39
 8590 1a8b 680F0000 		.4byte	0xf68
 8591 1a8f 06       		.uleb128 0x6
 8592 1a90 03       		.byte	0x3
 8593 1a91 00000000 		.4byte	KvpsHead
 8594 1a95 9F       		.byte	0x9f
 8595 1a96 30       		.uleb128 0x30
 8596 1a97 5D0F0000 		.4byte	0xf5d
 8597 1a9b 64070000 		.4byte	.LLST48
 8598 1a9f 00       		.byte	0
 8599 1aa0 2F       		.uleb128 0x2f
 8600 1aa1 D40F0000 		.4byte	0xfd4
 8601 1aa5 B4050000 		.4byte	.LBB126
 8602 1aa9 B0010000 		.4byte	.Ldebug_ranges0+0x1b0
 8603 1aad 01       		.byte	0x1
 8604 1aae B901     		.2byte	0x1b9
 8605 1ab0 E81A0000 		.4byte	0x1ae8
 8606 1ab4 39       		.uleb128 0x39
 8607 1ab5 0C100000 		.4byte	0x100c
 8608 1ab9 06       		.uleb128 0x6
ARM GAS  /var/folders/28/j9jfyj_n4wz3qtvnym210h2c0000gn/T//ccpoR13X.s 			page 153


 8609 1aba 03       		.byte	0x3
 8610 1abb 00000000 		.4byte	ObjectKvps
 8611 1abf 9F       		.byte	0x9f
 8612 1ac0 38       		.uleb128 0x38
 8613 1ac1 01100000 		.4byte	0x1001
 8614 1ac5 00       		.byte	0
 8615 1ac6 39       		.uleb128 0x39
 8616 1ac7 F60F0000 		.4byte	0xff6
 8617 1acb 06       		.uleb128 0x6
 8618 1acc 03       		.byte	0x3
 8619 1acd 60000000 		.4byte	.LC13
 8620 1ad1 9F       		.byte	0x9f
 8621 1ad2 39       		.uleb128 0x39
 8622 1ad3 EB0F0000 		.4byte	0xfeb
 8623 1ad7 06       		.uleb128 0x6
 8624 1ad8 03       		.byte	0x3
 8625 1ad9 00000000 		.4byte	KvpsHead
 8626 1add 9F       		.byte	0x9f
 8627 1ade 30       		.uleb128 0x30
 8628 1adf E00F0000 		.4byte	0xfe0
 8629 1ae3 CB060000 		.4byte	.LLST44
 8630 1ae7 00       		.byte	0
 8631 1ae8 2F       		.uleb128 0x2f
 8632 1ae9 18100000 		.4byte	0x1018
 8633 1aed BE050000 		.4byte	.LBB134
 8634 1af1 E8010000 		.4byte	.Ldebug_ranges0+0x1e8
 8635 1af5 01       		.byte	0x1
 8636 1af6 BA01     		.2byte	0x1ba
 8637 1af8 2F1B0000 		.4byte	0x1b2f
 8638 1afc 38       		.uleb128 0x38
 8639 1afd 5B100000 		.4byte	0x105b
 8640 1b01 0F       		.byte	0xf
 8641 1b02 38       		.uleb128 0x38
 8642 1b03 50100000 		.4byte	0x1050
 8643 1b07 00       		.byte	0
 8644 1b08 45       		.uleb128 0x45
 8645 1b09 45100000 		.4byte	0x1045
 8646 1b0d 39       		.uleb128 0x39
 8647 1b0e 3A100000 		.4byte	0x103a
 8648 1b12 06       		.uleb128 0x6
 8649 1b13 03       		.byte	0x3
 8650 1b14 68000000 		.4byte	.LC14
 8651 1b18 9F       		.byte	0x9f
 8652 1b19 39       		.uleb128 0x39
 8653 1b1a 2F100000 		.4byte	0x102f
 8654 1b1e 06       		.uleb128 0x6
 8655 1b1f 03       		.byte	0x3
 8656 1b20 00000000 		.4byte	KvpsHead
 8657 1b24 9F       		.byte	0x9f
 8658 1b25 39       		.uleb128 0x39
 8659 1b26 24100000 		.4byte	0x1024
 8660 1b2a 03       		.uleb128 0x3
 8661 1b2b 74       		.byte	0x74
 8662 1b2c 18       		.sleb128 24
 8663 1b2d 9F       		.byte	0x9f
 8664 1b2e 00       		.byte	0
 8665 1b2f 3A       		.uleb128 0x3a
ARM GAS  /var/folders/28/j9jfyj_n4wz3qtvnym210h2c0000gn/T//ccpoR13X.s 			page 154


 8666 1b30 510F0000 		.4byte	0xf51
 8667 1b34 EC050000 		.4byte	.LBB148
 8668 1b38 0E000000 		.4byte	.LBE148-.LBB148
 8669 1b3c 01       		.byte	0x1
 8670 1b3d BC01     		.2byte	0x1bc
 8671 1b3f 681B0000 		.4byte	0x1b68
 8672 1b43 30       		.uleb128 0x30
 8673 1b44 7E0F0000 		.4byte	0xf7e
 8674 1b48 A4070000 		.4byte	.LLST50
 8675 1b4c 30       		.uleb128 0x30
 8676 1b4d 730F0000 		.4byte	0xf73
 8677 1b51 BC070000 		.4byte	.LLST51
 8678 1b55 30       		.uleb128 0x30
 8679 1b56 680F0000 		.4byte	0xf68
 8680 1b5a D4070000 		.4byte	.LLST52
 8681 1b5e 30       		.uleb128 0x30
 8682 1b5f 5D0F0000 		.4byte	0xf5d
 8683 1b63 EC070000 		.4byte	.LLST53
 8684 1b67 00       		.byte	0
 8685 1b68 2F       		.uleb128 0x2f
 8686 1b69 ED0E0000 		.4byte	0xeed
 8687 1b6d FE050000 		.4byte	.LBB150
 8688 1b71 18020000 		.4byte	.Ldebug_ranges0+0x218
 8689 1b75 01       		.byte	0x1
 8690 1b76 BF01     		.2byte	0x1bf
 8691 1b78 AA1B0000 		.4byte	0x1baa
 8692 1b7c 30       		.uleb128 0x30
 8693 1b7d 250F0000 		.4byte	0xf25
 8694 1b81 01080000 		.4byte	.LLST54
 8695 1b85 30       		.uleb128 0x30
 8696 1b86 1A0F0000 		.4byte	0xf1a
 8697 1b8a 21080000 		.4byte	.LLST55
 8698 1b8e 30       		.uleb128 0x30
 8699 1b8f 0F0F0000 		.4byte	0xf0f
 8700 1b93 35080000 		.4byte	.LLST56
 8701 1b97 30       		.uleb128 0x30
 8702 1b98 040F0000 		.4byte	0xf04
 8703 1b9c 4D080000 		.4byte	.LLST57
 8704 1ba0 30       		.uleb128 0x30
 8705 1ba1 F90E0000 		.4byte	0xef9
 8706 1ba5 65080000 		.4byte	.LLST58
 8707 1ba9 00       		.byte	0
 8708 1baa 2F       		.uleb128 0x2f
 8709 1bab ED0E0000 		.4byte	0xeed
 8710 1baf 0C060000 		.4byte	.LBB159
 8711 1bb3 58020000 		.4byte	.Ldebug_ranges0+0x258
 8712 1bb7 01       		.byte	0x1
 8713 1bb8 C301     		.2byte	0x1c3
 8714 1bba EC1B0000 		.4byte	0x1bec
 8715 1bbe 30       		.uleb128 0x30
 8716 1bbf 250F0000 		.4byte	0xf25
 8717 1bc3 7B080000 		.4byte	.LLST59
 8718 1bc7 30       		.uleb128 0x30
 8719 1bc8 1A0F0000 		.4byte	0xf1a
 8720 1bcc 8E080000 		.4byte	.LLST60
 8721 1bd0 30       		.uleb128 0x30
 8722 1bd1 0F0F0000 		.4byte	0xf0f
ARM GAS  /var/folders/28/j9jfyj_n4wz3qtvnym210h2c0000gn/T//ccpoR13X.s 			page 155


 8723 1bd5 A2080000 		.4byte	.LLST61
 8724 1bd9 30       		.uleb128 0x30
 8725 1bda 040F0000 		.4byte	0xf04
 8726 1bde BA080000 		.4byte	.LLST62
 8727 1be2 30       		.uleb128 0x30
 8728 1be3 F90E0000 		.4byte	0xef9
 8729 1be7 CE080000 		.4byte	.LLST63
 8730 1beb 00       		.byte	0
 8731 1bec 2F       		.uleb128 0x2f
 8732 1bed ED0E0000 		.4byte	0xeed
 8733 1bf1 10060000 		.4byte	.LBB164
 8734 1bf5 80020000 		.4byte	.Ldebug_ranges0+0x280
 8735 1bf9 01       		.byte	0x1
 8736 1bfa C001     		.2byte	0x1c0
 8737 1bfc 2E1C0000 		.4byte	0x1c2e
 8738 1c00 30       		.uleb128 0x30
 8739 1c01 250F0000 		.4byte	0xf25
 8740 1c05 E6080000 		.4byte	.LLST64
 8741 1c09 30       		.uleb128 0x30
 8742 1c0a 1A0F0000 		.4byte	0xf1a
 8743 1c0e FE080000 		.4byte	.LLST65
 8744 1c12 30       		.uleb128 0x30
 8745 1c13 0F0F0000 		.4byte	0xf0f
 8746 1c17 12090000 		.4byte	.LLST66
 8747 1c1b 30       		.uleb128 0x30
 8748 1c1c 040F0000 		.4byte	0xf04
 8749 1c20 2A090000 		.4byte	.LLST67
 8750 1c24 30       		.uleb128 0x30
 8751 1c25 F90E0000 		.4byte	0xef9
 8752 1c29 42090000 		.4byte	.LLST68
 8753 1c2d 00       		.byte	0
 8754 1c2e 2F       		.uleb128 0x2f
 8755 1c2f 18100000 		.4byte	0x1018
 8756 1c33 16060000 		.4byte	.LBB171
 8757 1c37 B8020000 		.4byte	.Ldebug_ranges0+0x2b8
 8758 1c3b 01       		.byte	0x1
 8759 1c3c C101     		.2byte	0x1c1
 8760 1c3e 751C0000 		.4byte	0x1c75
 8761 1c42 30       		.uleb128 0x30
 8762 1c43 5B100000 		.4byte	0x105b
 8763 1c47 58090000 		.4byte	.LLST69
 8764 1c4b 30       		.uleb128 0x30
 8765 1c4c 50100000 		.4byte	0x1050
 8766 1c50 6D090000 		.4byte	.LLST70
 8767 1c54 45       		.uleb128 0x45
 8768 1c55 45100000 		.4byte	0x1045
 8769 1c59 30       		.uleb128 0x30
 8770 1c5a 3A100000 		.4byte	0x103a
 8771 1c5e 81090000 		.4byte	.LLST71
 8772 1c62 30       		.uleb128 0x30
 8773 1c63 2F100000 		.4byte	0x102f
 8774 1c67 99090000 		.4byte	.LLST72
 8775 1c6b 30       		.uleb128 0x30
 8776 1c6c 24100000 		.4byte	0x1024
 8777 1c70 B1090000 		.4byte	.LLST73
 8778 1c74 00       		.byte	0
 8779 1c75 2E       		.uleb128 0x2e
ARM GAS  /var/folders/28/j9jfyj_n4wz3qtvnym210h2c0000gn/T//ccpoR13X.s 			page 156


 8780 1c76 E8020000 		.4byte	.Ldebug_ranges0+0x2e8
 8781 1c7a 9F1C0000 		.4byte	0x1c9f
 8782 1c7e 28       		.uleb128 0x28
 8783 1c7f 73747200 		.ascii	"str\000"
 8784 1c83 01       		.byte	0x1
 8785 1c84 CB01     		.2byte	0x1cb
 8786 1c86 AB0B0000 		.4byte	0xbab
 8787 1c8a C7090000 		.4byte	.LLST74
 8788 1c8e 2C       		.uleb128 0x2c
 8789 1c8f 7E060000 		.4byte	.LVL129
 8790 1c93 62310000 		.4byte	0x3162
 8791 1c97 2B       		.uleb128 0x2b
 8792 1c98 01       		.uleb128 0x1
 8793 1c99 50       		.byte	0x50
 8794 1c9a 02       		.uleb128 0x2
 8795 1c9b 7B       		.byte	0x7b
 8796 1c9c 00       		.sleb128 0
 8797 1c9d 00       		.byte	0
 8798 1c9e 00       		.byte	0
 8799 1c9f 3A       		.uleb128 0x3a
 8800 1ca0 510F0000 		.4byte	0xf51
 8801 1ca4 C2060000 		.4byte	.LBB198
 8802 1ca8 72000000 		.4byte	.LBE198-.LBB198
 8803 1cac 01       		.byte	0x1
 8804 1cad BE01     		.2byte	0x1be
 8805 1caf DB1C0000 		.4byte	0x1cdb
 8806 1cb3 38       		.uleb128 0x38
 8807 1cb4 7E0F0000 		.4byte	0xf7e
 8808 1cb8 00       		.byte	0
 8809 1cb9 39       		.uleb128 0x39
 8810 1cba 730F0000 		.4byte	0xf73
 8811 1cbe 06       		.uleb128 0x6
 8812 1cbf 03       		.byte	0x3
 8813 1cc0 70000000 		.4byte	.LC15
 8814 1cc4 9F       		.byte	0x9f
 8815 1cc5 39       		.uleb128 0x39
 8816 1cc6 680F0000 		.4byte	0xf68
 8817 1cca 06       		.uleb128 0x6
 8818 1ccb 03       		.byte	0x3
 8819 1ccc 00000000 		.4byte	KvpsHead
 8820 1cd0 9F       		.byte	0x9f
 8821 1cd1 39       		.uleb128 0x39
 8822 1cd2 5D0F0000 		.4byte	0xf5d
 8823 1cd6 03       		.uleb128 0x3
 8824 1cd7 74       		.byte	0x74
 8825 1cd8 30       		.sleb128 48
 8826 1cd9 9F       		.byte	0x9f
 8827 1cda 00       		.byte	0
 8828 1cdb 2A       		.uleb128 0x2a
 8829 1cdc 8C050000 		.4byte	.LVL115
 8830 1ce0 62310000 		.4byte	0x3162
 8831 1ce4 EF1C0000 		.4byte	0x1cef
 8832 1ce8 2B       		.uleb128 0x2b
 8833 1ce9 01       		.uleb128 0x1
 8834 1cea 50       		.byte	0x50
 8835 1ceb 02       		.uleb128 0x2
 8836 1cec 08       		.byte	0x8
ARM GAS  /var/folders/28/j9jfyj_n4wz3qtvnym210h2c0000gn/T//ccpoR13X.s 			page 157


 8837 1ced 90       		.byte	0x90
 8838 1cee 00       		.byte	0
 8839 1cef 2A       		.uleb128 0x2a
 8840 1cf0 B2050000 		.4byte	.LVL118
 8841 1cf4 62310000 		.4byte	0x3162
 8842 1cf8 031D0000 		.4byte	0x1d03
 8843 1cfc 2B       		.uleb128 0x2b
 8844 1cfd 01       		.uleb128 0x1
 8845 1cfe 50       		.byte	0x50
 8846 1cff 02       		.uleb128 0x2
 8847 1d00 08       		.byte	0x8
 8848 1d01 90       		.byte	0x90
 8849 1d02 00       		.byte	0
 8850 1d03 2C       		.uleb128 0x2c
 8851 1d04 BC060000 		.4byte	.LVL132
 8852 1d08 77310000 		.4byte	0x3177
 8853 1d0c 2B       		.uleb128 0x2b
 8854 1d0d 01       		.uleb128 0x1
 8855 1d0e 53       		.byte	0x53
 8856 1d0f 05       		.uleb128 0x5
 8857 1d10 03       		.byte	0x3
 8858 1d11 00000000 		.4byte	ThreadUI
 8859 1d15 2B       		.uleb128 0x2b
 8860 1d16 01       		.uleb128 0x1
 8861 1d17 52       		.byte	0x52
 8862 1d18 02       		.uleb128 0x2
 8863 1d19 08       		.byte	0x8
 8864 1d1a 40       		.byte	0x40
 8865 1d1b 2B       		.uleb128 0x2b
 8866 1d1c 01       		.uleb128 0x1
 8867 1d1d 51       		.byte	0x51
 8868 1d1e 03       		.uleb128 0x3
 8869 1d1f 0A       		.byte	0xa
 8870 1d20 E005     		.2byte	0x5e0
 8871 1d22 2B       		.uleb128 0x2b
 8872 1d23 01       		.uleb128 0x1
 8873 1d24 50       		.byte	0x50
 8874 1d25 05       		.uleb128 0x5
 8875 1d26 03       		.byte	0x3
 8876 1d27 00000000 		.4byte	.LANCHOR1
 8877 1d2b 00       		.byte	0
 8878 1d2c 00       		.byte	0
 8879 1d2d 44       		.uleb128 0x44
 8880 1d2e F20A0000 		.4byte	.LASF250
 8881 1d32 01       		.byte	0x1
 8882 1d33 DA01     		.2byte	0x1da
 8883 1d35 40070000 		.4byte	.LFB198
 8884 1d39 1C000000 		.4byte	.LFE198-.LFB198
 8885 1d3d 01       		.uleb128 0x1
 8886 1d3e 9C       		.byte	0x9c
 8887 1d3f 27       		.uleb128 0x27
 8888 1d40 7B090000 		.4byte	.LASF251
 8889 1d44 01       		.byte	0x1
 8890 1d45 DF01     		.2byte	0x1df
 8891 1d47 60070000 		.4byte	.LFB199
 8892 1d4b 20000000 		.4byte	.LFE199-.LFB199
 8893 1d4f 01       		.uleb128 0x1
ARM GAS  /var/folders/28/j9jfyj_n4wz3qtvnym210h2c0000gn/T//ccpoR13X.s 			page 158


 8894 1d50 9C       		.byte	0x9c
 8895 1d51 641D0000 		.4byte	0x1d64
 8896 1d55 46       		.uleb128 0x46
 8897 1d56 6B767000 		.ascii	"kvp\000"
 8898 1d5a 01       		.byte	0x1
 8899 1d5b DF01     		.2byte	0x1df
 8900 1d5d 310F0000 		.4byte	0xf31
 8901 1d61 01       		.uleb128 0x1
 8902 1d62 50       		.byte	0x50
 8903 1d63 00       		.byte	0
 8904 1d64 27       		.uleb128 0x27
 8905 1d65 69040000 		.4byte	.LASF252
 8906 1d69 01       		.byte	0x1
 8907 1d6a EB01     		.2byte	0x1eb
 8908 1d6c 80070000 		.4byte	.LFB200
 8909 1d70 F8000000 		.4byte	.LFE200-.LFB200
 8910 1d74 01       		.uleb128 0x1
 8911 1d75 9C       		.byte	0x9c
 8912 1d76 791F0000 		.4byte	0x1f79
 8913 1d7a 32       		.uleb128 0x32
 8914 1d7b 7800     		.ascii	"x\000"
 8915 1d7d 01       		.byte	0x1
 8916 1d7e EB01     		.2byte	0x1eb
 8917 1d80 9F000000 		.4byte	0x9f
 8918 1d84 DA090000 		.4byte	.LLST75
 8919 1d88 32       		.uleb128 0x32
 8920 1d89 7900     		.ascii	"y\000"
 8921 1d8b 01       		.byte	0x1
 8922 1d8c EB01     		.2byte	0x1eb
 8923 1d8e 9F000000 		.4byte	0x9f
 8924 1d92 FB090000 		.4byte	.LLST76
 8925 1d96 32       		.uleb128 0x32
 8926 1d97 6B767000 		.ascii	"kvp\000"
 8927 1d9b 01       		.byte	0x1
 8928 1d9c EB01     		.2byte	0x1eb
 8929 1d9e 310F0000 		.4byte	0xf31
 8930 1da2 6B0B0000 		.4byte	.LLST77
 8931 1da6 2A       		.uleb128 0x2a
 8932 1da7 8E070000 		.4byte	.LVL137
 8933 1dab A1310000 		.4byte	0x31a1
 8934 1daf C71D0000 		.4byte	0x1dc7
 8935 1db3 2B       		.uleb128 0x2b
 8936 1db4 01       		.uleb128 0x1
 8937 1db5 53       		.byte	0x53
 8938 1db6 02       		.uleb128 0x2
 8939 1db7 08       		.byte	0x8
 8940 1db8 5B       		.byte	0x5b
 8941 1db9 2B       		.uleb128 0x2b
 8942 1dba 01       		.uleb128 0x1
 8943 1dbb 51       		.byte	0x51
 8944 1dbc 02       		.uleb128 0x2
 8945 1dbd 75       		.byte	0x75
 8946 1dbe 00       		.sleb128 0
 8947 1dbf 2B       		.uleb128 0x2b
 8948 1dc0 01       		.uleb128 0x1
 8949 1dc1 50       		.byte	0x50
 8950 1dc2 03       		.uleb128 0x3
ARM GAS  /var/folders/28/j9jfyj_n4wz3qtvnym210h2c0000gn/T//ccpoR13X.s 			page 159


 8951 1dc3 F3       		.byte	0xf3
 8952 1dc4 01       		.uleb128 0x1
 8953 1dc5 50       		.byte	0x50
 8954 1dc6 00       		.byte	0
 8955 1dc7 2A       		.uleb128 0x2a
 8956 1dc8 B0070000 		.4byte	.LVL138
 8957 1dcc C1310000 		.4byte	0x31c1
 8958 1dd0 E71D0000 		.4byte	0x1de7
 8959 1dd4 2B       		.uleb128 0x2b
 8960 1dd5 01       		.uleb128 0x1
 8961 1dd6 52       		.byte	0x52
 8962 1dd7 02       		.uleb128 0x2
 8963 1dd8 08       		.byte	0x8
 8964 1dd9 3D       		.byte	0x3d
 8965 1dda 2B       		.uleb128 0x2b
 8966 1ddb 01       		.uleb128 0x1
 8967 1ddc 51       		.byte	0x51
 8968 1ddd 02       		.uleb128 0x2
 8969 1dde 75       		.byte	0x75
 8970 1ddf 00       		.sleb128 0
 8971 1de0 2B       		.uleb128 0x2b
 8972 1de1 01       		.uleb128 0x1
 8973 1de2 50       		.byte	0x50
 8974 1de3 02       		.uleb128 0x2
 8975 1de4 08       		.byte	0x8
 8976 1de5 5B       		.byte	0x5b
 8977 1de6 00       		.byte	0
 8978 1de7 40       		.uleb128 0x40
 8979 1de8 C0070000 		.4byte	.LVL140
 8980 1dec DC310000 		.4byte	0x31dc
 8981 1df0 021E0000 		.4byte	0x1e02
 8982 1df4 2B       		.uleb128 0x2b
 8983 1df5 01       		.uleb128 0x1
 8984 1df6 51       		.byte	0x51
 8985 1df7 03       		.uleb128 0x3
 8986 1df8 F3       		.byte	0xf3
 8987 1df9 01       		.uleb128 0x1
 8988 1dfa 51       		.byte	0x51
 8989 1dfb 2B       		.uleb128 0x2b
 8990 1dfc 01       		.uleb128 0x1
 8991 1dfd 50       		.byte	0x50
 8992 1dfe 02       		.uleb128 0x2
 8993 1dff 08       		.byte	0x8
 8994 1e00 61       		.byte	0x61
 8995 1e01 00       		.byte	0
 8996 1e02 2A       		.uleb128 0x2a
 8997 1e03 CA070000 		.4byte	.LVL141
 8998 1e07 C1310000 		.4byte	0x31c1
 8999 1e0b 221E0000 		.4byte	0x1e22
 9000 1e0f 2B       		.uleb128 0x2b
 9001 1e10 01       		.uleb128 0x1
 9002 1e11 52       		.byte	0x52
 9003 1e12 02       		.uleb128 0x2
 9004 1e13 08       		.byte	0x8
 9005 1e14 3D       		.byte	0x3d
 9006 1e15 2B       		.uleb128 0x2b
 9007 1e16 01       		.uleb128 0x1
ARM GAS  /var/folders/28/j9jfyj_n4wz3qtvnym210h2c0000gn/T//ccpoR13X.s 			page 160


 9008 1e17 51       		.byte	0x51
 9009 1e18 02       		.uleb128 0x2
 9010 1e19 75       		.byte	0x75
 9011 1e1a 00       		.sleb128 0
 9012 1e1b 2B       		.uleb128 0x2b
 9013 1e1c 01       		.uleb128 0x1
 9014 1e1d 50       		.byte	0x50
 9015 1e1e 02       		.uleb128 0x2
 9016 1e1f 08       		.byte	0x8
 9017 1e20 5B       		.byte	0x5b
 9018 1e21 00       		.byte	0
 9019 1e22 40       		.uleb128 0x40
 9020 1e23 DA070000 		.4byte	.LVL143
 9021 1e27 DC310000 		.4byte	0x31dc
 9022 1e2b 3D1E0000 		.4byte	0x1e3d
 9023 1e2f 2B       		.uleb128 0x2b
 9024 1e30 01       		.uleb128 0x1
 9025 1e31 51       		.byte	0x51
 9026 1e32 03       		.uleb128 0x3
 9027 1e33 F3       		.byte	0xf3
 9028 1e34 01       		.uleb128 0x1
 9029 1e35 51       		.byte	0x51
 9030 1e36 2B       		.uleb128 0x2b
 9031 1e37 01       		.uleb128 0x1
 9032 1e38 50       		.byte	0x50
 9033 1e39 02       		.uleb128 0x2
 9034 1e3a 08       		.byte	0x8
 9035 1e3b 61       		.byte	0x61
 9036 1e3c 00       		.byte	0
 9037 1e3d 40       		.uleb128 0x40
 9038 1e3e EA070000 		.4byte	.LVL145
 9039 1e42 A1310000 		.4byte	0x31a1
 9040 1e46 671E0000 		.4byte	0x1e67
 9041 1e4a 2B       		.uleb128 0x2b
 9042 1e4b 01       		.uleb128 0x1
 9043 1e4c 53       		.byte	0x53
 9044 1e4d 02       		.uleb128 0x2
 9045 1e4e 08       		.byte	0x8
 9046 1e4f 80       		.byte	0x80
 9047 1e50 2B       		.uleb128 0x2b
 9048 1e51 01       		.uleb128 0x1
 9049 1e52 52       		.byte	0x52
 9050 1e53 05       		.uleb128 0x5
 9051 1e54 03       		.byte	0x3
 9052 1e55 AC000000 		.4byte	.LC20
 9053 1e59 2B       		.uleb128 0x2b
 9054 1e5a 01       		.uleb128 0x1
 9055 1e5b 51       		.byte	0x51
 9056 1e5c 03       		.uleb128 0x3
 9057 1e5d F3       		.byte	0xf3
 9058 1e5e 01       		.uleb128 0x1
 9059 1e5f 51       		.byte	0x51
 9060 1e60 2B       		.uleb128 0x2b
 9061 1e61 01       		.uleb128 0x1
 9062 1e62 50       		.byte	0x50
 9063 1e63 02       		.uleb128 0x2
 9064 1e64 08       		.byte	0x8
ARM GAS  /var/folders/28/j9jfyj_n4wz3qtvnym210h2c0000gn/T//ccpoR13X.s 			page 161


 9065 1e65 5B       		.byte	0x5b
 9066 1e66 00       		.byte	0
 9067 1e67 2A       		.uleb128 0x2a
 9068 1e68 F4070000 		.4byte	.LVL146
 9069 1e6c C1310000 		.4byte	0x31c1
 9070 1e70 871E0000 		.4byte	0x1e87
 9071 1e74 2B       		.uleb128 0x2b
 9072 1e75 01       		.uleb128 0x1
 9073 1e76 52       		.byte	0x52
 9074 1e77 02       		.uleb128 0x2
 9075 1e78 08       		.byte	0x8
 9076 1e79 3D       		.byte	0x3d
 9077 1e7a 2B       		.uleb128 0x2b
 9078 1e7b 01       		.uleb128 0x1
 9079 1e7c 51       		.byte	0x51
 9080 1e7d 02       		.uleb128 0x2
 9081 1e7e 75       		.byte	0x75
 9082 1e7f 00       		.sleb128 0
 9083 1e80 2B       		.uleb128 0x2b
 9084 1e81 01       		.uleb128 0x1
 9085 1e82 50       		.byte	0x50
 9086 1e83 02       		.uleb128 0x2
 9087 1e84 08       		.byte	0x8
 9088 1e85 5B       		.byte	0x5b
 9089 1e86 00       		.byte	0
 9090 1e87 40       		.uleb128 0x40
 9091 1e88 06080000 		.4byte	.LVL148
 9092 1e8c F7310000 		.4byte	0x31f7
 9093 1e90 A21E0000 		.4byte	0x1ea2
 9094 1e94 2B       		.uleb128 0x2b
 9095 1e95 01       		.uleb128 0x1
 9096 1e96 51       		.byte	0x51
 9097 1e97 03       		.uleb128 0x3
 9098 1e98 F3       		.byte	0xf3
 9099 1e99 01       		.uleb128 0x1
 9100 1e9a 51       		.byte	0x51
 9101 1e9b 2B       		.uleb128 0x2b
 9102 1e9c 01       		.uleb128 0x1
 9103 1e9d 50       		.byte	0x50
 9104 1e9e 02       		.uleb128 0x2
 9105 1e9f 08       		.byte	0x8
 9106 1ea0 61       		.byte	0x61
 9107 1ea1 00       		.byte	0
 9108 1ea2 40       		.uleb128 0x40
 9109 1ea3 16080000 		.4byte	.LVL150
 9110 1ea7 A1310000 		.4byte	0x31a1
 9111 1eab CC1E0000 		.4byte	0x1ecc
 9112 1eaf 2B       		.uleb128 0x2b
 9113 1eb0 01       		.uleb128 0x1
 9114 1eb1 53       		.byte	0x53
 9115 1eb2 02       		.uleb128 0x2
 9116 1eb3 08       		.byte	0x8
 9117 1eb4 80       		.byte	0x80
 9118 1eb5 2B       		.uleb128 0x2b
 9119 1eb6 01       		.uleb128 0x1
 9120 1eb7 52       		.byte	0x52
 9121 1eb8 05       		.uleb128 0x5
ARM GAS  /var/folders/28/j9jfyj_n4wz3qtvnym210h2c0000gn/T//ccpoR13X.s 			page 162


 9122 1eb9 03       		.byte	0x3
 9123 1eba B4000000 		.4byte	.LC21
 9124 1ebe 2B       		.uleb128 0x2b
 9125 1ebf 01       		.uleb128 0x1
 9126 1ec0 51       		.byte	0x51
 9127 1ec1 03       		.uleb128 0x3
 9128 1ec2 F3       		.byte	0xf3
 9129 1ec3 01       		.uleb128 0x1
 9130 1ec4 51       		.byte	0x51
 9131 1ec5 2B       		.uleb128 0x2b
 9132 1ec6 01       		.uleb128 0x1
 9133 1ec7 50       		.byte	0x50
 9134 1ec8 02       		.uleb128 0x2
 9135 1ec9 08       		.byte	0x8
 9136 1eca 5B       		.byte	0x5b
 9137 1ecb 00       		.byte	0
 9138 1ecc 40       		.uleb128 0x40
 9139 1ecd 28080000 		.4byte	.LVL152
 9140 1ed1 12320000 		.4byte	0x3212
 9141 1ed5 ED1E0000 		.4byte	0x1eed
 9142 1ed9 2B       		.uleb128 0x2b
 9143 1eda 01       		.uleb128 0x1
 9144 1edb 53       		.byte	0x53
 9145 1edc 02       		.uleb128 0x2
 9146 1edd 08       		.byte	0x8
 9147 1ede 80       		.byte	0x80
 9148 1edf 2B       		.uleb128 0x2b
 9149 1ee0 01       		.uleb128 0x1
 9150 1ee1 51       		.byte	0x51
 9151 1ee2 03       		.uleb128 0x3
 9152 1ee3 F3       		.byte	0xf3
 9153 1ee4 01       		.uleb128 0x1
 9154 1ee5 51       		.byte	0x51
 9155 1ee6 2B       		.uleb128 0x2b
 9156 1ee7 01       		.uleb128 0x1
 9157 1ee8 50       		.byte	0x50
 9158 1ee9 02       		.uleb128 0x2
 9159 1eea 08       		.byte	0x8
 9160 1eeb 5B       		.byte	0x5b
 9161 1eec 00       		.byte	0
 9162 1eed 40       		.uleb128 0x40
 9163 1eee 38080000 		.4byte	.LVL154
 9164 1ef2 A1310000 		.4byte	0x31a1
 9165 1ef6 171F0000 		.4byte	0x1f17
 9166 1efa 2B       		.uleb128 0x2b
 9167 1efb 01       		.uleb128 0x1
 9168 1efc 53       		.byte	0x53
 9169 1efd 02       		.uleb128 0x2
 9170 1efe 08       		.byte	0x8
 9171 1eff 80       		.byte	0x80
 9172 1f00 2B       		.uleb128 0x2b
 9173 1f01 01       		.uleb128 0x1
 9174 1f02 52       		.byte	0x52
 9175 1f03 05       		.uleb128 0x5
 9176 1f04 03       		.byte	0x3
 9177 1f05 BC000000 		.4byte	.LC22
 9178 1f09 2B       		.uleb128 0x2b
ARM GAS  /var/folders/28/j9jfyj_n4wz3qtvnym210h2c0000gn/T//ccpoR13X.s 			page 163


 9179 1f0a 01       		.uleb128 0x1
 9180 1f0b 51       		.byte	0x51
 9181 1f0c 03       		.uleb128 0x3
 9182 1f0d F3       		.byte	0xf3
 9183 1f0e 01       		.uleb128 0x1
 9184 1f0f 51       		.byte	0x51
 9185 1f10 2B       		.uleb128 0x2b
 9186 1f11 01       		.uleb128 0x1
 9187 1f12 50       		.byte	0x50
 9188 1f13 02       		.uleb128 0x2
 9189 1f14 08       		.byte	0x8
 9190 1f15 5B       		.byte	0x5b
 9191 1f16 00       		.byte	0
 9192 1f17 40       		.uleb128 0x40
 9193 1f18 48080000 		.4byte	.LVL156
 9194 1f1c A1310000 		.4byte	0x31a1
 9195 1f20 411F0000 		.4byte	0x1f41
 9196 1f24 2B       		.uleb128 0x2b
 9197 1f25 01       		.uleb128 0x1
 9198 1f26 53       		.byte	0x53
 9199 1f27 02       		.uleb128 0x2
 9200 1f28 08       		.byte	0x8
 9201 1f29 80       		.byte	0x80
 9202 1f2a 2B       		.uleb128 0x2b
 9203 1f2b 01       		.uleb128 0x1
 9204 1f2c 52       		.byte	0x52
 9205 1f2d 05       		.uleb128 0x5
 9206 1f2e 03       		.byte	0x3
 9207 1f2f C4000000 		.4byte	.LC23
 9208 1f33 2B       		.uleb128 0x2b
 9209 1f34 01       		.uleb128 0x1
 9210 1f35 51       		.byte	0x51
 9211 1f36 03       		.uleb128 0x3
 9212 1f37 F3       		.byte	0xf3
 9213 1f38 01       		.uleb128 0x1
 9214 1f39 51       		.byte	0x51
 9215 1f3a 2B       		.uleb128 0x2b
 9216 1f3b 01       		.uleb128 0x1
 9217 1f3c 50       		.byte	0x50
 9218 1f3d 02       		.uleb128 0x2
 9219 1f3e 08       		.byte	0x8
 9220 1f3f 5B       		.byte	0x5b
 9221 1f40 00       		.byte	0
 9222 1f41 2A       		.uleb128 0x2a
 9223 1f42 52080000 		.4byte	.LVL157
 9224 1f46 C1310000 		.4byte	0x31c1
 9225 1f4a 611F0000 		.4byte	0x1f61
 9226 1f4e 2B       		.uleb128 0x2b
 9227 1f4f 01       		.uleb128 0x1
 9228 1f50 52       		.byte	0x52
 9229 1f51 02       		.uleb128 0x2
 9230 1f52 08       		.byte	0x8
 9231 1f53 3D       		.byte	0x3d
 9232 1f54 2B       		.uleb128 0x2b
 9233 1f55 01       		.uleb128 0x1
 9234 1f56 51       		.byte	0x51
 9235 1f57 02       		.uleb128 0x2
ARM GAS  /var/folders/28/j9jfyj_n4wz3qtvnym210h2c0000gn/T//ccpoR13X.s 			page 164


 9236 1f58 75       		.byte	0x75
 9237 1f59 00       		.sleb128 0
 9238 1f5a 2B       		.uleb128 0x2b
 9239 1f5b 01       		.uleb128 0x1
 9240 1f5c 50       		.byte	0x50
 9241 1f5d 02       		.uleb128 0x2
 9242 1f5e 08       		.byte	0x8
 9243 1f5f 5B       		.byte	0x5b
 9244 1f60 00       		.byte	0
 9245 1f61 41       		.uleb128 0x41
 9246 1f62 64080000 		.4byte	.LVL159
 9247 1f66 DC310000 		.4byte	0x31dc
 9248 1f6a 2B       		.uleb128 0x2b
 9249 1f6b 01       		.uleb128 0x1
 9250 1f6c 51       		.byte	0x51
 9251 1f6d 03       		.uleb128 0x3
 9252 1f6e F3       		.byte	0xf3
 9253 1f6f 01       		.uleb128 0x1
 9254 1f70 51       		.byte	0x51
 9255 1f71 2B       		.uleb128 0x2b
 9256 1f72 01       		.uleb128 0x1
 9257 1f73 50       		.byte	0x50
 9258 1f74 02       		.uleb128 0x2
 9259 1f75 08       		.byte	0x8
 9260 1f76 61       		.byte	0x61
 9261 1f77 00       		.byte	0
 9262 1f78 00       		.byte	0
 9263 1f79 27       		.uleb128 0x27
 9264 1f7a 0E000000 		.4byte	.LASF253
 9265 1f7e 01       		.byte	0x1
 9266 1f7f 1202     		.2byte	0x212
 9267 1f81 80080000 		.4byte	.LFB201
 9268 1f85 78010000 		.4byte	.LFE201-.LFB201
 9269 1f89 01       		.uleb128 0x1
 9270 1f8a 9C       		.byte	0x9c
 9271 1f8b DF220000 		.4byte	0x22df
 9272 1f8f 32       		.uleb128 0x32
 9273 1f90 7800     		.ascii	"x\000"
 9274 1f92 01       		.byte	0x1
 9275 1f93 1202     		.2byte	0x212
 9276 1f95 9F000000 		.4byte	0x9f
 9277 1f99 780C0000 		.4byte	.LLST78
 9278 1f9d 32       		.uleb128 0x32
 9279 1f9e 7900     		.ascii	"y\000"
 9280 1fa0 01       		.byte	0x1
 9281 1fa1 1202     		.2byte	0x212
 9282 1fa3 9F000000 		.4byte	0x9f
 9283 1fa7 C50D0000 		.4byte	.LLST79
 9284 1fab 32       		.uleb128 0x32
 9285 1fac 6B767000 		.ascii	"kvp\000"
 9286 1fb0 01       		.byte	0x1
 9287 1fb1 1202     		.2byte	0x212
 9288 1fb3 310F0000 		.4byte	0xf31
 9289 1fb7 7D0F0000 		.4byte	.LLST80
 9290 1fbb 2E       		.uleb128 0x2e
 9291 1fbc 10030000 		.4byte	.Ldebug_ranges0+0x310
 9292 1fc0 42200000 		.4byte	0x2042
ARM GAS  /var/folders/28/j9jfyj_n4wz3qtvnym210h2c0000gn/T//ccpoR13X.s 			page 165


 9293 1fc4 23       		.uleb128 0x23
 9294 1fc5 66313000 		.ascii	"f10\000"
 9295 1fc9 01       		.byte	0x1
 9296 1fca 4102     		.2byte	0x241
 9297 1fcc 9F000000 		.4byte	0x9f
 9298 1fd0 3A       		.uleb128 0x3a
 9299 1fd1 67100000 		.4byte	0x1067
 9300 1fd5 E4080000 		.4byte	.LBB201
 9301 1fd9 0A000000 		.4byte	.LBE201-.LBB201
 9302 1fdd 01       		.byte	0x1
 9303 1fde 4102     		.2byte	0x241
 9304 1fe0 0A200000 		.4byte	0x200a
 9305 1fe4 30       		.uleb128 0x30
 9306 1fe5 82100000 		.4byte	0x1082
 9307 1fe9 BC100000 		.4byte	.LLST81
 9308 1fed 30       		.uleb128 0x30
 9309 1fee 77100000 		.4byte	0x1077
 9310 1ff2 D2100000 		.4byte	.LLST82
 9311 1ff6 47       		.uleb128 0x47
 9312 1ff7 E4080000 		.4byte	.LBB202
 9313 1ffb 0A000000 		.4byte	.LBE202-.LBB202
 9314 1fff 35       		.uleb128 0x35
 9315 2000 8D100000 		.4byte	0x108d
 9316 2004 FE100000 		.4byte	.LLST83
 9317 2008 00       		.byte	0
 9318 2009 00       		.byte	0
 9319 200a 2A       		.uleb128 0x2a
 9320 200b F8080000 		.4byte	.LVL173
 9321 200f 32320000 		.4byte	0x3232
 9322 2013 2A200000 		.4byte	0x202a
 9323 2017 2B       		.uleb128 0x2b
 9324 2018 01       		.uleb128 0x1
 9325 2019 52       		.byte	0x52
 9326 201a 02       		.uleb128 0x2
 9327 201b 08       		.byte	0x8
 9328 201c 3D       		.byte	0x3d
 9329 201d 2B       		.uleb128 0x2b
 9330 201e 01       		.uleb128 0x1
 9331 201f 51       		.byte	0x51
 9332 2020 02       		.uleb128 0x2
 9333 2021 75       		.byte	0x75
 9334 2022 00       		.sleb128 0
 9335 2023 2B       		.uleb128 0x2b
 9336 2024 01       		.uleb128 0x1
 9337 2025 50       		.byte	0x50
 9338 2026 02       		.uleb128 0x2
 9339 2027 08       		.byte	0x8
 9340 2028 5B       		.byte	0x5b
 9341 2029 00       		.byte	0
 9342 202a 41       		.uleb128 0x41
 9343 202b 06090000 		.4byte	.LVL175
 9344 202f 4D320000 		.4byte	0x324d
 9345 2033 2B       		.uleb128 0x2b
 9346 2034 01       		.uleb128 0x1
 9347 2035 51       		.byte	0x51
 9348 2036 03       		.uleb128 0x3
 9349 2037 F3       		.byte	0xf3
ARM GAS  /var/folders/28/j9jfyj_n4wz3qtvnym210h2c0000gn/T//ccpoR13X.s 			page 166


 9350 2038 01       		.uleb128 0x1
 9351 2039 51       		.byte	0x51
 9352 203a 2B       		.uleb128 0x2b
 9353 203b 01       		.uleb128 0x1
 9354 203c 50       		.byte	0x50
 9355 203d 02       		.uleb128 0x2
 9356 203e 08       		.byte	0x8
 9357 203f 61       		.byte	0x61
 9358 2040 00       		.byte	0
 9359 2041 00       		.byte	0
 9360 2042 2E       		.uleb128 0x2e
 9361 2043 28030000 		.4byte	.Ldebug_ranges0+0x328
 9362 2047 0D210000 		.4byte	0x210d
 9363 204b 23       		.uleb128 0x23
 9364 204c 66313000 		.ascii	"f10\000"
 9365 2050 01       		.byte	0x1
 9366 2051 4702     		.2byte	0x247
 9367 2053 9F000000 		.4byte	0x9f
 9368 2057 3A       		.uleb128 0x3a
 9369 2058 67100000 		.4byte	0x1067
 9370 205c 08090000 		.4byte	.LBB205
 9371 2060 08000000 		.4byte	.LBE205-.LBB205
 9372 2064 01       		.byte	0x1
 9373 2065 4702     		.2byte	0x247
 9374 2067 91200000 		.4byte	0x2091
 9375 206b 30       		.uleb128 0x30
 9376 206c 82100000 		.4byte	0x1082
 9377 2070 1C110000 		.4byte	.LLST84
 9378 2074 30       		.uleb128 0x30
 9379 2075 77100000 		.4byte	0x1077
 9380 2079 31110000 		.4byte	.LLST85
 9381 207d 47       		.uleb128 0x47
 9382 207e 08090000 		.4byte	.LBB206
 9383 2082 08000000 		.4byte	.LBE206-.LBB206
 9384 2086 35       		.uleb128 0x35
 9385 2087 8D100000 		.4byte	0x108d
 9386 208b 5D110000 		.4byte	.LLST86
 9387 208f 00       		.byte	0
 9388 2090 00       		.byte	0
 9389 2091 2A       		.uleb128 0x2a
 9390 2092 1C090000 		.4byte	.LVL179
 9391 2096 32320000 		.4byte	0x3232
 9392 209a B1200000 		.4byte	0x20b1
 9393 209e 2B       		.uleb128 0x2b
 9394 209f 01       		.uleb128 0x1
 9395 20a0 52       		.byte	0x52
 9396 20a1 02       		.uleb128 0x2
 9397 20a2 08       		.byte	0x8
 9398 20a3 3D       		.byte	0x3d
 9399 20a4 2B       		.uleb128 0x2b
 9400 20a5 01       		.uleb128 0x1
 9401 20a6 51       		.byte	0x51
 9402 20a7 02       		.uleb128 0x2
 9403 20a8 75       		.byte	0x75
 9404 20a9 00       		.sleb128 0
 9405 20aa 2B       		.uleb128 0x2b
 9406 20ab 01       		.uleb128 0x1
ARM GAS  /var/folders/28/j9jfyj_n4wz3qtvnym210h2c0000gn/T//ccpoR13X.s 			page 167


 9407 20ac 50       		.byte	0x50
 9408 20ad 02       		.uleb128 0x2
 9409 20ae 08       		.byte	0x8
 9410 20af 5B       		.byte	0x5b
 9411 20b0 00       		.byte	0
 9412 20b1 2A       		.uleb128 0x2a
 9413 20b2 30090000 		.4byte	.LVL180
 9414 20b6 68320000 		.4byte	0x3268
 9415 20ba D1200000 		.4byte	0x20d1
 9416 20be 2B       		.uleb128 0x2b
 9417 20bf 01       		.uleb128 0x1
 9418 20c0 52       		.byte	0x52
 9419 20c1 02       		.uleb128 0x2
 9420 20c2 77       		.byte	0x77
 9421 20c3 00       		.sleb128 0
 9422 20c4 2B       		.uleb128 0x2b
 9423 20c5 01       		.uleb128 0x1
 9424 20c6 51       		.byte	0x51
 9425 20c7 02       		.uleb128 0x2
 9426 20c8 75       		.byte	0x75
 9427 20c9 00       		.sleb128 0
 9428 20ca 2B       		.uleb128 0x2b
 9429 20cb 01       		.uleb128 0x1
 9430 20cc 50       		.byte	0x50
 9431 20cd 02       		.uleb128 0x2
 9432 20ce 08       		.byte	0x8
 9433 20cf 61       		.byte	0x61
 9434 20d0 00       		.byte	0
 9435 20d1 2A       		.uleb128 0x2a
 9436 20d2 3C090000 		.4byte	.LVL181
 9437 20d6 32320000 		.4byte	0x3232
 9438 20da F2200000 		.4byte	0x20f2
 9439 20de 2B       		.uleb128 0x2b
 9440 20df 01       		.uleb128 0x1
 9441 20e0 52       		.byte	0x52
 9442 20e1 02       		.uleb128 0x2
 9443 20e2 08       		.byte	0x8
 9444 20e3 2E       		.byte	0x2e
 9445 20e4 2B       		.uleb128 0x2b
 9446 20e5 01       		.uleb128 0x1
 9447 20e6 51       		.byte	0x51
 9448 20e7 02       		.uleb128 0x2
 9449 20e8 75       		.byte	0x75
 9450 20e9 00       		.sleb128 0
 9451 20ea 2B       		.uleb128 0x2b
 9452 20eb 01       		.uleb128 0x1
 9453 20ec 50       		.byte	0x50
 9454 20ed 03       		.uleb128 0x3
 9455 20ee 76       		.byte	0x76
 9456 20ef F900     		.sleb128 121
 9457 20f1 00       		.byte	0
 9458 20f2 41       		.uleb128 0x41
 9459 20f3 56090000 		.4byte	.LVL183
 9460 20f7 32320000 		.4byte	0x3232
 9461 20fb 2B       		.uleb128 0x2b
 9462 20fc 01       		.uleb128 0x1
 9463 20fd 51       		.byte	0x51
ARM GAS  /var/folders/28/j9jfyj_n4wz3qtvnym210h2c0000gn/T//ccpoR13X.s 			page 168


 9464 20fe 03       		.uleb128 0x3
 9465 20ff F3       		.byte	0xf3
 9466 2100 01       		.uleb128 0x1
 9467 2101 51       		.byte	0x51
 9468 2102 2B       		.uleb128 0x2b
 9469 2103 01       		.uleb128 0x1
 9470 2104 50       		.byte	0x50
 9471 2105 05       		.uleb128 0x5
 9472 2106 F3       		.byte	0xf3
 9473 2107 01       		.uleb128 0x1
 9474 2108 50       		.byte	0x50
 9475 2109 23       		.byte	0x23
 9476 210a 7F       		.uleb128 0x7f
 9477 210b 00       		.byte	0
 9478 210c 00       		.byte	0
 9479 210d 2A       		.uleb128 0x2a
 9480 210e 92080000 		.4byte	.LVL163
 9481 2112 83320000 		.4byte	0x3283
 9482 2116 2D210000 		.4byte	0x212d
 9483 211a 2B       		.uleb128 0x2b
 9484 211b 01       		.uleb128 0x1
 9485 211c 53       		.byte	0x53
 9486 211d 02       		.uleb128 0x2
 9487 211e 08       		.byte	0x8
 9488 211f 5B       		.byte	0x5b
 9489 2120 2B       		.uleb128 0x2b
 9490 2121 01       		.uleb128 0x1
 9491 2122 51       		.byte	0x51
 9492 2123 02       		.uleb128 0x2
 9493 2124 75       		.byte	0x75
 9494 2125 00       		.sleb128 0
 9495 2126 2B       		.uleb128 0x2b
 9496 2127 01       		.uleb128 0x1
 9497 2128 50       		.byte	0x50
 9498 2129 02       		.uleb128 0x2
 9499 212a 76       		.byte	0x76
 9500 212b 00       		.sleb128 0
 9501 212c 00       		.byte	0
 9502 212d 2A       		.uleb128 0x2a
 9503 212e B6080000 		.4byte	.LVL164
 9504 2132 32320000 		.4byte	0x3232
 9505 2136 4D210000 		.4byte	0x214d
 9506 213a 2B       		.uleb128 0x2b
 9507 213b 01       		.uleb128 0x1
 9508 213c 52       		.byte	0x52
 9509 213d 02       		.uleb128 0x2
 9510 213e 08       		.byte	0x8
 9511 213f 3D       		.byte	0x3d
 9512 2140 2B       		.uleb128 0x2b
 9513 2141 01       		.uleb128 0x1
 9514 2142 51       		.byte	0x51
 9515 2143 02       		.uleb128 0x2
 9516 2144 75       		.byte	0x75
 9517 2145 00       		.sleb128 0
 9518 2146 2B       		.uleb128 0x2b
 9519 2147 01       		.uleb128 0x1
 9520 2148 50       		.byte	0x50
ARM GAS  /var/folders/28/j9jfyj_n4wz3qtvnym210h2c0000gn/T//ccpoR13X.s 			page 169


 9521 2149 02       		.uleb128 0x2
 9522 214a 08       		.byte	0x8
 9523 214b 5B       		.byte	0x5b
 9524 214c 00       		.byte	0
 9525 214d 40       		.uleb128 0x40
 9526 214e C8080000 		.4byte	.LVL166
 9527 2152 68320000 		.4byte	0x3268
 9528 2156 68210000 		.4byte	0x2168
 9529 215a 2B       		.uleb128 0x2b
 9530 215b 01       		.uleb128 0x1
 9531 215c 51       		.byte	0x51
 9532 215d 03       		.uleb128 0x3
 9533 215e F3       		.byte	0xf3
 9534 215f 01       		.uleb128 0x1
 9535 2160 51       		.byte	0x51
 9536 2161 2B       		.uleb128 0x2b
 9537 2162 01       		.uleb128 0x1
 9538 2163 50       		.byte	0x50
 9539 2164 02       		.uleb128 0x2
 9540 2165 08       		.byte	0x8
 9541 2166 61       		.byte	0x61
 9542 2167 00       		.byte	0
 9543 2168 2A       		.uleb128 0x2a
 9544 2169 D2080000 		.4byte	.LVL167
 9545 216d 32320000 		.4byte	0x3232
 9546 2171 88210000 		.4byte	0x2188
 9547 2175 2B       		.uleb128 0x2b
 9548 2176 01       		.uleb128 0x1
 9549 2177 52       		.byte	0x52
 9550 2178 02       		.uleb128 0x2
 9551 2179 08       		.byte	0x8
 9552 217a 3D       		.byte	0x3d
 9553 217b 2B       		.uleb128 0x2b
 9554 217c 01       		.uleb128 0x1
 9555 217d 51       		.byte	0x51
 9556 217e 02       		.uleb128 0x2
 9557 217f 75       		.byte	0x75
 9558 2180 00       		.sleb128 0
 9559 2181 2B       		.uleb128 0x2b
 9560 2182 01       		.uleb128 0x1
 9561 2183 50       		.byte	0x50
 9562 2184 02       		.uleb128 0x2
 9563 2185 08       		.byte	0x8
 9564 2186 5B       		.byte	0x5b
 9565 2187 00       		.byte	0
 9566 2188 40       		.uleb128 0x40
 9567 2189 E2080000 		.4byte	.LVL169
 9568 218d 68320000 		.4byte	0x3268
 9569 2191 A3210000 		.4byte	0x21a3
 9570 2195 2B       		.uleb128 0x2b
 9571 2196 01       		.uleb128 0x1
 9572 2197 51       		.byte	0x51
 9573 2198 03       		.uleb128 0x3
 9574 2199 F3       		.byte	0xf3
 9575 219a 01       		.uleb128 0x1
 9576 219b 51       		.byte	0x51
 9577 219c 2B       		.uleb128 0x2b
ARM GAS  /var/folders/28/j9jfyj_n4wz3qtvnym210h2c0000gn/T//ccpoR13X.s 			page 170


 9578 219d 01       		.uleb128 0x1
 9579 219e 50       		.byte	0x50
 9580 219f 02       		.uleb128 0x2
 9581 21a0 08       		.byte	0x8
 9582 21a1 61       		.byte	0x61
 9583 21a2 00       		.byte	0
 9584 21a3 2A       		.uleb128 0x2a
 9585 21a4 60090000 		.4byte	.LVL184
 9586 21a8 32320000 		.4byte	0x3232
 9587 21ac C3210000 		.4byte	0x21c3
 9588 21b0 2B       		.uleb128 0x2b
 9589 21b1 01       		.uleb128 0x1
 9590 21b2 52       		.byte	0x52
 9591 21b3 02       		.uleb128 0x2
 9592 21b4 08       		.byte	0x8
 9593 21b5 3D       		.byte	0x3d
 9594 21b6 2B       		.uleb128 0x2b
 9595 21b7 01       		.uleb128 0x1
 9596 21b8 51       		.byte	0x51
 9597 21b9 02       		.uleb128 0x2
 9598 21ba 75       		.byte	0x75
 9599 21bb 00       		.sleb128 0
 9600 21bc 2B       		.uleb128 0x2b
 9601 21bd 01       		.uleb128 0x1
 9602 21be 50       		.byte	0x50
 9603 21bf 02       		.uleb128 0x2
 9604 21c0 08       		.byte	0x8
 9605 21c1 5B       		.byte	0x5b
 9606 21c2 00       		.byte	0
 9607 21c3 40       		.uleb128 0x40
 9608 21c4 70090000 		.4byte	.LVL186
 9609 21c8 68320000 		.4byte	0x3268
 9610 21cc DE210000 		.4byte	0x21de
 9611 21d0 2B       		.uleb128 0x2b
 9612 21d1 01       		.uleb128 0x1
 9613 21d2 51       		.byte	0x51
 9614 21d3 03       		.uleb128 0x3
 9615 21d4 F3       		.byte	0xf3
 9616 21d5 01       		.uleb128 0x1
 9617 21d6 51       		.byte	0x51
 9618 21d7 2B       		.uleb128 0x2b
 9619 21d8 01       		.uleb128 0x1
 9620 21d9 50       		.byte	0x50
 9621 21da 02       		.uleb128 0x2
 9622 21db 08       		.byte	0x8
 9623 21dc 61       		.byte	0x61
 9624 21dd 00       		.byte	0
 9625 21de 40       		.uleb128 0x40
 9626 21df 80090000 		.4byte	.LVL188
 9627 21e3 83320000 		.4byte	0x3283
 9628 21e7 08220000 		.4byte	0x2208
 9629 21eb 2B       		.uleb128 0x2b
 9630 21ec 01       		.uleb128 0x1
 9631 21ed 53       		.byte	0x53
 9632 21ee 02       		.uleb128 0x2
 9633 21ef 08       		.byte	0x8
 9634 21f0 80       		.byte	0x80
ARM GAS  /var/folders/28/j9jfyj_n4wz3qtvnym210h2c0000gn/T//ccpoR13X.s 			page 171


 9635 21f1 2B       		.uleb128 0x2b
 9636 21f2 01       		.uleb128 0x1
 9637 21f3 52       		.byte	0x52
 9638 21f4 05       		.uleb128 0x5
 9639 21f5 03       		.byte	0x3
 9640 21f6 AC000000 		.4byte	.LC20
 9641 21fa 2B       		.uleb128 0x2b
 9642 21fb 01       		.uleb128 0x1
 9643 21fc 51       		.byte	0x51
 9644 21fd 03       		.uleb128 0x3
 9645 21fe F3       		.byte	0xf3
 9646 21ff 01       		.uleb128 0x1
 9647 2200 51       		.byte	0x51
 9648 2201 2B       		.uleb128 0x2b
 9649 2202 01       		.uleb128 0x1
 9650 2203 50       		.byte	0x50
 9651 2204 02       		.uleb128 0x2
 9652 2205 08       		.byte	0x8
 9653 2206 5B       		.byte	0x5b
 9654 2207 00       		.byte	0
 9655 2208 2A       		.uleb128 0x2a
 9656 2209 8A090000 		.4byte	.LVL189
 9657 220d 32320000 		.4byte	0x3232
 9658 2211 28220000 		.4byte	0x2228
 9659 2215 2B       		.uleb128 0x2b
 9660 2216 01       		.uleb128 0x1
 9661 2217 52       		.byte	0x52
 9662 2218 02       		.uleb128 0x2
 9663 2219 08       		.byte	0x8
 9664 221a 3D       		.byte	0x3d
 9665 221b 2B       		.uleb128 0x2b
 9666 221c 01       		.uleb128 0x1
 9667 221d 51       		.byte	0x51
 9668 221e 02       		.uleb128 0x2
 9669 221f 75       		.byte	0x75
 9670 2220 00       		.sleb128 0
 9671 2221 2B       		.uleb128 0x2b
 9672 2222 01       		.uleb128 0x1
 9673 2223 50       		.byte	0x50
 9674 2224 02       		.uleb128 0x2
 9675 2225 08       		.byte	0x8
 9676 2226 5B       		.byte	0x5b
 9677 2227 00       		.byte	0
 9678 2228 40       		.uleb128 0x40
 9679 2229 9C090000 		.4byte	.LVL191
 9680 222d 4D320000 		.4byte	0x324d
 9681 2231 43220000 		.4byte	0x2243
 9682 2235 2B       		.uleb128 0x2b
 9683 2236 01       		.uleb128 0x1
 9684 2237 51       		.byte	0x51
 9685 2238 03       		.uleb128 0x3
 9686 2239 F3       		.byte	0xf3
 9687 223a 01       		.uleb128 0x1
 9688 223b 51       		.byte	0x51
 9689 223c 2B       		.uleb128 0x2b
 9690 223d 01       		.uleb128 0x1
 9691 223e 50       		.byte	0x50
ARM GAS  /var/folders/28/j9jfyj_n4wz3qtvnym210h2c0000gn/T//ccpoR13X.s 			page 172


 9692 223f 02       		.uleb128 0x2
 9693 2240 08       		.byte	0x8
 9694 2241 61       		.byte	0x61
 9695 2242 00       		.byte	0
 9696 2243 40       		.uleb128 0x40
 9697 2244 AC090000 		.4byte	.LVL193
 9698 2248 83320000 		.4byte	0x3283
 9699 224c 6D220000 		.4byte	0x226d
 9700 2250 2B       		.uleb128 0x2b
 9701 2251 01       		.uleb128 0x1
 9702 2252 53       		.byte	0x53
 9703 2253 02       		.uleb128 0x2
 9704 2254 08       		.byte	0x8
 9705 2255 80       		.byte	0x80
 9706 2256 2B       		.uleb128 0x2b
 9707 2257 01       		.uleb128 0x1
 9708 2258 52       		.byte	0x52
 9709 2259 05       		.uleb128 0x5
 9710 225a 03       		.byte	0x3
 9711 225b B4000000 		.4byte	.LC21
 9712 225f 2B       		.uleb128 0x2b
 9713 2260 01       		.uleb128 0x1
 9714 2261 51       		.byte	0x51
 9715 2262 03       		.uleb128 0x3
 9716 2263 F3       		.byte	0xf3
 9717 2264 01       		.uleb128 0x1
 9718 2265 51       		.byte	0x51
 9719 2266 2B       		.uleb128 0x2b
 9720 2267 01       		.uleb128 0x1
 9721 2268 50       		.byte	0x50
 9722 2269 02       		.uleb128 0x2
 9723 226a 08       		.byte	0x8
 9724 226b 5B       		.byte	0x5b
 9725 226c 00       		.byte	0
 9726 226d 40       		.uleb128 0x40
 9727 226e BE090000 		.4byte	.LVL195
 9728 2272 12320000 		.4byte	0x3212
 9729 2276 8E220000 		.4byte	0x228e
 9730 227a 2B       		.uleb128 0x2b
 9731 227b 01       		.uleb128 0x1
 9732 227c 53       		.byte	0x53
 9733 227d 02       		.uleb128 0x2
 9734 227e 08       		.byte	0x8
 9735 227f 80       		.byte	0x80
 9736 2280 2B       		.uleb128 0x2b
 9737 2281 01       		.uleb128 0x1
 9738 2282 51       		.byte	0x51
 9739 2283 03       		.uleb128 0x3
 9740 2284 F3       		.byte	0xf3
 9741 2285 01       		.uleb128 0x1
 9742 2286 51       		.byte	0x51
 9743 2287 2B       		.uleb128 0x2b
 9744 2288 01       		.uleb128 0x1
 9745 2289 50       		.byte	0x50
 9746 228a 02       		.uleb128 0x2
 9747 228b 08       		.byte	0x8
 9748 228c 5B       		.byte	0x5b
ARM GAS  /var/folders/28/j9jfyj_n4wz3qtvnym210h2c0000gn/T//ccpoR13X.s 			page 173


 9749 228d 00       		.byte	0
 9750 228e 40       		.uleb128 0x40
 9751 228f CE090000 		.4byte	.LVL197
 9752 2293 83320000 		.4byte	0x3283
 9753 2297 B8220000 		.4byte	0x22b8
 9754 229b 2B       		.uleb128 0x2b
 9755 229c 01       		.uleb128 0x1
 9756 229d 53       		.byte	0x53
 9757 229e 02       		.uleb128 0x2
 9758 229f 08       		.byte	0x8
 9759 22a0 80       		.byte	0x80
 9760 22a1 2B       		.uleb128 0x2b
 9761 22a2 01       		.uleb128 0x1
 9762 22a3 52       		.byte	0x52
 9763 22a4 05       		.uleb128 0x5
 9764 22a5 03       		.byte	0x3
 9765 22a6 BC000000 		.4byte	.LC22
 9766 22aa 2B       		.uleb128 0x2b
 9767 22ab 01       		.uleb128 0x1
 9768 22ac 51       		.byte	0x51
 9769 22ad 03       		.uleb128 0x3
 9770 22ae F3       		.byte	0xf3
 9771 22af 01       		.uleb128 0x1
 9772 22b0 51       		.byte	0x51
 9773 22b1 2B       		.uleb128 0x2b
 9774 22b2 01       		.uleb128 0x1
 9775 22b3 50       		.byte	0x50
 9776 22b4 02       		.uleb128 0x2
 9777 22b5 08       		.byte	0x8
 9778 22b6 5B       		.byte	0x5b
 9779 22b7 00       		.byte	0
 9780 22b8 41       		.uleb128 0x41
 9781 22b9 DE090000 		.4byte	.LVL199
 9782 22bd 83320000 		.4byte	0x3283
 9783 22c1 2B       		.uleb128 0x2b
 9784 22c2 01       		.uleb128 0x1
 9785 22c3 53       		.byte	0x53
 9786 22c4 02       		.uleb128 0x2
 9787 22c5 08       		.byte	0x8
 9788 22c6 80       		.byte	0x80
 9789 22c7 2B       		.uleb128 0x2b
 9790 22c8 01       		.uleb128 0x1
 9791 22c9 52       		.byte	0x52
 9792 22ca 05       		.uleb128 0x5
 9793 22cb 03       		.byte	0x3
 9794 22cc C4000000 		.4byte	.LC23
 9795 22d0 2B       		.uleb128 0x2b
 9796 22d1 01       		.uleb128 0x1
 9797 22d2 51       		.byte	0x51
 9798 22d3 03       		.uleb128 0x3
 9799 22d4 F3       		.byte	0xf3
 9800 22d5 01       		.uleb128 0x1
 9801 22d6 51       		.byte	0x51
 9802 22d7 2B       		.uleb128 0x2b
 9803 22d8 01       		.uleb128 0x1
 9804 22d9 50       		.byte	0x50
 9805 22da 02       		.uleb128 0x2
ARM GAS  /var/folders/28/j9jfyj_n4wz3qtvnym210h2c0000gn/T//ccpoR13X.s 			page 174


 9806 22db 08       		.byte	0x8
 9807 22dc 5B       		.byte	0x5b
 9808 22dd 00       		.byte	0
 9809 22de 00       		.byte	0
 9810 22df 48       		.uleb128 0x48
 9811 22e0 60090000 		.4byte	.LASF254
 9812 22e4 01       		.byte	0x1
 9813 22e5 EF02     		.2byte	0x2ef
 9814 22e7 01       		.byte	0x1
 9815 22e8 31230000 		.4byte	0x2331
 9816 22ec 49       		.uleb128 0x49
 9817 22ed FE220000 		.4byte	0x22fe
 9818 22f1 23       		.uleb128 0x23
 9819 22f2 63757200 		.ascii	"cur\000"
 9820 22f6 01       		.byte	0x1
 9821 22f7 FF02     		.2byte	0x2ff
 9822 22f9 310F0000 		.4byte	0xf31
 9823 22fd 00       		.byte	0
 9824 22fe 49       		.uleb128 0x49
 9825 22ff 10230000 		.4byte	0x2310
 9826 2303 23       		.uleb128 0x23
 9827 2304 63757200 		.ascii	"cur\000"
 9828 2308 01       		.byte	0x1
 9829 2309 1703     		.2byte	0x317
 9830 230b 310F0000 		.4byte	0xf31
 9831 230f 00       		.byte	0
 9832 2310 49       		.uleb128 0x49
 9833 2311 22230000 		.4byte	0x2322
 9834 2315 23       		.uleb128 0x23
 9835 2316 63757200 		.ascii	"cur\000"
 9836 231a 01       		.byte	0x1
 9837 231b 5803     		.2byte	0x358
 9838 231d 310F0000 		.4byte	0xf31
 9839 2321 00       		.byte	0
 9840 2322 24       		.uleb128 0x24
 9841 2323 23       		.uleb128 0x23
 9842 2324 63757200 		.ascii	"cur\000"
 9843 2328 01       		.byte	0x1
 9844 2329 6603     		.2byte	0x366
 9845 232b 310F0000 		.4byte	0xf31
 9846 232f 00       		.byte	0
 9847 2330 00       		.byte	0
 9848 2331 48       		.uleb128 0x48
 9849 2332 99060000 		.4byte	.LASF255
 9850 2336 01       		.byte	0x1
 9851 2337 7903     		.2byte	0x379
 9852 2339 01       		.byte	0x1
 9853 233a 07240000 		.4byte	0x2407
 9854 233e 49       		.uleb128 0x49
 9855 233f A4230000 		.4byte	0x23a4
 9856 2343 23       		.uleb128 0x23
 9857 2344 6300     		.ascii	"c\000"
 9858 2346 01       		.byte	0x1
 9859 2347 7C03     		.2byte	0x37c
 9860 2349 9F000000 		.4byte	0x9f
 9861 234d 23       		.uleb128 0x23
 9862 234e 6C00     		.ascii	"l\000"
ARM GAS  /var/folders/28/j9jfyj_n4wz3qtvnym210h2c0000gn/T//ccpoR13X.s 			page 175


 9863 2350 01       		.byte	0x1
 9864 2351 7D03     		.2byte	0x37d
 9865 2353 9F000000 		.4byte	0x9f
 9866 2357 23       		.uleb128 0x23
 9867 2358 6B00     		.ascii	"k\000"
 9868 235a 01       		.byte	0x1
 9869 235b 7E03     		.2byte	0x37e
 9870 235d 310F0000 		.4byte	0xf31
 9871 2361 49       		.uleb128 0x49
 9872 2362 71230000 		.4byte	0x2371
 9873 2366 23       		.uleb128 0x23
 9874 2367 6900     		.ascii	"i\000"
 9875 2369 01       		.byte	0x1
 9876 236a 8003     		.2byte	0x380
 9877 236c 9F000000 		.4byte	0x9f
 9878 2370 00       		.byte	0
 9879 2371 49       		.uleb128 0x49
 9880 2372 83230000 		.4byte	0x2383
 9881 2376 4A       		.uleb128 0x4a
 9882 2377 080C0000 		.4byte	.LASF256
 9883 237b 01       		.byte	0x1
 9884 237c 9003     		.2byte	0x390
 9885 237e 9F000000 		.4byte	0x9f
 9886 2382 00       		.byte	0
 9887 2383 49       		.uleb128 0x49
 9888 2384 95230000 		.4byte	0x2395
 9889 2388 4A       		.uleb128 0x4a
 9890 2389 080C0000 		.4byte	.LASF256
 9891 238d 01       		.byte	0x1
 9892 238e A203     		.2byte	0x3a2
 9893 2390 9F000000 		.4byte	0x9f
 9894 2394 00       		.byte	0
 9895 2395 24       		.uleb128 0x24
 9896 2396 4A       		.uleb128 0x4a
 9897 2397 080C0000 		.4byte	.LASF256
 9898 239b 01       		.byte	0x1
 9899 239c B903     		.2byte	0x3b9
 9900 239e 9F000000 		.4byte	0x9f
 9901 23a2 00       		.byte	0
 9902 23a3 00       		.byte	0
 9903 23a4 24       		.uleb128 0x24
 9904 23a5 23       		.uleb128 0x23
 9905 23a6 6300     		.ascii	"c\000"
 9906 23a8 01       		.byte	0x1
 9907 23a9 D103     		.2byte	0x3d1
 9908 23ab 9F000000 		.4byte	0x9f
 9909 23af 23       		.uleb128 0x23
 9910 23b0 6C00     		.ascii	"l\000"
 9911 23b2 01       		.byte	0x1
 9912 23b3 D203     		.2byte	0x3d2
 9913 23b5 9F000000 		.4byte	0x9f
 9914 23b9 23       		.uleb128 0x23
 9915 23ba 6B00     		.ascii	"k\000"
 9916 23bc 01       		.byte	0x1
 9917 23bd D303     		.2byte	0x3d3
 9918 23bf 07240000 		.4byte	0x2407
 9919 23c3 49       		.uleb128 0x49
ARM GAS  /var/folders/28/j9jfyj_n4wz3qtvnym210h2c0000gn/T//ccpoR13X.s 			page 176


 9920 23c4 D3230000 		.4byte	0x23d3
 9921 23c8 23       		.uleb128 0x23
 9922 23c9 6900     		.ascii	"i\000"
 9923 23cb 01       		.byte	0x1
 9924 23cc D503     		.2byte	0x3d5
 9925 23ce 9F000000 		.4byte	0x9f
 9926 23d2 00       		.byte	0
 9927 23d3 49       		.uleb128 0x49
 9928 23d4 E5230000 		.4byte	0x23e5
 9929 23d8 4A       		.uleb128 0x4a
 9930 23d9 080C0000 		.4byte	.LASF256
 9931 23dd 01       		.byte	0x1
 9932 23de E503     		.2byte	0x3e5
 9933 23e0 9F000000 		.4byte	0x9f
 9934 23e4 00       		.byte	0
 9935 23e5 49       		.uleb128 0x49
 9936 23e6 F7230000 		.4byte	0x23f7
 9937 23ea 4A       		.uleb128 0x4a
 9938 23eb 080C0000 		.4byte	.LASF256
 9939 23ef 01       		.byte	0x1
 9940 23f0 F703     		.2byte	0x3f7
 9941 23f2 9F000000 		.4byte	0x9f
 9942 23f6 00       		.byte	0
 9943 23f7 24       		.uleb128 0x24
 9944 23f8 4A       		.uleb128 0x4a
 9945 23f9 080C0000 		.4byte	.LASF256
 9946 23fd 01       		.byte	0x1
 9947 23fe 0E04     		.2byte	0x40e
 9948 2400 9F000000 		.4byte	0x9f
 9949 2404 00       		.byte	0
 9950 2405 00       		.byte	0
 9951 2406 00       		.byte	0
 9952 2407 09       		.uleb128 0x9
 9953 2408 04       		.byte	0x4
 9954 2409 310F0000 		.4byte	0xf31
 9955 240d 4B       		.uleb128 0x4b
 9956 240e 780C0000 		.4byte	.LASF283
 9957 2412 01       		.byte	0x1
 9958 2413 8B01     		.2byte	0x18b
 9959 2415 000A0000 		.4byte	.LFB194
 9960 2419 A00C0000 		.4byte	.LFE194-.LFB194
 9961 241d 01       		.uleb128 0x1
 9962 241e 9C       		.byte	0x9c
 9963 241f DD2D0000 		.4byte	0x2ddd
 9964 2423 2F       		.uleb128 0x2f
 9965 2424 DF220000 		.4byte	0x22df
 9966 2428 0A0A0000 		.4byte	.LBB286
 9967 242c 40030000 		.4byte	.Ldebug_ranges0+0x340
 9968 2430 01       		.byte	0x1
 9969 2431 8E01     		.2byte	0x18e
 9970 2433 80270000 		.4byte	0x2780
 9971 2437 2E       		.uleb128 0x2e
 9972 2438 98030000 		.4byte	.Ldebug_ranges0+0x398
 9973 243c EA240000 		.4byte	0x24ea
 9974 2440 35       		.uleb128 0x35
 9975 2441 15230000 		.4byte	0x2315
 9976 2445 70110000 		.4byte	.LLST87
ARM GAS  /var/folders/28/j9jfyj_n4wz3qtvnym210h2c0000gn/T//ccpoR13X.s 			page 177


 9977 2449 2F       		.uleb128 0x2f
 9978 244a 8A0F0000 		.4byte	0xf8a
 9979 244e E60C0000 		.4byte	.LBB289
 9980 2452 C0030000 		.4byte	.Ldebug_ranges0+0x3c0
 9981 2456 01       		.byte	0x1
 9982 2457 5C03     		.2byte	0x35c
 9983 2459 99240000 		.4byte	0x2499
 9984 245d 45       		.uleb128 0x45
 9985 245e 960F0000 		.4byte	0xf96
 9986 2462 47       		.uleb128 0x47
 9987 2463 2A0F0000 		.4byte	.LBB291
 9988 2467 1E000000 		.4byte	.LBE291-.LBB291
 9989 246b 30       		.uleb128 0x30
 9990 246c 960F0000 		.4byte	0xf96
 9991 2470 AF110000 		.4byte	.LLST88
 9992 2474 47       		.uleb128 0x47
 9993 2475 2A0F0000 		.4byte	.LBB293
 9994 2479 1E000000 		.4byte	.LBE293-.LBB293
 9995 247d 35       		.uleb128 0x35
 9996 247e A20F0000 		.4byte	0xfa2
 9997 2482 C2110000 		.4byte	.LLST89
 9998 2486 2C       		.uleb128 0x2c
 9999 2487 460F0000 		.4byte	.LVL243
 10000 248b F4300000 		.4byte	0x30f4
 10001 248f 2B       		.uleb128 0x2b
 10002 2490 01       		.uleb128 0x1
 10003 2491 52       		.byte	0x52
 10004 2492 02       		.uleb128 0x2
 10005 2493 09       		.byte	0x9
 10006 2494 E7       		.byte	0xe7
 10007 2495 00       		.byte	0
 10008 2496 00       		.byte	0
 10009 2497 00       		.byte	0
 10010 2498 00       		.byte	0
 10011 2499 37       		.uleb128 0x37
 10012 249a AF0F0000 		.4byte	0xfaf
 10013 249e 62100000 		.4byte	.LBB298
 10014 24a2 E0030000 		.4byte	.Ldebug_ranges0+0x3e0
 10015 24a6 01       		.byte	0x1
 10016 24a7 6003     		.2byte	0x360
 10017 24a9 30       		.uleb128 0x30
 10018 24aa BB0F0000 		.4byte	0xfbb
 10019 24ae D5110000 		.4byte	.LLST90
 10020 24b2 47       		.uleb128 0x47
 10021 24b3 C2100000 		.4byte	.LBB300
 10022 24b7 1E000000 		.4byte	.LBE300-.LBB300
 10023 24bb 30       		.uleb128 0x30
 10024 24bc BB0F0000 		.4byte	0xfbb
 10025 24c0 F3110000 		.4byte	.LLST91
 10026 24c4 47       		.uleb128 0x47
 10027 24c5 C2100000 		.4byte	.LBB302
 10028 24c9 1E000000 		.4byte	.LBE302-.LBB302
 10029 24cd 35       		.uleb128 0x35
 10030 24ce C70F0000 		.4byte	0xfc7
 10031 24d2 06120000 		.4byte	.LLST92
 10032 24d6 2C       		.uleb128 0x2c
 10033 24d7 DE100000 		.4byte	.LVL272
ARM GAS  /var/folders/28/j9jfyj_n4wz3qtvnym210h2c0000gn/T//ccpoR13X.s 			page 178


 10034 24db F4300000 		.4byte	0x30f4
 10035 24df 2B       		.uleb128 0x2b
 10036 24e0 01       		.uleb128 0x1
 10037 24e1 52       		.byte	0x52
 10038 24e2 02       		.uleb128 0x2
 10039 24e3 09       		.byte	0x9
 10040 24e4 E7       		.byte	0xe7
 10041 24e5 00       		.byte	0
 10042 24e6 00       		.byte	0
 10043 24e7 00       		.byte	0
 10044 24e8 00       		.byte	0
 10045 24e9 00       		.byte	0
 10046 24ea 2E       		.uleb128 0x2e
 10047 24eb F8030000 		.4byte	.Ldebug_ranges0+0x3f8
 10048 24ef DD250000 		.4byte	0x25dd
 10049 24f3 35       		.uleb128 0x35
 10050 24f4 F1220000 		.4byte	0x22f1
 10051 24f8 19120000 		.4byte	.LLST93
 10052 24fc 2F       		.uleb128 0x2f
 10053 24fd 8A0F0000 		.4byte	0xf8a
 10054 2501 68120000 		.4byte	.LBB306
 10055 2505 20040000 		.4byte	.Ldebug_ranges0+0x420
 10056 2509 01       		.byte	0x1
 10057 250a 0803     		.2byte	0x308
 10058 250c 50250000 		.4byte	0x2550
 10059 2510 30       		.uleb128 0x30
 10060 2511 960F0000 		.4byte	0xf96
 10061 2515 4D120000 		.4byte	.LLST94
 10062 2519 47       		.uleb128 0x47
 10063 251a 98140000 		.4byte	.LBB308
 10064 251e 20000000 		.4byte	.LBE308-.LBB308
 10065 2522 30       		.uleb128 0x30
 10066 2523 960F0000 		.4byte	0xf96
 10067 2527 76120000 		.4byte	.LLST95
 10068 252b 47       		.uleb128 0x47
 10069 252c 98140000 		.4byte	.LBB310
 10070 2530 20000000 		.4byte	.LBE310-.LBB310
 10071 2534 35       		.uleb128 0x35
 10072 2535 A20F0000 		.4byte	0xfa2
 10073 2539 89120000 		.4byte	.LLST96
 10074 253d 2C       		.uleb128 0x2c
 10075 253e B4140000 		.4byte	.LVL342
 10076 2542 F4300000 		.4byte	0x30f4
 10077 2546 2B       		.uleb128 0x2b
 10078 2547 01       		.uleb128 0x1
 10079 2548 52       		.byte	0x52
 10080 2549 02       		.uleb128 0x2
 10081 254a 09       		.byte	0x9
 10082 254b E7       		.byte	0xe7
 10083 254c 00       		.byte	0
 10084 254d 00       		.byte	0
 10085 254e 00       		.byte	0
 10086 254f 00       		.byte	0
 10087 2550 2F       		.uleb128 0x2f
 10088 2551 AF0F0000 		.4byte	0xfaf
 10089 2555 AC120000 		.4byte	.LBB313
 10090 2559 40040000 		.4byte	.Ldebug_ranges0+0x440
ARM GAS  /var/folders/28/j9jfyj_n4wz3qtvnym210h2c0000gn/T//ccpoR13X.s 			page 179


 10091 255d 01       		.byte	0x1
 10092 255e 0603     		.2byte	0x306
 10093 2560 A4250000 		.4byte	0x25a4
 10094 2564 30       		.uleb128 0x30
 10095 2565 BB0F0000 		.4byte	0xfbb
 10096 2569 9C120000 		.4byte	.LLST97
 10097 256d 47       		.uleb128 0x47
 10098 256e E8140000 		.4byte	.LBB315
 10099 2572 20000000 		.4byte	.LBE315-.LBB315
 10100 2576 30       		.uleb128 0x30
 10101 2577 BB0F0000 		.4byte	0xfbb
 10102 257b C5120000 		.4byte	.LLST98
 10103 257f 47       		.uleb128 0x47
 10104 2580 E8140000 		.4byte	.LBB317
 10105 2584 20000000 		.4byte	.LBE317-.LBB317
 10106 2588 35       		.uleb128 0x35
 10107 2589 C70F0000 		.4byte	0xfc7
 10108 258d D8120000 		.4byte	.LLST99
 10109 2591 2C       		.uleb128 0x2c
 10110 2592 04150000 		.4byte	.LVL346
 10111 2596 F4300000 		.4byte	0x30f4
 10112 259a 2B       		.uleb128 0x2b
 10113 259b 01       		.uleb128 0x1
 10114 259c 52       		.byte	0x52
 10115 259d 02       		.uleb128 0x2
 10116 259e 09       		.byte	0x9
 10117 259f E7       		.byte	0xe7
 10118 25a0 00       		.byte	0
 10119 25a1 00       		.byte	0
 10120 25a2 00       		.byte	0
 10121 25a3 00       		.byte	0
 10122 25a4 3A       		.uleb128 0x3a
 10123 25a5 AF0F0000 		.4byte	0xfaf
 10124 25a9 F0120000 		.4byte	.LBB320
 10125 25ad 0E000000 		.4byte	.LBE320-.LBB320
 10126 25b1 01       		.byte	0x1
 10127 25b2 0403     		.2byte	0x304
 10128 25b4 C2250000 		.4byte	0x25c2
 10129 25b8 30       		.uleb128 0x30
 10130 25b9 BB0F0000 		.4byte	0xfbb
 10131 25bd EB120000 		.4byte	.LLST100
 10132 25c1 00       		.byte	0
 10133 25c2 4C       		.uleb128 0x4c
 10134 25c3 8A0F0000 		.4byte	0xf8a
 10135 25c7 FE120000 		.4byte	.LBB322
 10136 25cb 12000000 		.4byte	.LBE322-.LBB322
 10137 25cf 01       		.byte	0x1
 10138 25d0 0203     		.2byte	0x302
 10139 25d2 30       		.uleb128 0x30
 10140 25d3 960F0000 		.4byte	0xf96
 10141 25d7 FE120000 		.4byte	.LLST101
 10142 25db 00       		.byte	0
 10143 25dc 00       		.byte	0
 10144 25dd 2E       		.uleb128 0x2e
 10145 25de 60040000 		.4byte	.Ldebug_ranges0+0x460
 10146 25e2 90260000 		.4byte	0x2690
 10147 25e6 35       		.uleb128 0x35
ARM GAS  /var/folders/28/j9jfyj_n4wz3qtvnym210h2c0000gn/T//ccpoR13X.s 			page 180


 10148 25e7 23230000 		.4byte	0x2323
 10149 25eb 11130000 		.4byte	.LLST102
 10150 25ef 2F       		.uleb128 0x2f
 10151 25f0 8A0F0000 		.4byte	0xf8a
 10152 25f4 B40D0000 		.4byte	.LBB329
 10153 25f8 80040000 		.4byte	.Ldebug_ranges0+0x480
 10154 25fc 01       		.byte	0x1
 10155 25fd 6A03     		.2byte	0x36a
 10156 25ff 3F260000 		.4byte	0x263f
 10157 2603 45       		.uleb128 0x45
 10158 2604 960F0000 		.4byte	0xf96
 10159 2608 47       		.uleb128 0x47
 10160 2609 FA0F0000 		.4byte	.LBB331
 10161 260d 1E000000 		.4byte	.LBE331-.LBB331
 10162 2611 30       		.uleb128 0x30
 10163 2612 960F0000 		.4byte	0xf96
 10164 2616 3A130000 		.4byte	.LLST103
 10165 261a 47       		.uleb128 0x47
 10166 261b FA0F0000 		.4byte	.LBB333
 10167 261f 1E000000 		.4byte	.LBE333-.LBB333
 10168 2623 35       		.uleb128 0x35
 10169 2624 A20F0000 		.4byte	0xfa2
 10170 2628 4D130000 		.4byte	.LLST104
 10171 262c 2C       		.uleb128 0x2c
 10172 262d 16100000 		.4byte	.LVL256
 10173 2631 F4300000 		.4byte	0x30f4
 10174 2635 2B       		.uleb128 0x2b
 10175 2636 01       		.uleb128 0x1
 10176 2637 52       		.byte	0x52
 10177 2638 02       		.uleb128 0x2
 10178 2639 09       		.byte	0x9
 10179 263a E7       		.byte	0xe7
 10180 263b 00       		.byte	0
 10181 263c 00       		.byte	0
 10182 263d 00       		.byte	0
 10183 263e 00       		.byte	0
 10184 263f 37       		.uleb128 0x37
 10185 2640 AF0F0000 		.4byte	0xfaf
 10186 2644 E4100000 		.4byte	.LBB338
 10187 2648 A0040000 		.4byte	.Ldebug_ranges0+0x4a0
 10188 264c 01       		.byte	0x1
 10189 264d 6E03     		.2byte	0x36e
 10190 264f 30       		.uleb128 0x30
 10191 2650 BB0F0000 		.4byte	0xfbb
 10192 2654 60130000 		.4byte	.LLST105
 10193 2658 47       		.uleb128 0x47
 10194 2659 44110000 		.4byte	.LBB340
 10195 265d 1E000000 		.4byte	.LBE340-.LBB340
 10196 2661 30       		.uleb128 0x30
 10197 2662 BB0F0000 		.4byte	0xfbb
 10198 2666 73130000 		.4byte	.LLST106
 10199 266a 47       		.uleb128 0x47
 10200 266b 44110000 		.4byte	.LBB342
 10201 266f 1E000000 		.4byte	.LBE342-.LBB342
 10202 2673 35       		.uleb128 0x35
 10203 2674 C70F0000 		.4byte	0xfc7
 10204 2678 86130000 		.4byte	.LLST107
ARM GAS  /var/folders/28/j9jfyj_n4wz3qtvnym210h2c0000gn/T//ccpoR13X.s 			page 181


 10205 267c 2C       		.uleb128 0x2c
 10206 267d 60110000 		.4byte	.LVL277
 10207 2681 F4300000 		.4byte	0x30f4
 10208 2685 2B       		.uleb128 0x2b
 10209 2686 01       		.uleb128 0x1
 10210 2687 52       		.byte	0x52
 10211 2688 02       		.uleb128 0x2
 10212 2689 09       		.byte	0x9
 10213 268a E7       		.byte	0xe7
 10214 268b 00       		.byte	0
 10215 268c 00       		.byte	0
 10216 268d 00       		.byte	0
 10217 268e 00       		.byte	0
 10218 268f 00       		.byte	0
 10219 2690 3F       		.uleb128 0x3f
 10220 2691 B8040000 		.4byte	.Ldebug_ranges0+0x4b8
 10221 2695 35       		.uleb128 0x35
 10222 2696 03230000 		.4byte	0x2303
 10223 269a 99130000 		.4byte	.LLST108
 10224 269e 2F       		.uleb128 0x2f
 10225 269f AF0F0000 		.4byte	0xfaf
 10226 26a3 10130000 		.4byte	.LBB346
 10227 26a7 E8040000 		.4byte	.Ldebug_ranges0+0x4e8
 10228 26ab 01       		.byte	0x1
 10229 26ac 1E03     		.2byte	0x31e
 10230 26ae F2260000 		.4byte	0x26f2
 10231 26b2 30       		.uleb128 0x30
 10232 26b3 BB0F0000 		.4byte	0xfbb
 10233 26b7 D8130000 		.4byte	.LLST109
 10234 26bb 47       		.uleb128 0x47
 10235 26bc A4150000 		.4byte	.LBB348
 10236 26c0 1C000000 		.4byte	.LBE348-.LBB348
 10237 26c4 30       		.uleb128 0x30
 10238 26c5 BB0F0000 		.4byte	0xfbb
 10239 26c9 01140000 		.4byte	.LLST110
 10240 26cd 47       		.uleb128 0x47
 10241 26ce A4150000 		.4byte	.LBB350
 10242 26d2 1C000000 		.4byte	.LBE350-.LBB350
 10243 26d6 35       		.uleb128 0x35
 10244 26d7 C70F0000 		.4byte	0xfc7
 10245 26db 14140000 		.4byte	.LLST111
 10246 26df 2C       		.uleb128 0x2c
 10247 26e0 BC150000 		.4byte	.LVL355
 10248 26e4 F4300000 		.4byte	0x30f4
 10249 26e8 2B       		.uleb128 0x2b
 10250 26e9 01       		.uleb128 0x1
 10251 26ea 52       		.byte	0x52
 10252 26eb 02       		.uleb128 0x2
 10253 26ec 09       		.byte	0x9
 10254 26ed E7       		.byte	0xe7
 10255 26ee 00       		.byte	0
 10256 26ef 00       		.byte	0
 10257 26f0 00       		.byte	0
 10258 26f1 00       		.byte	0
 10259 26f2 2F       		.uleb128 0x2f
 10260 26f3 8A0F0000 		.4byte	0xf8a
 10261 26f7 54130000 		.4byte	.LBB353
ARM GAS  /var/folders/28/j9jfyj_n4wz3qtvnym210h2c0000gn/T//ccpoR13X.s 			page 182


 10262 26fb 08050000 		.4byte	.Ldebug_ranges0+0x508
 10263 26ff 01       		.byte	0x1
 10264 2700 2003     		.2byte	0x320
 10265 2702 46270000 		.4byte	0x2746
 10266 2706 30       		.uleb128 0x30
 10267 2707 960F0000 		.4byte	0xf96
 10268 270b 27140000 		.4byte	.LLST112
 10269 270f 47       		.uleb128 0x47
 10270 2710 38150000 		.4byte	.LBB355
 10271 2714 1C000000 		.4byte	.LBE355-.LBB355
 10272 2718 30       		.uleb128 0x30
 10273 2719 960F0000 		.4byte	0xf96
 10274 271d 50140000 		.4byte	.LLST113
 10275 2721 47       		.uleb128 0x47
 10276 2722 38150000 		.4byte	.LBB357
 10277 2726 1C000000 		.4byte	.LBE357-.LBB357
 10278 272a 35       		.uleb128 0x35
 10279 272b A20F0000 		.4byte	0xfa2
 10280 272f 63140000 		.4byte	.LLST114
 10281 2733 2C       		.uleb128 0x2c
 10282 2734 50150000 		.4byte	.LVL350
 10283 2738 F4300000 		.4byte	0x30f4
 10284 273c 2B       		.uleb128 0x2b
 10285 273d 01       		.uleb128 0x1
 10286 273e 52       		.byte	0x52
 10287 273f 02       		.uleb128 0x2
 10288 2740 09       		.byte	0x9
 10289 2741 E7       		.byte	0xe7
 10290 2742 00       		.byte	0
 10291 2743 00       		.byte	0
 10292 2744 00       		.byte	0
 10293 2745 00       		.byte	0
 10294 2746 3A       		.uleb128 0x3a
 10295 2747 8A0F0000 		.4byte	0xf8a
 10296 274b 98130000 		.4byte	.LBB360
 10297 274f 0E000000 		.4byte	.LBE360-.LBB360
 10298 2753 01       		.byte	0x1
 10299 2754 1A03     		.2byte	0x31a
 10300 2756 64270000 		.4byte	0x2764
 10301 275a 30       		.uleb128 0x30
 10302 275b 960F0000 		.4byte	0xf96
 10303 275f 76140000 		.4byte	.LLST115
 10304 2763 00       		.byte	0
 10305 2764 4C       		.uleb128 0x4c
 10306 2765 AF0F0000 		.4byte	0xfaf
 10307 2769 A6130000 		.4byte	.LBB362
 10308 276d 0E000000 		.4byte	.LBE362-.LBB362
 10309 2771 01       		.byte	0x1
 10310 2772 1C03     		.2byte	0x31c
 10311 2774 30       		.uleb128 0x30
 10312 2775 BB0F0000 		.4byte	0xfbb
 10313 2779 89140000 		.4byte	.LLST116
 10314 277d 00       		.byte	0
 10315 277e 00       		.byte	0
 10316 277f 00       		.byte	0
 10317 2780 2F       		.uleb128 0x2f
 10318 2781 31230000 		.4byte	0x2331
ARM GAS  /var/folders/28/j9jfyj_n4wz3qtvnym210h2c0000gn/T//ccpoR13X.s 			page 183


 10319 2785 CC0B0000 		.4byte	.LBB389
 10320 2789 28050000 		.4byte	.Ldebug_ranges0+0x528
 10321 278d 01       		.byte	0x1
 10322 278e 8F01     		.2byte	0x18f
 10323 2790 D32D0000 		.4byte	0x2dd3
 10324 2794 2E       		.uleb128 0x2e
 10325 2795 A0050000 		.4byte	.Ldebug_ranges0+0x5a0
 10326 2799 0B2B0000 		.4byte	0x2b0b
 10327 279d 35       		.uleb128 0x35
 10328 279e 43230000 		.4byte	0x2343
 10329 27a2 9C140000 		.4byte	.LLST117
 10330 27a6 35       		.uleb128 0x35
 10331 27a7 4D230000 		.4byte	0x234d
 10332 27ab C9150000 		.4byte	.LLST118
 10333 27af 35       		.uleb128 0x35
 10334 27b0 57230000 		.4byte	0x2357
 10335 27b4 40160000 		.4byte	.LLST119
 10336 27b8 2E       		.uleb128 0x2e
 10337 27b9 18060000 		.4byte	.Ldebug_ranges0+0x618
 10338 27bd 22280000 		.4byte	0x2822
 10339 27c1 35       		.uleb128 0x35
 10340 27c2 66230000 		.4byte	0x2366
 10341 27c6 B6160000 		.4byte	.LLST120
 10342 27ca 2A       		.uleb128 0x2a
 10343 27cb 340C0000 		.4byte	.LVL208
 10344 27cf 791F0000 		.4byte	0x1f79
 10345 27d3 E9270000 		.4byte	0x27e9
 10346 27d7 2B       		.uleb128 0x2b
 10347 27d8 01       		.uleb128 0x1
 10348 27d9 52       		.byte	0x52
 10349 27da 02       		.uleb128 0x2
 10350 27db 77       		.byte	0x77
 10351 27dc 00       		.sleb128 0
 10352 27dd 2B       		.uleb128 0x2b
 10353 27de 01       		.uleb128 0x1
 10354 27df 51       		.byte	0x51
 10355 27e0 02       		.uleb128 0x2
 10356 27e1 76       		.byte	0x76
 10357 27e2 00       		.sleb128 0
 10358 27e3 2B       		.uleb128 0x2b
 10359 27e4 01       		.uleb128 0x1
 10360 27e5 50       		.byte	0x50
 10361 27e6 01       		.uleb128 0x1
 10362 27e7 35       		.byte	0x35
 10363 27e8 00       		.byte	0
 10364 27e9 2A       		.uleb128 0x2a
 10365 27ea 4E0C0000 		.4byte	.LVL212
 10366 27ee 83320000 		.4byte	0x3283
 10367 27f2 11280000 		.4byte	0x2811
 10368 27f6 2B       		.uleb128 0x2b
 10369 27f7 01       		.uleb128 0x1
 10370 27f8 53       		.byte	0x53
 10371 27f9 02       		.uleb128 0x2
 10372 27fa 08       		.byte	0x8
 10373 27fb 4E       		.byte	0x4e
 10374 27fc 2B       		.uleb128 0x2b
 10375 27fd 01       		.uleb128 0x1
ARM GAS  /var/folders/28/j9jfyj_n4wz3qtvnym210h2c0000gn/T//ccpoR13X.s 			page 184


 10376 27fe 52       		.byte	0x52
 10377 27ff 05       		.uleb128 0x5
 10378 2800 03       		.byte	0x3
 10379 2801 CC000000 		.4byte	.LC24
 10380 2805 2B       		.uleb128 0x2b
 10381 2806 01       		.uleb128 0x1
 10382 2807 51       		.byte	0x51
 10383 2808 02       		.uleb128 0x2
 10384 2809 74       		.byte	0x74
 10385 280a 00       		.sleb128 0
 10386 280b 2B       		.uleb128 0x2b
 10387 280c 01       		.uleb128 0x1
 10388 280d 50       		.byte	0x50
 10389 280e 01       		.uleb128 0x1
 10390 280f 35       		.byte	0x35
 10391 2810 00       		.byte	0
 10392 2811 2C       		.uleb128 0x2c
 10393 2812 7C160000 		.4byte	.LVL389
 10394 2816 641D0000 		.4byte	0x1d64
 10395 281a 2B       		.uleb128 0x2b
 10396 281b 01       		.uleb128 0x1
 10397 281c 52       		.byte	0x52
 10398 281d 02       		.uleb128 0x2
 10399 281e 7B       		.byte	0x7b
 10400 281f 00       		.sleb128 0
 10401 2820 00       		.byte	0
 10402 2821 00       		.byte	0
 10403 2822 2E       		.uleb128 0x2e
 10404 2823 38060000 		.4byte	.Ldebug_ranges0+0x638
 10405 2827 9A280000 		.4byte	0x289a
 10406 282b 35       		.uleb128 0x35
 10407 282c 76230000 		.4byte	0x2376
 10408 2830 57170000 		.4byte	.LLST121
 10409 2834 2A       		.uleb128 0x2a
 10410 2835 5A0F0000 		.4byte	.LVL246
 10411 2839 641D0000 		.4byte	0x1d64
 10412 283d 52280000 		.4byte	0x2852
 10413 2841 2B       		.uleb128 0x2b
 10414 2842 01       		.uleb128 0x1
 10415 2843 52       		.byte	0x52
 10416 2844 02       		.uleb128 0x2
 10417 2845 7A       		.byte	0x7a
 10418 2846 00       		.sleb128 0
 10419 2847 2B       		.uleb128 0x2b
 10420 2848 01       		.uleb128 0x1
 10421 2849 51       		.byte	0x51
 10422 284a 01       		.uleb128 0x1
 10423 284b 31       		.byte	0x31
 10424 284c 2B       		.uleb128 0x2b
 10425 284d 01       		.uleb128 0x1
 10426 284e 50       		.byte	0x50
 10427 284f 01       		.uleb128 0x1
 10428 2850 35       		.byte	0x35
 10429 2851 00       		.byte	0
 10430 2852 2A       		.uleb128 0x2a
 10431 2853 7E0F0000 		.4byte	.LVL249
 10432 2857 791F0000 		.4byte	0x1f79
ARM GAS  /var/folders/28/j9jfyj_n4wz3qtvnym210h2c0000gn/T//ccpoR13X.s 			page 185


 10433 285b 7B280000 		.4byte	0x287b
 10434 285f 2B       		.uleb128 0x2b
 10435 2860 01       		.uleb128 0x1
 10436 2861 52       		.byte	0x52
 10437 2862 0C       		.uleb128 0xc
 10438 2863 76       		.byte	0x76
 10439 2864 00       		.sleb128 0
 10440 2865 31       		.byte	0x31
 10441 2866 24       		.byte	0x24
 10442 2867 76       		.byte	0x76
 10443 2868 00       		.sleb128 0
 10444 2869 22       		.byte	0x22
 10445 286a 33       		.byte	0x33
 10446 286b 24       		.byte	0x24
 10447 286c 7A       		.byte	0x7a
 10448 286d 00       		.sleb128 0
 10449 286e 22       		.byte	0x22
 10450 286f 2B       		.uleb128 0x2b
 10451 2870 01       		.uleb128 0x1
 10452 2871 51       		.byte	0x51
 10453 2872 02       		.uleb128 0x2
 10454 2873 77       		.byte	0x77
 10455 2874 00       		.sleb128 0
 10456 2875 2B       		.uleb128 0x2b
 10457 2876 01       		.uleb128 0x1
 10458 2877 50       		.byte	0x50
 10459 2878 01       		.uleb128 0x1
 10460 2879 35       		.byte	0x35
 10461 287a 00       		.byte	0
 10462 287b 2C       		.uleb128 0x2c
 10463 287c 6C110000 		.4byte	.LVL280
 10464 2880 83320000 		.4byte	0x3283
 10465 2884 2B       		.uleb128 0x2b
 10466 2885 01       		.uleb128 0x1
 10467 2886 52       		.byte	0x52
 10468 2887 05       		.uleb128 0x5
 10469 2888 03       		.byte	0x3
 10470 2889 CC000000 		.4byte	.LC24
 10471 288d 2B       		.uleb128 0x2b
 10472 288e 01       		.uleb128 0x1
 10473 288f 51       		.byte	0x51
 10474 2890 02       		.uleb128 0x2
 10475 2891 77       		.byte	0x77
 10476 2892 00       		.sleb128 0
 10477 2893 2B       		.uleb128 0x2b
 10478 2894 01       		.uleb128 0x1
 10479 2895 50       		.byte	0x50
 10480 2896 01       		.uleb128 0x1
 10481 2897 35       		.byte	0x35
 10482 2898 00       		.byte	0
 10483 2899 00       		.byte	0
 10484 289a 2E       		.uleb128 0x2e
 10485 289b 50060000 		.4byte	.Ldebug_ranges0+0x650
 10486 289f D1290000 		.4byte	0x29d1
 10487 28a3 35       		.uleb128 0x35
 10488 28a4 96230000 		.4byte	0x2396
 10489 28a8 8C170000 		.4byte	.LLST122
ARM GAS  /var/folders/28/j9jfyj_n4wz3qtvnym210h2c0000gn/T//ccpoR13X.s 			page 186


 10490 28ac 2A       		.uleb128 0x2a
 10491 28ad A2110000 		.4byte	.LVL288
 10492 28b1 83320000 		.4byte	0x3283
 10493 28b5 D3280000 		.4byte	0x28d3
 10494 28b9 2B       		.uleb128 0x2b
 10495 28ba 01       		.uleb128 0x1
 10496 28bb 53       		.byte	0x53
 10497 28bc 02       		.uleb128 0x2
 10498 28bd 08       		.byte	0x8
 10499 28be 80       		.byte	0x80
 10500 28bf 2B       		.uleb128 0x2b
 10501 28c0 01       		.uleb128 0x1
 10502 28c1 52       		.byte	0x52
 10503 28c2 05       		.uleb128 0x5
 10504 28c3 03       		.byte	0x3
 10505 28c4 CC000000 		.4byte	.LC24
 10506 28c8 2B       		.uleb128 0x2b
 10507 28c9 01       		.uleb128 0x1
 10508 28ca 51       		.byte	0x51
 10509 28cb 01       		.uleb128 0x1
 10510 28cc 31       		.byte	0x31
 10511 28cd 2B       		.uleb128 0x2b
 10512 28ce 01       		.uleb128 0x1
 10513 28cf 50       		.byte	0x50
 10514 28d0 01       		.uleb128 0x1
 10515 28d1 35       		.byte	0x35
 10516 28d2 00       		.byte	0
 10517 28d3 2A       		.uleb128 0x2a
 10518 28d4 AE110000 		.4byte	.LVL289
 10519 28d8 83320000 		.4byte	0x3283
 10520 28dc FA280000 		.4byte	0x28fa
 10521 28e0 2B       		.uleb128 0x2b
 10522 28e1 01       		.uleb128 0x1
 10523 28e2 53       		.byte	0x53
 10524 28e3 02       		.uleb128 0x2
 10525 28e4 08       		.byte	0x8
 10526 28e5 80       		.byte	0x80
 10527 28e6 2B       		.uleb128 0x2b
 10528 28e7 01       		.uleb128 0x1
 10529 28e8 52       		.byte	0x52
 10530 28e9 05       		.uleb128 0x5
 10531 28ea 03       		.byte	0x3
 10532 28eb CC000000 		.4byte	.LC24
 10533 28ef 2B       		.uleb128 0x2b
 10534 28f0 01       		.uleb128 0x1
 10535 28f1 51       		.byte	0x51
 10536 28f2 01       		.uleb128 0x1
 10537 28f3 32       		.byte	0x32
 10538 28f4 2B       		.uleb128 0x2b
 10539 28f5 01       		.uleb128 0x1
 10540 28f6 50       		.byte	0x50
 10541 28f7 01       		.uleb128 0x1
 10542 28f8 35       		.byte	0x35
 10543 28f9 00       		.byte	0
 10544 28fa 2A       		.uleb128 0x2a
 10545 28fb BA110000 		.4byte	.LVL290
 10546 28ff 83320000 		.4byte	0x3283
ARM GAS  /var/folders/28/j9jfyj_n4wz3qtvnym210h2c0000gn/T//ccpoR13X.s 			page 187


 10547 2903 21290000 		.4byte	0x2921
 10548 2907 2B       		.uleb128 0x2b
 10549 2908 01       		.uleb128 0x1
 10550 2909 53       		.byte	0x53
 10551 290a 02       		.uleb128 0x2
 10552 290b 08       		.byte	0x8
 10553 290c 80       		.byte	0x80
 10554 290d 2B       		.uleb128 0x2b
 10555 290e 01       		.uleb128 0x1
 10556 290f 52       		.byte	0x52
 10557 2910 05       		.uleb128 0x5
 10558 2911 03       		.byte	0x3
 10559 2912 CC000000 		.4byte	.LC24
 10560 2916 2B       		.uleb128 0x2b
 10561 2917 01       		.uleb128 0x1
 10562 2918 51       		.byte	0x51
 10563 2919 01       		.uleb128 0x1
 10564 291a 33       		.byte	0x33
 10565 291b 2B       		.uleb128 0x2b
 10566 291c 01       		.uleb128 0x1
 10567 291d 50       		.byte	0x50
 10568 291e 01       		.uleb128 0x1
 10569 291f 35       		.byte	0x35
 10570 2920 00       		.byte	0
 10571 2921 2A       		.uleb128 0x2a
 10572 2922 DC110000 		.4byte	.LVL293
 10573 2926 791F0000 		.4byte	0x1f79
 10574 292a 4A290000 		.4byte	0x294a
 10575 292e 2B       		.uleb128 0x2b
 10576 292f 01       		.uleb128 0x1
 10577 2930 52       		.byte	0x52
 10578 2931 0C       		.uleb128 0xc
 10579 2932 77       		.byte	0x77
 10580 2933 00       		.sleb128 0
 10581 2934 31       		.byte	0x31
 10582 2935 24       		.byte	0x24
 10583 2936 77       		.byte	0x77
 10584 2937 00       		.sleb128 0
 10585 2938 22       		.byte	0x22
 10586 2939 33       		.byte	0x33
 10587 293a 24       		.byte	0x24
 10588 293b 7A       		.byte	0x7a
 10589 293c 00       		.sleb128 0
 10590 293d 22       		.byte	0x22
 10591 293e 2B       		.uleb128 0x2b
 10592 293f 01       		.uleb128 0x1
 10593 2940 51       		.byte	0x51
 10594 2941 02       		.uleb128 0x2
 10595 2942 76       		.byte	0x76
 10596 2943 00       		.sleb128 0
 10597 2944 2B       		.uleb128 0x2b
 10598 2945 01       		.uleb128 0x1
 10599 2946 50       		.byte	0x50
 10600 2947 01       		.uleb128 0x1
 10601 2948 35       		.byte	0x35
 10602 2949 00       		.byte	0
 10603 294a 2A       		.uleb128 0x2a
ARM GAS  /var/folders/28/j9jfyj_n4wz3qtvnym210h2c0000gn/T//ccpoR13X.s 			page 188


 10604 294b CC130000 		.4byte	.LVL321
 10605 294f 791F0000 		.4byte	0x1f79
 10606 2953 6B290000 		.4byte	0x296b
 10607 2957 2B       		.uleb128 0x2b
 10608 2958 01       		.uleb128 0x1
 10609 2959 52       		.byte	0x52
 10610 295a 05       		.uleb128 0x5
 10611 295b 7A       		.byte	0x7a
 10612 295c 00       		.sleb128 0
 10613 295d 78       		.byte	0x78
 10614 295e 00       		.sleb128 0
 10615 295f 22       		.byte	0x22
 10616 2960 2B       		.uleb128 0x2b
 10617 2961 01       		.uleb128 0x1
 10618 2962 51       		.byte	0x51
 10619 2963 01       		.uleb128 0x1
 10620 2964 31       		.byte	0x31
 10621 2965 2B       		.uleb128 0x2b
 10622 2966 01       		.uleb128 0x1
 10623 2967 50       		.byte	0x50
 10624 2968 01       		.uleb128 0x1
 10625 2969 35       		.byte	0x35
 10626 296a 00       		.byte	0
 10627 296b 2A       		.uleb128 0x2a
 10628 296c E0130000 		.4byte	.LVL323
 10629 2970 791F0000 		.4byte	0x1f79
 10630 2974 8E290000 		.4byte	0x298e
 10631 2978 2B       		.uleb128 0x2b
 10632 2979 01       		.uleb128 0x1
 10633 297a 52       		.byte	0x52
 10634 297b 07       		.uleb128 0x7
 10635 297c 7A       		.byte	0x7a
 10636 297d 00       		.sleb128 0
 10637 297e 78       		.byte	0x78
 10638 297f 00       		.sleb128 0
 10639 2980 22       		.byte	0x22
 10640 2981 23       		.byte	0x23
 10641 2982 18       		.uleb128 0x18
 10642 2983 2B       		.uleb128 0x2b
 10643 2984 01       		.uleb128 0x1
 10644 2985 51       		.byte	0x51
 10645 2986 01       		.uleb128 0x1
 10646 2987 32       		.byte	0x32
 10647 2988 2B       		.uleb128 0x2b
 10648 2989 01       		.uleb128 0x1
 10649 298a 50       		.byte	0x50
 10650 298b 01       		.uleb128 0x1
 10651 298c 35       		.byte	0x35
 10652 298d 00       		.byte	0
 10653 298e 2A       		.uleb128 0x2a
 10654 298f FC130000 		.4byte	.LVL325
 10655 2993 641D0000 		.4byte	0x1d64
 10656 2997 B2290000 		.4byte	0x29b2
 10657 299b 2B       		.uleb128 0x2b
 10658 299c 01       		.uleb128 0x1
 10659 299d 52       		.byte	0x52
 10660 299e 07       		.uleb128 0x7
ARM GAS  /var/folders/28/j9jfyj_n4wz3qtvnym210h2c0000gn/T//ccpoR13X.s 			page 189


 10661 299f 7A       		.byte	0x7a
 10662 29a0 00       		.sleb128 0
 10663 29a1 78       		.byte	0x78
 10664 29a2 00       		.sleb128 0
 10665 29a3 22       		.byte	0x22
 10666 29a4 23       		.byte	0x23
 10667 29a5 30       		.uleb128 0x30
 10668 29a6 2B       		.uleb128 0x2b
 10669 29a7 01       		.uleb128 0x1
 10670 29a8 51       		.byte	0x51
 10671 29a9 02       		.uleb128 0x2
 10672 29aa 76       		.byte	0x76
 10673 29ab 00       		.sleb128 0
 10674 29ac 2B       		.uleb128 0x2b
 10675 29ad 01       		.uleb128 0x1
 10676 29ae 50       		.byte	0x50
 10677 29af 01       		.uleb128 0x1
 10678 29b0 35       		.byte	0x35
 10679 29b1 00       		.byte	0
 10680 29b2 2C       		.uleb128 0x2c
 10681 29b3 CA150000 		.4byte	.LVL358
 10682 29b7 83320000 		.4byte	0x3283
 10683 29bb 2B       		.uleb128 0x2b
 10684 29bc 01       		.uleb128 0x1
 10685 29bd 52       		.byte	0x52
 10686 29be 05       		.uleb128 0x5
 10687 29bf 03       		.byte	0x3
 10688 29c0 CC000000 		.4byte	.LC24
 10689 29c4 2B       		.uleb128 0x2b
 10690 29c5 01       		.uleb128 0x1
 10691 29c6 51       		.byte	0x51
 10692 29c7 02       		.uleb128 0x2
 10693 29c8 76       		.byte	0x76
 10694 29c9 00       		.sleb128 0
 10695 29ca 2B       		.uleb128 0x2b
 10696 29cb 01       		.uleb128 0x1
 10697 29cc 50       		.byte	0x50
 10698 29cd 01       		.uleb128 0x1
 10699 29ce 35       		.byte	0x35
 10700 29cf 00       		.byte	0
 10701 29d0 00       		.byte	0
 10702 29d1 4D       		.uleb128 0x4d
 10703 29d2 F6150000 		.4byte	.LBB398
 10704 29d6 4E000000 		.4byte	.LBE398-.LBB398
 10705 29da 6C2A0000 		.4byte	0x2a6c
 10706 29de 35       		.uleb128 0x35
 10707 29df 88230000 		.4byte	0x2388
 10708 29e3 C1170000 		.4byte	.LLST123
 10709 29e7 2A       		.uleb128 0x2a
 10710 29e8 00160000 		.4byte	.LVL370
 10711 29ec 791F0000 		.4byte	0x1f79
 10712 29f0 062A0000 		.4byte	0x2a06
 10713 29f4 2B       		.uleb128 0x2b
 10714 29f5 01       		.uleb128 0x1
 10715 29f6 52       		.byte	0x52
 10716 29f7 02       		.uleb128 0x2
 10717 29f8 7A       		.byte	0x7a
ARM GAS  /var/folders/28/j9jfyj_n4wz3qtvnym210h2c0000gn/T//ccpoR13X.s 			page 190


 10718 29f9 00       		.sleb128 0
 10719 29fa 2B       		.uleb128 0x2b
 10720 29fb 01       		.uleb128 0x1
 10721 29fc 51       		.byte	0x51
 10722 29fd 02       		.uleb128 0x2
 10723 29fe 79       		.byte	0x79
 10724 29ff 00       		.sleb128 0
 10725 2a00 2B       		.uleb128 0x2b
 10726 2a01 01       		.uleb128 0x1
 10727 2a02 50       		.byte	0x50
 10728 2a03 01       		.uleb128 0x1
 10729 2a04 35       		.byte	0x35
 10730 2a05 00       		.byte	0
 10731 2a06 2A       		.uleb128 0x2a
 10732 2a07 0C160000 		.4byte	.LVL371
 10733 2a0b 641D0000 		.4byte	0x1d64
 10734 2a0f 242A0000 		.4byte	0x2a24
 10735 2a13 2B       		.uleb128 0x2b
 10736 2a14 01       		.uleb128 0x1
 10737 2a15 52       		.byte	0x52
 10738 2a16 02       		.uleb128 0x2
 10739 2a17 7A       		.byte	0x7a
 10740 2a18 18       		.sleb128 24
 10741 2a19 2B       		.uleb128 0x2b
 10742 2a1a 01       		.uleb128 0x1
 10743 2a1b 51       		.byte	0x51
 10744 2a1c 01       		.uleb128 0x1
 10745 2a1d 32       		.byte	0x32
 10746 2a1e 2B       		.uleb128 0x2b
 10747 2a1f 01       		.uleb128 0x1
 10748 2a20 50       		.byte	0x50
 10749 2a21 01       		.uleb128 0x1
 10750 2a22 35       		.byte	0x35
 10751 2a23 00       		.byte	0
 10752 2a24 2A       		.uleb128 0x2a
 10753 2a25 2C160000 		.4byte	.LVL374
 10754 2a29 791F0000 		.4byte	0x1f79
 10755 2a2d 4D2A0000 		.4byte	0x2a4d
 10756 2a31 2B       		.uleb128 0x2b
 10757 2a32 01       		.uleb128 0x1
 10758 2a33 52       		.byte	0x52
 10759 2a34 0C       		.uleb128 0xc
 10760 2a35 77       		.byte	0x77
 10761 2a36 00       		.sleb128 0
 10762 2a37 31       		.byte	0x31
 10763 2a38 24       		.byte	0x24
 10764 2a39 77       		.byte	0x77
 10765 2a3a 00       		.sleb128 0
 10766 2a3b 22       		.byte	0x22
 10767 2a3c 33       		.byte	0x33
 10768 2a3d 24       		.byte	0x24
 10769 2a3e 7A       		.byte	0x7a
 10770 2a3f 00       		.sleb128 0
 10771 2a40 22       		.byte	0x22
 10772 2a41 2B       		.uleb128 0x2b
 10773 2a42 01       		.uleb128 0x1
 10774 2a43 51       		.byte	0x51
ARM GAS  /var/folders/28/j9jfyj_n4wz3qtvnym210h2c0000gn/T//ccpoR13X.s 			page 191


 10775 2a44 02       		.uleb128 0x2
 10776 2a45 76       		.byte	0x76
 10777 2a46 00       		.sleb128 0
 10778 2a47 2B       		.uleb128 0x2b
 10779 2a48 01       		.uleb128 0x1
 10780 2a49 50       		.byte	0x50
 10781 2a4a 01       		.uleb128 0x1
 10782 2a4b 35       		.byte	0x35
 10783 2a4c 00       		.byte	0
 10784 2a4d 2C       		.uleb128 0x2c
 10785 2a4e 42160000 		.4byte	.LVL379
 10786 2a52 83320000 		.4byte	0x3283
 10787 2a56 2B       		.uleb128 0x2b
 10788 2a57 01       		.uleb128 0x1
 10789 2a58 52       		.byte	0x52
 10790 2a59 05       		.uleb128 0x5
 10791 2a5a 03       		.byte	0x3
 10792 2a5b CC000000 		.4byte	.LC24
 10793 2a5f 2B       		.uleb128 0x2b
 10794 2a60 01       		.uleb128 0x1
 10795 2a61 51       		.byte	0x51
 10796 2a62 02       		.uleb128 0x2
 10797 2a63 76       		.byte	0x76
 10798 2a64 00       		.sleb128 0
 10799 2a65 2B       		.uleb128 0x2b
 10800 2a66 01       		.uleb128 0x1
 10801 2a67 50       		.byte	0x50
 10802 2a68 01       		.uleb128 0x1
 10803 2a69 35       		.byte	0x35
 10804 2a6a 00       		.byte	0
 10805 2a6b 00       		.byte	0
 10806 2a6c 2A       		.uleb128 0x2a
 10807 2a6d 660C0000 		.4byte	.LVL214
 10808 2a71 47310000 		.4byte	0x3147
 10809 2a75 8D2A0000 		.4byte	0x2a8d
 10810 2a79 2B       		.uleb128 0x2b
 10811 2a7a 01       		.uleb128 0x1
 10812 2a7b 52       		.byte	0x52
 10813 2a7c 05       		.uleb128 0x5
 10814 2a7d 03       		.byte	0x3
 10815 2a7e 38000000 		.4byte	.LC8
 10816 2a82 2B       		.uleb128 0x2b
 10817 2a83 01       		.uleb128 0x1
 10818 2a84 51       		.byte	0x51
 10819 2a85 01       		.uleb128 0x1
 10820 2a86 37       		.byte	0x37
 10821 2a87 2B       		.uleb128 0x2b
 10822 2a88 01       		.uleb128 0x1
 10823 2a89 50       		.byte	0x50
 10824 2a8a 01       		.uleb128 0x1
 10825 2a8b 30       		.byte	0x30
 10826 2a8c 00       		.byte	0
 10827 2a8d 2A       		.uleb128 0x2a
 10828 2a8e 700C0000 		.4byte	.LVL215
 10829 2a92 2C310000 		.4byte	0x312c
 10830 2a96 AE2A0000 		.4byte	0x2aae
 10831 2a9a 2B       		.uleb128 0x2b
ARM GAS  /var/folders/28/j9jfyj_n4wz3qtvnym210h2c0000gn/T//ccpoR13X.s 			page 192


 10832 2a9b 01       		.uleb128 0x1
 10833 2a9c 52       		.byte	0x52
 10834 2a9d 05       		.uleb128 0x5
 10835 2a9e 03       		.byte	0x3
 10836 2a9f D0000000 		.4byte	.LC25
 10837 2aa3 2B       		.uleb128 0x2b
 10838 2aa4 01       		.uleb128 0x1
 10839 2aa5 51       		.byte	0x51
 10840 2aa6 01       		.uleb128 0x1
 10841 2aa7 37       		.byte	0x37
 10842 2aa8 2B       		.uleb128 0x2b
 10843 2aa9 01       		.uleb128 0x1
 10844 2aaa 50       		.byte	0x50
 10845 2aab 01       		.uleb128 0x1
 10846 2aac 48       		.byte	0x48
 10847 2aad 00       		.byte	0
 10848 2aae 40       		.uleb128 0x40
 10849 2aaf A00C0000 		.4byte	.LVL217
 10850 2ab3 2C310000 		.4byte	0x312c
 10851 2ab7 D02A0000 		.4byte	0x2ad0
 10852 2abb 2B       		.uleb128 0x2b
 10853 2abc 01       		.uleb128 0x1
 10854 2abd 52       		.byte	0x52
 10855 2abe 05       		.uleb128 0x5
 10856 2abf 03       		.byte	0x3
 10857 2ac0 D0000000 		.4byte	.LC25
 10858 2ac4 2B       		.uleb128 0x2b
 10859 2ac5 01       		.uleb128 0x1
 10860 2ac6 51       		.byte	0x51
 10861 2ac7 01       		.uleb128 0x1
 10862 2ac8 37       		.byte	0x37
 10863 2ac9 2B       		.uleb128 0x2b
 10864 2aca 01       		.uleb128 0x1
 10865 2acb 50       		.byte	0x50
 10866 2acc 02       		.uleb128 0x2
 10867 2acd 08       		.byte	0x8
 10868 2ace 61       		.byte	0x61
 10869 2acf 00       		.byte	0
 10870 2ad0 40       		.uleb128 0x40
 10871 2ad1 640E0000 		.4byte	.LVL236
 10872 2ad5 47310000 		.4byte	0x3147
 10873 2ad9 F22A0000 		.4byte	0x2af2
 10874 2add 2B       		.uleb128 0x2b
 10875 2ade 01       		.uleb128 0x1
 10876 2adf 52       		.byte	0x52
 10877 2ae0 05       		.uleb128 0x5
 10878 2ae1 03       		.byte	0x3
 10879 2ae2 E4000000 		.4byte	.LC27
 10880 2ae6 2B       		.uleb128 0x2b
 10881 2ae7 01       		.uleb128 0x1
 10882 2ae8 51       		.byte	0x51
 10883 2ae9 01       		.uleb128 0x1
 10884 2aea 37       		.byte	0x37
 10885 2aeb 2B       		.uleb128 0x2b
 10886 2aec 01       		.uleb128 0x1
 10887 2aed 50       		.byte	0x50
 10888 2aee 02       		.uleb128 0x2
ARM GAS  /var/folders/28/j9jfyj_n4wz3qtvnym210h2c0000gn/T//ccpoR13X.s 			page 193


 10889 2aef 08       		.byte	0x8
 10890 2af0 61       		.byte	0x61
 10891 2af1 00       		.byte	0
 10892 2af2 2C       		.uleb128 0x2c
 10893 2af3 DE150000 		.4byte	.LVL363
 10894 2af7 2C310000 		.4byte	0x312c
 10895 2afb 2B       		.uleb128 0x2b
 10896 2afc 01       		.uleb128 0x1
 10897 2afd 52       		.byte	0x52
 10898 2afe 05       		.uleb128 0x5
 10899 2aff 03       		.byte	0x3
 10900 2b00 D8000000 		.4byte	.LC26
 10901 2b04 2B       		.uleb128 0x2b
 10902 2b05 01       		.uleb128 0x1
 10903 2b06 51       		.byte	0x51
 10904 2b07 01       		.uleb128 0x1
 10905 2b08 37       		.byte	0x37
 10906 2b09 00       		.byte	0
 10907 2b0a 00       		.byte	0
 10908 2b0b 2E       		.uleb128 0x2e
 10909 2b0c 70060000 		.4byte	.Ldebug_ranges0+0x670
 10910 2b10 BE2D0000 		.4byte	0x2dbe
 10911 2b14 35       		.uleb128 0x35
 10912 2b15 A5230000 		.4byte	0x23a5
 10913 2b19 F6170000 		.4byte	.LLST124
 10914 2b1d 35       		.uleb128 0x35
 10915 2b1e AF230000 		.4byte	0x23af
 10916 2b22 16190000 		.4byte	.LLST125
 10917 2b26 35       		.uleb128 0x35
 10918 2b27 B9230000 		.4byte	0x23b9
 10919 2b2b 98190000 		.4byte	.LLST126
 10920 2b2f 2E       		.uleb128 0x2e
 10921 2b30 D0060000 		.4byte	.Ldebug_ranges0+0x6d0
 10922 2b34 932B0000 		.4byte	0x2b93
 10923 2b38 35       		.uleb128 0x35
 10924 2b39 C8230000 		.4byte	0x23c8
 10925 2b3d 0E1A0000 		.4byte	.LLST127
 10926 2b41 2A       		.uleb128 0x2a
 10927 2b42 0E0E0000 		.4byte	.LVL228
 10928 2b46 791F0000 		.4byte	0x1f79
 10929 2b4a 5A2B0000 		.4byte	0x2b5a
 10930 2b4e 2B       		.uleb128 0x2b
 10931 2b4f 01       		.uleb128 0x1
 10932 2b50 51       		.byte	0x51
 10933 2b51 02       		.uleb128 0x2
 10934 2b52 76       		.byte	0x76
 10935 2b53 00       		.sleb128 0
 10936 2b54 2B       		.uleb128 0x2b
 10937 2b55 01       		.uleb128 0x1
 10938 2b56 50       		.byte	0x50
 10939 2b57 01       		.uleb128 0x1
 10940 2b58 35       		.byte	0x35
 10941 2b59 00       		.byte	0
 10942 2b5a 2A       		.uleb128 0x2a
 10943 2b5b 220E0000 		.4byte	.LVL231
 10944 2b5f 83320000 		.4byte	0x3283
 10945 2b63 822B0000 		.4byte	0x2b82
ARM GAS  /var/folders/28/j9jfyj_n4wz3qtvnym210h2c0000gn/T//ccpoR13X.s 			page 194


 10946 2b67 2B       		.uleb128 0x2b
 10947 2b68 01       		.uleb128 0x1
 10948 2b69 53       		.byte	0x53
 10949 2b6a 02       		.uleb128 0x2
 10950 2b6b 08       		.byte	0x8
 10951 2b6c 4E       		.byte	0x4e
 10952 2b6d 2B       		.uleb128 0x2b
 10953 2b6e 01       		.uleb128 0x1
 10954 2b6f 52       		.byte	0x52
 10955 2b70 05       		.uleb128 0x5
 10956 2b71 03       		.byte	0x3
 10957 2b72 CC000000 		.4byte	.LC24
 10958 2b76 2B       		.uleb128 0x2b
 10959 2b77 01       		.uleb128 0x1
 10960 2b78 51       		.byte	0x51
 10961 2b79 02       		.uleb128 0x2
 10962 2b7a 74       		.byte	0x74
 10963 2b7b 00       		.sleb128 0
 10964 2b7c 2B       		.uleb128 0x2b
 10965 2b7d 01       		.uleb128 0x1
 10966 2b7e 50       		.byte	0x50
 10967 2b7f 01       		.uleb128 0x1
 10968 2b80 35       		.byte	0x35
 10969 2b81 00       		.byte	0
 10970 2b82 2C       		.uleb128 0x2c
 10971 2b83 8C160000 		.4byte	.LVL391
 10972 2b87 641D0000 		.4byte	0x1d64
 10973 2b8b 2B       		.uleb128 0x2b
 10974 2b8c 01       		.uleb128 0x1
 10975 2b8d 51       		.byte	0x51
 10976 2b8e 02       		.uleb128 0x2
 10977 2b8f 79       		.byte	0x79
 10978 2b90 00       		.sleb128 0
 10979 2b91 00       		.byte	0
 10980 2b92 00       		.byte	0
 10981 2b93 2E       		.uleb128 0x2e
 10982 2b94 F0060000 		.4byte	.Ldebug_ranges0+0x6f0
 10983 2b98 ED2B0000 		.4byte	0x2bed
 10984 2b9c 35       		.uleb128 0x35
 10985 2b9d D8230000 		.4byte	0x23d8
 10986 2ba1 971A0000 		.4byte	.LLST128
 10987 2ba5 2A       		.uleb128 0x2a
 10988 2ba6 32100000 		.4byte	.LVL260
 10989 2baa 641D0000 		.4byte	0x1d64
 10990 2bae BE2B0000 		.4byte	0x2bbe
 10991 2bb2 2B       		.uleb128 0x2b
 10992 2bb3 01       		.uleb128 0x1
 10993 2bb4 51       		.byte	0x51
 10994 2bb5 01       		.uleb128 0x1
 10995 2bb6 31       		.byte	0x31
 10996 2bb7 2B       		.uleb128 0x2b
 10997 2bb8 01       		.uleb128 0x1
 10998 2bb9 50       		.byte	0x50
 10999 2bba 02       		.uleb128 0x2
 11000 2bbb 76       		.byte	0x76
 11001 2bbc 00       		.sleb128 0
 11002 2bbd 00       		.byte	0
ARM GAS  /var/folders/28/j9jfyj_n4wz3qtvnym210h2c0000gn/T//ccpoR13X.s 			page 195


 11003 2bbe 2A       		.uleb128 0x2a
 11004 2bbf 56100000 		.4byte	.LVL263
 11005 2bc3 791F0000 		.4byte	0x1f79
 11006 2bc7 D72B0000 		.4byte	0x2bd7
 11007 2bcb 2B       		.uleb128 0x2b
 11008 2bcc 01       		.uleb128 0x1
 11009 2bcd 51       		.byte	0x51
 11010 2bce 02       		.uleb128 0x2
 11011 2bcf 76       		.byte	0x76
 11012 2bd0 00       		.sleb128 0
 11013 2bd1 2B       		.uleb128 0x2b
 11014 2bd2 01       		.uleb128 0x1
 11015 2bd3 50       		.byte	0x50
 11016 2bd4 01       		.uleb128 0x1
 11017 2bd5 35       		.byte	0x35
 11018 2bd6 00       		.byte	0
 11019 2bd7 2C       		.uleb128 0x2c
 11020 2bd8 76110000 		.4byte	.LVL283
 11021 2bdc 83320000 		.4byte	0x3283
 11022 2be0 2B       		.uleb128 0x2b
 11023 2be1 01       		.uleb128 0x1
 11024 2be2 51       		.byte	0x51
 11025 2be3 02       		.uleb128 0x2
 11026 2be4 76       		.byte	0x76
 11027 2be5 00       		.sleb128 0
 11028 2be6 2B       		.uleb128 0x2b
 11029 2be7 01       		.uleb128 0x1
 11030 2be8 50       		.byte	0x50
 11031 2be9 01       		.uleb128 0x1
 11032 2bea 35       		.byte	0x35
 11033 2beb 00       		.byte	0
 11034 2bec 00       		.byte	0
 11035 2bed 2E       		.uleb128 0x2e
 11036 2bee 08070000 		.4byte	.Ldebug_ranges0+0x708
 11037 2bf2 EF2C0000 		.4byte	0x2cef
 11038 2bf6 35       		.uleb128 0x35
 11039 2bf7 F8230000 		.4byte	0x23f8
 11040 2bfb CC1A0000 		.4byte	.LLST129
 11041 2bff 2A       		.uleb128 0x2a
 11042 2c00 08120000 		.4byte	.LVL300
 11043 2c04 791F0000 		.4byte	0x1f79
 11044 2c08 182C0000 		.4byte	0x2c18
 11045 2c0c 2B       		.uleb128 0x2b
 11046 2c0d 01       		.uleb128 0x1
 11047 2c0e 51       		.byte	0x51
 11048 2c0f 01       		.uleb128 0x1
 11049 2c10 31       		.byte	0x31
 11050 2c11 2B       		.uleb128 0x2b
 11051 2c12 01       		.uleb128 0x1
 11052 2c13 50       		.byte	0x50
 11053 2c14 02       		.uleb128 0x2
 11054 2c15 76       		.byte	0x76
 11055 2c16 00       		.sleb128 0
 11056 2c17 00       		.byte	0
 11057 2c18 2A       		.uleb128 0x2a
 11058 2c19 24120000 		.4byte	.LVL302
 11059 2c1d 791F0000 		.4byte	0x1f79
ARM GAS  /var/folders/28/j9jfyj_n4wz3qtvnym210h2c0000gn/T//ccpoR13X.s 			page 196


 11060 2c21 312C0000 		.4byte	0x2c31
 11061 2c25 2B       		.uleb128 0x2b
 11062 2c26 01       		.uleb128 0x1
 11063 2c27 51       		.byte	0x51
 11064 2c28 01       		.uleb128 0x1
 11065 2c29 32       		.byte	0x32
 11066 2c2a 2B       		.uleb128 0x2b
 11067 2c2b 01       		.uleb128 0x1
 11068 2c2c 50       		.byte	0x50
 11069 2c2d 02       		.uleb128 0x2
 11070 2c2e 76       		.byte	0x76
 11071 2c2f 00       		.sleb128 0
 11072 2c30 00       		.byte	0
 11073 2c31 2A       		.uleb128 0x2a
 11074 2c32 3E120000 		.4byte	.LVL304
 11075 2c36 641D0000 		.4byte	0x1d64
 11076 2c3a 4A2C0000 		.4byte	0x2c4a
 11077 2c3e 2B       		.uleb128 0x2b
 11078 2c3f 01       		.uleb128 0x1
 11079 2c40 51       		.byte	0x51
 11080 2c41 01       		.uleb128 0x1
 11081 2c42 33       		.byte	0x33
 11082 2c43 2B       		.uleb128 0x2b
 11083 2c44 01       		.uleb128 0x1
 11084 2c45 50       		.byte	0x50
 11085 2c46 02       		.uleb128 0x2
 11086 2c47 76       		.byte	0x76
 11087 2c48 00       		.sleb128 0
 11088 2c49 00       		.byte	0
 11089 2c4a 2A       		.uleb128 0x2a
 11090 2c4b 5E120000 		.4byte	.LVL307
 11091 2c4f 791F0000 		.4byte	0x1f79
 11092 2c53 632C0000 		.4byte	0x2c63
 11093 2c57 2B       		.uleb128 0x2b
 11094 2c58 01       		.uleb128 0x1
 11095 2c59 51       		.byte	0x51
 11096 2c5a 02       		.uleb128 0x2
 11097 2c5b 76       		.byte	0x76
 11098 2c5c 00       		.sleb128 0
 11099 2c5d 2B       		.uleb128 0x2b
 11100 2c5e 01       		.uleb128 0x1
 11101 2c5f 50       		.byte	0x50
 11102 2c60 01       		.uleb128 0x1
 11103 2c61 35       		.byte	0x35
 11104 2c62 00       		.byte	0
 11105 2c63 2A       		.uleb128 0x2a
 11106 2c64 D4150000 		.4byte	.LVL361
 11107 2c68 83320000 		.4byte	0x3283
 11108 2c6c 7C2C0000 		.4byte	0x2c7c
 11109 2c70 2B       		.uleb128 0x2b
 11110 2c71 01       		.uleb128 0x1
 11111 2c72 51       		.byte	0x51
 11112 2c73 02       		.uleb128 0x2
 11113 2c74 76       		.byte	0x76
 11114 2c75 00       		.sleb128 0
 11115 2c76 2B       		.uleb128 0x2b
 11116 2c77 01       		.uleb128 0x1
ARM GAS  /var/folders/28/j9jfyj_n4wz3qtvnym210h2c0000gn/T//ccpoR13X.s 			page 197


 11117 2c78 50       		.byte	0x50
 11118 2c79 01       		.uleb128 0x1
 11119 2c7a 35       		.byte	0x35
 11120 2c7b 00       		.byte	0
 11121 2c7c 2A       		.uleb128 0x2a
 11122 2c7d 50160000 		.4byte	.LVL381
 11123 2c81 83320000 		.4byte	0x3283
 11124 2c85 A42C0000 		.4byte	0x2ca4
 11125 2c89 2B       		.uleb128 0x2b
 11126 2c8a 01       		.uleb128 0x1
 11127 2c8b 53       		.byte	0x53
 11128 2c8c 02       		.uleb128 0x2
 11129 2c8d 08       		.byte	0x8
 11130 2c8e 80       		.byte	0x80
 11131 2c8f 2B       		.uleb128 0x2b
 11132 2c90 01       		.uleb128 0x1
 11133 2c91 52       		.byte	0x52
 11134 2c92 05       		.uleb128 0x5
 11135 2c93 03       		.byte	0x3
 11136 2c94 CC000000 		.4byte	.LC24
 11137 2c98 2B       		.uleb128 0x2b
 11138 2c99 01       		.uleb128 0x1
 11139 2c9a 51       		.byte	0x51
 11140 2c9b 01       		.uleb128 0x1
 11141 2c9c 31       		.byte	0x31
 11142 2c9d 2B       		.uleb128 0x2b
 11143 2c9e 01       		.uleb128 0x1
 11144 2c9f 50       		.byte	0x50
 11145 2ca0 02       		.uleb128 0x2
 11146 2ca1 76       		.byte	0x76
 11147 2ca2 00       		.sleb128 0
 11148 2ca3 00       		.byte	0
 11149 2ca4 2A       		.uleb128 0x2a
 11150 2ca5 5C160000 		.4byte	.LVL382
 11151 2ca9 83320000 		.4byte	0x3283
 11152 2cad CB2C0000 		.4byte	0x2ccb
 11153 2cb1 2B       		.uleb128 0x2b
 11154 2cb2 01       		.uleb128 0x1
 11155 2cb3 53       		.byte	0x53
 11156 2cb4 02       		.uleb128 0x2
 11157 2cb5 08       		.byte	0x8
 11158 2cb6 80       		.byte	0x80
 11159 2cb7 2B       		.uleb128 0x2b
 11160 2cb8 01       		.uleb128 0x1
 11161 2cb9 52       		.byte	0x52
 11162 2cba 05       		.uleb128 0x5
 11163 2cbb 03       		.byte	0x3
 11164 2cbc CC000000 		.4byte	.LC24
 11165 2cc0 2B       		.uleb128 0x2b
 11166 2cc1 01       		.uleb128 0x1
 11167 2cc2 51       		.byte	0x51
 11168 2cc3 01       		.uleb128 0x1
 11169 2cc4 32       		.byte	0x32
 11170 2cc5 2B       		.uleb128 0x2b
 11171 2cc6 01       		.uleb128 0x1
 11172 2cc7 50       		.byte	0x50
 11173 2cc8 01       		.uleb128 0x1
ARM GAS  /var/folders/28/j9jfyj_n4wz3qtvnym210h2c0000gn/T//ccpoR13X.s 			page 198


 11174 2cc9 35       		.byte	0x35
 11175 2cca 00       		.byte	0
 11176 2ccb 2C       		.uleb128 0x2c
 11177 2ccc 68160000 		.4byte	.LVL383
 11178 2cd0 83320000 		.4byte	0x3283
 11179 2cd4 2B       		.uleb128 0x2b
 11180 2cd5 01       		.uleb128 0x1
 11181 2cd6 53       		.byte	0x53
 11182 2cd7 02       		.uleb128 0x2
 11183 2cd8 08       		.byte	0x8
 11184 2cd9 80       		.byte	0x80
 11185 2cda 2B       		.uleb128 0x2b
 11186 2cdb 01       		.uleb128 0x1
 11187 2cdc 52       		.byte	0x52
 11188 2cdd 05       		.uleb128 0x5
 11189 2cde 03       		.byte	0x3
 11190 2cdf CC000000 		.4byte	.LC24
 11191 2ce3 2B       		.uleb128 0x2b
 11192 2ce4 01       		.uleb128 0x1
 11193 2ce5 51       		.byte	0x51
 11194 2ce6 01       		.uleb128 0x1
 11195 2ce7 33       		.byte	0x33
 11196 2ce8 2B       		.uleb128 0x2b
 11197 2ce9 01       		.uleb128 0x1
 11198 2cea 50       		.byte	0x50
 11199 2ceb 01       		.uleb128 0x1
 11200 2cec 35       		.byte	0x35
 11201 2ced 00       		.byte	0
 11202 2cee 00       		.byte	0
 11203 2cef 2E       		.uleb128 0x2e
 11204 2cf0 28070000 		.4byte	.Ldebug_ranges0+0x728
 11205 2cf4 632D0000 		.4byte	0x2d63
 11206 2cf8 35       		.uleb128 0x35
 11207 2cf9 EA230000 		.4byte	0x23ea
 11208 2cfd 011B0000 		.4byte	.LLST130
 11209 2d01 2A       		.uleb128 0x2a
 11210 2d02 40140000 		.4byte	.LVL331
 11211 2d06 791F0000 		.4byte	0x1f79
 11212 2d0a 1B2D0000 		.4byte	0x2d1b
 11213 2d0e 2B       		.uleb128 0x2b
 11214 2d0f 01       		.uleb128 0x1
 11215 2d10 51       		.byte	0x51
 11216 2d11 02       		.uleb128 0x2
 11217 2d12 78       		.byte	0x78
 11218 2d13 00       		.sleb128 0
 11219 2d14 2B       		.uleb128 0x2b
 11220 2d15 01       		.uleb128 0x1
 11221 2d16 50       		.byte	0x50
 11222 2d17 02       		.uleb128 0x2
 11223 2d18 76       		.byte	0x76
 11224 2d19 00       		.sleb128 0
 11225 2d1a 00       		.byte	0
 11226 2d1b 2A       		.uleb128 0x2a
 11227 2d1c 4A140000 		.4byte	.LVL332
 11228 2d20 641D0000 		.4byte	0x1d64
 11229 2d24 342D0000 		.4byte	0x2d34
 11230 2d28 2B       		.uleb128 0x2b
ARM GAS  /var/folders/28/j9jfyj_n4wz3qtvnym210h2c0000gn/T//ccpoR13X.s 			page 199


 11231 2d29 01       		.uleb128 0x1
 11232 2d2a 51       		.byte	0x51
 11233 2d2b 01       		.uleb128 0x1
 11234 2d2c 32       		.byte	0x32
 11235 2d2d 2B       		.uleb128 0x2b
 11236 2d2e 01       		.uleb128 0x1
 11237 2d2f 50       		.byte	0x50
 11238 2d30 02       		.uleb128 0x2
 11239 2d31 76       		.byte	0x76
 11240 2d32 00       		.sleb128 0
 11241 2d33 00       		.byte	0
 11242 2d34 2A       		.uleb128 0x2a
 11243 2d35 6E140000 		.4byte	.LVL335
 11244 2d39 791F0000 		.4byte	0x1f79
 11245 2d3d 4D2D0000 		.4byte	0x2d4d
 11246 2d41 2B       		.uleb128 0x2b
 11247 2d42 01       		.uleb128 0x1
 11248 2d43 51       		.byte	0x51
 11249 2d44 02       		.uleb128 0x2
 11250 2d45 76       		.byte	0x76
 11251 2d46 00       		.sleb128 0
 11252 2d47 2B       		.uleb128 0x2b
 11253 2d48 01       		.uleb128 0x1
 11254 2d49 50       		.byte	0x50
 11255 2d4a 01       		.uleb128 0x1
 11256 2d4b 35       		.byte	0x35
 11257 2d4c 00       		.byte	0
 11258 2d4d 2C       		.uleb128 0x2c
 11259 2d4e F4150000 		.4byte	.LVL368
 11260 2d52 83320000 		.4byte	0x3283
 11261 2d56 2B       		.uleb128 0x2b
 11262 2d57 01       		.uleb128 0x1
 11263 2d58 51       		.byte	0x51
 11264 2d59 02       		.uleb128 0x2
 11265 2d5a 76       		.byte	0x76
 11266 2d5b 00       		.sleb128 0
 11267 2d5c 2B       		.uleb128 0x2b
 11268 2d5d 01       		.uleb128 0x1
 11269 2d5e 50       		.byte	0x50
 11270 2d5f 01       		.uleb128 0x1
 11271 2d60 35       		.byte	0x35
 11272 2d61 00       		.byte	0
 11273 2d62 00       		.byte	0
 11274 2d63 2A       		.uleb128 0x2a
 11275 2d64 3A0E0000 		.4byte	.LVL233
 11276 2d68 47310000 		.4byte	0x3147
 11277 2d6c 842D0000 		.4byte	0x2d84
 11278 2d70 2B       		.uleb128 0x2b
 11279 2d71 01       		.uleb128 0x1
 11280 2d72 52       		.byte	0x52
 11281 2d73 05       		.uleb128 0x5
 11282 2d74 03       		.byte	0x3
 11283 2d75 38000000 		.4byte	.LC8
 11284 2d79 2B       		.uleb128 0x2b
 11285 2d7a 01       		.uleb128 0x1
 11286 2d7b 51       		.byte	0x51
 11287 2d7c 01       		.uleb128 0x1
ARM GAS  /var/folders/28/j9jfyj_n4wz3qtvnym210h2c0000gn/T//ccpoR13X.s 			page 200


 11288 2d7d 37       		.byte	0x37
 11289 2d7e 2B       		.uleb128 0x2b
 11290 2d7f 01       		.uleb128 0x1
 11291 2d80 50       		.byte	0x50
 11292 2d81 01       		.uleb128 0x1
 11293 2d82 30       		.byte	0x30
 11294 2d83 00       		.byte	0
 11295 2d84 2A       		.uleb128 0x2a
 11296 2d85 440E0000 		.4byte	.LVL234
 11297 2d89 2C310000 		.4byte	0x312c
 11298 2d8d A52D0000 		.4byte	0x2da5
 11299 2d91 2B       		.uleb128 0x2b
 11300 2d92 01       		.uleb128 0x1
 11301 2d93 52       		.byte	0x52
 11302 2d94 05       		.uleb128 0x5
 11303 2d95 03       		.byte	0x3
 11304 2d96 D0000000 		.4byte	.LC25
 11305 2d9a 2B       		.uleb128 0x2b
 11306 2d9b 01       		.uleb128 0x1
 11307 2d9c 51       		.byte	0x51
 11308 2d9d 01       		.uleb128 0x1
 11309 2d9e 37       		.byte	0x37
 11310 2d9f 2B       		.uleb128 0x2b
 11311 2da0 01       		.uleb128 0x1
 11312 2da1 50       		.byte	0x50
 11313 2da2 01       		.uleb128 0x1
 11314 2da3 48       		.byte	0x48
 11315 2da4 00       		.byte	0
 11316 2da5 2C       		.uleb128 0x2c
 11317 2da6 EA150000 		.4byte	.LVL365
 11318 2daa 2C310000 		.4byte	0x312c
 11319 2dae 2B       		.uleb128 0x2b
 11320 2daf 01       		.uleb128 0x1
 11321 2db0 52       		.byte	0x52
 11322 2db1 05       		.uleb128 0x5
 11323 2db2 03       		.byte	0x3
 11324 2db3 D8000000 		.4byte	.LC26
 11325 2db7 2B       		.uleb128 0x2b
 11326 2db8 01       		.uleb128 0x1
 11327 2db9 51       		.byte	0x51
 11328 2dba 01       		.uleb128 0x1
 11329 2dbb 37       		.byte	0x37
 11330 2dbc 00       		.byte	0
 11331 2dbd 00       		.byte	0
 11332 2dbe 2C       		.uleb128 0x2c
 11333 2dbf E20B0000 		.4byte	.LVL202
 11334 2dc3 641D0000 		.4byte	0x1d64
 11335 2dc7 2B       		.uleb128 0x2b
 11336 2dc8 01       		.uleb128 0x1
 11337 2dc9 51       		.byte	0x51
 11338 2dca 01       		.uleb128 0x1
 11339 2dcb 30       		.byte	0x30
 11340 2dcc 2B       		.uleb128 0x2b
 11341 2dcd 01       		.uleb128 0x1
 11342 2dce 50       		.byte	0x50
 11343 2dcf 01       		.uleb128 0x1
 11344 2dd0 30       		.byte	0x30
ARM GAS  /var/folders/28/j9jfyj_n4wz3qtvnym210h2c0000gn/T//ccpoR13X.s 			page 201


 11345 2dd1 00       		.byte	0
 11346 2dd2 00       		.byte	0
 11347 2dd3 33       		.uleb128 0x33
 11348 2dd4 0A0A0000 		.4byte	.LVL201
 11349 2dd8 A3320000 		.4byte	0x32a3
 11350 2ddc 00       		.byte	0
 11351 2ddd 1A       		.uleb128 0x1a
 11352 2dde F5080000 		.4byte	0x8f5
 11353 2de2 ED2D0000 		.4byte	0x2ded
 11354 2de6 1B       		.uleb128 0x1b
 11355 2de7 EF000000 		.4byte	0xef
 11356 2deb BB       		.byte	0xbb
 11357 2dec 00       		.byte	0
 11358 2ded 4E       		.uleb128 0x4e
 11359 2dee 010D0000 		.4byte	.LASF257
 11360 2df2 01       		.byte	0x1
 11361 2df3 9501     		.2byte	0x195
 11362 2df5 DD2D0000 		.4byte	0x2ddd
 11363 2df9 05       		.uleb128 0x5
 11364 2dfa 03       		.byte	0x3
 11365 2dfb 00000000 		.4byte	waThreadUI
 11366 2dff 4F       		.uleb128 0x4f
 11367 2e00 A00C0000 		.4byte	.LASF258
 11368 2e04 01       		.byte	0x1
 11369 2e05 23       		.byte	0x23
 11370 2e06 F1020000 		.4byte	0x2f1
 11371 2e0a 05       		.uleb128 0x5
 11372 2e0b 03       		.byte	0x3
 11373 2e0c 00000000 		.4byte	Btn_Nav_Or
 11374 2e10 4F       		.uleb128 0x4f
 11375 2e11 D3090000 		.4byte	.LASF259
 11376 2e15 01       		.byte	0x1
 11377 2e16 24       		.byte	0x24
 11378 2e17 F1020000 		.4byte	0x2f1
 11379 2e1b 05       		.uleb128 0x5
 11380 2e1c 03       		.byte	0x3
 11381 2e1d 00000000 		.4byte	Btn_Nav_And
 11382 2e21 1A       		.uleb128 0x1a
 11383 2e22 AD000000 		.4byte	0xad
 11384 2e26 312E0000 		.4byte	0x2e31
 11385 2e2a 1B       		.uleb128 0x1b
 11386 2e2b EF000000 		.4byte	0xef
 11387 2e2f 03       		.byte	0x3
 11388 2e30 00       		.byte	0
 11389 2e31 4F       		.uleb128 0x4f
 11390 2e32 9D020000 		.4byte	.LASF260
 11391 2e36 01       		.byte	0x1
 11392 2e37 26       		.byte	0x26
 11393 2e38 212E0000 		.4byte	0x2e21
 11394 2e3c 05       		.uleb128 0x5
 11395 2e3d 03       		.byte	0x3
 11396 2e3e 00000000 		.4byte	EncBuffer
 11397 2e42 4F       		.uleb128 0x4f
 11398 2e43 2C040000 		.4byte	.LASF261
 11399 2e47 01       		.byte	0x1
 11400 2e48 21       		.byte	0x21
 11401 2e49 F1020000 		.4byte	0x2f1
ARM GAS  /var/folders/28/j9jfyj_n4wz3qtvnym210h2c0000gn/T//ccpoR13X.s 			page 202


 11402 2e4d 05       		.uleb128 0x5
 11403 2e4e 03       		.byte	0x3
 11404 2e4f 00000000 		.4byte	Btn_Nav_CurStates
 11405 2e53 4F       		.uleb128 0x4f
 11406 2e54 550B0000 		.4byte	.LASF262
 11407 2e58 01       		.byte	0x1
 11408 2e59 22       		.byte	0x22
 11409 2e5a F1020000 		.4byte	0x2f1
 11410 2e5e 05       		.uleb128 0x5
 11411 2e5f 03       		.byte	0x3
 11412 2e60 00000000 		.4byte	Btn_Nav_PrevStates
 11413 2e64 4F       		.uleb128 0x4f
 11414 2e65 AB0C0000 		.4byte	.LASF263
 11415 2e69 01       		.byte	0x1
 11416 2e6a 2A       		.byte	0x2a
 11417 2e6b 1C070000 		.4byte	0x71c
 11418 2e6f 05       		.uleb128 0x5
 11419 2e70 03       		.byte	0x3
 11420 2e71 00000000 		.4byte	ObjectKvpRoot
 11421 2e75 50       		.uleb128 0x50
 11422 2e76 FB060000 		.4byte	.LASF264
 11423 2e7a 01       		.byte	0x1
 11424 2e7b 9301     		.2byte	0x193
 11425 2e7d 7F040000 		.4byte	0x47f
 11426 2e81 05       		.uleb128 0x5
 11427 2e82 03       		.byte	0x3
 11428 2e83 00000000 		.4byte	pControlUpdate
 11429 2e87 51       		.uleb128 0x51
 11430 2e88 720A0000 		.4byte	.LASF265
 11431 2e8c 0C       		.byte	0xc
 11432 2e8d 6F       		.byte	0x6f
 11433 2e8e BE0A0000 		.4byte	0xabe
 11434 2e92 52       		.uleb128 0x52
 11435 2e93 C6090000 		.4byte	.LASF266
 11436 2e97 12       		.byte	0x12
 11437 2e98 DF07     		.2byte	0x7df
 11438 2e9a 960B0000 		.4byte	0xb96
 11439 2e9e 1A       		.uleb128 0x1a
 11440 2e9f CE000000 		.4byte	0xce
 11441 2ea3 AF2E0000 		.4byte	0x2eaf
 11442 2ea7 1D       		.uleb128 0x1d
 11443 2ea8 EF000000 		.4byte	0xef
 11444 2eac 0010     		.2byte	0x1000
 11445 2eae 00       		.byte	0
 11446 2eaf 51       		.uleb128 0x51
 11447 2eb0 61060000 		.4byte	.LASF267
 11448 2eb4 02       		.byte	0x2
 11449 2eb5 26       		.byte	0x26
 11450 2eb6 9E2E0000 		.4byte	0x2e9e
 11451 2eba 1A       		.uleb128 0x1a
 11452 2ebb C3000000 		.4byte	0xc3
 11453 2ebf CB2E0000 		.4byte	0x2ecb
 11454 2ec3 1D       		.uleb128 0x1d
 11455 2ec4 EF000000 		.4byte	0xef
 11456 2ec8 0004     		.2byte	0x400
 11457 2eca 00       		.byte	0
 11458 2ecb 51       		.uleb128 0x51
ARM GAS  /var/folders/28/j9jfyj_n4wz3qtvnym210h2c0000gn/T//ccpoR13X.s 			page 203


 11459 2ecc 9D0A0000 		.4byte	.LASF268
 11460 2ed0 02       		.byte	0x2
 11461 2ed1 28       		.byte	0x28
 11462 2ed2 BA2E0000 		.4byte	0x2eba
 11463 2ed6 1A       		.uleb128 0x1a
 11464 2ed7 D9000000 		.4byte	0xd9
 11465 2edb E72E0000 		.4byte	0x2ee7
 11466 2edf 1D       		.uleb128 0x1d
 11467 2ee0 EF000000 		.4byte	0xef
 11468 2ee4 0001     		.2byte	0x100
 11469 2ee6 00       		.byte	0
 11470 2ee7 51       		.uleb128 0x51
 11471 2ee8 170C0000 		.4byte	.LASF269
 11472 2eec 02       		.byte	0x2
 11473 2eed 2A       		.byte	0x2a
 11474 2eee D62E0000 		.4byte	0x2ed6
 11475 2ef2 1A       		.uleb128 0x1a
 11476 2ef3 5B000000 		.4byte	0x5b
 11477 2ef7 022F0000 		.4byte	0x2f02
 11478 2efb 1B       		.uleb128 0x1b
 11479 2efc EF000000 		.4byte	0xef
 11480 2f00 0F       		.byte	0xf
 11481 2f01 00       		.byte	0
 11482 2f02 51       		.uleb128 0x51
 11483 2f03 38060000 		.4byte	.LASF270
 11484 2f07 13       		.byte	0x13
 11485 2f08 18       		.byte	0x18
 11486 2f09 F22E0000 		.4byte	0x2ef2
 11487 2f0d 51       		.uleb128 0x51
 11488 2f0e 95050000 		.4byte	.LASF271
 11489 2f12 11       		.byte	0x11
 11490 2f13 3C       		.byte	0x3c
 11491 2f14 9F000000 		.4byte	0x9f
 11492 2f18 51       		.uleb128 0x51
 11493 2f19 84030000 		.4byte	.LASF272
 11494 2f1d 11       		.byte	0x11
 11495 2f1e 50       		.byte	0x50
 11496 2f1f 232F0000 		.4byte	0x2f23
 11497 2f23 19       		.uleb128 0x19
 11498 2f24 E20E0000 		.4byte	0xee2
 11499 2f28 51       		.uleb128 0x51
 11500 2f29 710B0000 		.4byte	.LASF273
 11501 2f2d 14       		.byte	0x14
 11502 2f2e 20       		.byte	0x20
 11503 2f2f 4A070000 		.4byte	0x74a
 11504 2f33 51       		.uleb128 0x51
 11505 2f34 BA020000 		.4byte	.LASF274
 11506 2f38 14       		.byte	0x14
 11507 2f39 22       		.byte	0x22
 11508 2f3a 9B0B0000 		.4byte	0xb9b
 11509 2f3e 1A       		.uleb128 0x1a
 11510 2f3f B8000000 		.4byte	0xb8
 11511 2f43 4E2F0000 		.4byte	0x2f4e
 11512 2f47 1B       		.uleb128 0x1b
 11513 2f48 EF000000 		.4byte	0xef
 11514 2f4c 83       		.byte	0x83
 11515 2f4d 00       		.byte	0
ARM GAS  /var/folders/28/j9jfyj_n4wz3qtvnym210h2c0000gn/T//ccpoR13X.s 			page 204


 11516 2f4e 51       		.uleb128 0x51
 11517 2f4f E4070000 		.4byte	.LASF275
 11518 2f53 15       		.byte	0x15
 11519 2f54 1B       		.byte	0x1b
 11520 2f55 3E2F0000 		.4byte	0x2f3e
 11521 2f59 4F       		.uleb128 0x4f
 11522 2f5a 4B040000 		.4byte	.LASF276
 11523 2f5e 01       		.byte	0x1
 11524 2f5f 28       		.byte	0x28
 11525 2f60 E5060000 		.4byte	0x6e5
 11526 2f64 05       		.uleb128 0x5
 11527 2f65 03       		.byte	0x3
 11528 2f66 00000000 		.4byte	KvpsHead
 11529 2f6a 4F       		.uleb128 0x4f
 11530 2f6b C3010000 		.4byte	.LASF277
 11531 2f6f 01       		.byte	0x1
 11532 2f70 29       		.byte	0x29
 11533 2f71 1C070000 		.4byte	0x71c
 11534 2f75 05       		.uleb128 0x5
 11535 2f76 03       		.byte	0x3
 11536 2f77 00000000 		.4byte	KvpsDisplay
 11537 2f7b 1A       		.uleb128 0x1a
 11538 2f7c 1C070000 		.4byte	0x71c
 11539 2f80 8B2F0000 		.4byte	0x2f8b
 11540 2f84 1B       		.uleb128 0x1b
 11541 2f85 EF000000 		.4byte	0xef
 11542 2f89 FF       		.byte	0xff
 11543 2f8a 00       		.byte	0
 11544 2f8b 4F       		.uleb128 0x4f
 11545 2f8c F5030000 		.4byte	.LASF278
 11546 2f90 01       		.byte	0x1
 11547 2f91 2C       		.byte	0x2c
 11548 2f92 7B2F0000 		.4byte	0x2f7b
 11549 2f96 05       		.uleb128 0x5
 11550 2f97 03       		.byte	0x3
 11551 2f98 00000000 		.4byte	ObjectKvps
 11552 2f9c 1A       		.uleb128 0x1a
 11553 2f9d 34070000 		.4byte	0x734
 11554 2fa1 AC2F0000 		.4byte	0x2fac
 11555 2fa5 1B       		.uleb128 0x1b
 11556 2fa6 EF000000 		.4byte	0xef
 11557 2faa 0E       		.byte	0xe
 11558 2fab 00       		.byte	0
 11559 2fac 4F       		.uleb128 0x4f
 11560 2fad C7030000 		.4byte	.LASF279
 11561 2fb1 01       		.byte	0x1
 11562 2fb2 2E       		.byte	0x2e
 11563 2fb3 9C2F0000 		.4byte	0x2f9c
 11564 2fb7 05       		.uleb128 0x5
 11565 2fb8 03       		.byte	0x3
 11566 2fb9 00000000 		.4byte	TmpMenuKvps
 11567 2fbd 1A       		.uleb128 0x1a
 11568 2fbe 34070000 		.4byte	0x734
 11569 2fc2 CD2F0000 		.4byte	0x2fcd
 11570 2fc6 1B       		.uleb128 0x1b
 11571 2fc7 EF000000 		.4byte	0xef
 11572 2fcb 02       		.byte	0x2
ARM GAS  /var/folders/28/j9jfyj_n4wz3qtvnym210h2c0000gn/T//ccpoR13X.s 			page 205


 11573 2fcc 00       		.byte	0
 11574 2fcd 4F       		.uleb128 0x4f
 11575 2fce 4B080000 		.4byte	.LASF280
 11576 2fd2 01       		.byte	0x1
 11577 2fd3 2F       		.byte	0x2f
 11578 2fd4 BD2F0000 		.4byte	0x2fbd
 11579 2fd8 05       		.uleb128 0x5
 11580 2fd9 03       		.byte	0x3
 11581 2fda 00000000 		.4byte	ADCkvps
 11582 2fde 50       		.uleb128 0x50
 11583 2fdf 420B0000 		.4byte	.LASF281
 11584 2fe3 01       		.byte	0x1
 11585 2fe4 2201     		.2byte	0x122
 11586 2fe6 A9050000 		.4byte	0x5a9
 11587 2fea 05       		.uleb128 0x5
 11588 2feb 03       		.byte	0x3
 11589 2fec 00000000 		.4byte	memp
 11590 2ff0 50       		.uleb128 0x50
 11591 2ff1 3A090000 		.4byte	.LASF282
 11592 2ff5 01       		.byte	0x1
 11593 2ff6 2301     		.2byte	0x123
 11594 2ff8 34070000 		.4byte	0x734
 11595 2ffc 05       		.uleb128 0x5
 11596 2ffd 03       		.byte	0x3
 11597 2ffe 00000000 		.4byte	LoadMenu
 11598 3002 53       		.uleb128 0x53
 11599 3003 60010000 		.4byte	.LASF284
 11600 3007 16       		.byte	0x16
 11601 3008 00       		.byte	0
 11602 3009 1F030000 		.4byte	.LASF316
 11603 300d AB0B0000 		.4byte	0xbab
 11604 3011 20300000 		.4byte	0x3020
 11605 3015 08       		.uleb128 0x8
 11606 3016 AB0B0000 		.4byte	0xbab
 11607 301a 08       		.uleb128 0x8
 11608 301b 22070000 		.4byte	0x722
 11609 301f 00       		.byte	0
 11610 3020 54       		.uleb128 0x54
 11611 3021 BB060000 		.4byte	.LASF285
 11612 3025 11       		.byte	0x11
 11613 3026 63       		.byte	0x63
 11614 3027 31300000 		.4byte	0x3031
 11615 302b 08       		.uleb128 0x8
 11616 302c 22070000 		.4byte	0x722
 11617 3030 00       		.byte	0
 11618 3031 55       		.uleb128 0x55
 11619 3032 500D0000 		.4byte	.LASF286
 11620 3036 A6030000 		.4byte	0x3a6
 11621 303a 4E300000 		.4byte	0x304e
 11622 303e 08       		.uleb128 0x8
 11623 303f A6030000 		.4byte	0x3a6
 11624 3043 08       		.uleb128 0x8
 11625 3044 4E300000 		.4byte	0x304e
 11626 3048 08       		.uleb128 0x8
 11627 3049 EF000000 		.4byte	0xef
 11628 304d 00       		.byte	0
 11629 304e 09       		.uleb128 0x9
ARM GAS  /var/folders/28/j9jfyj_n4wz3qtvnym210h2c0000gn/T//ccpoR13X.s 			page 206


 11630 304f 04       		.byte	0x4
 11631 3050 54300000 		.4byte	0x3054
 11632 3054 56       		.uleb128 0x56
 11633 3055 57       		.uleb128 0x57
 11634 3056 52010000 		.4byte	.LASF287
 11635 305a 17       		.byte	0x17
 11636 305b 21       		.byte	0x21
 11637 305c 3F070000 		.4byte	0x73f
 11638 3060 6A300000 		.4byte	0x306a
 11639 3064 08       		.uleb128 0x8
 11640 3065 22070000 		.4byte	0x722
 11641 3069 00       		.byte	0
 11642 306a 57       		.uleb128 0x57
 11643 306b 03060000 		.4byte	.LASF288
 11644 306f 10       		.byte	0x10
 11645 3070 D2       		.byte	0xd2
 11646 3071 B60E0000 		.4byte	0xeb6
 11647 3075 84300000 		.4byte	0x3084
 11648 3079 08       		.uleb128 0x8
 11649 307a 84300000 		.4byte	0x3084
 11650 307e 08       		.uleb128 0x8
 11651 307f 8A300000 		.4byte	0x308a
 11652 3083 00       		.byte	0
 11653 3084 09       		.uleb128 0x9
 11654 3085 04       		.byte	0x4
 11655 3086 AC0D0000 		.4byte	0xdac
 11656 308a 09       		.uleb128 0x9
 11657 308b 04       		.byte	0x4
 11658 308c 90300000 		.4byte	0x3090
 11659 3090 15       		.uleb128 0x15
 11660 3091 F60B0000 		.4byte	0xbf6
 11661 3095 57       		.uleb128 0x57
 11662 3096 36010000 		.4byte	.LASF289
 11663 309a 10       		.byte	0x10
 11664 309b D3       		.byte	0xd3
 11665 309c B60E0000 		.4byte	0xeb6
 11666 30a0 AF300000 		.4byte	0x30af
 11667 30a4 08       		.uleb128 0x8
 11668 30a5 84300000 		.4byte	0x3084
 11669 30a9 08       		.uleb128 0x8
 11670 30aa AF300000 		.4byte	0x30af
 11671 30ae 00       		.byte	0
 11672 30af 09       		.uleb128 0x9
 11673 30b0 04       		.byte	0x4
 11674 30b1 2A0E0000 		.4byte	0xe2a
 11675 30b5 58       		.uleb128 0x58
 11676 30b6 D60B0000 		.4byte	.LASF290
 11677 30ba 18       		.byte	0x18
 11678 30bb 16       		.byte	0x16
 11679 30bc 58       		.uleb128 0x58
 11680 30bd 120B0000 		.4byte	.LASF291
 11681 30c1 18       		.byte	0x18
 11682 30c2 17       		.byte	0x17
 11683 30c3 59       		.uleb128 0x59
 11684 30c4 320C0000 		.4byte	.LASF292
 11685 30c8 0A       		.byte	0xa
 11686 30c9 7501     		.2byte	0x175
ARM GAS  /var/folders/28/j9jfyj_n4wz3qtvnym210h2c0000gn/T//ccpoR13X.s 			page 207


 11687 30cb D5300000 		.4byte	0x30d5
 11688 30cf 08       		.uleb128 0x8
 11689 30d0 9E070000 		.4byte	0x79e
 11690 30d4 00       		.byte	0
 11691 30d5 57       		.uleb128 0x57
 11692 30d6 16040000 		.4byte	.LASF293
 11693 30da 10       		.byte	0x10
 11694 30db E2       		.byte	0xe2
 11695 30dc B60E0000 		.4byte	0xeb6
 11696 30e0 F4300000 		.4byte	0x30f4
 11697 30e4 08       		.uleb128 0x8
 11698 30e5 CA0B0000 		.4byte	0xbca
 11699 30e9 08       		.uleb128 0x8
 11700 30ea CA0B0000 		.4byte	0xbca
 11701 30ee 08       		.uleb128 0x8
 11702 30ef BF0B0000 		.4byte	0xbbf
 11703 30f3 00       		.byte	0
 11704 30f4 54       		.uleb128 0x54
 11705 30f5 5F050000 		.4byte	.LASF294
 11706 30f9 05       		.byte	0x5
 11707 30fa 45       		.byte	0x45
 11708 30fb 0F310000 		.4byte	0x310f
 11709 30ff 08       		.uleb128 0x8
 11710 3100 6B050000 		.4byte	0x56b
 11711 3104 08       		.uleb128 0x8
 11712 3105 CE000000 		.4byte	0xce
 11713 3109 08       		.uleb128 0x8
 11714 310a D9000000 		.4byte	0xd9
 11715 310e 00       		.byte	0
 11716 310f 54       		.uleb128 0x54
 11717 3110 65070000 		.4byte	.LASF295
 11718 3114 15       		.byte	0x15
 11719 3115 23       		.byte	0x23
 11720 3116 25310000 		.4byte	0x3125
 11721 311a 08       		.uleb128 0x8
 11722 311b 9F000000 		.4byte	0x9f
 11723 311f 08       		.uleb128 0x8
 11724 3120 9F000000 		.4byte	0x9f
 11725 3124 00       		.byte	0
 11726 3125 58       		.uleb128 0x58
 11727 3126 72020000 		.4byte	.LASF296
 11728 312a 15       		.byte	0x15
 11729 312b 21       		.byte	0x21
 11730 312c 54       		.uleb128 0x54
 11731 312d C70A0000 		.4byte	.LASF297
 11732 3131 15       		.byte	0x15
 11733 3132 2C       		.byte	0x2c
 11734 3133 47310000 		.4byte	0x3147
 11735 3137 08       		.uleb128 0x8
 11736 3138 9F000000 		.4byte	0x9f
 11737 313c 08       		.uleb128 0x8
 11738 313d 9F000000 		.4byte	0x9f
 11739 3141 08       		.uleb128 0x8
 11740 3142 22070000 		.4byte	0x722
 11741 3146 00       		.byte	0
 11742 3147 54       		.uleb128 0x54
 11743 3148 24010000 		.4byte	.LASF298
ARM GAS  /var/folders/28/j9jfyj_n4wz3qtvnym210h2c0000gn/T//ccpoR13X.s 			page 208


 11744 314c 15       		.byte	0x15
 11745 314d 2D       		.byte	0x2d
 11746 314e 62310000 		.4byte	0x3162
 11747 3152 08       		.uleb128 0x8
 11748 3153 9F000000 		.4byte	0x9f
 11749 3157 08       		.uleb128 0x8
 11750 3158 9F000000 		.4byte	0x9f
 11751 315c 08       		.uleb128 0x8
 11752 315d 22070000 		.4byte	0x722
 11753 3161 00       		.byte	0
 11754 3162 57       		.uleb128 0x57
 11755 3163 78060000 		.4byte	.LASF299
 11756 3167 19       		.byte	0x19
 11757 3168 52       		.byte	0x52
 11758 3169 A6030000 		.4byte	0x3a6
 11759 316d 77310000 		.4byte	0x3177
 11760 3171 08       		.uleb128 0x8
 11761 3172 3F070000 		.4byte	0x73f
 11762 3176 00       		.byte	0
 11763 3177 5A       		.uleb128 0x5a
 11764 3178 72080000 		.4byte	.LASF300
 11765 317c 0A       		.byte	0xa
 11766 317d 7001     		.2byte	0x170
 11767 317f B9080000 		.4byte	0x8b9
 11768 3183 A1310000 		.4byte	0x31a1
 11769 3187 08       		.uleb128 0x8
 11770 3188 A6030000 		.4byte	0x3a6
 11771 318c 08       		.uleb128 0x8
 11772 318d 3F070000 		.4byte	0x73f
 11773 3191 08       		.uleb128 0x8
 11774 3192 7D070000 		.4byte	0x77d
 11775 3196 08       		.uleb128 0x8
 11776 3197 760B0000 		.4byte	0xb76
 11777 319b 08       		.uleb128 0x8
 11778 319c A6030000 		.4byte	0x3a6
 11779 31a0 00       		.byte	0
 11780 31a1 54       		.uleb128 0x54
 11781 31a2 86040000 		.4byte	.LASF301
 11782 31a6 15       		.byte	0x15
 11783 31a7 2F       		.byte	0x2f
 11784 31a8 C1310000 		.4byte	0x31c1
 11785 31ac 08       		.uleb128 0x8
 11786 31ad 9F000000 		.4byte	0x9f
 11787 31b1 08       		.uleb128 0x8
 11788 31b2 9F000000 		.4byte	0x9f
 11789 31b6 08       		.uleb128 0x8
 11790 31b7 22070000 		.4byte	0x722
 11791 31bb 08       		.uleb128 0x8
 11792 31bc 9F000000 		.4byte	0x9f
 11793 31c0 00       		.byte	0
 11794 31c1 54       		.uleb128 0x54
 11795 31c2 37070000 		.4byte	.LASF302
 11796 31c6 15       		.byte	0x15
 11797 31c7 27       		.byte	0x27
 11798 31c8 DC310000 		.4byte	0x31dc
 11799 31cc 08       		.uleb128 0x8
 11800 31cd 9F000000 		.4byte	0x9f
ARM GAS  /var/folders/28/j9jfyj_n4wz3qtvnym210h2c0000gn/T//ccpoR13X.s 			page 209


 11801 31d1 08       		.uleb128 0x8
 11802 31d2 9F000000 		.4byte	0x9f
 11803 31d6 08       		.uleb128 0x8
 11804 31d7 42000000 		.4byte	0x42
 11805 31db 00       		.byte	0
 11806 31dc 54       		.uleb128 0x54
 11807 31dd EB020000 		.4byte	.LASF303
 11808 31e1 15       		.byte	0x15
 11809 31e2 29       		.byte	0x29
 11810 31e3 F7310000 		.4byte	0x31f7
 11811 31e7 08       		.uleb128 0x8
 11812 31e8 9F000000 		.4byte	0x9f
 11813 31ec 08       		.uleb128 0x8
 11814 31ed 9F000000 		.4byte	0x9f
 11815 31f1 08       		.uleb128 0x8
 11816 31f2 9F000000 		.4byte	0x9f
 11817 31f6 00       		.byte	0
 11818 31f7 54       		.uleb128 0x54
 11819 31f8 3A0E0000 		.4byte	.LASF304
 11820 31fc 15       		.byte	0x15
 11821 31fd 2B       		.byte	0x2b
 11822 31fe 12320000 		.4byte	0x3212
 11823 3202 08       		.uleb128 0x8
 11824 3203 9F000000 		.4byte	0x9f
 11825 3207 08       		.uleb128 0x8
 11826 3208 9F000000 		.4byte	0x9f
 11827 320c 08       		.uleb128 0x8
 11828 320d 9F000000 		.4byte	0x9f
 11829 3211 00       		.byte	0
 11830 3212 54       		.uleb128 0x54
 11831 3213 8C060000 		.4byte	.LASF305
 11832 3217 15       		.byte	0x15
 11833 3218 30       		.byte	0x30
 11834 3219 32320000 		.4byte	0x3232
 11835 321d 08       		.uleb128 0x8
 11836 321e 9F000000 		.4byte	0x9f
 11837 3222 08       		.uleb128 0x8
 11838 3223 9F000000 		.4byte	0x9f
 11839 3227 08       		.uleb128 0x8
 11840 3228 9F000000 		.4byte	0x9f
 11841 322c 08       		.uleb128 0x8
 11842 322d 9F000000 		.4byte	0x9f
 11843 3231 00       		.byte	0
 11844 3232 54       		.uleb128 0x54
 11845 3233 26030000 		.4byte	.LASF306
 11846 3237 15       		.byte	0x15
 11847 3238 26       		.byte	0x26
 11848 3239 4D320000 		.4byte	0x324d
 11849 323d 08       		.uleb128 0x8
 11850 323e 9F000000 		.4byte	0x9f
 11851 3242 08       		.uleb128 0x8
 11852 3243 9F000000 		.4byte	0x9f
 11853 3247 08       		.uleb128 0x8
 11854 3248 42000000 		.4byte	0x42
 11855 324c 00       		.byte	0
 11856 324d 54       		.uleb128 0x54
 11857 324e A3070000 		.4byte	.LASF307
ARM GAS  /var/folders/28/j9jfyj_n4wz3qtvnym210h2c0000gn/T//ccpoR13X.s 			page 210


 11858 3252 15       		.byte	0x15
 11859 3253 2A       		.byte	0x2a
 11860 3254 68320000 		.4byte	0x3268
 11861 3258 08       		.uleb128 0x8
 11862 3259 9F000000 		.4byte	0x9f
 11863 325d 08       		.uleb128 0x8
 11864 325e 9F000000 		.4byte	0x9f
 11865 3262 08       		.uleb128 0x8
 11866 3263 9F000000 		.4byte	0x9f
 11867 3267 00       		.byte	0
 11868 3268 54       		.uleb128 0x54
 11869 3269 15050000 		.4byte	.LASF308
 11870 326d 15       		.byte	0x15
 11871 326e 28       		.byte	0x28
 11872 326f 83320000 		.4byte	0x3283
 11873 3273 08       		.uleb128 0x8
 11874 3274 9F000000 		.4byte	0x9f
 11875 3278 08       		.uleb128 0x8
 11876 3279 9F000000 		.4byte	0x9f
 11877 327d 08       		.uleb128 0x8
 11878 327e 9F000000 		.4byte	0x9f
 11879 3282 00       		.byte	0
 11880 3283 54       		.uleb128 0x54
 11881 3284 410A0000 		.4byte	.LASF309
 11882 3288 15       		.byte	0x15
 11883 3289 2E       		.byte	0x2e
 11884 328a A3320000 		.4byte	0x32a3
 11885 328e 08       		.uleb128 0x8
 11886 328f 9F000000 		.4byte	0x9f
 11887 3293 08       		.uleb128 0x8
 11888 3294 9F000000 		.4byte	0x9f
 11889 3298 08       		.uleb128 0x8
 11890 3299 22070000 		.4byte	0x722
 11891 329d 08       		.uleb128 0x8
 11892 329e 9F000000 		.4byte	0x9f
 11893 32a2 00       		.byte	0
 11894 32a3 58       		.uleb128 0x58
 11895 32a4 71010000 		.4byte	.LASF310
 11896 32a8 15       		.byte	0x15
 11897 32a9 1E       		.byte	0x1e
 11898 32aa 00       		.byte	0
 11899              		.section	.debug_abbrev,"",%progbits
 11900              	.Ldebug_abbrev0:
 11901 0000 01       		.uleb128 0x1
 11902 0001 11       		.uleb128 0x11
 11903 0002 01       		.byte	0x1
 11904 0003 25       		.uleb128 0x25
 11905 0004 0E       		.uleb128 0xe
 11906 0005 13       		.uleb128 0x13
 11907 0006 0B       		.uleb128 0xb
 11908 0007 03       		.uleb128 0x3
 11909 0008 0E       		.uleb128 0xe
 11910 0009 1B       		.uleb128 0x1b
 11911 000a 0E       		.uleb128 0xe
 11912 000b 11       		.uleb128 0x11
 11913 000c 01       		.uleb128 0x1
 11914 000d 12       		.uleb128 0x12
ARM GAS  /var/folders/28/j9jfyj_n4wz3qtvnym210h2c0000gn/T//ccpoR13X.s 			page 211


 11915 000e 06       		.uleb128 0x6
 11916 000f 10       		.uleb128 0x10
 11917 0010 17       		.uleb128 0x17
 11918 0011 00       		.byte	0
 11919 0012 00       		.byte	0
 11920 0013 02       		.uleb128 0x2
 11921 0014 16       		.uleb128 0x16
 11922 0015 00       		.byte	0
 11923 0016 03       		.uleb128 0x3
 11924 0017 0E       		.uleb128 0xe
 11925 0018 3A       		.uleb128 0x3a
 11926 0019 0B       		.uleb128 0xb
 11927 001a 3B       		.uleb128 0x3b
 11928 001b 0B       		.uleb128 0xb
 11929 001c 49       		.uleb128 0x49
 11930 001d 13       		.uleb128 0x13
 11931 001e 00       		.byte	0
 11932 001f 00       		.byte	0
 11933 0020 03       		.uleb128 0x3
 11934 0021 24       		.uleb128 0x24
 11935 0022 00       		.byte	0
 11936 0023 0B       		.uleb128 0xb
 11937 0024 0B       		.uleb128 0xb
 11938 0025 3E       		.uleb128 0x3e
 11939 0026 0B       		.uleb128 0xb
 11940 0027 03       		.uleb128 0x3
 11941 0028 0E       		.uleb128 0xe
 11942 0029 00       		.byte	0
 11943 002a 00       		.byte	0
 11944 002b 04       		.uleb128 0x4
 11945 002c 24       		.uleb128 0x24
 11946 002d 00       		.byte	0
 11947 002e 0B       		.uleb128 0xb
 11948 002f 0B       		.uleb128 0xb
 11949 0030 3E       		.uleb128 0x3e
 11950 0031 0B       		.uleb128 0xb
 11951 0032 03       		.uleb128 0x3
 11952 0033 08       		.uleb128 0x8
 11953 0034 00       		.byte	0
 11954 0035 00       		.byte	0
 11955 0036 05       		.uleb128 0x5
 11956 0037 13       		.uleb128 0x13
 11957 0038 01       		.byte	0x1
 11958 0039 03       		.uleb128 0x3
 11959 003a 0E       		.uleb128 0xe
 11960 003b 0B       		.uleb128 0xb
 11961 003c 0B       		.uleb128 0xb
 11962 003d 3A       		.uleb128 0x3a
 11963 003e 0B       		.uleb128 0xb
 11964 003f 3B       		.uleb128 0x3b
 11965 0040 0B       		.uleb128 0xb
 11966 0041 01       		.uleb128 0x1
 11967 0042 13       		.uleb128 0x13
 11968 0043 00       		.byte	0
 11969 0044 00       		.byte	0
 11970 0045 06       		.uleb128 0x6
 11971 0046 0D       		.uleb128 0xd
ARM GAS  /var/folders/28/j9jfyj_n4wz3qtvnym210h2c0000gn/T//ccpoR13X.s 			page 212


 11972 0047 00       		.byte	0
 11973 0048 03       		.uleb128 0x3
 11974 0049 0E       		.uleb128 0xe
 11975 004a 3A       		.uleb128 0x3a
 11976 004b 0B       		.uleb128 0xb
 11977 004c 3B       		.uleb128 0x3b
 11978 004d 0B       		.uleb128 0xb
 11979 004e 49       		.uleb128 0x49
 11980 004f 13       		.uleb128 0x13
 11981 0050 38       		.uleb128 0x38
 11982 0051 0B       		.uleb128 0xb
 11983 0052 00       		.byte	0
 11984 0053 00       		.byte	0
 11985 0054 07       		.uleb128 0x7
 11986 0055 15       		.uleb128 0x15
 11987 0056 01       		.byte	0x1
 11988 0057 27       		.uleb128 0x27
 11989 0058 19       		.uleb128 0x19
 11990 0059 01       		.uleb128 0x1
 11991 005a 13       		.uleb128 0x13
 11992 005b 00       		.byte	0
 11993 005c 00       		.byte	0
 11994 005d 08       		.uleb128 0x8
 11995 005e 05       		.uleb128 0x5
 11996 005f 00       		.byte	0
 11997 0060 49       		.uleb128 0x49
 11998 0061 13       		.uleb128 0x13
 11999 0062 00       		.byte	0
 12000 0063 00       		.byte	0
 12001 0064 09       		.uleb128 0x9
 12002 0065 0F       		.uleb128 0xf
 12003 0066 00       		.byte	0
 12004 0067 0B       		.uleb128 0xb
 12005 0068 0B       		.uleb128 0xb
 12006 0069 49       		.uleb128 0x49
 12007 006a 13       		.uleb128 0x13
 12008 006b 00       		.byte	0
 12009 006c 00       		.byte	0
 12010 006d 0A       		.uleb128 0xa
 12011 006e 13       		.uleb128 0x13
 12012 006f 01       		.byte	0x1
 12013 0070 0B       		.uleb128 0xb
 12014 0071 0B       		.uleb128 0xb
 12015 0072 3A       		.uleb128 0x3a
 12016 0073 0B       		.uleb128 0xb
 12017 0074 3B       		.uleb128 0x3b
 12018 0075 0B       		.uleb128 0xb
 12019 0076 01       		.uleb128 0x1
 12020 0077 13       		.uleb128 0x13
 12021 0078 00       		.byte	0
 12022 0079 00       		.byte	0
 12023 007a 0B       		.uleb128 0xb
 12024 007b 0D       		.uleb128 0xd
 12025 007c 00       		.byte	0
 12026 007d 03       		.uleb128 0x3
 12027 007e 0E       		.uleb128 0xe
 12028 007f 3A       		.uleb128 0x3a
ARM GAS  /var/folders/28/j9jfyj_n4wz3qtvnym210h2c0000gn/T//ccpoR13X.s 			page 213


 12029 0080 0B       		.uleb128 0xb
 12030 0081 3B       		.uleb128 0x3b
 12031 0082 0B       		.uleb128 0xb
 12032 0083 49       		.uleb128 0x49
 12033 0084 13       		.uleb128 0x13
 12034 0085 0B       		.uleb128 0xb
 12035 0086 0B       		.uleb128 0xb
 12036 0087 0D       		.uleb128 0xd
 12037 0088 0B       		.uleb128 0xb
 12038 0089 0C       		.uleb128 0xc
 12039 008a 0B       		.uleb128 0xb
 12040 008b 38       		.uleb128 0x38
 12041 008c 0B       		.uleb128 0xb
 12042 008d 00       		.byte	0
 12043 008e 00       		.byte	0
 12044 008f 0C       		.uleb128 0xc
 12045 0090 17       		.uleb128 0x17
 12046 0091 01       		.byte	0x1
 12047 0092 0B       		.uleb128 0xb
 12048 0093 0B       		.uleb128 0xb
 12049 0094 3A       		.uleb128 0x3a
 12050 0095 0B       		.uleb128 0xb
 12051 0096 3B       		.uleb128 0x3b
 12052 0097 0B       		.uleb128 0xb
 12053 0098 01       		.uleb128 0x1
 12054 0099 13       		.uleb128 0x13
 12055 009a 00       		.byte	0
 12056 009b 00       		.byte	0
 12057 009c 0D       		.uleb128 0xd
 12058 009d 0D       		.uleb128 0xd
 12059 009e 00       		.byte	0
 12060 009f 03       		.uleb128 0x3
 12061 00a0 0E       		.uleb128 0xe
 12062 00a1 3A       		.uleb128 0x3a
 12063 00a2 0B       		.uleb128 0xb
 12064 00a3 3B       		.uleb128 0x3b
 12065 00a4 0B       		.uleb128 0xb
 12066 00a5 49       		.uleb128 0x49
 12067 00a6 13       		.uleb128 0x13
 12068 00a7 00       		.byte	0
 12069 00a8 00       		.byte	0
 12070 00a9 0E       		.uleb128 0xe
 12071 00aa 0F       		.uleb128 0xf
 12072 00ab 00       		.byte	0
 12073 00ac 0B       		.uleb128 0xb
 12074 00ad 0B       		.uleb128 0xb
 12075 00ae 00       		.byte	0
 12076 00af 00       		.byte	0
 12077 00b0 0F       		.uleb128 0xf
 12078 00b1 15       		.uleb128 0x15
 12079 00b2 00       		.byte	0
 12080 00b3 27       		.uleb128 0x27
 12081 00b4 19       		.uleb128 0x19
 12082 00b5 00       		.byte	0
 12083 00b6 00       		.byte	0
 12084 00b7 10       		.uleb128 0x10
 12085 00b8 0D       		.uleb128 0xd
ARM GAS  /var/folders/28/j9jfyj_n4wz3qtvnym210h2c0000gn/T//ccpoR13X.s 			page 214


 12086 00b9 00       		.byte	0
 12087 00ba 03       		.uleb128 0x3
 12088 00bb 08       		.uleb128 0x8
 12089 00bc 3A       		.uleb128 0x3a
 12090 00bd 0B       		.uleb128 0xb
 12091 00be 3B       		.uleb128 0x3b
 12092 00bf 0B       		.uleb128 0xb
 12093 00c0 49       		.uleb128 0x49
 12094 00c1 13       		.uleb128 0x13
 12095 00c2 38       		.uleb128 0x38
 12096 00c3 0B       		.uleb128 0xb
 12097 00c4 00       		.byte	0
 12098 00c5 00       		.byte	0
 12099 00c6 11       		.uleb128 0x11
 12100 00c7 04       		.uleb128 0x4
 12101 00c8 01       		.byte	0x1
 12102 00c9 0B       		.uleb128 0xb
 12103 00ca 0B       		.uleb128 0xb
 12104 00cb 3A       		.uleb128 0x3a
 12105 00cc 0B       		.uleb128 0xb
 12106 00cd 3B       		.uleb128 0x3b
 12107 00ce 0B       		.uleb128 0xb
 12108 00cf 01       		.uleb128 0x1
 12109 00d0 13       		.uleb128 0x13
 12110 00d1 00       		.byte	0
 12111 00d2 00       		.byte	0
 12112 00d3 12       		.uleb128 0x12
 12113 00d4 28       		.uleb128 0x28
 12114 00d5 00       		.byte	0
 12115 00d6 03       		.uleb128 0x3
 12116 00d7 0E       		.uleb128 0xe
 12117 00d8 1C       		.uleb128 0x1c
 12118 00d9 0D       		.uleb128 0xd
 12119 00da 00       		.byte	0
 12120 00db 00       		.byte	0
 12121 00dc 13       		.uleb128 0x13
 12122 00dd 0D       		.uleb128 0xd
 12123 00de 00       		.byte	0
 12124 00df 03       		.uleb128 0x3
 12125 00e0 08       		.uleb128 0x8
 12126 00e1 3A       		.uleb128 0x3a
 12127 00e2 0B       		.uleb128 0xb
 12128 00e3 3B       		.uleb128 0x3b
 12129 00e4 0B       		.uleb128 0xb
 12130 00e5 49       		.uleb128 0x49
 12131 00e6 13       		.uleb128 0x13
 12132 00e7 00       		.byte	0
 12133 00e8 00       		.byte	0
 12134 00e9 14       		.uleb128 0x14
 12135 00ea 0D       		.uleb128 0xd
 12136 00eb 00       		.byte	0
 12137 00ec 49       		.uleb128 0x49
 12138 00ed 13       		.uleb128 0x13
 12139 00ee 38       		.uleb128 0x38
 12140 00ef 0B       		.uleb128 0xb
 12141 00f0 00       		.byte	0
 12142 00f1 00       		.byte	0
ARM GAS  /var/folders/28/j9jfyj_n4wz3qtvnym210h2c0000gn/T//ccpoR13X.s 			page 215


 12143 00f2 15       		.uleb128 0x15
 12144 00f3 26       		.uleb128 0x26
 12145 00f4 00       		.byte	0
 12146 00f5 49       		.uleb128 0x49
 12147 00f6 13       		.uleb128 0x13
 12148 00f7 00       		.byte	0
 12149 00f8 00       		.byte	0
 12150 00f9 16       		.uleb128 0x16
 12151 00fa 13       		.uleb128 0x13
 12152 00fb 01       		.byte	0x1
 12153 00fc 03       		.uleb128 0x3
 12154 00fd 0E       		.uleb128 0xe
 12155 00fe 0B       		.uleb128 0xb
 12156 00ff 0B       		.uleb128 0xb
 12157 0100 3A       		.uleb128 0x3a
 12158 0101 0B       		.uleb128 0xb
 12159 0102 3B       		.uleb128 0x3b
 12160 0103 05       		.uleb128 0x5
 12161 0104 01       		.uleb128 0x1
 12162 0105 13       		.uleb128 0x13
 12163 0106 00       		.byte	0
 12164 0107 00       		.byte	0
 12165 0108 17       		.uleb128 0x17
 12166 0109 0D       		.uleb128 0xd
 12167 010a 00       		.byte	0
 12168 010b 03       		.uleb128 0x3
 12169 010c 08       		.uleb128 0x8
 12170 010d 3A       		.uleb128 0x3a
 12171 010e 0B       		.uleb128 0xb
 12172 010f 3B       		.uleb128 0x3b
 12173 0110 05       		.uleb128 0x5
 12174 0111 49       		.uleb128 0x49
 12175 0112 13       		.uleb128 0x13
 12176 0113 38       		.uleb128 0x38
 12177 0114 0B       		.uleb128 0xb
 12178 0115 00       		.byte	0
 12179 0116 00       		.byte	0
 12180 0117 18       		.uleb128 0x18
 12181 0118 15       		.uleb128 0x15
 12182 0119 01       		.byte	0x1
 12183 011a 27       		.uleb128 0x27
 12184 011b 19       		.uleb128 0x19
 12185 011c 49       		.uleb128 0x49
 12186 011d 13       		.uleb128 0x13
 12187 011e 01       		.uleb128 0x1
 12188 011f 13       		.uleb128 0x13
 12189 0120 00       		.byte	0
 12190 0121 00       		.byte	0
 12191 0122 19       		.uleb128 0x19
 12192 0123 35       		.uleb128 0x35
 12193 0124 00       		.byte	0
 12194 0125 49       		.uleb128 0x49
 12195 0126 13       		.uleb128 0x13
 12196 0127 00       		.byte	0
 12197 0128 00       		.byte	0
 12198 0129 1A       		.uleb128 0x1a
 12199 012a 01       		.uleb128 0x1
ARM GAS  /var/folders/28/j9jfyj_n4wz3qtvnym210h2c0000gn/T//ccpoR13X.s 			page 216


 12200 012b 01       		.byte	0x1
 12201 012c 49       		.uleb128 0x49
 12202 012d 13       		.uleb128 0x13
 12203 012e 01       		.uleb128 0x1
 12204 012f 13       		.uleb128 0x13
 12205 0130 00       		.byte	0
 12206 0131 00       		.byte	0
 12207 0132 1B       		.uleb128 0x1b
 12208 0133 21       		.uleb128 0x21
 12209 0134 00       		.byte	0
 12210 0135 49       		.uleb128 0x49
 12211 0136 13       		.uleb128 0x13
 12212 0137 2F       		.uleb128 0x2f
 12213 0138 0B       		.uleb128 0xb
 12214 0139 00       		.byte	0
 12215 013a 00       		.byte	0
 12216 013b 1C       		.uleb128 0x1c
 12217 013c 13       		.uleb128 0x13
 12218 013d 01       		.byte	0x1
 12219 013e 0B       		.uleb128 0xb
 12220 013f 05       		.uleb128 0x5
 12221 0140 3A       		.uleb128 0x3a
 12222 0141 0B       		.uleb128 0xb
 12223 0142 3B       		.uleb128 0x3b
 12224 0143 0B       		.uleb128 0xb
 12225 0144 01       		.uleb128 0x1
 12226 0145 13       		.uleb128 0x13
 12227 0146 00       		.byte	0
 12228 0147 00       		.byte	0
 12229 0148 1D       		.uleb128 0x1d
 12230 0149 21       		.uleb128 0x21
 12231 014a 00       		.byte	0
 12232 014b 49       		.uleb128 0x49
 12233 014c 13       		.uleb128 0x13
 12234 014d 2F       		.uleb128 0x2f
 12235 014e 05       		.uleb128 0x5
 12236 014f 00       		.byte	0
 12237 0150 00       		.byte	0
 12238 0151 1E       		.uleb128 0x1e
 12239 0152 16       		.uleb128 0x16
 12240 0153 00       		.byte	0
 12241 0154 03       		.uleb128 0x3
 12242 0155 08       		.uleb128 0x8
 12243 0156 3A       		.uleb128 0x3a
 12244 0157 0B       		.uleb128 0xb
 12245 0158 3B       		.uleb128 0x3b
 12246 0159 0B       		.uleb128 0xb
 12247 015a 49       		.uleb128 0x49
 12248 015b 13       		.uleb128 0x13
 12249 015c 00       		.byte	0
 12250 015d 00       		.byte	0
 12251 015e 1F       		.uleb128 0x1f
 12252 015f 2E       		.uleb128 0x2e
 12253 0160 01       		.byte	0x1
 12254 0161 3F       		.uleb128 0x3f
 12255 0162 19       		.uleb128 0x19
 12256 0163 03       		.uleb128 0x3
ARM GAS  /var/folders/28/j9jfyj_n4wz3qtvnym210h2c0000gn/T//ccpoR13X.s 			page 217


 12257 0164 0E       		.uleb128 0xe
 12258 0165 3A       		.uleb128 0x3a
 12259 0166 0B       		.uleb128 0xb
 12260 0167 3B       		.uleb128 0x3b
 12261 0168 0B       		.uleb128 0xb
 12262 0169 27       		.uleb128 0x27
 12263 016a 19       		.uleb128 0x19
 12264 016b 20       		.uleb128 0x20
 12265 016c 0B       		.uleb128 0xb
 12266 016d 01       		.uleb128 0x1
 12267 016e 13       		.uleb128 0x13
 12268 016f 00       		.byte	0
 12269 0170 00       		.byte	0
 12270 0171 20       		.uleb128 0x20
 12271 0172 05       		.uleb128 0x5
 12272 0173 00       		.byte	0
 12273 0174 03       		.uleb128 0x3
 12274 0175 08       		.uleb128 0x8
 12275 0176 3A       		.uleb128 0x3a
 12276 0177 0B       		.uleb128 0xb
 12277 0178 3B       		.uleb128 0x3b
 12278 0179 0B       		.uleb128 0xb
 12279 017a 49       		.uleb128 0x49
 12280 017b 13       		.uleb128 0x13
 12281 017c 00       		.byte	0
 12282 017d 00       		.byte	0
 12283 017e 21       		.uleb128 0x21
 12284 017f 05       		.uleb128 0x5
 12285 0180 00       		.byte	0
 12286 0181 03       		.uleb128 0x3
 12287 0182 0E       		.uleb128 0xe
 12288 0183 3A       		.uleb128 0x3a
 12289 0184 0B       		.uleb128 0xb
 12290 0185 3B       		.uleb128 0x3b
 12291 0186 0B       		.uleb128 0xb
 12292 0187 49       		.uleb128 0x49
 12293 0188 13       		.uleb128 0x13
 12294 0189 00       		.byte	0
 12295 018a 00       		.byte	0
 12296 018b 22       		.uleb128 0x22
 12297 018c 2E       		.uleb128 0x2e
 12298 018d 01       		.byte	0x1
 12299 018e 3F       		.uleb128 0x3f
 12300 018f 19       		.uleb128 0x19
 12301 0190 03       		.uleb128 0x3
 12302 0191 0E       		.uleb128 0xe
 12303 0192 3A       		.uleb128 0x3a
 12304 0193 0B       		.uleb128 0xb
 12305 0194 3B       		.uleb128 0x3b
 12306 0195 05       		.uleb128 0x5
 12307 0196 27       		.uleb128 0x27
 12308 0197 19       		.uleb128 0x19
 12309 0198 20       		.uleb128 0x20
 12310 0199 0B       		.uleb128 0xb
 12311 019a 01       		.uleb128 0x1
 12312 019b 13       		.uleb128 0x13
 12313 019c 00       		.byte	0
ARM GAS  /var/folders/28/j9jfyj_n4wz3qtvnym210h2c0000gn/T//ccpoR13X.s 			page 218


 12314 019d 00       		.byte	0
 12315 019e 23       		.uleb128 0x23
 12316 019f 34       		.uleb128 0x34
 12317 01a0 00       		.byte	0
 12318 01a1 03       		.uleb128 0x3
 12319 01a2 08       		.uleb128 0x8
 12320 01a3 3A       		.uleb128 0x3a
 12321 01a4 0B       		.uleb128 0xb
 12322 01a5 3B       		.uleb128 0x3b
 12323 01a6 05       		.uleb128 0x5
 12324 01a7 49       		.uleb128 0x49
 12325 01a8 13       		.uleb128 0x13
 12326 01a9 00       		.byte	0
 12327 01aa 00       		.byte	0
 12328 01ab 24       		.uleb128 0x24
 12329 01ac 0B       		.uleb128 0xb
 12330 01ad 01       		.byte	0x1
 12331 01ae 00       		.byte	0
 12332 01af 00       		.byte	0
 12333 01b0 25       		.uleb128 0x25
 12334 01b1 34       		.uleb128 0x34
 12335 01b2 00       		.byte	0
 12336 01b3 03       		.uleb128 0x3
 12337 01b4 0E       		.uleb128 0xe
 12338 01b5 3A       		.uleb128 0x3a
 12339 01b6 0B       		.uleb128 0xb
 12340 01b7 3B       		.uleb128 0x3b
 12341 01b8 0B       		.uleb128 0xb
 12342 01b9 49       		.uleb128 0x49
 12343 01ba 13       		.uleb128 0x13
 12344 01bb 00       		.byte	0
 12345 01bc 00       		.byte	0
 12346 01bd 26       		.uleb128 0x26
 12347 01be 2E       		.uleb128 0x2e
 12348 01bf 01       		.byte	0x1
 12349 01c0 03       		.uleb128 0x3
 12350 01c1 0E       		.uleb128 0xe
 12351 01c2 3A       		.uleb128 0x3a
 12352 01c3 0B       		.uleb128 0xb
 12353 01c4 3B       		.uleb128 0x3b
 12354 01c5 0B       		.uleb128 0xb
 12355 01c6 27       		.uleb128 0x27
 12356 01c7 19       		.uleb128 0x19
 12357 01c8 49       		.uleb128 0x49
 12358 01c9 13       		.uleb128 0x13
 12359 01ca 20       		.uleb128 0x20
 12360 01cb 0B       		.uleb128 0xb
 12361 01cc 01       		.uleb128 0x1
 12362 01cd 13       		.uleb128 0x13
 12363 01ce 00       		.byte	0
 12364 01cf 00       		.byte	0
 12365 01d0 27       		.uleb128 0x27
 12366 01d1 2E       		.uleb128 0x2e
 12367 01d2 01       		.byte	0x1
 12368 01d3 3F       		.uleb128 0x3f
 12369 01d4 19       		.uleb128 0x19
 12370 01d5 03       		.uleb128 0x3
ARM GAS  /var/folders/28/j9jfyj_n4wz3qtvnym210h2c0000gn/T//ccpoR13X.s 			page 219


 12371 01d6 0E       		.uleb128 0xe
 12372 01d7 3A       		.uleb128 0x3a
 12373 01d8 0B       		.uleb128 0xb
 12374 01d9 3B       		.uleb128 0x3b
 12375 01da 05       		.uleb128 0x5
 12376 01db 27       		.uleb128 0x27
 12377 01dc 19       		.uleb128 0x19
 12378 01dd 11       		.uleb128 0x11
 12379 01de 01       		.uleb128 0x1
 12380 01df 12       		.uleb128 0x12
 12381 01e0 06       		.uleb128 0x6
 12382 01e1 40       		.uleb128 0x40
 12383 01e2 18       		.uleb128 0x18
 12384 01e3 9742     		.uleb128 0x2117
 12385 01e5 19       		.uleb128 0x19
 12386 01e6 01       		.uleb128 0x1
 12387 01e7 13       		.uleb128 0x13
 12388 01e8 00       		.byte	0
 12389 01e9 00       		.byte	0
 12390 01ea 28       		.uleb128 0x28
 12391 01eb 34       		.uleb128 0x34
 12392 01ec 00       		.byte	0
 12393 01ed 03       		.uleb128 0x3
 12394 01ee 08       		.uleb128 0x8
 12395 01ef 3A       		.uleb128 0x3a
 12396 01f0 0B       		.uleb128 0xb
 12397 01f1 3B       		.uleb128 0x3b
 12398 01f2 05       		.uleb128 0x5
 12399 01f3 49       		.uleb128 0x49
 12400 01f4 13       		.uleb128 0x13
 12401 01f5 02       		.uleb128 0x2
 12402 01f6 17       		.uleb128 0x17
 12403 01f7 00       		.byte	0
 12404 01f8 00       		.byte	0
 12405 01f9 29       		.uleb128 0x29
 12406 01fa 34       		.uleb128 0x34
 12407 01fb 00       		.byte	0
 12408 01fc 03       		.uleb128 0x3
 12409 01fd 08       		.uleb128 0x8
 12410 01fe 3A       		.uleb128 0x3a
 12411 01ff 0B       		.uleb128 0xb
 12412 0200 3B       		.uleb128 0x3b
 12413 0201 05       		.uleb128 0x5
 12414 0202 49       		.uleb128 0x49
 12415 0203 13       		.uleb128 0x13
 12416 0204 02       		.uleb128 0x2
 12417 0205 18       		.uleb128 0x18
 12418 0206 00       		.byte	0
 12419 0207 00       		.byte	0
 12420 0208 2A       		.uleb128 0x2a
 12421 0209 898201   		.uleb128 0x4109
 12422 020c 01       		.byte	0x1
 12423 020d 11       		.uleb128 0x11
 12424 020e 01       		.uleb128 0x1
 12425 020f 31       		.uleb128 0x31
 12426 0210 13       		.uleb128 0x13
 12427 0211 01       		.uleb128 0x1
ARM GAS  /var/folders/28/j9jfyj_n4wz3qtvnym210h2c0000gn/T//ccpoR13X.s 			page 220


 12428 0212 13       		.uleb128 0x13
 12429 0213 00       		.byte	0
 12430 0214 00       		.byte	0
 12431 0215 2B       		.uleb128 0x2b
 12432 0216 8A8201   		.uleb128 0x410a
 12433 0219 00       		.byte	0
 12434 021a 02       		.uleb128 0x2
 12435 021b 18       		.uleb128 0x18
 12436 021c 9142     		.uleb128 0x2111
 12437 021e 18       		.uleb128 0x18
 12438 021f 00       		.byte	0
 12439 0220 00       		.byte	0
 12440 0221 2C       		.uleb128 0x2c
 12441 0222 898201   		.uleb128 0x4109
 12442 0225 01       		.byte	0x1
 12443 0226 11       		.uleb128 0x11
 12444 0227 01       		.uleb128 0x1
 12445 0228 31       		.uleb128 0x31
 12446 0229 13       		.uleb128 0x13
 12447 022a 00       		.byte	0
 12448 022b 00       		.byte	0
 12449 022c 2D       		.uleb128 0x2d
 12450 022d 34       		.uleb128 0x34
 12451 022e 00       		.byte	0
 12452 022f 03       		.uleb128 0x3
 12453 0230 0E       		.uleb128 0xe
 12454 0231 3A       		.uleb128 0x3a
 12455 0232 0B       		.uleb128 0xb
 12456 0233 3B       		.uleb128 0x3b
 12457 0234 05       		.uleb128 0x5
 12458 0235 49       		.uleb128 0x49
 12459 0236 13       		.uleb128 0x13
 12460 0237 02       		.uleb128 0x2
 12461 0238 17       		.uleb128 0x17
 12462 0239 00       		.byte	0
 12463 023a 00       		.byte	0
 12464 023b 2E       		.uleb128 0x2e
 12465 023c 0B       		.uleb128 0xb
 12466 023d 01       		.byte	0x1
 12467 023e 55       		.uleb128 0x55
 12468 023f 17       		.uleb128 0x17
 12469 0240 01       		.uleb128 0x1
 12470 0241 13       		.uleb128 0x13
 12471 0242 00       		.byte	0
 12472 0243 00       		.byte	0
 12473 0244 2F       		.uleb128 0x2f
 12474 0245 1D       		.uleb128 0x1d
 12475 0246 01       		.byte	0x1
 12476 0247 31       		.uleb128 0x31
 12477 0248 13       		.uleb128 0x13
 12478 0249 52       		.uleb128 0x52
 12479 024a 01       		.uleb128 0x1
 12480 024b 55       		.uleb128 0x55
 12481 024c 17       		.uleb128 0x17
 12482 024d 58       		.uleb128 0x58
 12483 024e 0B       		.uleb128 0xb
 12484 024f 59       		.uleb128 0x59
ARM GAS  /var/folders/28/j9jfyj_n4wz3qtvnym210h2c0000gn/T//ccpoR13X.s 			page 221


 12485 0250 05       		.uleb128 0x5
 12486 0251 01       		.uleb128 0x1
 12487 0252 13       		.uleb128 0x13
 12488 0253 00       		.byte	0
 12489 0254 00       		.byte	0
 12490 0255 30       		.uleb128 0x30
 12491 0256 05       		.uleb128 0x5
 12492 0257 00       		.byte	0
 12493 0258 31       		.uleb128 0x31
 12494 0259 13       		.uleb128 0x13
 12495 025a 02       		.uleb128 0x2
 12496 025b 17       		.uleb128 0x17
 12497 025c 00       		.byte	0
 12498 025d 00       		.byte	0
 12499 025e 31       		.uleb128 0x31
 12500 025f 2E       		.uleb128 0x2e
 12501 0260 01       		.byte	0x1
 12502 0261 03       		.uleb128 0x3
 12503 0262 0E       		.uleb128 0xe
 12504 0263 3A       		.uleb128 0x3a
 12505 0264 0B       		.uleb128 0xb
 12506 0265 3B       		.uleb128 0x3b
 12507 0266 05       		.uleb128 0x5
 12508 0267 27       		.uleb128 0x27
 12509 0268 19       		.uleb128 0x19
 12510 0269 49       		.uleb128 0x49
 12511 026a 13       		.uleb128 0x13
 12512 026b 11       		.uleb128 0x11
 12513 026c 01       		.uleb128 0x1
 12514 026d 12       		.uleb128 0x12
 12515 026e 06       		.uleb128 0x6
 12516 026f 40       		.uleb128 0x40
 12517 0270 18       		.uleb128 0x18
 12518 0271 9642     		.uleb128 0x2116
 12519 0273 19       		.uleb128 0x19
 12520 0274 01       		.uleb128 0x1
 12521 0275 13       		.uleb128 0x13
 12522 0276 00       		.byte	0
 12523 0277 00       		.byte	0
 12524 0278 32       		.uleb128 0x32
 12525 0279 05       		.uleb128 0x5
 12526 027a 00       		.byte	0
 12527 027b 03       		.uleb128 0x3
 12528 027c 08       		.uleb128 0x8
 12529 027d 3A       		.uleb128 0x3a
 12530 027e 0B       		.uleb128 0xb
 12531 027f 3B       		.uleb128 0x3b
 12532 0280 05       		.uleb128 0x5
 12533 0281 49       		.uleb128 0x49
 12534 0282 13       		.uleb128 0x13
 12535 0283 02       		.uleb128 0x2
 12536 0284 17       		.uleb128 0x17
 12537 0285 00       		.byte	0
 12538 0286 00       		.byte	0
 12539 0287 33       		.uleb128 0x33
 12540 0288 898201   		.uleb128 0x4109
 12541 028b 00       		.byte	0
ARM GAS  /var/folders/28/j9jfyj_n4wz3qtvnym210h2c0000gn/T//ccpoR13X.s 			page 222


 12542 028c 11       		.uleb128 0x11
 12543 028d 01       		.uleb128 0x1
 12544 028e 31       		.uleb128 0x31
 12545 028f 13       		.uleb128 0x13
 12546 0290 00       		.byte	0
 12547 0291 00       		.byte	0
 12548 0292 34       		.uleb128 0x34
 12549 0293 2E       		.uleb128 0x2e
 12550 0294 01       		.byte	0x1
 12551 0295 31       		.uleb128 0x31
 12552 0296 13       		.uleb128 0x13
 12553 0297 11       		.uleb128 0x11
 12554 0298 01       		.uleb128 0x1
 12555 0299 12       		.uleb128 0x12
 12556 029a 06       		.uleb128 0x6
 12557 029b 40       		.uleb128 0x40
 12558 029c 18       		.uleb128 0x18
 12559 029d 9742     		.uleb128 0x2117
 12560 029f 19       		.uleb128 0x19
 12561 02a0 01       		.uleb128 0x1
 12562 02a1 13       		.uleb128 0x13
 12563 02a2 00       		.byte	0
 12564 02a3 00       		.byte	0
 12565 02a4 35       		.uleb128 0x35
 12566 02a5 34       		.uleb128 0x34
 12567 02a6 00       		.byte	0
 12568 02a7 31       		.uleb128 0x31
 12569 02a8 13       		.uleb128 0x13
 12570 02a9 02       		.uleb128 0x2
 12571 02aa 17       		.uleb128 0x17
 12572 02ab 00       		.byte	0
 12573 02ac 00       		.byte	0
 12574 02ad 36       		.uleb128 0x36
 12575 02ae 34       		.uleb128 0x34
 12576 02af 00       		.byte	0
 12577 02b0 31       		.uleb128 0x31
 12578 02b1 13       		.uleb128 0x13
 12579 02b2 00       		.byte	0
 12580 02b3 00       		.byte	0
 12581 02b4 37       		.uleb128 0x37
 12582 02b5 1D       		.uleb128 0x1d
 12583 02b6 01       		.byte	0x1
 12584 02b7 31       		.uleb128 0x31
 12585 02b8 13       		.uleb128 0x13
 12586 02b9 52       		.uleb128 0x52
 12587 02ba 01       		.uleb128 0x1
 12588 02bb 55       		.uleb128 0x55
 12589 02bc 17       		.uleb128 0x17
 12590 02bd 58       		.uleb128 0x58
 12591 02be 0B       		.uleb128 0xb
 12592 02bf 59       		.uleb128 0x59
 12593 02c0 05       		.uleb128 0x5
 12594 02c1 00       		.byte	0
 12595 02c2 00       		.byte	0
 12596 02c3 38       		.uleb128 0x38
 12597 02c4 05       		.uleb128 0x5
 12598 02c5 00       		.byte	0
ARM GAS  /var/folders/28/j9jfyj_n4wz3qtvnym210h2c0000gn/T//ccpoR13X.s 			page 223


 12599 02c6 31       		.uleb128 0x31
 12600 02c7 13       		.uleb128 0x13
 12601 02c8 1C       		.uleb128 0x1c
 12602 02c9 0B       		.uleb128 0xb
 12603 02ca 00       		.byte	0
 12604 02cb 00       		.byte	0
 12605 02cc 39       		.uleb128 0x39
 12606 02cd 05       		.uleb128 0x5
 12607 02ce 00       		.byte	0
 12608 02cf 31       		.uleb128 0x31
 12609 02d0 13       		.uleb128 0x13
 12610 02d1 02       		.uleb128 0x2
 12611 02d2 18       		.uleb128 0x18
 12612 02d3 00       		.byte	0
 12613 02d4 00       		.byte	0
 12614 02d5 3A       		.uleb128 0x3a
 12615 02d6 1D       		.uleb128 0x1d
 12616 02d7 01       		.byte	0x1
 12617 02d8 31       		.uleb128 0x31
 12618 02d9 13       		.uleb128 0x13
 12619 02da 11       		.uleb128 0x11
 12620 02db 01       		.uleb128 0x1
 12621 02dc 12       		.uleb128 0x12
 12622 02dd 06       		.uleb128 0x6
 12623 02de 58       		.uleb128 0x58
 12624 02df 0B       		.uleb128 0xb
 12625 02e0 59       		.uleb128 0x59
 12626 02e1 05       		.uleb128 0x5
 12627 02e2 01       		.uleb128 0x1
 12628 02e3 13       		.uleb128 0x13
 12629 02e4 00       		.byte	0
 12630 02e5 00       		.byte	0
 12631 02e6 3B       		.uleb128 0x3b
 12632 02e7 2E       		.uleb128 0x2e
 12633 02e8 01       		.byte	0x1
 12634 02e9 3F       		.uleb128 0x3f
 12635 02ea 19       		.uleb128 0x19
 12636 02eb 03       		.uleb128 0x3
 12637 02ec 0E       		.uleb128 0xe
 12638 02ed 3A       		.uleb128 0x3a
 12639 02ee 0B       		.uleb128 0xb
 12640 02ef 3B       		.uleb128 0x3b
 12641 02f0 0B       		.uleb128 0xb
 12642 02f1 27       		.uleb128 0x27
 12643 02f2 19       		.uleb128 0x19
 12644 02f3 11       		.uleb128 0x11
 12645 02f4 01       		.uleb128 0x1
 12646 02f5 12       		.uleb128 0x12
 12647 02f6 06       		.uleb128 0x6
 12648 02f7 40       		.uleb128 0x40
 12649 02f8 18       		.uleb128 0x18
 12650 02f9 9742     		.uleb128 0x2117
 12651 02fb 19       		.uleb128 0x19
 12652 02fc 01       		.uleb128 0x1
 12653 02fd 13       		.uleb128 0x13
 12654 02fe 00       		.byte	0
 12655 02ff 00       		.byte	0
ARM GAS  /var/folders/28/j9jfyj_n4wz3qtvnym210h2c0000gn/T//ccpoR13X.s 			page 224


 12656 0300 3C       		.uleb128 0x3c
 12657 0301 05       		.uleb128 0x5
 12658 0302 00       		.byte	0
 12659 0303 03       		.uleb128 0x3
 12660 0304 08       		.uleb128 0x8
 12661 0305 3A       		.uleb128 0x3a
 12662 0306 0B       		.uleb128 0xb
 12663 0307 3B       		.uleb128 0x3b
 12664 0308 0B       		.uleb128 0xb
 12665 0309 49       		.uleb128 0x49
 12666 030a 13       		.uleb128 0x13
 12667 030b 02       		.uleb128 0x2
 12668 030c 18       		.uleb128 0x18
 12669 030d 00       		.byte	0
 12670 030e 00       		.byte	0
 12671 030f 3D       		.uleb128 0x3d
 12672 0310 05       		.uleb128 0x5
 12673 0311 00       		.byte	0
 12674 0312 03       		.uleb128 0x3
 12675 0313 0E       		.uleb128 0xe
 12676 0314 3A       		.uleb128 0x3a
 12677 0315 0B       		.uleb128 0xb
 12678 0316 3B       		.uleb128 0x3b
 12679 0317 0B       		.uleb128 0xb
 12680 0318 49       		.uleb128 0x49
 12681 0319 13       		.uleb128 0x13
 12682 031a 02       		.uleb128 0x2
 12683 031b 18       		.uleb128 0x18
 12684 031c 00       		.byte	0
 12685 031d 00       		.byte	0
 12686 031e 3E       		.uleb128 0x3e
 12687 031f 05       		.uleb128 0x5
 12688 0320 00       		.byte	0
 12689 0321 03       		.uleb128 0x3
 12690 0322 08       		.uleb128 0x8
 12691 0323 3A       		.uleb128 0x3a
 12692 0324 0B       		.uleb128 0xb
 12693 0325 3B       		.uleb128 0x3b
 12694 0326 0B       		.uleb128 0xb
 12695 0327 49       		.uleb128 0x49
 12696 0328 13       		.uleb128 0x13
 12697 0329 02       		.uleb128 0x2
 12698 032a 17       		.uleb128 0x17
 12699 032b 00       		.byte	0
 12700 032c 00       		.byte	0
 12701 032d 3F       		.uleb128 0x3f
 12702 032e 0B       		.uleb128 0xb
 12703 032f 01       		.byte	0x1
 12704 0330 55       		.uleb128 0x55
 12705 0331 17       		.uleb128 0x17
 12706 0332 00       		.byte	0
 12707 0333 00       		.byte	0
 12708 0334 40       		.uleb128 0x40
 12709 0335 898201   		.uleb128 0x4109
 12710 0338 01       		.byte	0x1
 12711 0339 11       		.uleb128 0x11
 12712 033a 01       		.uleb128 0x1
ARM GAS  /var/folders/28/j9jfyj_n4wz3qtvnym210h2c0000gn/T//ccpoR13X.s 			page 225


 12713 033b 9542     		.uleb128 0x2115
 12714 033d 19       		.uleb128 0x19
 12715 033e 31       		.uleb128 0x31
 12716 033f 13       		.uleb128 0x13
 12717 0340 01       		.uleb128 0x1
 12718 0341 13       		.uleb128 0x13
 12719 0342 00       		.byte	0
 12720 0343 00       		.byte	0
 12721 0344 41       		.uleb128 0x41
 12722 0345 898201   		.uleb128 0x4109
 12723 0348 01       		.byte	0x1
 12724 0349 11       		.uleb128 0x11
 12725 034a 01       		.uleb128 0x1
 12726 034b 9542     		.uleb128 0x2115
 12727 034d 19       		.uleb128 0x19
 12728 034e 31       		.uleb128 0x31
 12729 034f 13       		.uleb128 0x13
 12730 0350 00       		.byte	0
 12731 0351 00       		.byte	0
 12732 0352 42       		.uleb128 0x42
 12733 0353 05       		.uleb128 0x5
 12734 0354 00       		.byte	0
 12735 0355 03       		.uleb128 0x3
 12736 0356 0E       		.uleb128 0xe
 12737 0357 3A       		.uleb128 0x3a
 12738 0358 0B       		.uleb128 0xb
 12739 0359 3B       		.uleb128 0x3b
 12740 035a 0B       		.uleb128 0xb
 12741 035b 49       		.uleb128 0x49
 12742 035c 13       		.uleb128 0x13
 12743 035d 02       		.uleb128 0x2
 12744 035e 17       		.uleb128 0x17
 12745 035f 00       		.byte	0
 12746 0360 00       		.byte	0
 12747 0361 43       		.uleb128 0x43
 12748 0362 34       		.uleb128 0x34
 12749 0363 00       		.byte	0
 12750 0364 03       		.uleb128 0x3
 12751 0365 08       		.uleb128 0x8
 12752 0366 3A       		.uleb128 0x3a
 12753 0367 0B       		.uleb128 0xb
 12754 0368 3B       		.uleb128 0x3b
 12755 0369 0B       		.uleb128 0xb
 12756 036a 49       		.uleb128 0x49
 12757 036b 13       		.uleb128 0x13
 12758 036c 02       		.uleb128 0x2
 12759 036d 17       		.uleb128 0x17
 12760 036e 00       		.byte	0
 12761 036f 00       		.byte	0
 12762 0370 44       		.uleb128 0x44
 12763 0371 2E       		.uleb128 0x2e
 12764 0372 00       		.byte	0
 12765 0373 3F       		.uleb128 0x3f
 12766 0374 19       		.uleb128 0x19
 12767 0375 03       		.uleb128 0x3
 12768 0376 0E       		.uleb128 0xe
 12769 0377 3A       		.uleb128 0x3a
ARM GAS  /var/folders/28/j9jfyj_n4wz3qtvnym210h2c0000gn/T//ccpoR13X.s 			page 226


 12770 0378 0B       		.uleb128 0xb
 12771 0379 3B       		.uleb128 0x3b
 12772 037a 05       		.uleb128 0x5
 12773 037b 27       		.uleb128 0x27
 12774 037c 19       		.uleb128 0x19
 12775 037d 11       		.uleb128 0x11
 12776 037e 01       		.uleb128 0x1
 12777 037f 12       		.uleb128 0x12
 12778 0380 06       		.uleb128 0x6
 12779 0381 40       		.uleb128 0x40
 12780 0382 18       		.uleb128 0x18
 12781 0383 9742     		.uleb128 0x2117
 12782 0385 19       		.uleb128 0x19
 12783 0386 00       		.byte	0
 12784 0387 00       		.byte	0
 12785 0388 45       		.uleb128 0x45
 12786 0389 05       		.uleb128 0x5
 12787 038a 00       		.byte	0
 12788 038b 31       		.uleb128 0x31
 12789 038c 13       		.uleb128 0x13
 12790 038d 00       		.byte	0
 12791 038e 00       		.byte	0
 12792 038f 46       		.uleb128 0x46
 12793 0390 05       		.uleb128 0x5
 12794 0391 00       		.byte	0
 12795 0392 03       		.uleb128 0x3
 12796 0393 08       		.uleb128 0x8
 12797 0394 3A       		.uleb128 0x3a
 12798 0395 0B       		.uleb128 0xb
 12799 0396 3B       		.uleb128 0x3b
 12800 0397 05       		.uleb128 0x5
 12801 0398 49       		.uleb128 0x49
 12802 0399 13       		.uleb128 0x13
 12803 039a 02       		.uleb128 0x2
 12804 039b 18       		.uleb128 0x18
 12805 039c 00       		.byte	0
 12806 039d 00       		.byte	0
 12807 039e 47       		.uleb128 0x47
 12808 039f 0B       		.uleb128 0xb
 12809 03a0 01       		.byte	0x1
 12810 03a1 11       		.uleb128 0x11
 12811 03a2 01       		.uleb128 0x1
 12812 03a3 12       		.uleb128 0x12
 12813 03a4 06       		.uleb128 0x6
 12814 03a5 00       		.byte	0
 12815 03a6 00       		.byte	0
 12816 03a7 48       		.uleb128 0x48
 12817 03a8 2E       		.uleb128 0x2e
 12818 03a9 01       		.byte	0x1
 12819 03aa 03       		.uleb128 0x3
 12820 03ab 0E       		.uleb128 0xe
 12821 03ac 3A       		.uleb128 0x3a
 12822 03ad 0B       		.uleb128 0xb
 12823 03ae 3B       		.uleb128 0x3b
 12824 03af 05       		.uleb128 0x5
 12825 03b0 27       		.uleb128 0x27
 12826 03b1 19       		.uleb128 0x19
ARM GAS  /var/folders/28/j9jfyj_n4wz3qtvnym210h2c0000gn/T//ccpoR13X.s 			page 227


 12827 03b2 20       		.uleb128 0x20
 12828 03b3 0B       		.uleb128 0xb
 12829 03b4 01       		.uleb128 0x1
 12830 03b5 13       		.uleb128 0x13
 12831 03b6 00       		.byte	0
 12832 03b7 00       		.byte	0
 12833 03b8 49       		.uleb128 0x49
 12834 03b9 0B       		.uleb128 0xb
 12835 03ba 01       		.byte	0x1
 12836 03bb 01       		.uleb128 0x1
 12837 03bc 13       		.uleb128 0x13
 12838 03bd 00       		.byte	0
 12839 03be 00       		.byte	0
 12840 03bf 4A       		.uleb128 0x4a
 12841 03c0 34       		.uleb128 0x34
 12842 03c1 00       		.byte	0
 12843 03c2 03       		.uleb128 0x3
 12844 03c3 0E       		.uleb128 0xe
 12845 03c4 3A       		.uleb128 0x3a
 12846 03c5 0B       		.uleb128 0xb
 12847 03c6 3B       		.uleb128 0x3b
 12848 03c7 05       		.uleb128 0x5
 12849 03c8 49       		.uleb128 0x49
 12850 03c9 13       		.uleb128 0x13
 12851 03ca 00       		.byte	0
 12852 03cb 00       		.byte	0
 12853 03cc 4B       		.uleb128 0x4b
 12854 03cd 2E       		.uleb128 0x2e
 12855 03ce 01       		.byte	0x1
 12856 03cf 3F       		.uleb128 0x3f
 12857 03d0 19       		.uleb128 0x19
 12858 03d1 03       		.uleb128 0x3
 12859 03d2 0E       		.uleb128 0xe
 12860 03d3 3A       		.uleb128 0x3a
 12861 03d4 0B       		.uleb128 0xb
 12862 03d5 3B       		.uleb128 0x3b
 12863 03d6 05       		.uleb128 0x5
 12864 03d7 27       		.uleb128 0x27
 12865 03d8 19       		.uleb128 0x19
 12866 03d9 11       		.uleb128 0x11
 12867 03da 01       		.uleb128 0x1
 12868 03db 12       		.uleb128 0x12
 12869 03dc 06       		.uleb128 0x6
 12870 03dd 40       		.uleb128 0x40
 12871 03de 18       		.uleb128 0x18
 12872 03df 01       		.uleb128 0x1
 12873 03e0 13       		.uleb128 0x13
 12874 03e1 00       		.byte	0
 12875 03e2 00       		.byte	0
 12876 03e3 4C       		.uleb128 0x4c
 12877 03e4 1D       		.uleb128 0x1d
 12878 03e5 01       		.byte	0x1
 12879 03e6 31       		.uleb128 0x31
 12880 03e7 13       		.uleb128 0x13
 12881 03e8 11       		.uleb128 0x11
 12882 03e9 01       		.uleb128 0x1
 12883 03ea 12       		.uleb128 0x12
ARM GAS  /var/folders/28/j9jfyj_n4wz3qtvnym210h2c0000gn/T//ccpoR13X.s 			page 228


 12884 03eb 06       		.uleb128 0x6
 12885 03ec 58       		.uleb128 0x58
 12886 03ed 0B       		.uleb128 0xb
 12887 03ee 59       		.uleb128 0x59
 12888 03ef 05       		.uleb128 0x5
 12889 03f0 00       		.byte	0
 12890 03f1 00       		.byte	0
 12891 03f2 4D       		.uleb128 0x4d
 12892 03f3 0B       		.uleb128 0xb
 12893 03f4 01       		.byte	0x1
 12894 03f5 11       		.uleb128 0x11
 12895 03f6 01       		.uleb128 0x1
 12896 03f7 12       		.uleb128 0x12
 12897 03f8 06       		.uleb128 0x6
 12898 03f9 01       		.uleb128 0x1
 12899 03fa 13       		.uleb128 0x13
 12900 03fb 00       		.byte	0
 12901 03fc 00       		.byte	0
 12902 03fd 4E       		.uleb128 0x4e
 12903 03fe 34       		.uleb128 0x34
 12904 03ff 00       		.byte	0
 12905 0400 03       		.uleb128 0x3
 12906 0401 0E       		.uleb128 0xe
 12907 0402 3A       		.uleb128 0x3a
 12908 0403 0B       		.uleb128 0xb
 12909 0404 3B       		.uleb128 0x3b
 12910 0405 05       		.uleb128 0x5
 12911 0406 49       		.uleb128 0x49
 12912 0407 13       		.uleb128 0x13
 12913 0408 02       		.uleb128 0x2
 12914 0409 18       		.uleb128 0x18
 12915 040a 00       		.byte	0
 12916 040b 00       		.byte	0
 12917 040c 4F       		.uleb128 0x4f
 12918 040d 34       		.uleb128 0x34
 12919 040e 00       		.byte	0
 12920 040f 03       		.uleb128 0x3
 12921 0410 0E       		.uleb128 0xe
 12922 0411 3A       		.uleb128 0x3a
 12923 0412 0B       		.uleb128 0xb
 12924 0413 3B       		.uleb128 0x3b
 12925 0414 0B       		.uleb128 0xb
 12926 0415 49       		.uleb128 0x49
 12927 0416 13       		.uleb128 0x13
 12928 0417 3F       		.uleb128 0x3f
 12929 0418 19       		.uleb128 0x19
 12930 0419 02       		.uleb128 0x2
 12931 041a 18       		.uleb128 0x18
 12932 041b 00       		.byte	0
 12933 041c 00       		.byte	0
 12934 041d 50       		.uleb128 0x50
 12935 041e 34       		.uleb128 0x34
 12936 041f 00       		.byte	0
 12937 0420 03       		.uleb128 0x3
 12938 0421 0E       		.uleb128 0xe
 12939 0422 3A       		.uleb128 0x3a
 12940 0423 0B       		.uleb128 0xb
ARM GAS  /var/folders/28/j9jfyj_n4wz3qtvnym210h2c0000gn/T//ccpoR13X.s 			page 229


 12941 0424 3B       		.uleb128 0x3b
 12942 0425 05       		.uleb128 0x5
 12943 0426 49       		.uleb128 0x49
 12944 0427 13       		.uleb128 0x13
 12945 0428 3F       		.uleb128 0x3f
 12946 0429 19       		.uleb128 0x19
 12947 042a 02       		.uleb128 0x2
 12948 042b 18       		.uleb128 0x18
 12949 042c 00       		.byte	0
 12950 042d 00       		.byte	0
 12951 042e 51       		.uleb128 0x51
 12952 042f 34       		.uleb128 0x34
 12953 0430 00       		.byte	0
 12954 0431 03       		.uleb128 0x3
 12955 0432 0E       		.uleb128 0xe
 12956 0433 3A       		.uleb128 0x3a
 12957 0434 0B       		.uleb128 0xb
 12958 0435 3B       		.uleb128 0x3b
 12959 0436 0B       		.uleb128 0xb
 12960 0437 49       		.uleb128 0x49
 12961 0438 13       		.uleb128 0x13
 12962 0439 3F       		.uleb128 0x3f
 12963 043a 19       		.uleb128 0x19
 12964 043b 3C       		.uleb128 0x3c
 12965 043c 19       		.uleb128 0x19
 12966 043d 00       		.byte	0
 12967 043e 00       		.byte	0
 12968 043f 52       		.uleb128 0x52
 12969 0440 34       		.uleb128 0x34
 12970 0441 00       		.byte	0
 12971 0442 03       		.uleb128 0x3
 12972 0443 0E       		.uleb128 0xe
 12973 0444 3A       		.uleb128 0x3a
 12974 0445 0B       		.uleb128 0xb
 12975 0446 3B       		.uleb128 0x3b
 12976 0447 05       		.uleb128 0x5
 12977 0448 49       		.uleb128 0x49
 12978 0449 13       		.uleb128 0x13
 12979 044a 3F       		.uleb128 0x3f
 12980 044b 19       		.uleb128 0x19
 12981 044c 3C       		.uleb128 0x3c
 12982 044d 19       		.uleb128 0x19
 12983 044e 00       		.byte	0
 12984 044f 00       		.byte	0
 12985 0450 53       		.uleb128 0x53
 12986 0451 2E       		.uleb128 0x2e
 12987 0452 01       		.byte	0x1
 12988 0453 3F       		.uleb128 0x3f
 12989 0454 19       		.uleb128 0x19
 12990 0455 03       		.uleb128 0x3
 12991 0456 0E       		.uleb128 0xe
 12992 0457 3A       		.uleb128 0x3a
 12993 0458 0B       		.uleb128 0xb
 12994 0459 3B       		.uleb128 0x3b
 12995 045a 0B       		.uleb128 0xb
 12996 045b 6E       		.uleb128 0x6e
 12997 045c 0E       		.uleb128 0xe
ARM GAS  /var/folders/28/j9jfyj_n4wz3qtvnym210h2c0000gn/T//ccpoR13X.s 			page 230


 12998 045d 27       		.uleb128 0x27
 12999 045e 19       		.uleb128 0x19
 13000 045f 49       		.uleb128 0x49
 13001 0460 13       		.uleb128 0x13
 13002 0461 3C       		.uleb128 0x3c
 13003 0462 19       		.uleb128 0x19
 13004 0463 01       		.uleb128 0x1
 13005 0464 13       		.uleb128 0x13
 13006 0465 00       		.byte	0
 13007 0466 00       		.byte	0
 13008 0467 54       		.uleb128 0x54
 13009 0468 2E       		.uleb128 0x2e
 13010 0469 01       		.byte	0x1
 13011 046a 3F       		.uleb128 0x3f
 13012 046b 19       		.uleb128 0x19
 13013 046c 03       		.uleb128 0x3
 13014 046d 0E       		.uleb128 0xe
 13015 046e 3A       		.uleb128 0x3a
 13016 046f 0B       		.uleb128 0xb
 13017 0470 3B       		.uleb128 0x3b
 13018 0471 0B       		.uleb128 0xb
 13019 0472 27       		.uleb128 0x27
 13020 0473 19       		.uleb128 0x19
 13021 0474 3C       		.uleb128 0x3c
 13022 0475 19       		.uleb128 0x19
 13023 0476 01       		.uleb128 0x1
 13024 0477 13       		.uleb128 0x13
 13025 0478 00       		.byte	0
 13026 0479 00       		.byte	0
 13027 047a 55       		.uleb128 0x55
 13028 047b 2E       		.uleb128 0x2e
 13029 047c 01       		.byte	0x1
 13030 047d 3F       		.uleb128 0x3f
 13031 047e 19       		.uleb128 0x19
 13032 047f 03       		.uleb128 0x3
 13033 0480 0E       		.uleb128 0xe
 13034 0481 27       		.uleb128 0x27
 13035 0482 19       		.uleb128 0x19
 13036 0483 49       		.uleb128 0x49
 13037 0484 13       		.uleb128 0x13
 13038 0485 34       		.uleb128 0x34
 13039 0486 19       		.uleb128 0x19
 13040 0487 3C       		.uleb128 0x3c
 13041 0488 19       		.uleb128 0x19
 13042 0489 01       		.uleb128 0x1
 13043 048a 13       		.uleb128 0x13
 13044 048b 00       		.byte	0
 13045 048c 00       		.byte	0
 13046 048d 56       		.uleb128 0x56
 13047 048e 26       		.uleb128 0x26
 13048 048f 00       		.byte	0
 13049 0490 00       		.byte	0
 13050 0491 00       		.byte	0
 13051 0492 57       		.uleb128 0x57
 13052 0493 2E       		.uleb128 0x2e
 13053 0494 01       		.byte	0x1
 13054 0495 3F       		.uleb128 0x3f
ARM GAS  /var/folders/28/j9jfyj_n4wz3qtvnym210h2c0000gn/T//ccpoR13X.s 			page 231


 13055 0496 19       		.uleb128 0x19
 13056 0497 03       		.uleb128 0x3
 13057 0498 0E       		.uleb128 0xe
 13058 0499 3A       		.uleb128 0x3a
 13059 049a 0B       		.uleb128 0xb
 13060 049b 3B       		.uleb128 0x3b
 13061 049c 0B       		.uleb128 0xb
 13062 049d 27       		.uleb128 0x27
 13063 049e 19       		.uleb128 0x19
 13064 049f 49       		.uleb128 0x49
 13065 04a0 13       		.uleb128 0x13
 13066 04a1 3C       		.uleb128 0x3c
 13067 04a2 19       		.uleb128 0x19
 13068 04a3 01       		.uleb128 0x1
 13069 04a4 13       		.uleb128 0x13
 13070 04a5 00       		.byte	0
 13071 04a6 00       		.byte	0
 13072 04a7 58       		.uleb128 0x58
 13073 04a8 2E       		.uleb128 0x2e
 13074 04a9 00       		.byte	0
 13075 04aa 3F       		.uleb128 0x3f
 13076 04ab 19       		.uleb128 0x19
 13077 04ac 03       		.uleb128 0x3
 13078 04ad 0E       		.uleb128 0xe
 13079 04ae 3A       		.uleb128 0x3a
 13080 04af 0B       		.uleb128 0xb
 13081 04b0 3B       		.uleb128 0x3b
 13082 04b1 0B       		.uleb128 0xb
 13083 04b2 27       		.uleb128 0x27
 13084 04b3 19       		.uleb128 0x19
 13085 04b4 3C       		.uleb128 0x3c
 13086 04b5 19       		.uleb128 0x19
 13087 04b6 00       		.byte	0
 13088 04b7 00       		.byte	0
 13089 04b8 59       		.uleb128 0x59
 13090 04b9 2E       		.uleb128 0x2e
 13091 04ba 01       		.byte	0x1
 13092 04bb 3F       		.uleb128 0x3f
 13093 04bc 19       		.uleb128 0x19
 13094 04bd 03       		.uleb128 0x3
 13095 04be 0E       		.uleb128 0xe
 13096 04bf 3A       		.uleb128 0x3a
 13097 04c0 0B       		.uleb128 0xb
 13098 04c1 3B       		.uleb128 0x3b
 13099 04c2 05       		.uleb128 0x5
 13100 04c3 27       		.uleb128 0x27
 13101 04c4 19       		.uleb128 0x19
 13102 04c5 3C       		.uleb128 0x3c
 13103 04c6 19       		.uleb128 0x19
 13104 04c7 01       		.uleb128 0x1
 13105 04c8 13       		.uleb128 0x13
 13106 04c9 00       		.byte	0
 13107 04ca 00       		.byte	0
 13108 04cb 5A       		.uleb128 0x5a
 13109 04cc 2E       		.uleb128 0x2e
 13110 04cd 01       		.byte	0x1
 13111 04ce 3F       		.uleb128 0x3f
ARM GAS  /var/folders/28/j9jfyj_n4wz3qtvnym210h2c0000gn/T//ccpoR13X.s 			page 232


 13112 04cf 19       		.uleb128 0x19
 13113 04d0 03       		.uleb128 0x3
 13114 04d1 0E       		.uleb128 0xe
 13115 04d2 3A       		.uleb128 0x3a
 13116 04d3 0B       		.uleb128 0xb
 13117 04d4 3B       		.uleb128 0x3b
 13118 04d5 05       		.uleb128 0x5
 13119 04d6 27       		.uleb128 0x27
 13120 04d7 19       		.uleb128 0x19
 13121 04d8 49       		.uleb128 0x49
 13122 04d9 13       		.uleb128 0x13
 13123 04da 3C       		.uleb128 0x3c
 13124 04db 19       		.uleb128 0x19
 13125 04dc 01       		.uleb128 0x1
 13126 04dd 13       		.uleb128 0x13
 13127 04de 00       		.byte	0
 13128 04df 00       		.byte	0
 13129 04e0 00       		.byte	0
 13130              		.section	.debug_loc,"",%progbits
 13131              	.Ldebug_loc0:
 13132              	.LLST0:
 13133 0000 12000000 		.4byte	.LVL0-.Ltext0
 13134 0004 2B000000 		.4byte	.LVL1-1-.Ltext0
 13135 0008 0100     		.2byte	0x1
 13136 000a 52       		.byte	0x52
 13137 000b 00000000 		.4byte	0
 13138 000f 00000000 		.4byte	0
 13139              	.LLST1:
 13140 0013 5A000000 		.4byte	.LVL4-.Ltext0
 13141 0017 68000000 		.4byte	.LVL5-.Ltext0
 13142 001b 0100     		.2byte	0x1
 13143 001d 50       		.byte	0x50
 13144 001e 70000000 		.4byte	.LVL6-.Ltext0
 13145 0022 8C000000 		.4byte	.LVL7-.Ltext0
 13146 0026 0100     		.2byte	0x1
 13147 0028 50       		.byte	0x50
 13148 0029 F0000000 		.4byte	.LVL15-.Ltext0
 13149 002d F8000000 		.4byte	.LVL16-.Ltext0
 13150 0031 0100     		.2byte	0x1
 13151 0033 50       		.byte	0x50
 13152 0034 00000000 		.4byte	0
 13153 0038 00000000 		.4byte	0
 13154              	.LLST2:
 13155 003c 4A000000 		.4byte	.LVL3-.Ltext0
 13156 0040 68000000 		.4byte	.LVL5-.Ltext0
 13157 0044 0200     		.2byte	0x2
 13158 0046 30       		.byte	0x30
 13159 0047 9F       		.byte	0x9f
 13160 0048 68000000 		.4byte	.LVL5-.Ltext0
 13161 004c FE000000 		.4byte	.LVL17-.Ltext0
 13162 0050 0100     		.2byte	0x1
 13163 0052 54       		.byte	0x54
 13164 0053 FE000000 		.4byte	.LVL17-.Ltext0
 13165 0057 0A010000 		.4byte	.LVL18-.Ltext0
 13166 005b 0500     		.2byte	0x5
 13167 005d 03       		.byte	0x3
 13168 005e 10000000 		.4byte	LoadMenu+16
ARM GAS  /var/folders/28/j9jfyj_n4wz3qtvnym210h2c0000gn/T//ccpoR13X.s 			page 233


 13169 0062 00000000 		.4byte	0
 13170 0066 00000000 		.4byte	0
 13171              	.LLST3:
 13172 006a 70000000 		.4byte	.LVL6-.Ltext0
 13173 006e 8C000000 		.4byte	.LVL7-.Ltext0
 13174 0072 0400     		.2byte	0x4
 13175 0074 91       		.byte	0x91
 13176 0075 A57F     		.sleb128 -91
 13177 0077 9F       		.byte	0x9f
 13178 0078 8C000000 		.4byte	.LVL7-.Ltext0
 13179 007c 97000000 		.4byte	.LVL8-1-.Ltext0
 13180 0080 0100     		.2byte	0x1
 13181 0082 50       		.byte	0x50
 13182 0083 97000000 		.4byte	.LVL8-1-.Ltext0
 13183 0087 CA000000 		.4byte	.LVL11-.Ltext0
 13184 008b 0400     		.2byte	0x4
 13185 008d 91       		.byte	0x91
 13186 008e A57F     		.sleb128 -91
 13187 0090 9F       		.byte	0x9f
 13188 0091 CA000000 		.4byte	.LVL11-.Ltext0
 13189 0095 CD000000 		.4byte	.LVL12-1-.Ltext0
 13190 0099 0100     		.2byte	0x1
 13191 009b 51       		.byte	0x51
 13192 009c CD000000 		.4byte	.LVL12-1-.Ltext0
 13193 00a0 0A010000 		.4byte	.LVL18-.Ltext0
 13194 00a4 0400     		.2byte	0x4
 13195 00a6 91       		.byte	0x91
 13196 00a7 A57F     		.sleb128 -91
 13197 00a9 9F       		.byte	0x9f
 13198 00aa 00000000 		.4byte	0
 13199 00ae 00000000 		.4byte	0
 13200              	.LLST4:
 13201 00b2 98000000 		.4byte	.LVL8-.Ltext0
 13202 00b6 C6000000 		.4byte	.LVL10-.Ltext0
 13203 00ba 0100     		.2byte	0x1
 13204 00bc 50       		.byte	0x50
 13205 00bd C6000000 		.4byte	.LVL10-.Ltext0
 13206 00c1 CD000000 		.4byte	.LVL12-1-.Ltext0
 13207 00c5 0300     		.2byte	0x3
 13208 00c7 72       		.byte	0x72
 13209 00c8 7F       		.sleb128 -1
 13210 00c9 9F       		.byte	0x9f
 13211 00ca CD000000 		.4byte	.LVL12-1-.Ltext0
 13212 00ce F0000000 		.4byte	.LVL15-.Ltext0
 13213 00d2 0300     		.2byte	0x3
 13214 00d4 7A       		.byte	0x7a
 13215 00d5 7F       		.sleb128 -1
 13216 00d6 9F       		.byte	0x9f
 13217 00d7 00000000 		.4byte	0
 13218 00db 00000000 		.4byte	0
 13219              	.LLST5:
 13220 00df BE000000 		.4byte	.LVL9-.Ltext0
 13221 00e3 CD000000 		.4byte	.LVL12-1-.Ltext0
 13222 00e7 0100     		.2byte	0x1
 13223 00e9 53       		.byte	0x53
 13224 00ea 00000000 		.4byte	0
 13225 00ee 00000000 		.4byte	0
ARM GAS  /var/folders/28/j9jfyj_n4wz3qtvnym210h2c0000gn/T//ccpoR13X.s 			page 234


 13226              	.LLST6:
 13227 00f2 E2000000 		.4byte	.LVL13-.Ltext0
 13228 00f6 F0000000 		.4byte	.LVL15-.Ltext0
 13229 00fa 0600     		.2byte	0x6
 13230 00fc 03       		.byte	0x3
 13231 00fd 00000000 		.4byte	EnterMenuLoadFile
 13232 0101 9F       		.byte	0x9f
 13233 0102 00000000 		.4byte	0
 13234 0106 00000000 		.4byte	0
 13235              	.LLST7:
 13236 010a E2000000 		.4byte	.LVL13-.Ltext0
 13237 010e F0000000 		.4byte	.LVL15-.Ltext0
 13238 0112 0100     		.2byte	0x1
 13239 0114 53       		.byte	0x53
 13240 0115 00000000 		.4byte	0
 13241 0119 00000000 		.4byte	0
 13242              	.LLST8:
 13243 011d E2000000 		.4byte	.LVL13-.Ltext0
 13244 0121 F0000000 		.4byte	.LVL15-.Ltext0
 13245 0125 0200     		.2byte	0x2
 13246 0127 30       		.byte	0x30
 13247 0128 9F       		.byte	0x9f
 13248 0129 00000000 		.4byte	0
 13249 012d 00000000 		.4byte	0
 13250              	.LLST9:
 13251 0131 E2000000 		.4byte	.LVL13-.Ltext0
 13252 0135 EE000000 		.4byte	.LVL14-.Ltext0
 13253 0139 0B00     		.2byte	0xb
 13254 013b 74       		.byte	0x74
 13255 013c 00       		.sleb128 0
 13256 013d 48       		.byte	0x48
 13257 013e 1E       		.byte	0x1e
 13258 013f 03       		.byte	0x3
 13259 0140 00000000 		.4byte	TmpMenuKvps
 13260 0144 22       		.byte	0x22
 13261 0145 9F       		.byte	0x9f
 13262 0146 EE000000 		.4byte	.LVL14-.Ltext0
 13263 014a F0000000 		.4byte	.LVL15-.Ltext0
 13264 014e 0B00     		.2byte	0xb
 13265 0150 74       		.byte	0x74
 13266 0151 7F       		.sleb128 -1
 13267 0152 48       		.byte	0x48
 13268 0153 1E       		.byte	0x1e
 13269 0154 03       		.byte	0x3
 13270 0155 00000000 		.4byte	TmpMenuKvps
 13271 0159 22       		.byte	0x22
 13272 015a 9F       		.byte	0x9f
 13273 015b 00000000 		.4byte	0
 13274 015f 00000000 		.4byte	0
 13275              	.LLST10:
 13276 0163 F0000000 		.4byte	.LVL15-.Ltext0
 13277 0167 0A010000 		.4byte	.LVL18-.Ltext0
 13278 016b 0600     		.2byte	0x6
 13279 016d 03       		.byte	0x3
 13280 016e 00000000 		.4byte	TmpMenuKvps
 13281 0172 9F       		.byte	0x9f
 13282 0173 00000000 		.4byte	0
ARM GAS  /var/folders/28/j9jfyj_n4wz3qtvnym210h2c0000gn/T//ccpoR13X.s 			page 235


 13283 0177 00000000 		.4byte	0
 13284              	.LLST11:
 13285 017b F0000000 		.4byte	.LVL15-.Ltext0
 13286 017f FE000000 		.4byte	.LVL17-.Ltext0
 13287 0183 0100     		.2byte	0x1
 13288 0185 54       		.byte	0x54
 13289 0186 FE000000 		.4byte	.LVL17-.Ltext0
 13290 018a 0A010000 		.4byte	.LVL18-.Ltext0
 13291 018e 0500     		.2byte	0x5
 13292 0190 03       		.byte	0x3
 13293 0191 10000000 		.4byte	LoadMenu+16
 13294 0195 00000000 		.4byte	0
 13295 0199 00000000 		.4byte	0
 13296              	.LLST12:
 13297 019d F0000000 		.4byte	.LVL15-.Ltext0
 13298 01a1 0A010000 		.4byte	.LVL18-.Ltext0
 13299 01a5 0600     		.2byte	0x6
 13300 01a7 03       		.byte	0x3
 13301 01a8 04000000 		.4byte	.LC1
 13302 01ac 9F       		.byte	0x9f
 13303 01ad 00000000 		.4byte	0
 13304 01b1 00000000 		.4byte	0
 13305              	.LLST13:
 13306 01b5 F0000000 		.4byte	.LVL15-.Ltext0
 13307 01b9 0A010000 		.4byte	.LVL18-.Ltext0
 13308 01bd 0600     		.2byte	0x6
 13309 01bf 03       		.byte	0x3
 13310 01c0 00000000 		.4byte	KvpsHead
 13311 01c4 9F       		.byte	0x9f
 13312 01c5 00000000 		.4byte	0
 13313 01c9 00000000 		.4byte	0
 13314              	.LLST14:
 13315 01cd F0000000 		.4byte	.LVL15-.Ltext0
 13316 01d1 0A010000 		.4byte	.LVL18-.Ltext0
 13317 01d5 0600     		.2byte	0x6
 13318 01d7 03       		.byte	0x3
 13319 01d8 00000000 		.4byte	LoadMenu
 13320 01dc 9F       		.byte	0x9f
 13321 01dd 00000000 		.4byte	0
 13322 01e1 00000000 		.4byte	0
 13323              	.LLST15:
 13324 01e5 40010000 		.4byte	.LVL19-.Ltext0
 13325 01e9 4C010000 		.4byte	.LVL20-.Ltext0
 13326 01ed 0100     		.2byte	0x1
 13327 01ef 50       		.byte	0x50
 13328 01f0 4C010000 		.4byte	.LVL20-.Ltext0
 13329 01f4 70010000 		.4byte	.LFE195-.Ltext0
 13330 01f8 0400     		.2byte	0x4
 13331 01fa F3       		.byte	0xf3
 13332 01fb 01       		.uleb128 0x1
 13333 01fc 50       		.byte	0x50
 13334 01fd 9F       		.byte	0x9f
 13335 01fe 00000000 		.4byte	0
 13336 0202 00000000 		.4byte	0
 13337              	.LLST16:
 13338 0206 7C010000 		.4byte	.LVL25-.Ltext0
 13339 020a A2010000 		.4byte	.LVL28-.Ltext0
ARM GAS  /var/folders/28/j9jfyj_n4wz3qtvnym210h2c0000gn/T//ccpoR13X.s 			page 236


 13340 020e 0100     		.2byte	0x1
 13341 0210 50       		.byte	0x50
 13342 0211 00000000 		.4byte	0
 13343 0215 00000000 		.4byte	0
 13344              	.LLST17:
 13345 0219 80010000 		.4byte	.LVL26-.Ltext0
 13346 021d 98010000 		.4byte	.LVL27-.Ltext0
 13347 0221 0200     		.2byte	0x2
 13348 0223 30       		.byte	0x30
 13349 0224 9F       		.byte	0x9f
 13350 0225 00000000 		.4byte	0
 13351 0229 00000000 		.4byte	0
 13352              	.LLST19:
 13353 022d 80010000 		.4byte	.LVL26-.Ltext0
 13354 0231 98010000 		.4byte	.LVL27-.Ltext0
 13355 0235 0600     		.2byte	0x6
 13356 0237 03       		.byte	0x3
 13357 0238 20000000 		.4byte	.LC4
 13358 023c 9F       		.byte	0x9f
 13359 023d 00000000 		.4byte	0
 13360 0241 00000000 		.4byte	0
 13361              	.LLST20:
 13362 0245 80010000 		.4byte	.LVL26-.Ltext0
 13363 0249 98010000 		.4byte	.LVL27-.Ltext0
 13364 024d 0600     		.2byte	0x6
 13365 024f 03       		.byte	0x3
 13366 0250 00000000 		.4byte	KvpsHead
 13367 0254 9F       		.byte	0x9f
 13368 0255 00000000 		.4byte	0
 13369 0259 00000000 		.4byte	0
 13370              	.LLST21:
 13371 025d 80010000 		.4byte	.LVL26-.Ltext0
 13372 0261 98010000 		.4byte	.LVL27-.Ltext0
 13373 0265 0600     		.2byte	0x6
 13374 0267 03       		.byte	0x3
 13375 0268 00000000 		.4byte	TmpMenuKvps
 13376 026c 9F       		.byte	0x9f
 13377 026d 00000000 		.4byte	0
 13378 0271 00000000 		.4byte	0
 13379              	.LLST22:
 13380 0275 D0010000 		.4byte	.LVL29-.Ltext0
 13381 0279 E6010000 		.4byte	.LVL30-.Ltext0
 13382 027d 0200     		.2byte	0x2
 13383 027f 91       		.byte	0x91
 13384 0280 00       		.sleb128 0
 13385 0281 E6010000 		.4byte	.LVL30-.Ltext0
 13386 0285 E8010000 		.4byte	.LFE179-.Ltext0
 13387 0289 0200     		.2byte	0x2
 13388 028b 7D       		.byte	0x7d
 13389 028c 00       		.sleb128 0
 13390 028d 00000000 		.4byte	0
 13391 0291 00000000 		.4byte	0
 13392              	.LLST23:
 13393 0295 F0010000 		.4byte	.LVL31-.Ltext0
 13394 0299 06020000 		.4byte	.LVL32-.Ltext0
 13395 029d 0200     		.2byte	0x2
 13396 029f 91       		.byte	0x91
ARM GAS  /var/folders/28/j9jfyj_n4wz3qtvnym210h2c0000gn/T//ccpoR13X.s 			page 237


 13397 02a0 00       		.sleb128 0
 13398 02a1 06020000 		.4byte	.LVL32-.Ltext0
 13399 02a5 08020000 		.4byte	.LFE180-.Ltext0
 13400 02a9 0200     		.2byte	0x2
 13401 02ab 7D       		.byte	0x7d
 13402 02ac 00       		.sleb128 0
 13403 02ad 00000000 		.4byte	0
 13404 02b1 00000000 		.4byte	0
 13405              	.LLST24:
 13406 02b5 10020000 		.4byte	.LVL33-.Ltext0
 13407 02b9 26020000 		.4byte	.LVL34-.Ltext0
 13408 02bd 0200     		.2byte	0x2
 13409 02bf 91       		.byte	0x91
 13410 02c0 00       		.sleb128 0
 13411 02c1 26020000 		.4byte	.LVL34-.Ltext0
 13412 02c5 28020000 		.4byte	.LFE181-.Ltext0
 13413 02c9 0200     		.2byte	0x2
 13414 02cb 7D       		.byte	0x7d
 13415 02cc 00       		.sleb128 0
 13416 02cd 00000000 		.4byte	0
 13417 02d1 00000000 		.4byte	0
 13418              	.LLST25:
 13419 02d5 10020000 		.4byte	.LVL33-.Ltext0
 13420 02d9 26020000 		.4byte	.LVL34-.Ltext0
 13421 02dd 0200     		.2byte	0x2
 13422 02df 91       		.byte	0x91
 13423 02e0 04       		.sleb128 4
 13424 02e1 26020000 		.4byte	.LVL34-.Ltext0
 13425 02e5 28020000 		.4byte	.LFE181-.Ltext0
 13426 02e9 0200     		.2byte	0x2
 13427 02eb 7D       		.byte	0x7d
 13428 02ec 04       		.sleb128 4
 13429 02ed 00000000 		.4byte	0
 13430 02f1 00000000 		.4byte	0
 13431              	.LLST26:
 13432 02f5 30020000 		.4byte	.LVL35-.Ltext0
 13433 02f9 4A020000 		.4byte	.LVL36-.Ltext0
 13434 02fd 0200     		.2byte	0x2
 13435 02ff 91       		.byte	0x91
 13436 0300 00       		.sleb128 0
 13437 0301 4A020000 		.4byte	.LVL36-.Ltext0
 13438 0305 4C020000 		.4byte	.LFE182-.Ltext0
 13439 0309 0200     		.2byte	0x2
 13440 030b 7D       		.byte	0x7d
 13441 030c 00       		.sleb128 0
 13442 030d 00000000 		.4byte	0
 13443 0311 00000000 		.4byte	0
 13444              	.LLST27:
 13445 0315 30020000 		.4byte	.LVL35-.Ltext0
 13446 0319 4A020000 		.4byte	.LVL36-.Ltext0
 13447 031d 0200     		.2byte	0x2
 13448 031f 91       		.byte	0x91
 13449 0320 04       		.sleb128 4
 13450 0321 4A020000 		.4byte	.LVL36-.Ltext0
 13451 0325 4C020000 		.4byte	.LFE182-.Ltext0
 13452 0329 0200     		.2byte	0x2
 13453 032b 7D       		.byte	0x7d
ARM GAS  /var/folders/28/j9jfyj_n4wz3qtvnym210h2c0000gn/T//ccpoR13X.s 			page 238


 13454 032c 04       		.sleb128 4
 13455 032d 00000000 		.4byte	0
 13456 0331 00000000 		.4byte	0
 13457              	.LLST28:
 13458 0335 70020000 		.4byte	.LVL38-.Ltext0
 13459 0339 B2020000 		.4byte	.LVL41-.Ltext0
 13460 033d 0100     		.2byte	0x1
 13461 033f 50       		.byte	0x50
 13462 0340 B2020000 		.4byte	.LVL41-.Ltext0
 13463 0344 BC020000 		.4byte	.LVL42-.Ltext0
 13464 0348 0400     		.2byte	0x4
 13465 034a F3       		.byte	0xf3
 13466 034b 01       		.uleb128 0x1
 13467 034c 50       		.byte	0x50
 13468 034d 9F       		.byte	0x9f
 13469 034e BC020000 		.4byte	.LVL42-.Ltext0
 13470 0352 D2020000 		.4byte	.LVL43-.Ltext0
 13471 0356 0100     		.2byte	0x1
 13472 0358 50       		.byte	0x50
 13473 0359 D2020000 		.4byte	.LVL43-.Ltext0
 13474 035d DC020000 		.4byte	.LFE184-.Ltext0
 13475 0361 0400     		.2byte	0x4
 13476 0363 F3       		.byte	0xf3
 13477 0364 01       		.uleb128 0x1
 13478 0365 50       		.byte	0x50
 13479 0366 9F       		.byte	0x9f
 13480 0367 00000000 		.4byte	0
 13481 036b 00000000 		.4byte	0
 13482              	.LLST29:
 13483 036f A4020000 		.4byte	.LVL39-.Ltext0
 13484 0373 B2020000 		.4byte	.LVL41-.Ltext0
 13485 0377 0100     		.2byte	0x1
 13486 0379 50       		.byte	0x50
 13487 037a B2020000 		.4byte	.LVL41-.Ltext0
 13488 037e BC020000 		.4byte	.LVL42-.Ltext0
 13489 0382 0400     		.2byte	0x4
 13490 0384 F3       		.byte	0xf3
 13491 0385 01       		.uleb128 0x1
 13492 0386 50       		.byte	0x50
 13493 0387 9F       		.byte	0x9f
 13494 0388 D2020000 		.4byte	.LVL43-.Ltext0
 13495 038c DC020000 		.4byte	.LFE184-.Ltext0
 13496 0390 0400     		.2byte	0x4
 13497 0392 F3       		.byte	0xf3
 13498 0393 01       		.uleb128 0x1
 13499 0394 50       		.byte	0x50
 13500 0395 9F       		.byte	0x9f
 13501 0396 00000000 		.4byte	0
 13502 039a 00000000 		.4byte	0
 13503              	.LLST30:
 13504 039e AE020000 		.4byte	.LVL40-.Ltext0
 13505 03a2 BB020000 		.4byte	.LVL42-1-.Ltext0
 13506 03a6 0100     		.2byte	0x1
 13507 03a8 53       		.byte	0x53
 13508 03a9 D2020000 		.4byte	.LVL43-.Ltext0
 13509 03ad DB020000 		.4byte	.LVL44-1-.Ltext0
 13510 03b1 0100     		.2byte	0x1
ARM GAS  /var/folders/28/j9jfyj_n4wz3qtvnym210h2c0000gn/T//ccpoR13X.s 			page 239


 13511 03b3 53       		.byte	0x53
 13512 03b4 00000000 		.4byte	0
 13513 03b8 00000000 		.4byte	0
 13514              	.LLST31:
 13515 03bc E0020000 		.4byte	.LVL45-.Ltext0
 13516 03c0 24030000 		.4byte	.LVL48-.Ltext0
 13517 03c4 0100     		.2byte	0x1
 13518 03c6 50       		.byte	0x50
 13519 03c7 24030000 		.4byte	.LVL48-.Ltext0
 13520 03cb 2E030000 		.4byte	.LVL49-.Ltext0
 13521 03cf 0400     		.2byte	0x4
 13522 03d1 F3       		.byte	0xf3
 13523 03d2 01       		.uleb128 0x1
 13524 03d3 50       		.byte	0x50
 13525 03d4 9F       		.byte	0x9f
 13526 03d5 2E030000 		.4byte	.LVL49-.Ltext0
 13527 03d9 3E030000 		.4byte	.LVL50-.Ltext0
 13528 03dd 0100     		.2byte	0x1
 13529 03df 50       		.byte	0x50
 13530 03e0 3E030000 		.4byte	.LVL50-.Ltext0
 13531 03e4 48030000 		.4byte	.LFE185-.Ltext0
 13532 03e8 0400     		.2byte	0x4
 13533 03ea F3       		.byte	0xf3
 13534 03eb 01       		.uleb128 0x1
 13535 03ec 50       		.byte	0x50
 13536 03ed 9F       		.byte	0x9f
 13537 03ee 00000000 		.4byte	0
 13538 03f2 00000000 		.4byte	0
 13539              	.LLST32:
 13540 03f6 16030000 		.4byte	.LVL46-.Ltext0
 13541 03fa 24030000 		.4byte	.LVL48-.Ltext0
 13542 03fe 0100     		.2byte	0x1
 13543 0400 50       		.byte	0x50
 13544 0401 24030000 		.4byte	.LVL48-.Ltext0
 13545 0405 2E030000 		.4byte	.LVL49-.Ltext0
 13546 0409 0400     		.2byte	0x4
 13547 040b F3       		.byte	0xf3
 13548 040c 01       		.uleb128 0x1
 13549 040d 50       		.byte	0x50
 13550 040e 9F       		.byte	0x9f
 13551 040f 3E030000 		.4byte	.LVL50-.Ltext0
 13552 0413 48030000 		.4byte	.LFE185-.Ltext0
 13553 0417 0400     		.2byte	0x4
 13554 0419 F3       		.byte	0xf3
 13555 041a 01       		.uleb128 0x1
 13556 041b 50       		.byte	0x50
 13557 041c 9F       		.byte	0x9f
 13558 041d 00000000 		.4byte	0
 13559 0421 00000000 		.4byte	0
 13560              	.LLST33:
 13561 0425 20030000 		.4byte	.LVL47-.Ltext0
 13562 0429 2D030000 		.4byte	.LVL49-1-.Ltext0
 13563 042d 0100     		.2byte	0x1
 13564 042f 53       		.byte	0x53
 13565 0430 3E030000 		.4byte	.LVL50-.Ltext0
 13566 0434 47030000 		.4byte	.LVL51-1-.Ltext0
 13567 0438 0100     		.2byte	0x1
ARM GAS  /var/folders/28/j9jfyj_n4wz3qtvnym210h2c0000gn/T//ccpoR13X.s 			page 240


 13568 043a 53       		.byte	0x53
 13569 043b 00000000 		.4byte	0
 13570 043f 00000000 		.4byte	0
 13571              	.LLST34:
 13572 0443 50030000 		.4byte	.LVL52-.Ltext0
 13573 0447 57030000 		.4byte	.LVL53-1-.Ltext0
 13574 044b 0100     		.2byte	0x1
 13575 044d 50       		.byte	0x50
 13576 044e 57030000 		.4byte	.LVL53-1-.Ltext0
 13577 0452 CE030000 		.4byte	.LVL68-.Ltext0
 13578 0456 0100     		.2byte	0x1
 13579 0458 56       		.byte	0x56
 13580 0459 CE030000 		.4byte	.LVL68-.Ltext0
 13581 045d 06040000 		.4byte	.LVL80-.Ltext0
 13582 0461 0400     		.2byte	0x4
 13583 0463 76       		.byte	0x76
 13584 0464 847E     		.sleb128 -252
 13585 0466 9F       		.byte	0x9f
 13586 0467 06040000 		.4byte	.LVL80-.Ltext0
 13587 046b 1C040000 		.4byte	.LFE186-.Ltext0
 13588 046f 0400     		.2byte	0x4
 13589 0471 F3       		.byte	0xf3
 13590 0472 01       		.uleb128 0x1
 13591 0473 50       		.byte	0x50
 13592 0474 9F       		.byte	0x9f
 13593 0475 00000000 		.4byte	0
 13594 0479 00000000 		.4byte	0
 13595              	.LLST35:
 13596 047d 58030000 		.4byte	.LVL53-.Ltext0
 13597 0481 5A030000 		.4byte	.LVL54-.Ltext0
 13598 0485 0200     		.2byte	0x2
 13599 0487 30       		.byte	0x30
 13600 0488 9F       		.byte	0x9f
 13601 0489 5A030000 		.4byte	.LVL54-.Ltext0
 13602 048d 60030000 		.4byte	.LVL55-.Ltext0
 13603 0491 0100     		.2byte	0x1
 13604 0493 54       		.byte	0x54
 13605 0494 60030000 		.4byte	.LVL55-.Ltext0
 13606 0498 63030000 		.4byte	.LVL56-1-.Ltext0
 13607 049c 0100     		.2byte	0x1
 13608 049e 51       		.byte	0x51
 13609 049f 63030000 		.4byte	.LVL56-1-.Ltext0
 13610 04a3 64030000 		.4byte	.LVL56-.Ltext0
 13611 04a7 0300     		.2byte	0x3
 13612 04a9 74       		.byte	0x74
 13613 04aa 7F       		.sleb128 -1
 13614 04ab 9F       		.byte	0x9f
 13615 04ac 64030000 		.4byte	.LVL56-.Ltext0
 13616 04b0 CC030000 		.4byte	.LVL67-.Ltext0
 13617 04b4 0100     		.2byte	0x1
 13618 04b6 54       		.byte	0x54
 13619 04b7 CC030000 		.4byte	.LVL67-.Ltext0
 13620 04bb D2030000 		.4byte	.LVL69-.Ltext0
 13621 04bf 0200     		.2byte	0x2
 13622 04c1 30       		.byte	0x30
 13623 04c2 9F       		.byte	0x9f
 13624 04c3 D2030000 		.4byte	.LVL69-.Ltext0
ARM GAS  /var/folders/28/j9jfyj_n4wz3qtvnym210h2c0000gn/T//ccpoR13X.s 			page 241


 13625 04c7 DE030000 		.4byte	.LVL71-.Ltext0
 13626 04cb 0300     		.2byte	0x3
 13627 04cd 74       		.byte	0x74
 13628 04ce 71       		.sleb128 -15
 13629 04cf 9F       		.byte	0x9f
 13630 04d0 DE030000 		.4byte	.LVL71-.Ltext0
 13631 04d4 E4030000 		.4byte	.LVL72-.Ltext0
 13632 04d8 0300     		.2byte	0x3
 13633 04da 74       		.byte	0x74
 13634 04db 72       		.sleb128 -14
 13635 04dc 9F       		.byte	0x9f
 13636 04dd E4030000 		.4byte	.LVL72-.Ltext0
 13637 04e1 FC030000 		.4byte	.LVL77-.Ltext0
 13638 04e5 0300     		.2byte	0x3
 13639 04e7 74       		.byte	0x74
 13640 04e8 71       		.sleb128 -15
 13641 04e9 9F       		.byte	0x9f
 13642 04ea FC030000 		.4byte	.LVL77-.Ltext0
 13643 04ee 02040000 		.4byte	.LVL78-.Ltext0
 13644 04f2 0300     		.2byte	0x3
 13645 04f4 74       		.byte	0x74
 13646 04f5 72       		.sleb128 -14
 13647 04f6 9F       		.byte	0x9f
 13648 04f7 02040000 		.4byte	.LVL78-.Ltext0
 13649 04fb 04040000 		.4byte	.LVL79-.Ltext0
 13650 04ff 0300     		.2byte	0x3
 13651 0501 74       		.byte	0x74
 13652 0502 71       		.sleb128 -15
 13653 0503 9F       		.byte	0x9f
 13654 0504 00000000 		.4byte	0
 13655 0508 00000000 		.4byte	0
 13656              	.LLST36:
 13657 050c D2030000 		.4byte	.LVL69-.Ltext0
 13658 0510 DD030000 		.4byte	.LVL71-1-.Ltext0
 13659 0514 0100     		.2byte	0x1
 13660 0516 51       		.byte	0x51
 13661 0517 E6030000 		.4byte	.LVL73-.Ltext0
 13662 051b EA030000 		.4byte	.LVL74-.Ltext0
 13663 051f 0200     		.2byte	0x2
 13664 0521 75       		.byte	0x75
 13665 0522 00       		.sleb128 0
 13666 0523 EA030000 		.4byte	.LVL74-.Ltext0
 13667 0527 F0030000 		.4byte	.LVL75-.Ltext0
 13668 052b 0200     		.2byte	0x2
 13669 052d 75       		.byte	0x75
 13670 052e 7C       		.sleb128 -4
 13671 052f F0030000 		.4byte	.LVL75-.Ltext0
 13672 0533 FB030000 		.4byte	.LVL77-1-.Ltext0
 13673 0537 0100     		.2byte	0x1
 13674 0539 51       		.byte	0x51
 13675 053a FB030000 		.4byte	.LVL77-1-.Ltext0
 13676 053e 04040000 		.4byte	.LVL79-.Ltext0
 13677 0542 0200     		.2byte	0x2
 13678 0544 31       		.byte	0x31
 13679 0545 9F       		.byte	0x9f
 13680 0546 00000000 		.4byte	0
 13681 054a 00000000 		.4byte	0
ARM GAS  /var/folders/28/j9jfyj_n4wz3qtvnym210h2c0000gn/T//ccpoR13X.s 			page 242


 13682              	.LLST37:
 13683 054e 20040000 		.4byte	.LVL81-.Ltext0
 13684 0552 29040000 		.4byte	.LVL82-1-.Ltext0
 13685 0556 0100     		.2byte	0x1
 13686 0558 50       		.byte	0x50
 13687 0559 29040000 		.4byte	.LVL82-1-.Ltext0
 13688 055d 24050000 		.4byte	.LFE187-.Ltext0
 13689 0561 0100     		.2byte	0x1
 13690 0563 59       		.byte	0x59
 13691 0564 00000000 		.4byte	0
 13692 0568 00000000 		.4byte	0
 13693              	.LLST38:
 13694 056c 2A040000 		.4byte	.LVL82-.Ltext0
 13695 0570 2C040000 		.4byte	.LVL83-.Ltext0
 13696 0574 0200     		.2byte	0x2
 13697 0576 30       		.byte	0x30
 13698 0577 9F       		.byte	0x9f
 13699 0578 2C040000 		.4byte	.LVL83-.Ltext0
 13700 057c 32040000 		.4byte	.LVL84-.Ltext0
 13701 0580 0100     		.2byte	0x1
 13702 0582 54       		.byte	0x54
 13703 0583 32040000 		.4byte	.LVL84-.Ltext0
 13704 0587 35040000 		.4byte	.LVL85-1-.Ltext0
 13705 058b 0100     		.2byte	0x1
 13706 058d 51       		.byte	0x51
 13707 058e 35040000 		.4byte	.LVL85-1-.Ltext0
 13708 0592 36040000 		.4byte	.LVL85-.Ltext0
 13709 0596 0300     		.2byte	0x3
 13710 0598 74       		.byte	0x74
 13711 0599 7F       		.sleb128 -1
 13712 059a 9F       		.byte	0x9f
 13713 059b 36040000 		.4byte	.LVL85-.Ltext0
 13714 059f A6040000 		.4byte	.LVL97-.Ltext0
 13715 05a3 0100     		.2byte	0x1
 13716 05a5 54       		.byte	0x54
 13717 05a6 A6040000 		.4byte	.LVL97-.Ltext0
 13718 05aa AA040000 		.4byte	.LVL98-.Ltext0
 13719 05ae 0200     		.2byte	0x2
 13720 05b0 30       		.byte	0x30
 13721 05b1 9F       		.byte	0x9f
 13722 05b2 AA040000 		.4byte	.LVL98-.Ltext0
 13723 05b6 24050000 		.4byte	.LFE187-.Ltext0
 13724 05ba 0100     		.2byte	0x1
 13725 05bc 57       		.byte	0x57
 13726 05bd 00000000 		.4byte	0
 13727 05c1 00000000 		.4byte	0
 13728              	.LLST39:
 13729 05c5 AA040000 		.4byte	.LVL98-.Ltext0
 13730 05c9 B4040000 		.4byte	.LVL99-.Ltext0
 13731 05cd 0200     		.2byte	0x2
 13732 05cf 78       		.byte	0x78
 13733 05d0 04       		.sleb128 4
 13734 05d1 B4040000 		.4byte	.LVL99-.Ltext0
 13735 05d5 DE040000 		.4byte	.LVL104-.Ltext0
 13736 05d9 0100     		.2byte	0x1
 13737 05db 54       		.byte	0x54
 13738 05dc FA040000 		.4byte	.LVL108-.Ltext0
ARM GAS  /var/folders/28/j9jfyj_n4wz3qtvnym210h2c0000gn/T//ccpoR13X.s 			page 243


 13739 05e0 24050000 		.4byte	.LFE187-.Ltext0
 13740 05e4 0100     		.2byte	0x1
 13741 05e6 54       		.byte	0x54
 13742 05e7 00000000 		.4byte	0
 13743 05eb 00000000 		.4byte	0
 13744              	.LLST40:
 13745 05ef C0040000 		.4byte	.LVL100-.Ltext0
 13746 05f3 CA040000 		.4byte	.LVL101-.Ltext0
 13747 05f7 0700     		.2byte	0x7
 13748 05f9 77       		.byte	0x77
 13749 05fa 00       		.sleb128 0
 13750 05fb 33       		.byte	0x33
 13751 05fc 24       		.byte	0x24
 13752 05fd 79       		.byte	0x79
 13753 05fe 00       		.sleb128 0
 13754 05ff 22       		.byte	0x22
 13755 0600 CA040000 		.4byte	.LVL101-.Ltext0
 13756 0604 FC040000 		.4byte	.LVL109-.Ltext0
 13757 0608 0100     		.2byte	0x1
 13758 060a 55       		.byte	0x55
 13759 060b FC040000 		.4byte	.LVL109-.Ltext0
 13760 060f FE040000 		.4byte	.LVL110-.Ltext0
 13761 0613 0200     		.2byte	0x2
 13762 0615 31       		.byte	0x31
 13763 0616 9F       		.byte	0x9f
 13764 0617 00000000 		.4byte	0
 13765 061b 00000000 		.4byte	0
 13766              	.LLST41:
 13767 061f DA040000 		.4byte	.LVL103-.Ltext0
 13768 0623 E4040000 		.4byte	.LVL105-.Ltext0
 13769 0627 0100     		.2byte	0x1
 13770 0629 54       		.byte	0x54
 13771 062a E4040000 		.4byte	.LVL105-.Ltext0
 13772 062e E7040000 		.4byte	.LVL106-1-.Ltext0
 13773 0632 0100     		.2byte	0x1
 13774 0634 51       		.byte	0x51
 13775 0635 E7040000 		.4byte	.LVL106-1-.Ltext0
 13776 0639 E8040000 		.4byte	.LVL106-.Ltext0
 13777 063d 0300     		.2byte	0x3
 13778 063f 74       		.byte	0x74
 13779 0640 7F       		.sleb128 -1
 13780 0641 9F       		.byte	0x9f
 13781 0642 E8040000 		.4byte	.LVL106-.Ltext0
 13782 0646 FA040000 		.4byte	.LVL108-.Ltext0
 13783 064a 0100     		.2byte	0x1
 13784 064c 54       		.byte	0x54
 13785 064d 00000000 		.4byte	0
 13786 0651 00000000 		.4byte	0
 13787              	.LLST42:
 13788 0655 AC050000 		.4byte	.LVL116-.Ltext0
 13789 0659 AE050000 		.4byte	.LVL117-.Ltext0
 13790 065d 0100     		.2byte	0x1
 13791 065f 50       		.byte	0x50
 13792 0660 AE050000 		.4byte	.LVL117-.Ltext0
 13793 0664 5E060000 		.4byte	.LVL126-.Ltext0
 13794 0668 0100     		.2byte	0x1
 13795 066a 57       		.byte	0x57
ARM GAS  /var/folders/28/j9jfyj_n4wz3qtvnym210h2c0000gn/T//ccpoR13X.s 			page 244


 13796 066b 5E060000 		.4byte	.LVL126-.Ltext0
 13797 066f 70060000 		.4byte	.LVL128-.Ltext0
 13798 0673 0300     		.2byte	0x3
 13799 0675 74       		.byte	0x74
 13800 0676 D400     		.sleb128 84
 13801 0678 C2060000 		.4byte	.LVL133-.Ltext0
 13802 067c 34070000 		.4byte	.LFE197-.Ltext0
 13803 0680 0100     		.2byte	0x1
 13804 0682 57       		.byte	0x57
 13805 0683 00000000 		.4byte	0
 13806 0687 00000000 		.4byte	0
 13807              	.LLST43:
 13808 068b AC050000 		.4byte	.LVL116-.Ltext0
 13809 068f AE050000 		.4byte	.LVL117-.Ltext0
 13810 0693 0300     		.2byte	0x3
 13811 0695 70       		.byte	0x70
 13812 0696 30       		.sleb128 48
 13813 0697 9F       		.byte	0x9f
 13814 0698 AE050000 		.4byte	.LVL117-.Ltext0
 13815 069c 5E060000 		.4byte	.LVL126-.Ltext0
 13816 06a0 0300     		.2byte	0x3
 13817 06a2 77       		.byte	0x77
 13818 06a3 30       		.sleb128 48
 13819 06a4 9F       		.byte	0x9f
 13820 06a5 5E060000 		.4byte	.LVL126-.Ltext0
 13821 06a9 70060000 		.4byte	.LVL128-.Ltext0
 13822 06ad 0700     		.2byte	0x7
 13823 06af 74       		.byte	0x74
 13824 06b0 D400     		.sleb128 84
 13825 06b2 06       		.byte	0x6
 13826 06b3 23       		.byte	0x23
 13827 06b4 30       		.uleb128 0x30
 13828 06b5 9F       		.byte	0x9f
 13829 06b6 C2060000 		.4byte	.LVL133-.Ltext0
 13830 06ba 34070000 		.4byte	.LFE197-.Ltext0
 13831 06be 0300     		.2byte	0x3
 13832 06c0 77       		.byte	0x77
 13833 06c1 30       		.sleb128 48
 13834 06c2 9F       		.byte	0x9f
 13835 06c3 00000000 		.4byte	0
 13836 06c7 00000000 		.4byte	0
 13837              	.LLST44:
 13838 06cb C2050000 		.4byte	.LVL119-.Ltext0
 13839 06cf C8050000 		.4byte	.LVL120-.Ltext0
 13840 06d3 0100     		.2byte	0x1
 13841 06d5 50       		.byte	0x50
 13842 06d6 C8050000 		.4byte	.LVL120-.Ltext0
 13843 06da 34070000 		.4byte	.LFE197-.Ltext0
 13844 06de 0100     		.2byte	0x1
 13845 06e0 54       		.byte	0x54
 13846 06e1 00000000 		.4byte	0
 13847 06e5 00000000 		.4byte	0
 13848              	.LLST45:
 13849 06e9 C2050000 		.4byte	.LVL119-.Ltext0
 13850 06ed E2050000 		.4byte	.LVL121-.Ltext0
 13851 06f1 0200     		.2byte	0x2
 13852 06f3 31       		.byte	0x31
ARM GAS  /var/folders/28/j9jfyj_n4wz3qtvnym210h2c0000gn/T//ccpoR13X.s 			page 245


 13853 06f4 9F       		.byte	0x9f
 13854 06f5 E2050000 		.4byte	.LVL121-.Ltext0
 13855 06f9 EC050000 		.4byte	.LVL122-.Ltext0
 13856 06fd 0200     		.2byte	0x2
 13857 06ff 32       		.byte	0x32
 13858 0700 9F       		.byte	0x9f
 13859 0701 EC050000 		.4byte	.LVL122-.Ltext0
 13860 0705 FA050000 		.4byte	.LVL123-.Ltext0
 13861 0709 0200     		.2byte	0x2
 13862 070b 33       		.byte	0x33
 13863 070c 9F       		.byte	0x9f
 13864 070d FA050000 		.4byte	.LVL123-.Ltext0
 13865 0711 40060000 		.4byte	.LVL124-.Ltext0
 13866 0715 0200     		.2byte	0x2
 13867 0717 34       		.byte	0x34
 13868 0718 9F       		.byte	0x9f
 13869 0719 40060000 		.4byte	.LVL124-.Ltext0
 13870 071d 50060000 		.4byte	.LVL125-.Ltext0
 13871 0721 0200     		.2byte	0x2
 13872 0723 35       		.byte	0x35
 13873 0724 9F       		.byte	0x9f
 13874 0725 50060000 		.4byte	.LVL125-.Ltext0
 13875 0729 C2060000 		.4byte	.LVL133-.Ltext0
 13876 072d 0200     		.2byte	0x2
 13877 072f 36       		.byte	0x36
 13878 0730 9F       		.byte	0x9f
 13879 0731 C2060000 		.4byte	.LVL133-.Ltext0
 13880 0735 34070000 		.4byte	.LFE197-.Ltext0
 13881 0739 0200     		.2byte	0x2
 13882 073b 33       		.byte	0x33
 13883 073c 9F       		.byte	0x9f
 13884 073d 00000000 		.4byte	0
 13885 0741 00000000 		.4byte	0
 13886              	.LLST46:
 13887 0745 6E060000 		.4byte	.LVL127-.Ltext0
 13888 0749 70060000 		.4byte	.LVL128-.Ltext0
 13889 074d 0200     		.2byte	0x2
 13890 074f 30       		.byte	0x30
 13891 0750 9F       		.byte	0x9f
 13892 0751 70060000 		.4byte	.LVL128-.Ltext0
 13893 0755 C2060000 		.4byte	.LVL133-.Ltext0
 13894 0759 0100     		.2byte	0x1
 13895 075b 5A       		.byte	0x5a
 13896 075c 00000000 		.4byte	0
 13897 0760 00000000 		.4byte	0
 13898              	.LLST48:
 13899 0764 AC050000 		.4byte	.LVL116-.Ltext0
 13900 0768 AE050000 		.4byte	.LVL117-.Ltext0
 13901 076c 0300     		.2byte	0x3
 13902 076e 70       		.byte	0x70
 13903 076f 18       		.sleb128 24
 13904 0770 9F       		.byte	0x9f
 13905 0771 AE050000 		.4byte	.LVL117-.Ltext0
 13906 0775 5E060000 		.4byte	.LVL126-.Ltext0
 13907 0779 0300     		.2byte	0x3
 13908 077b 77       		.byte	0x77
 13909 077c 18       		.sleb128 24
ARM GAS  /var/folders/28/j9jfyj_n4wz3qtvnym210h2c0000gn/T//ccpoR13X.s 			page 246


 13910 077d 9F       		.byte	0x9f
 13911 077e 5E060000 		.4byte	.LVL126-.Ltext0
 13912 0782 70060000 		.4byte	.LVL128-.Ltext0
 13913 0786 0700     		.2byte	0x7
 13914 0788 74       		.byte	0x74
 13915 0789 D400     		.sleb128 84
 13916 078b 06       		.byte	0x6
 13917 078c 23       		.byte	0x23
 13918 078d 18       		.uleb128 0x18
 13919 078e 9F       		.byte	0x9f
 13920 078f C2060000 		.4byte	.LVL133-.Ltext0
 13921 0793 34070000 		.4byte	.LFE197-.Ltext0
 13922 0797 0300     		.2byte	0x3
 13923 0799 77       		.byte	0x77
 13924 079a 18       		.sleb128 24
 13925 079b 9F       		.byte	0x9f
 13926 079c 00000000 		.4byte	0
 13927 07a0 00000000 		.4byte	0
 13928              	.LLST50:
 13929 07a4 EC050000 		.4byte	.LVL122-.Ltext0
 13930 07a8 FA050000 		.4byte	.LVL123-.Ltext0
 13931 07ac 0600     		.2byte	0x6
 13932 07ae 03       		.byte	0x3
 13933 07af 00000000 		.4byte	EnterMenuLoad
 13934 07b3 9F       		.byte	0x9f
 13935 07b4 00000000 		.4byte	0
 13936 07b8 00000000 		.4byte	0
 13937              	.LLST51:
 13938 07bc EC050000 		.4byte	.LVL122-.Ltext0
 13939 07c0 FA050000 		.4byte	.LVL123-.Ltext0
 13940 07c4 0600     		.2byte	0x6
 13941 07c6 03       		.byte	0x3
 13942 07c7 04000000 		.4byte	.LC1
 13943 07cb 9F       		.byte	0x9f
 13944 07cc 00000000 		.4byte	0
 13945 07d0 00000000 		.4byte	0
 13946              	.LLST52:
 13947 07d4 EC050000 		.4byte	.LVL122-.Ltext0
 13948 07d8 FA050000 		.4byte	.LVL123-.Ltext0
 13949 07dc 0600     		.2byte	0x6
 13950 07de 03       		.byte	0x3
 13951 07df 00000000 		.4byte	KvpsHead
 13952 07e3 9F       		.byte	0x9f
 13953 07e4 00000000 		.4byte	0
 13954 07e8 00000000 		.4byte	0
 13955              	.LLST53:
 13956 07ec EC050000 		.4byte	.LVL122-.Ltext0
 13957 07f0 FA050000 		.4byte	.LVL123-.Ltext0
 13958 07f4 0300     		.2byte	0x3
 13959 07f6 74       		.byte	0x74
 13960 07f7 30       		.sleb128 48
 13961 07f8 9F       		.byte	0x9f
 13962 07f9 00000000 		.4byte	0
 13963 07fd 00000000 		.4byte	0
 13964              	.LLST54:
 13965 0801 FA050000 		.4byte	.LVL123-.Ltext0
 13966 0805 5E060000 		.4byte	.LVL126-.Ltext0
ARM GAS  /var/folders/28/j9jfyj_n4wz3qtvnym210h2c0000gn/T//ccpoR13X.s 			page 247


 13967 0809 0100     		.2byte	0x1
 13968 080b 57       		.byte	0x57
 13969 080c 5E060000 		.4byte	.LVL126-.Ltext0
 13970 0810 70060000 		.4byte	.LVL128-.Ltext0
 13971 0814 0300     		.2byte	0x3
 13972 0816 74       		.byte	0x74
 13973 0817 D400     		.sleb128 84
 13974 0819 00000000 		.4byte	0
 13975 081d 00000000 		.4byte	0
 13976              	.LLST55:
 13977 0821 FA050000 		.4byte	.LVL123-.Ltext0
 13978 0825 C2060000 		.4byte	.LVL133-.Ltext0
 13979 0829 0200     		.2byte	0x2
 13980 082b 32       		.byte	0x32
 13981 082c 9F       		.byte	0x9f
 13982 082d 00000000 		.4byte	0
 13983 0831 00000000 		.4byte	0
 13984              	.LLST56:
 13985 0835 FA050000 		.4byte	.LVL123-.Ltext0
 13986 0839 C2060000 		.4byte	.LVL133-.Ltext0
 13987 083d 0600     		.2byte	0x6
 13988 083f 03       		.byte	0x3
 13989 0840 7C000000 		.4byte	.LC16
 13990 0844 9F       		.byte	0x9f
 13991 0845 00000000 		.4byte	0
 13992 0849 00000000 		.4byte	0
 13993              	.LLST57:
 13994 084d FA050000 		.4byte	.LVL123-.Ltext0
 13995 0851 C2060000 		.4byte	.LVL133-.Ltext0
 13996 0855 0600     		.2byte	0x6
 13997 0857 03       		.byte	0x3
 13998 0858 00000000 		.4byte	KvpsHead
 13999 085c 9F       		.byte	0x9f
 14000 085d 00000000 		.4byte	0
 14001 0861 00000000 		.4byte	0
 14002              	.LLST58:
 14003 0865 FA050000 		.4byte	.LVL123-.Ltext0
 14004 0869 C2060000 		.4byte	.LVL133-.Ltext0
 14005 086d 0400     		.2byte	0x4
 14006 086f 74       		.byte	0x74
 14007 0870 C800     		.sleb128 72
 14008 0872 9F       		.byte	0x9f
 14009 0873 00000000 		.4byte	0
 14010 0877 00000000 		.4byte	0
 14011              	.LLST59:
 14012 087b 6E060000 		.4byte	.LVL127-.Ltext0
 14013 087f C2060000 		.4byte	.LVL133-.Ltext0
 14014 0883 0100     		.2byte	0x1
 14015 0885 54       		.byte	0x54
 14016 0886 00000000 		.4byte	0
 14017 088a 00000000 		.4byte	0
 14018              	.LLST60:
 14019 088e 6E060000 		.4byte	.LVL127-.Ltext0
 14020 0892 C2060000 		.4byte	.LVL133-.Ltext0
 14021 0896 0200     		.2byte	0x2
 14022 0898 36       		.byte	0x36
 14023 0899 9F       		.byte	0x9f
ARM GAS  /var/folders/28/j9jfyj_n4wz3qtvnym210h2c0000gn/T//ccpoR13X.s 			page 248


 14024 089a 00000000 		.4byte	0
 14025 089e 00000000 		.4byte	0
 14026              	.LLST61:
 14027 08a2 6E060000 		.4byte	.LVL127-.Ltext0
 14028 08a6 C2060000 		.4byte	.LVL133-.Ltext0
 14029 08aa 0600     		.2byte	0x6
 14030 08ac 03       		.byte	0x3
 14031 08ad 9C000000 		.4byte	.LC19
 14032 08b1 9F       		.byte	0x9f
 14033 08b2 00000000 		.4byte	0
 14034 08b6 00000000 		.4byte	0
 14035              	.LLST62:
 14036 08ba 6E060000 		.4byte	.LVL127-.Ltext0
 14037 08be C2060000 		.4byte	.LVL133-.Ltext0
 14038 08c2 0200     		.2byte	0x2
 14039 08c4 30       		.byte	0x30
 14040 08c5 9F       		.byte	0x9f
 14041 08c6 00000000 		.4byte	0
 14042 08ca 00000000 		.4byte	0
 14043              	.LLST63:
 14044 08ce 6E060000 		.4byte	.LVL127-.Ltext0
 14045 08d2 C2060000 		.4byte	.LVL133-.Ltext0
 14046 08d6 0600     		.2byte	0x6
 14047 08d8 03       		.byte	0x3
 14048 08d9 00000000 		.4byte	KvpsHead
 14049 08dd 9F       		.byte	0x9f
 14050 08de 00000000 		.4byte	0
 14051 08e2 00000000 		.4byte	0
 14052              	.LLST64:
 14053 08e6 40060000 		.4byte	.LVL124-.Ltext0
 14054 08ea C2060000 		.4byte	.LVL133-.Ltext0
 14055 08ee 0600     		.2byte	0x6
 14056 08f0 03       		.byte	0x3
 14057 08f1 00000000 		.4byte	ADCkvps
 14058 08f5 9F       		.byte	0x9f
 14059 08f6 00000000 		.4byte	0
 14060 08fa 00000000 		.4byte	0
 14061              	.LLST65:
 14062 08fe 40060000 		.4byte	.LVL124-.Ltext0
 14063 0902 C2060000 		.4byte	.LVL133-.Ltext0
 14064 0906 0200     		.2byte	0x2
 14065 0908 33       		.byte	0x33
 14066 0909 9F       		.byte	0x9f
 14067 090a 00000000 		.4byte	0
 14068 090e 00000000 		.4byte	0
 14069              	.LLST66:
 14070 0912 40060000 		.4byte	.LVL124-.Ltext0
 14071 0916 C2060000 		.4byte	.LVL133-.Ltext0
 14072 091a 0600     		.2byte	0x6
 14073 091c 03       		.byte	0x3
 14074 091d 8C000000 		.4byte	.LC17
 14075 0921 9F       		.byte	0x9f
 14076 0922 00000000 		.4byte	0
 14077 0926 00000000 		.4byte	0
 14078              	.LLST67:
 14079 092a 40060000 		.4byte	.LVL124-.Ltext0
 14080 092e C2060000 		.4byte	.LVL133-.Ltext0
ARM GAS  /var/folders/28/j9jfyj_n4wz3qtvnym210h2c0000gn/T//ccpoR13X.s 			page 249


 14081 0932 0600     		.2byte	0x6
 14082 0934 03       		.byte	0x3
 14083 0935 00000000 		.4byte	KvpsHead
 14084 0939 9F       		.byte	0x9f
 14085 093a 00000000 		.4byte	0
 14086 093e 00000000 		.4byte	0
 14087              	.LLST68:
 14088 0942 40060000 		.4byte	.LVL124-.Ltext0
 14089 0946 C2060000 		.4byte	.LVL133-.Ltext0
 14090 094a 0400     		.2byte	0x4
 14091 094c 74       		.byte	0x74
 14092 094d E000     		.sleb128 96
 14093 094f 9F       		.byte	0x9f
 14094 0950 00000000 		.4byte	0
 14095 0954 00000000 		.4byte	0
 14096              	.LLST69:
 14097 0958 50060000 		.4byte	.LVL125-.Ltext0
 14098 095c C2060000 		.4byte	.LVL133-.Ltext0
 14099 0960 0300     		.2byte	0x3
 14100 0962 08       		.byte	0x8
 14101 0963 64       		.byte	0x64
 14102 0964 9F       		.byte	0x9f
 14103 0965 00000000 		.4byte	0
 14104 0969 00000000 		.4byte	0
 14105              	.LLST70:
 14106 096d 50060000 		.4byte	.LVL125-.Ltext0
 14107 0971 C2060000 		.4byte	.LVL133-.Ltext0
 14108 0975 0200     		.2byte	0x2
 14109 0977 30       		.byte	0x30
 14110 0978 9F       		.byte	0x9f
 14111 0979 00000000 		.4byte	0
 14112 097d 00000000 		.4byte	0
 14113              	.LLST71:
 14114 0981 50060000 		.4byte	.LVL125-.Ltext0
 14115 0985 C2060000 		.4byte	.LVL133-.Ltext0
 14116 0989 0600     		.2byte	0x6
 14117 098b 03       		.byte	0x3
 14118 098c 94000000 		.4byte	.LC18
 14119 0990 9F       		.byte	0x9f
 14120 0991 00000000 		.4byte	0
 14121 0995 00000000 		.4byte	0
 14122              	.LLST72:
 14123 0999 50060000 		.4byte	.LVL125-.Ltext0
 14124 099d C2060000 		.4byte	.LVL133-.Ltext0
 14125 09a1 0600     		.2byte	0x6
 14126 09a3 03       		.byte	0x3
 14127 09a4 00000000 		.4byte	KvpsHead
 14128 09a8 9F       		.byte	0x9f
 14129 09a9 00000000 		.4byte	0
 14130 09ad 00000000 		.4byte	0
 14131              	.LLST73:
 14132 09b1 50060000 		.4byte	.LVL125-.Ltext0
 14133 09b5 C2060000 		.4byte	.LVL133-.Ltext0
 14134 09b9 0400     		.2byte	0x4
 14135 09bb 74       		.byte	0x74
 14136 09bc F800     		.sleb128 120
 14137 09be 9F       		.byte	0x9f
ARM GAS  /var/folders/28/j9jfyj_n4wz3qtvnym210h2c0000gn/T//ccpoR13X.s 			page 250


 14138 09bf 00000000 		.4byte	0
 14139 09c3 00000000 		.4byte	0
 14140              	.LLST74:
 14141 09c7 7E060000 		.4byte	.LVL129-.Ltext0
 14142 09cb B6060000 		.4byte	.LVL131-.Ltext0
 14143 09cf 0100     		.2byte	0x1
 14144 09d1 50       		.byte	0x50
 14145 09d2 00000000 		.4byte	0
 14146 09d6 00000000 		.4byte	0
 14147              	.LLST75:
 14148 09da 80070000 		.4byte	.LVL135-.Ltext0
 14149 09de 8D070000 		.4byte	.LVL137-1-.Ltext0
 14150 09e2 0100     		.2byte	0x1
 14151 09e4 50       		.byte	0x50
 14152 09e5 8D070000 		.4byte	.LVL137-1-.Ltext0
 14153 09e9 78080000 		.4byte	.LFE200-.Ltext0
 14154 09ed 0400     		.2byte	0x4
 14155 09ef F3       		.byte	0xf3
 14156 09f0 01       		.uleb128 0x1
 14157 09f1 50       		.byte	0x50
 14158 09f2 9F       		.byte	0x9f
 14159 09f3 00000000 		.4byte	0
 14160 09f7 00000000 		.4byte	0
 14161              	.LLST76:
 14162 09fb 80070000 		.4byte	.LVL135-.Ltext0
 14163 09ff 8D070000 		.4byte	.LVL137-1-.Ltext0
 14164 0a03 0100     		.2byte	0x1
 14165 0a05 51       		.byte	0x51
 14166 0a06 8D070000 		.4byte	.LVL137-1-.Ltext0
 14167 0a0a BC070000 		.4byte	.LVL139-.Ltext0
 14168 0a0e 0100     		.2byte	0x1
 14169 0a10 55       		.byte	0x55
 14170 0a11 BC070000 		.4byte	.LVL139-.Ltext0
 14171 0a15 BF070000 		.4byte	.LVL140-1-.Ltext0
 14172 0a19 0100     		.2byte	0x1
 14173 0a1b 51       		.byte	0x51
 14174 0a1c BF070000 		.4byte	.LVL140-1-.Ltext0
 14175 0a20 C0070000 		.4byte	.LVL140-.Ltext0
 14176 0a24 0400     		.2byte	0x4
 14177 0a26 F3       		.byte	0xf3
 14178 0a27 01       		.uleb128 0x1
 14179 0a28 51       		.byte	0x51
 14180 0a29 9F       		.byte	0x9f
 14181 0a2a C0070000 		.4byte	.LVL140-.Ltext0
 14182 0a2e D6070000 		.4byte	.LVL142-.Ltext0
 14183 0a32 0100     		.2byte	0x1
 14184 0a34 55       		.byte	0x55
 14185 0a35 D6070000 		.4byte	.LVL142-.Ltext0
 14186 0a39 D9070000 		.4byte	.LVL143-1-.Ltext0
 14187 0a3d 0100     		.2byte	0x1
 14188 0a3f 51       		.byte	0x51
 14189 0a40 D9070000 		.4byte	.LVL143-1-.Ltext0
 14190 0a44 DA070000 		.4byte	.LVL143-.Ltext0
 14191 0a48 0400     		.2byte	0x4
 14192 0a4a F3       		.byte	0xf3
 14193 0a4b 01       		.uleb128 0x1
 14194 0a4c 51       		.byte	0x51
ARM GAS  /var/folders/28/j9jfyj_n4wz3qtvnym210h2c0000gn/T//ccpoR13X.s 			page 251


 14195 0a4d 9F       		.byte	0x9f
 14196 0a4e DA070000 		.4byte	.LVL143-.Ltext0
 14197 0a52 E6070000 		.4byte	.LVL144-.Ltext0
 14198 0a56 0100     		.2byte	0x1
 14199 0a58 55       		.byte	0x55
 14200 0a59 E6070000 		.4byte	.LVL144-.Ltext0
 14201 0a5d E9070000 		.4byte	.LVL145-1-.Ltext0
 14202 0a61 0100     		.2byte	0x1
 14203 0a63 51       		.byte	0x51
 14204 0a64 E9070000 		.4byte	.LVL145-1-.Ltext0
 14205 0a68 EA070000 		.4byte	.LVL145-.Ltext0
 14206 0a6c 0400     		.2byte	0x4
 14207 0a6e F3       		.byte	0xf3
 14208 0a6f 01       		.uleb128 0x1
 14209 0a70 51       		.byte	0x51
 14210 0a71 9F       		.byte	0x9f
 14211 0a72 EA070000 		.4byte	.LVL145-.Ltext0
 14212 0a76 02080000 		.4byte	.LVL147-.Ltext0
 14213 0a7a 0100     		.2byte	0x1
 14214 0a7c 55       		.byte	0x55
 14215 0a7d 02080000 		.4byte	.LVL147-.Ltext0
 14216 0a81 05080000 		.4byte	.LVL148-1-.Ltext0
 14217 0a85 0100     		.2byte	0x1
 14218 0a87 51       		.byte	0x51
 14219 0a88 05080000 		.4byte	.LVL148-1-.Ltext0
 14220 0a8c 06080000 		.4byte	.LVL148-.Ltext0
 14221 0a90 0400     		.2byte	0x4
 14222 0a92 F3       		.byte	0xf3
 14223 0a93 01       		.uleb128 0x1
 14224 0a94 51       		.byte	0x51
 14225 0a95 9F       		.byte	0x9f
 14226 0a96 06080000 		.4byte	.LVL148-.Ltext0
 14227 0a9a 12080000 		.4byte	.LVL149-.Ltext0
 14228 0a9e 0100     		.2byte	0x1
 14229 0aa0 55       		.byte	0x55
 14230 0aa1 12080000 		.4byte	.LVL149-.Ltext0
 14231 0aa5 15080000 		.4byte	.LVL150-1-.Ltext0
 14232 0aa9 0100     		.2byte	0x1
 14233 0aab 51       		.byte	0x51
 14234 0aac 15080000 		.4byte	.LVL150-1-.Ltext0
 14235 0ab0 16080000 		.4byte	.LVL150-.Ltext0
 14236 0ab4 0400     		.2byte	0x4
 14237 0ab6 F3       		.byte	0xf3
 14238 0ab7 01       		.uleb128 0x1
 14239 0ab8 51       		.byte	0x51
 14240 0ab9 9F       		.byte	0x9f
 14241 0aba 16080000 		.4byte	.LVL150-.Ltext0
 14242 0abe 24080000 		.4byte	.LVL151-.Ltext0
 14243 0ac2 0100     		.2byte	0x1
 14244 0ac4 55       		.byte	0x55
 14245 0ac5 24080000 		.4byte	.LVL151-.Ltext0
 14246 0ac9 27080000 		.4byte	.LVL152-1-.Ltext0
 14247 0acd 0100     		.2byte	0x1
 14248 0acf 51       		.byte	0x51
 14249 0ad0 27080000 		.4byte	.LVL152-1-.Ltext0
 14250 0ad4 28080000 		.4byte	.LVL152-.Ltext0
 14251 0ad8 0400     		.2byte	0x4
ARM GAS  /var/folders/28/j9jfyj_n4wz3qtvnym210h2c0000gn/T//ccpoR13X.s 			page 252


 14252 0ada F3       		.byte	0xf3
 14253 0adb 01       		.uleb128 0x1
 14254 0adc 51       		.byte	0x51
 14255 0add 9F       		.byte	0x9f
 14256 0ade 28080000 		.4byte	.LVL152-.Ltext0
 14257 0ae2 34080000 		.4byte	.LVL153-.Ltext0
 14258 0ae6 0100     		.2byte	0x1
 14259 0ae8 55       		.byte	0x55
 14260 0ae9 34080000 		.4byte	.LVL153-.Ltext0
 14261 0aed 37080000 		.4byte	.LVL154-1-.Ltext0
 14262 0af1 0100     		.2byte	0x1
 14263 0af3 51       		.byte	0x51
 14264 0af4 37080000 		.4byte	.LVL154-1-.Ltext0
 14265 0af8 38080000 		.4byte	.LVL154-.Ltext0
 14266 0afc 0400     		.2byte	0x4
 14267 0afe F3       		.byte	0xf3
 14268 0aff 01       		.uleb128 0x1
 14269 0b00 51       		.byte	0x51
 14270 0b01 9F       		.byte	0x9f
 14271 0b02 38080000 		.4byte	.LVL154-.Ltext0
 14272 0b06 44080000 		.4byte	.LVL155-.Ltext0
 14273 0b0a 0100     		.2byte	0x1
 14274 0b0c 55       		.byte	0x55
 14275 0b0d 44080000 		.4byte	.LVL155-.Ltext0
 14276 0b11 47080000 		.4byte	.LVL156-1-.Ltext0
 14277 0b15 0100     		.2byte	0x1
 14278 0b17 51       		.byte	0x51
 14279 0b18 47080000 		.4byte	.LVL156-1-.Ltext0
 14280 0b1c 48080000 		.4byte	.LVL156-.Ltext0
 14281 0b20 0400     		.2byte	0x4
 14282 0b22 F3       		.byte	0xf3
 14283 0b23 01       		.uleb128 0x1
 14284 0b24 51       		.byte	0x51
 14285 0b25 9F       		.byte	0x9f
 14286 0b26 48080000 		.4byte	.LVL156-.Ltext0
 14287 0b2a 60080000 		.4byte	.LVL158-.Ltext0
 14288 0b2e 0100     		.2byte	0x1
 14289 0b30 55       		.byte	0x55
 14290 0b31 60080000 		.4byte	.LVL158-.Ltext0
 14291 0b35 63080000 		.4byte	.LVL159-1-.Ltext0
 14292 0b39 0100     		.2byte	0x1
 14293 0b3b 51       		.byte	0x51
 14294 0b3c 63080000 		.4byte	.LVL159-1-.Ltext0
 14295 0b40 64080000 		.4byte	.LVL159-.Ltext0
 14296 0b44 0400     		.2byte	0x4
 14297 0b46 F3       		.byte	0xf3
 14298 0b47 01       		.uleb128 0x1
 14299 0b48 51       		.byte	0x51
 14300 0b49 9F       		.byte	0x9f
 14301 0b4a 64080000 		.4byte	.LVL159-.Ltext0
 14302 0b4e 66080000 		.4byte	.LVL160-.Ltext0
 14303 0b52 0100     		.2byte	0x1
 14304 0b54 55       		.byte	0x55
 14305 0b55 66080000 		.4byte	.LVL160-.Ltext0
 14306 0b59 78080000 		.4byte	.LFE200-.Ltext0
 14307 0b5d 0400     		.2byte	0x4
 14308 0b5f F3       		.byte	0xf3
ARM GAS  /var/folders/28/j9jfyj_n4wz3qtvnym210h2c0000gn/T//ccpoR13X.s 			page 253


 14309 0b60 01       		.uleb128 0x1
 14310 0b61 51       		.byte	0x51
 14311 0b62 9F       		.byte	0x9f
 14312 0b63 00000000 		.4byte	0
 14313 0b67 00000000 		.4byte	0
 14314              	.LLST77:
 14315 0b6b 80070000 		.4byte	.LVL135-.Ltext0
 14316 0b6f 88070000 		.4byte	.LVL136-.Ltext0
 14317 0b73 0100     		.2byte	0x1
 14318 0b75 52       		.byte	0x52
 14319 0b76 88070000 		.4byte	.LVL136-.Ltext0
 14320 0b7a BC070000 		.4byte	.LVL139-.Ltext0
 14321 0b7e 0100     		.2byte	0x1
 14322 0b80 54       		.byte	0x54
 14323 0b81 BC070000 		.4byte	.LVL139-.Ltext0
 14324 0b85 C0070000 		.4byte	.LVL140-.Ltext0
 14325 0b89 0400     		.2byte	0x4
 14326 0b8b F3       		.byte	0xf3
 14327 0b8c 01       		.uleb128 0x1
 14328 0b8d 52       		.byte	0x52
 14329 0b8e 9F       		.byte	0x9f
 14330 0b8f C0070000 		.4byte	.LVL140-.Ltext0
 14331 0b93 D6070000 		.4byte	.LVL142-.Ltext0
 14332 0b97 0100     		.2byte	0x1
 14333 0b99 54       		.byte	0x54
 14334 0b9a D6070000 		.4byte	.LVL142-.Ltext0
 14335 0b9e DA070000 		.4byte	.LVL143-.Ltext0
 14336 0ba2 0400     		.2byte	0x4
 14337 0ba4 F3       		.byte	0xf3
 14338 0ba5 01       		.uleb128 0x1
 14339 0ba6 52       		.byte	0x52
 14340 0ba7 9F       		.byte	0x9f
 14341 0ba8 DA070000 		.4byte	.LVL143-.Ltext0
 14342 0bac E6070000 		.4byte	.LVL144-.Ltext0
 14343 0bb0 0100     		.2byte	0x1
 14344 0bb2 54       		.byte	0x54
 14345 0bb3 E6070000 		.4byte	.LVL144-.Ltext0
 14346 0bb7 EA070000 		.4byte	.LVL145-.Ltext0
 14347 0bbb 0400     		.2byte	0x4
 14348 0bbd F3       		.byte	0xf3
 14349 0bbe 01       		.uleb128 0x1
 14350 0bbf 52       		.byte	0x52
 14351 0bc0 9F       		.byte	0x9f
 14352 0bc1 EA070000 		.4byte	.LVL145-.Ltext0
 14353 0bc5 02080000 		.4byte	.LVL147-.Ltext0
 14354 0bc9 0100     		.2byte	0x1
 14355 0bcb 54       		.byte	0x54
 14356 0bcc 02080000 		.4byte	.LVL147-.Ltext0
 14357 0bd0 06080000 		.4byte	.LVL148-.Ltext0
 14358 0bd4 0400     		.2byte	0x4
 14359 0bd6 F3       		.byte	0xf3
 14360 0bd7 01       		.uleb128 0x1
 14361 0bd8 52       		.byte	0x52
 14362 0bd9 9F       		.byte	0x9f
 14363 0bda 06080000 		.4byte	.LVL148-.Ltext0
 14364 0bde 12080000 		.4byte	.LVL149-.Ltext0
 14365 0be2 0100     		.2byte	0x1
ARM GAS  /var/folders/28/j9jfyj_n4wz3qtvnym210h2c0000gn/T//ccpoR13X.s 			page 254


 14366 0be4 54       		.byte	0x54
 14367 0be5 12080000 		.4byte	.LVL149-.Ltext0
 14368 0be9 16080000 		.4byte	.LVL150-.Ltext0
 14369 0bed 0400     		.2byte	0x4
 14370 0bef F3       		.byte	0xf3
 14371 0bf0 01       		.uleb128 0x1
 14372 0bf1 52       		.byte	0x52
 14373 0bf2 9F       		.byte	0x9f
 14374 0bf3 16080000 		.4byte	.LVL150-.Ltext0
 14375 0bf7 24080000 		.4byte	.LVL151-.Ltext0
 14376 0bfb 0100     		.2byte	0x1
 14377 0bfd 54       		.byte	0x54
 14378 0bfe 24080000 		.4byte	.LVL151-.Ltext0
 14379 0c02 28080000 		.4byte	.LVL152-.Ltext0
 14380 0c06 0400     		.2byte	0x4
 14381 0c08 F3       		.byte	0xf3
 14382 0c09 01       		.uleb128 0x1
 14383 0c0a 52       		.byte	0x52
 14384 0c0b 9F       		.byte	0x9f
 14385 0c0c 28080000 		.4byte	.LVL152-.Ltext0
 14386 0c10 34080000 		.4byte	.LVL153-.Ltext0
 14387 0c14 0100     		.2byte	0x1
 14388 0c16 54       		.byte	0x54
 14389 0c17 34080000 		.4byte	.LVL153-.Ltext0
 14390 0c1b 38080000 		.4byte	.LVL154-.Ltext0
 14391 0c1f 0400     		.2byte	0x4
 14392 0c21 F3       		.byte	0xf3
 14393 0c22 01       		.uleb128 0x1
 14394 0c23 52       		.byte	0x52
 14395 0c24 9F       		.byte	0x9f
 14396 0c25 38080000 		.4byte	.LVL154-.Ltext0
 14397 0c29 44080000 		.4byte	.LVL155-.Ltext0
 14398 0c2d 0100     		.2byte	0x1
 14399 0c2f 54       		.byte	0x54
 14400 0c30 44080000 		.4byte	.LVL155-.Ltext0
 14401 0c34 48080000 		.4byte	.LVL156-.Ltext0
 14402 0c38 0400     		.2byte	0x4
 14403 0c3a F3       		.byte	0xf3
 14404 0c3b 01       		.uleb128 0x1
 14405 0c3c 52       		.byte	0x52
 14406 0c3d 9F       		.byte	0x9f
 14407 0c3e 48080000 		.4byte	.LVL156-.Ltext0
 14408 0c42 60080000 		.4byte	.LVL158-.Ltext0
 14409 0c46 0100     		.2byte	0x1
 14410 0c48 54       		.byte	0x54
 14411 0c49 60080000 		.4byte	.LVL158-.Ltext0
 14412 0c4d 64080000 		.4byte	.LVL159-.Ltext0
 14413 0c51 0400     		.2byte	0x4
 14414 0c53 F3       		.byte	0xf3
 14415 0c54 01       		.uleb128 0x1
 14416 0c55 52       		.byte	0x52
 14417 0c56 9F       		.byte	0x9f
 14418 0c57 64080000 		.4byte	.LVL159-.Ltext0
 14419 0c5b 66080000 		.4byte	.LVL160-.Ltext0
 14420 0c5f 0100     		.2byte	0x1
 14421 0c61 54       		.byte	0x54
 14422 0c62 66080000 		.4byte	.LVL160-.Ltext0
ARM GAS  /var/folders/28/j9jfyj_n4wz3qtvnym210h2c0000gn/T//ccpoR13X.s 			page 255


 14423 0c66 78080000 		.4byte	.LFE200-.Ltext0
 14424 0c6a 0400     		.2byte	0x4
 14425 0c6c F3       		.byte	0xf3
 14426 0c6d 01       		.uleb128 0x1
 14427 0c6e 52       		.byte	0x52
 14428 0c6f 9F       		.byte	0x9f
 14429 0c70 00000000 		.4byte	0
 14430 0c74 00000000 		.4byte	0
 14431              	.LLST78:
 14432 0c78 80080000 		.4byte	.LVL161-.Ltext0
 14433 0c7c 91080000 		.4byte	.LVL163-1-.Ltext0
 14434 0c80 0100     		.2byte	0x1
 14435 0c82 50       		.byte	0x50
 14436 0c83 91080000 		.4byte	.LVL163-1-.Ltext0
 14437 0c87 C4080000 		.4byte	.LVL165-.Ltext0
 14438 0c8b 0100     		.2byte	0x1
 14439 0c8d 56       		.byte	0x56
 14440 0c8e C4080000 		.4byte	.LVL165-.Ltext0
 14441 0c92 C8080000 		.4byte	.LVL166-.Ltext0
 14442 0c96 0400     		.2byte	0x4
 14443 0c98 F3       		.byte	0xf3
 14444 0c99 01       		.uleb128 0x1
 14445 0c9a 50       		.byte	0x50
 14446 0c9b 9F       		.byte	0x9f
 14447 0c9c C8080000 		.4byte	.LVL166-.Ltext0
 14448 0ca0 DE080000 		.4byte	.LVL168-.Ltext0
 14449 0ca4 0100     		.2byte	0x1
 14450 0ca6 56       		.byte	0x56
 14451 0ca7 DE080000 		.4byte	.LVL168-.Ltext0
 14452 0cab E2080000 		.4byte	.LVL169-.Ltext0
 14453 0caf 0400     		.2byte	0x4
 14454 0cb1 F3       		.byte	0xf3
 14455 0cb2 01       		.uleb128 0x1
 14456 0cb3 50       		.byte	0x50
 14457 0cb4 9F       		.byte	0x9f
 14458 0cb5 E2080000 		.4byte	.LVL169-.Ltext0
 14459 0cb9 02090000 		.4byte	.LVL174-.Ltext0
 14460 0cbd 0100     		.2byte	0x1
 14461 0cbf 56       		.byte	0x56
 14462 0cc0 02090000 		.4byte	.LVL174-.Ltext0
 14463 0cc4 06090000 		.4byte	.LVL175-.Ltext0
 14464 0cc8 0400     		.2byte	0x4
 14465 0cca F3       		.byte	0xf3
 14466 0ccb 01       		.uleb128 0x1
 14467 0ccc 50       		.byte	0x50
 14468 0ccd 9F       		.byte	0x9f
 14469 0cce 06090000 		.4byte	.LVL175-.Ltext0
 14470 0cd2 52090000 		.4byte	.LVL182-.Ltext0
 14471 0cd6 0100     		.2byte	0x1
 14472 0cd8 56       		.byte	0x56
 14473 0cd9 52090000 		.4byte	.LVL182-.Ltext0
 14474 0cdd 55090000 		.4byte	.LVL183-1-.Ltext0
 14475 0ce1 0400     		.2byte	0x4
 14476 0ce3 70       		.byte	0x70
 14477 0ce4 817F     		.sleb128 -127
 14478 0ce6 9F       		.byte	0x9f
 14479 0ce7 55090000 		.4byte	.LVL183-1-.Ltext0
ARM GAS  /var/folders/28/j9jfyj_n4wz3qtvnym210h2c0000gn/T//ccpoR13X.s 			page 256


 14480 0ceb 56090000 		.4byte	.LVL183-.Ltext0
 14481 0cef 0400     		.2byte	0x4
 14482 0cf1 F3       		.byte	0xf3
 14483 0cf2 01       		.uleb128 0x1
 14484 0cf3 50       		.byte	0x50
 14485 0cf4 9F       		.byte	0x9f
 14486 0cf5 56090000 		.4byte	.LVL183-.Ltext0
 14487 0cf9 6C090000 		.4byte	.LVL185-.Ltext0
 14488 0cfd 0100     		.2byte	0x1
 14489 0cff 56       		.byte	0x56
 14490 0d00 6C090000 		.4byte	.LVL185-.Ltext0
 14491 0d04 70090000 		.4byte	.LVL186-.Ltext0
 14492 0d08 0400     		.2byte	0x4
 14493 0d0a F3       		.byte	0xf3
 14494 0d0b 01       		.uleb128 0x1
 14495 0d0c 50       		.byte	0x50
 14496 0d0d 9F       		.byte	0x9f
 14497 0d0e 70090000 		.4byte	.LVL186-.Ltext0
 14498 0d12 7C090000 		.4byte	.LVL187-.Ltext0
 14499 0d16 0100     		.2byte	0x1
 14500 0d18 56       		.byte	0x56
 14501 0d19 7C090000 		.4byte	.LVL187-.Ltext0
 14502 0d1d 80090000 		.4byte	.LVL188-.Ltext0
 14503 0d21 0400     		.2byte	0x4
 14504 0d23 F3       		.byte	0xf3
 14505 0d24 01       		.uleb128 0x1
 14506 0d25 50       		.byte	0x50
 14507 0d26 9F       		.byte	0x9f
 14508 0d27 80090000 		.4byte	.LVL188-.Ltext0
 14509 0d2b 98090000 		.4byte	.LVL190-.Ltext0
 14510 0d2f 0100     		.2byte	0x1
 14511 0d31 56       		.byte	0x56
 14512 0d32 98090000 		.4byte	.LVL190-.Ltext0
 14513 0d36 9C090000 		.4byte	.LVL191-.Ltext0
 14514 0d3a 0400     		.2byte	0x4
 14515 0d3c F3       		.byte	0xf3
 14516 0d3d 01       		.uleb128 0x1
 14517 0d3e 50       		.byte	0x50
 14518 0d3f 9F       		.byte	0x9f
 14519 0d40 9C090000 		.4byte	.LVL191-.Ltext0
 14520 0d44 A8090000 		.4byte	.LVL192-.Ltext0
 14521 0d48 0100     		.2byte	0x1
 14522 0d4a 56       		.byte	0x56
 14523 0d4b A8090000 		.4byte	.LVL192-.Ltext0
 14524 0d4f AC090000 		.4byte	.LVL193-.Ltext0
 14525 0d53 0400     		.2byte	0x4
 14526 0d55 F3       		.byte	0xf3
 14527 0d56 01       		.uleb128 0x1
 14528 0d57 50       		.byte	0x50
 14529 0d58 9F       		.byte	0x9f
 14530 0d59 AC090000 		.4byte	.LVL193-.Ltext0
 14531 0d5d BA090000 		.4byte	.LVL194-.Ltext0
 14532 0d61 0100     		.2byte	0x1
 14533 0d63 56       		.byte	0x56
 14534 0d64 BA090000 		.4byte	.LVL194-.Ltext0
 14535 0d68 BE090000 		.4byte	.LVL195-.Ltext0
 14536 0d6c 0400     		.2byte	0x4
ARM GAS  /var/folders/28/j9jfyj_n4wz3qtvnym210h2c0000gn/T//ccpoR13X.s 			page 257


 14537 0d6e F3       		.byte	0xf3
 14538 0d6f 01       		.uleb128 0x1
 14539 0d70 50       		.byte	0x50
 14540 0d71 9F       		.byte	0x9f
 14541 0d72 BE090000 		.4byte	.LVL195-.Ltext0
 14542 0d76 CA090000 		.4byte	.LVL196-.Ltext0
 14543 0d7a 0100     		.2byte	0x1
 14544 0d7c 56       		.byte	0x56
 14545 0d7d CA090000 		.4byte	.LVL196-.Ltext0
 14546 0d81 CE090000 		.4byte	.LVL197-.Ltext0
 14547 0d85 0400     		.2byte	0x4
 14548 0d87 F3       		.byte	0xf3
 14549 0d88 01       		.uleb128 0x1
 14550 0d89 50       		.byte	0x50
 14551 0d8a 9F       		.byte	0x9f
 14552 0d8b CE090000 		.4byte	.LVL197-.Ltext0
 14553 0d8f DA090000 		.4byte	.LVL198-.Ltext0
 14554 0d93 0100     		.2byte	0x1
 14555 0d95 56       		.byte	0x56
 14556 0d96 DA090000 		.4byte	.LVL198-.Ltext0
 14557 0d9a DE090000 		.4byte	.LVL199-.Ltext0
 14558 0d9e 0400     		.2byte	0x4
 14559 0da0 F3       		.byte	0xf3
 14560 0da1 01       		.uleb128 0x1
 14561 0da2 50       		.byte	0x50
 14562 0da3 9F       		.byte	0x9f
 14563 0da4 DE090000 		.4byte	.LVL199-.Ltext0
 14564 0da8 E2090000 		.4byte	.LVL200-.Ltext0
 14565 0dac 0100     		.2byte	0x1
 14566 0dae 56       		.byte	0x56
 14567 0daf E2090000 		.4byte	.LVL200-.Ltext0
 14568 0db3 F8090000 		.4byte	.LFE201-.Ltext0
 14569 0db7 0400     		.2byte	0x4
 14570 0db9 F3       		.byte	0xf3
 14571 0dba 01       		.uleb128 0x1
 14572 0dbb 50       		.byte	0x50
 14573 0dbc 9F       		.byte	0x9f
 14574 0dbd 00000000 		.4byte	0
 14575 0dc1 00000000 		.4byte	0
 14576              	.LLST79:
 14577 0dc5 80080000 		.4byte	.LVL161-.Ltext0
 14578 0dc9 91080000 		.4byte	.LVL163-1-.Ltext0
 14579 0dcd 0100     		.2byte	0x1
 14580 0dcf 51       		.byte	0x51
 14581 0dd0 91080000 		.4byte	.LVL163-1-.Ltext0
 14582 0dd4 C4080000 		.4byte	.LVL165-.Ltext0
 14583 0dd8 0100     		.2byte	0x1
 14584 0dda 55       		.byte	0x55
 14585 0ddb C4080000 		.4byte	.LVL165-.Ltext0
 14586 0ddf C7080000 		.4byte	.LVL166-1-.Ltext0
 14587 0de3 0100     		.2byte	0x1
 14588 0de5 51       		.byte	0x51
 14589 0de6 C7080000 		.4byte	.LVL166-1-.Ltext0
 14590 0dea C8080000 		.4byte	.LVL166-.Ltext0
 14591 0dee 0400     		.2byte	0x4
 14592 0df0 F3       		.byte	0xf3
 14593 0df1 01       		.uleb128 0x1
ARM GAS  /var/folders/28/j9jfyj_n4wz3qtvnym210h2c0000gn/T//ccpoR13X.s 			page 258


 14594 0df2 51       		.byte	0x51
 14595 0df3 9F       		.byte	0x9f
 14596 0df4 C8080000 		.4byte	.LVL166-.Ltext0
 14597 0df8 DE080000 		.4byte	.LVL168-.Ltext0
 14598 0dfc 0100     		.2byte	0x1
 14599 0dfe 55       		.byte	0x55
 14600 0dff DE080000 		.4byte	.LVL168-.Ltext0
 14601 0e03 E1080000 		.4byte	.LVL169-1-.Ltext0
 14602 0e07 0100     		.2byte	0x1
 14603 0e09 51       		.byte	0x51
 14604 0e0a E1080000 		.4byte	.LVL169-1-.Ltext0
 14605 0e0e E2080000 		.4byte	.LVL169-.Ltext0
 14606 0e12 0400     		.2byte	0x4
 14607 0e14 F3       		.byte	0xf3
 14608 0e15 01       		.uleb128 0x1
 14609 0e16 51       		.byte	0x51
 14610 0e17 9F       		.byte	0x9f
 14611 0e18 E2080000 		.4byte	.LVL169-.Ltext0
 14612 0e1c 02090000 		.4byte	.LVL174-.Ltext0
 14613 0e20 0100     		.2byte	0x1
 14614 0e22 55       		.byte	0x55
 14615 0e23 02090000 		.4byte	.LVL174-.Ltext0
 14616 0e27 05090000 		.4byte	.LVL175-1-.Ltext0
 14617 0e2b 0100     		.2byte	0x1
 14618 0e2d 51       		.byte	0x51
 14619 0e2e 05090000 		.4byte	.LVL175-1-.Ltext0
 14620 0e32 06090000 		.4byte	.LVL175-.Ltext0
 14621 0e36 0400     		.2byte	0x4
 14622 0e38 F3       		.byte	0xf3
 14623 0e39 01       		.uleb128 0x1
 14624 0e3a 51       		.byte	0x51
 14625 0e3b 9F       		.byte	0x9f
 14626 0e3c 06090000 		.4byte	.LVL175-.Ltext0
 14627 0e40 52090000 		.4byte	.LVL182-.Ltext0
 14628 0e44 0100     		.2byte	0x1
 14629 0e46 55       		.byte	0x55
 14630 0e47 52090000 		.4byte	.LVL182-.Ltext0
 14631 0e4b 55090000 		.4byte	.LVL183-1-.Ltext0
 14632 0e4f 0100     		.2byte	0x1
 14633 0e51 51       		.byte	0x51
 14634 0e52 55090000 		.4byte	.LVL183-1-.Ltext0
 14635 0e56 56090000 		.4byte	.LVL183-.Ltext0
 14636 0e5a 0400     		.2byte	0x4
 14637 0e5c F3       		.byte	0xf3
 14638 0e5d 01       		.uleb128 0x1
 14639 0e5e 51       		.byte	0x51
 14640 0e5f 9F       		.byte	0x9f
 14641 0e60 56090000 		.4byte	.LVL183-.Ltext0
 14642 0e64 6C090000 		.4byte	.LVL185-.Ltext0
 14643 0e68 0100     		.2byte	0x1
 14644 0e6a 55       		.byte	0x55
 14645 0e6b 6C090000 		.4byte	.LVL185-.Ltext0
 14646 0e6f 6F090000 		.4byte	.LVL186-1-.Ltext0
 14647 0e73 0100     		.2byte	0x1
 14648 0e75 51       		.byte	0x51
 14649 0e76 6F090000 		.4byte	.LVL186-1-.Ltext0
 14650 0e7a 70090000 		.4byte	.LVL186-.Ltext0
ARM GAS  /var/folders/28/j9jfyj_n4wz3qtvnym210h2c0000gn/T//ccpoR13X.s 			page 259


 14651 0e7e 0400     		.2byte	0x4
 14652 0e80 F3       		.byte	0xf3
 14653 0e81 01       		.uleb128 0x1
 14654 0e82 51       		.byte	0x51
 14655 0e83 9F       		.byte	0x9f
 14656 0e84 70090000 		.4byte	.LVL186-.Ltext0
 14657 0e88 7C090000 		.4byte	.LVL187-.Ltext0
 14658 0e8c 0100     		.2byte	0x1
 14659 0e8e 55       		.byte	0x55
 14660 0e8f 7C090000 		.4byte	.LVL187-.Ltext0
 14661 0e93 7F090000 		.4byte	.LVL188-1-.Ltext0
 14662 0e97 0100     		.2byte	0x1
 14663 0e99 51       		.byte	0x51
 14664 0e9a 7F090000 		.4byte	.LVL188-1-.Ltext0
 14665 0e9e 80090000 		.4byte	.LVL188-.Ltext0
 14666 0ea2 0400     		.2byte	0x4
 14667 0ea4 F3       		.byte	0xf3
 14668 0ea5 01       		.uleb128 0x1
 14669 0ea6 51       		.byte	0x51
 14670 0ea7 9F       		.byte	0x9f
 14671 0ea8 80090000 		.4byte	.LVL188-.Ltext0
 14672 0eac 98090000 		.4byte	.LVL190-.Ltext0
 14673 0eb0 0100     		.2byte	0x1
 14674 0eb2 55       		.byte	0x55
 14675 0eb3 98090000 		.4byte	.LVL190-.Ltext0
 14676 0eb7 9B090000 		.4byte	.LVL191-1-.Ltext0
 14677 0ebb 0100     		.2byte	0x1
 14678 0ebd 51       		.byte	0x51
 14679 0ebe 9B090000 		.4byte	.LVL191-1-.Ltext0
 14680 0ec2 9C090000 		.4byte	.LVL191-.Ltext0
 14681 0ec6 0400     		.2byte	0x4
 14682 0ec8 F3       		.byte	0xf3
 14683 0ec9 01       		.uleb128 0x1
 14684 0eca 51       		.byte	0x51
 14685 0ecb 9F       		.byte	0x9f
 14686 0ecc 9C090000 		.4byte	.LVL191-.Ltext0
 14687 0ed0 A8090000 		.4byte	.LVL192-.Ltext0
 14688 0ed4 0100     		.2byte	0x1
 14689 0ed6 55       		.byte	0x55
 14690 0ed7 A8090000 		.4byte	.LVL192-.Ltext0
 14691 0edb AB090000 		.4byte	.LVL193-1-.Ltext0
 14692 0edf 0100     		.2byte	0x1
 14693 0ee1 51       		.byte	0x51
 14694 0ee2 AB090000 		.4byte	.LVL193-1-.Ltext0
 14695 0ee6 AC090000 		.4byte	.LVL193-.Ltext0
 14696 0eea 0400     		.2byte	0x4
 14697 0eec F3       		.byte	0xf3
 14698 0eed 01       		.uleb128 0x1
 14699 0eee 51       		.byte	0x51
 14700 0eef 9F       		.byte	0x9f
 14701 0ef0 AC090000 		.4byte	.LVL193-.Ltext0
 14702 0ef4 BA090000 		.4byte	.LVL194-.Ltext0
 14703 0ef8 0100     		.2byte	0x1
 14704 0efa 55       		.byte	0x55
 14705 0efb BA090000 		.4byte	.LVL194-.Ltext0
 14706 0eff BD090000 		.4byte	.LVL195-1-.Ltext0
 14707 0f03 0100     		.2byte	0x1
ARM GAS  /var/folders/28/j9jfyj_n4wz3qtvnym210h2c0000gn/T//ccpoR13X.s 			page 260


 14708 0f05 51       		.byte	0x51
 14709 0f06 BD090000 		.4byte	.LVL195-1-.Ltext0
 14710 0f0a BE090000 		.4byte	.LVL195-.Ltext0
 14711 0f0e 0400     		.2byte	0x4
 14712 0f10 F3       		.byte	0xf3
 14713 0f11 01       		.uleb128 0x1
 14714 0f12 51       		.byte	0x51
 14715 0f13 9F       		.byte	0x9f
 14716 0f14 BE090000 		.4byte	.LVL195-.Ltext0
 14717 0f18 CA090000 		.4byte	.LVL196-.Ltext0
 14718 0f1c 0100     		.2byte	0x1
 14719 0f1e 55       		.byte	0x55
 14720 0f1f CA090000 		.4byte	.LVL196-.Ltext0
 14721 0f23 CD090000 		.4byte	.LVL197-1-.Ltext0
 14722 0f27 0100     		.2byte	0x1
 14723 0f29 51       		.byte	0x51
 14724 0f2a CD090000 		.4byte	.LVL197-1-.Ltext0
 14725 0f2e CE090000 		.4byte	.LVL197-.Ltext0
 14726 0f32 0400     		.2byte	0x4
 14727 0f34 F3       		.byte	0xf3
 14728 0f35 01       		.uleb128 0x1
 14729 0f36 51       		.byte	0x51
 14730 0f37 9F       		.byte	0x9f
 14731 0f38 CE090000 		.4byte	.LVL197-.Ltext0
 14732 0f3c DA090000 		.4byte	.LVL198-.Ltext0
 14733 0f40 0100     		.2byte	0x1
 14734 0f42 55       		.byte	0x55
 14735 0f43 DA090000 		.4byte	.LVL198-.Ltext0
 14736 0f47 DD090000 		.4byte	.LVL199-1-.Ltext0
 14737 0f4b 0100     		.2byte	0x1
 14738 0f4d 51       		.byte	0x51
 14739 0f4e DD090000 		.4byte	.LVL199-1-.Ltext0
 14740 0f52 DE090000 		.4byte	.LVL199-.Ltext0
 14741 0f56 0400     		.2byte	0x4
 14742 0f58 F3       		.byte	0xf3
 14743 0f59 01       		.uleb128 0x1
 14744 0f5a 51       		.byte	0x51
 14745 0f5b 9F       		.byte	0x9f
 14746 0f5c DE090000 		.4byte	.LVL199-.Ltext0
 14747 0f60 E2090000 		.4byte	.LVL200-.Ltext0
 14748 0f64 0100     		.2byte	0x1
 14749 0f66 55       		.byte	0x55
 14750 0f67 E2090000 		.4byte	.LVL200-.Ltext0
 14751 0f6b F8090000 		.4byte	.LFE201-.Ltext0
 14752 0f6f 0400     		.2byte	0x4
 14753 0f71 F3       		.byte	0xf3
 14754 0f72 01       		.uleb128 0x1
 14755 0f73 51       		.byte	0x51
 14756 0f74 9F       		.byte	0x9f
 14757 0f75 00000000 		.4byte	0
 14758 0f79 00000000 		.4byte	0
 14759              	.LLST80:
 14760 0f7d 80080000 		.4byte	.LVL161-.Ltext0
 14761 0f81 8A080000 		.4byte	.LVL162-.Ltext0
 14762 0f85 0100     		.2byte	0x1
 14763 0f87 52       		.byte	0x52
 14764 0f88 8A080000 		.4byte	.LVL162-.Ltext0
ARM GAS  /var/folders/28/j9jfyj_n4wz3qtvnym210h2c0000gn/T//ccpoR13X.s 			page 261


 14765 0f8c C4080000 		.4byte	.LVL165-.Ltext0
 14766 0f90 0100     		.2byte	0x1
 14767 0f92 54       		.byte	0x54
 14768 0f93 C4080000 		.4byte	.LVL165-.Ltext0
 14769 0f97 C8080000 		.4byte	.LVL166-.Ltext0
 14770 0f9b 0400     		.2byte	0x4
 14771 0f9d F3       		.byte	0xf3
 14772 0f9e 01       		.uleb128 0x1
 14773 0f9f 52       		.byte	0x52
 14774 0fa0 9F       		.byte	0x9f
 14775 0fa1 C8080000 		.4byte	.LVL166-.Ltext0
 14776 0fa5 DE080000 		.4byte	.LVL168-.Ltext0
 14777 0fa9 0100     		.2byte	0x1
 14778 0fab 54       		.byte	0x54
 14779 0fac DE080000 		.4byte	.LVL168-.Ltext0
 14780 0fb0 E2080000 		.4byte	.LVL169-.Ltext0
 14781 0fb4 0400     		.2byte	0x4
 14782 0fb6 F3       		.byte	0xf3
 14783 0fb7 01       		.uleb128 0x1
 14784 0fb8 52       		.byte	0x52
 14785 0fb9 9F       		.byte	0x9f
 14786 0fba E2080000 		.4byte	.LVL169-.Ltext0
 14787 0fbe E8080000 		.4byte	.LVL170-.Ltext0
 14788 0fc2 0100     		.2byte	0x1
 14789 0fc4 54       		.byte	0x54
 14790 0fc5 E8080000 		.4byte	.LVL170-.Ltext0
 14791 0fc9 06090000 		.4byte	.LVL175-.Ltext0
 14792 0fcd 0400     		.2byte	0x4
 14793 0fcf F3       		.byte	0xf3
 14794 0fd0 01       		.uleb128 0x1
 14795 0fd1 52       		.byte	0x52
 14796 0fd2 9F       		.byte	0x9f
 14797 0fd3 06090000 		.4byte	.LVL175-.Ltext0
 14798 0fd7 0A090000 		.4byte	.LVL176-.Ltext0
 14799 0fdb 0100     		.2byte	0x1
 14800 0fdd 54       		.byte	0x54
 14801 0fde 0A090000 		.4byte	.LVL176-.Ltext0
 14802 0fe2 56090000 		.4byte	.LVL183-.Ltext0
 14803 0fe6 0400     		.2byte	0x4
 14804 0fe8 F3       		.byte	0xf3
 14805 0fe9 01       		.uleb128 0x1
 14806 0fea 52       		.byte	0x52
 14807 0feb 9F       		.byte	0x9f
 14808 0fec 56090000 		.4byte	.LVL183-.Ltext0
 14809 0ff0 6C090000 		.4byte	.LVL185-.Ltext0
 14810 0ff4 0100     		.2byte	0x1
 14811 0ff6 54       		.byte	0x54
 14812 0ff7 6C090000 		.4byte	.LVL185-.Ltext0
 14813 0ffb 70090000 		.4byte	.LVL186-.Ltext0
 14814 0fff 0400     		.2byte	0x4
 14815 1001 F3       		.byte	0xf3
 14816 1002 01       		.uleb128 0x1
 14817 1003 52       		.byte	0x52
 14818 1004 9F       		.byte	0x9f
 14819 1005 70090000 		.4byte	.LVL186-.Ltext0
 14820 1009 7C090000 		.4byte	.LVL187-.Ltext0
 14821 100d 0100     		.2byte	0x1
ARM GAS  /var/folders/28/j9jfyj_n4wz3qtvnym210h2c0000gn/T//ccpoR13X.s 			page 262


 14822 100f 54       		.byte	0x54
 14823 1010 7C090000 		.4byte	.LVL187-.Ltext0
 14824 1014 80090000 		.4byte	.LVL188-.Ltext0
 14825 1018 0400     		.2byte	0x4
 14826 101a F3       		.byte	0xf3
 14827 101b 01       		.uleb128 0x1
 14828 101c 52       		.byte	0x52
 14829 101d 9F       		.byte	0x9f
 14830 101e 80090000 		.4byte	.LVL188-.Ltext0
 14831 1022 98090000 		.4byte	.LVL190-.Ltext0
 14832 1026 0100     		.2byte	0x1
 14833 1028 54       		.byte	0x54
 14834 1029 98090000 		.4byte	.LVL190-.Ltext0
 14835 102d 9C090000 		.4byte	.LVL191-.Ltext0
 14836 1031 0400     		.2byte	0x4
 14837 1033 F3       		.byte	0xf3
 14838 1034 01       		.uleb128 0x1
 14839 1035 52       		.byte	0x52
 14840 1036 9F       		.byte	0x9f
 14841 1037 9C090000 		.4byte	.LVL191-.Ltext0
 14842 103b A8090000 		.4byte	.LVL192-.Ltext0
 14843 103f 0100     		.2byte	0x1
 14844 1041 54       		.byte	0x54
 14845 1042 A8090000 		.4byte	.LVL192-.Ltext0
 14846 1046 AC090000 		.4byte	.LVL193-.Ltext0
 14847 104a 0400     		.2byte	0x4
 14848 104c F3       		.byte	0xf3
 14849 104d 01       		.uleb128 0x1
 14850 104e 52       		.byte	0x52
 14851 104f 9F       		.byte	0x9f
 14852 1050 AC090000 		.4byte	.LVL193-.Ltext0
 14853 1054 BA090000 		.4byte	.LVL194-.Ltext0
 14854 1058 0100     		.2byte	0x1
 14855 105a 54       		.byte	0x54
 14856 105b BA090000 		.4byte	.LVL194-.Ltext0
 14857 105f BE090000 		.4byte	.LVL195-.Ltext0
 14858 1063 0400     		.2byte	0x4
 14859 1065 F3       		.byte	0xf3
 14860 1066 01       		.uleb128 0x1
 14861 1067 52       		.byte	0x52
 14862 1068 9F       		.byte	0x9f
 14863 1069 BE090000 		.4byte	.LVL195-.Ltext0
 14864 106d CA090000 		.4byte	.LVL196-.Ltext0
 14865 1071 0100     		.2byte	0x1
 14866 1073 54       		.byte	0x54
 14867 1074 CA090000 		.4byte	.LVL196-.Ltext0
 14868 1078 CE090000 		.4byte	.LVL197-.Ltext0
 14869 107c 0400     		.2byte	0x4
 14870 107e F3       		.byte	0xf3
 14871 107f 01       		.uleb128 0x1
 14872 1080 52       		.byte	0x52
 14873 1081 9F       		.byte	0x9f
 14874 1082 CE090000 		.4byte	.LVL197-.Ltext0
 14875 1086 DA090000 		.4byte	.LVL198-.Ltext0
 14876 108a 0100     		.2byte	0x1
 14877 108c 54       		.byte	0x54
 14878 108d DA090000 		.4byte	.LVL198-.Ltext0
ARM GAS  /var/folders/28/j9jfyj_n4wz3qtvnym210h2c0000gn/T//ccpoR13X.s 			page 263


 14879 1091 DE090000 		.4byte	.LVL199-.Ltext0
 14880 1095 0400     		.2byte	0x4
 14881 1097 F3       		.byte	0xf3
 14882 1098 01       		.uleb128 0x1
 14883 1099 52       		.byte	0x52
 14884 109a 9F       		.byte	0x9f
 14885 109b DE090000 		.4byte	.LVL199-.Ltext0
 14886 109f E2090000 		.4byte	.LVL200-.Ltext0
 14887 10a3 0100     		.2byte	0x1
 14888 10a5 54       		.byte	0x54
 14889 10a6 E2090000 		.4byte	.LVL200-.Ltext0
 14890 10aa F8090000 		.4byte	.LFE201-.Ltext0
 14891 10ae 0400     		.2byte	0x4
 14892 10b0 F3       		.byte	0xf3
 14893 10b1 01       		.uleb128 0x1
 14894 10b2 52       		.byte	0x52
 14895 10b3 9F       		.byte	0x9f
 14896 10b4 00000000 		.4byte	0
 14897 10b8 00000000 		.4byte	0
 14898              	.LLST81:
 14899 10bc E2080000 		.4byte	.LVL169-.Ltext0
 14900 10c0 06090000 		.4byte	.LVL175-.Ltext0
 14901 10c4 0400     		.2byte	0x4
 14902 10c6 0A       		.byte	0xa
 14903 10c7 80BB     		.2byte	0xbb80
 14904 10c9 9F       		.byte	0x9f
 14905 10ca 00000000 		.4byte	0
 14906 10ce 00000000 		.4byte	0
 14907              	.LLST82:
 14908 10d2 E2080000 		.4byte	.LVL169-.Ltext0
 14909 10d6 E8080000 		.4byte	.LVL170-.Ltext0
 14910 10da 0300     		.2byte	0x3
 14911 10dc 74       		.byte	0x74
 14912 10dd 0C       		.sleb128 12
 14913 10de 06       		.byte	0x6
 14914 10df E8080000 		.4byte	.LVL170-.Ltext0
 14915 10e3 EA080000 		.4byte	.LVL171-.Ltext0
 14916 10e7 0200     		.2byte	0x2
 14917 10e9 73       		.byte	0x73
 14918 10ea 00       		.sleb128 0
 14919 10eb EA080000 		.4byte	.LVL171-.Ltext0
 14920 10ef F7080000 		.4byte	.LVL173-1-.Ltext0
 14921 10f3 0100     		.2byte	0x1
 14922 10f5 53       		.byte	0x53
 14923 10f6 00000000 		.4byte	0
 14924 10fa 00000000 		.4byte	0
 14925              	.LLST83:
 14926 10fe EE080000 		.4byte	.LVL172-.Ltext0
 14927 1102 02090000 		.4byte	.LVL174-.Ltext0
 14928 1106 0100     		.2byte	0x1
 14929 1108 54       		.byte	0x54
 14930 1109 02090000 		.4byte	.LVL174-.Ltext0
 14931 110d 05090000 		.4byte	.LVL175-1-.Ltext0
 14932 1111 0100     		.2byte	0x1
 14933 1113 52       		.byte	0x52
 14934 1114 00000000 		.4byte	0
 14935 1118 00000000 		.4byte	0
ARM GAS  /var/folders/28/j9jfyj_n4wz3qtvnym210h2c0000gn/T//ccpoR13X.s 			page 264


 14936              	.LLST84:
 14937 111c 06090000 		.4byte	.LVL175-.Ltext0
 14938 1120 56090000 		.4byte	.LVL183-.Ltext0
 14939 1124 0300     		.2byte	0x3
 14940 1126 08       		.byte	0x8
 14941 1127 A0       		.byte	0xa0
 14942 1128 9F       		.byte	0x9f
 14943 1129 00000000 		.4byte	0
 14944 112d 00000000 		.4byte	0
 14945              	.LLST85:
 14946 1131 06090000 		.4byte	.LVL175-.Ltext0
 14947 1135 0A090000 		.4byte	.LVL176-.Ltext0
 14948 1139 0300     		.2byte	0x3
 14949 113b 74       		.byte	0x74
 14950 113c 0C       		.sleb128 12
 14951 113d 06       		.byte	0x6
 14952 113e 0A090000 		.4byte	.LVL176-.Ltext0
 14953 1142 0C090000 		.4byte	.LVL177-.Ltext0
 14954 1146 0200     		.2byte	0x2
 14955 1148 73       		.byte	0x73
 14956 1149 00       		.sleb128 0
 14957 114a 0C090000 		.4byte	.LVL177-.Ltext0
 14958 114e 1B090000 		.4byte	.LVL179-1-.Ltext0
 14959 1152 0100     		.2byte	0x1
 14960 1154 53       		.byte	0x53
 14961 1155 00000000 		.4byte	0
 14962 1159 00000000 		.4byte	0
 14963              	.LLST86:
 14964 115d 10090000 		.4byte	.LVL178-.Ltext0
 14965 1161 52090000 		.4byte	.LVL182-.Ltext0
 14966 1165 0100     		.2byte	0x1
 14967 1167 54       		.byte	0x54
 14968 1168 00000000 		.4byte	0
 14969 116c 00000000 		.4byte	0
 14970              	.LLST87:
 14971 1170 D20C0000 		.4byte	.LVL218-.Ltext0
 14972 1174 0A0D0000 		.4byte	.LVL219-.Ltext0
 14973 1178 0100     		.2byte	0x1
 14974 117a 58       		.byte	0x58
 14975 117b D80E0000 		.4byte	.LVL240-.Ltext0
 14976 117f 480F0000 		.4byte	.LVL244-.Ltext0
 14977 1183 0100     		.2byte	0x1
 14978 1185 58       		.byte	0x58
 14979 1186 880F0000 		.4byte	.LVL252-.Ltext0
 14980 118a A80F0000 		.4byte	.LVL253-.Ltext0
 14981 118e 0100     		.2byte	0x1
 14982 1190 58       		.byte	0x58
 14983 1191 60100000 		.4byte	.LVL266-.Ltext0
 14984 1195 96100000 		.4byte	.LVL268-.Ltext0
 14985 1199 0100     		.2byte	0x1
 14986 119b 58       		.byte	0x58
 14987 119c 9A100000 		.4byte	.LVL269-.Ltext0
 14988 11a0 E0100000 		.4byte	.LVL273-.Ltext0
 14989 11a4 0100     		.2byte	0x1
 14990 11a6 58       		.byte	0x58
 14991 11a7 00000000 		.4byte	0
 14992 11ab 00000000 		.4byte	0
ARM GAS  /var/folders/28/j9jfyj_n4wz3qtvnym210h2c0000gn/T//ccpoR13X.s 			page 265


 14993              	.LLST88:
 14994 11af 2A0F0000 		.4byte	.LVL241-.Ltext0
 14995 11b3 480F0000 		.4byte	.LVL244-.Ltext0
 14996 11b7 0100     		.2byte	0x1
 14997 11b9 58       		.byte	0x58
 14998 11ba 00000000 		.4byte	0
 14999 11be 00000000 		.4byte	0
 15000              	.LLST89:
 15001 11c2 380F0000 		.4byte	.LVL242-.Ltext0
 15002 11c6 450F0000 		.4byte	.LVL243-1-.Ltext0
 15003 11ca 0100     		.2byte	0x1
 15004 11cc 53       		.byte	0x53
 15005 11cd 00000000 		.4byte	0
 15006 11d1 00000000 		.4byte	0
 15007              	.LLST90:
 15008 11d5 62100000 		.4byte	.LVL267-.Ltext0
 15009 11d9 96100000 		.4byte	.LVL268-.Ltext0
 15010 11dd 0100     		.2byte	0x1
 15011 11df 58       		.byte	0x58
 15012 11e0 9A100000 		.4byte	.LVL269-.Ltext0
 15013 11e4 E0100000 		.4byte	.LVL273-.Ltext0
 15014 11e8 0100     		.2byte	0x1
 15015 11ea 58       		.byte	0x58
 15016 11eb 00000000 		.4byte	0
 15017 11ef 00000000 		.4byte	0
 15018              	.LLST91:
 15019 11f3 C2100000 		.4byte	.LVL270-.Ltext0
 15020 11f7 E0100000 		.4byte	.LVL273-.Ltext0
 15021 11fb 0100     		.2byte	0x1
 15022 11fd 58       		.byte	0x58
 15023 11fe 00000000 		.4byte	0
 15024 1202 00000000 		.4byte	0
 15025              	.LLST92:
 15026 1206 D0100000 		.4byte	.LVL271-.Ltext0
 15027 120a DD100000 		.4byte	.LVL272-1-.Ltext0
 15028 120e 0100     		.2byte	0x1
 15029 1210 53       		.byte	0x53
 15030 1211 00000000 		.4byte	0
 15031 1215 00000000 		.4byte	0
 15032              	.LLST93:
 15033 1219 200D0000 		.4byte	.LVL220-.Ltext0
 15034 121d 780D0000 		.4byte	.LVL221-.Ltext0
 15035 1221 0100     		.2byte	0x1
 15036 1223 59       		.byte	0x59
 15037 1224 68120000 		.4byte	.LVL310-.Ltext0
 15038 1228 10130000 		.4byte	.LVL314-.Ltext0
 15039 122c 0100     		.2byte	0x1
 15040 122e 59       		.byte	0x59
 15041 122f FE130000 		.4byte	.LVL326-.Ltext0
 15042 1233 30140000 		.4byte	.LVL329-.Ltext0
 15043 1237 0100     		.2byte	0x1
 15044 1239 59       		.byte	0x59
 15045 123a 98140000 		.4byte	.LVL340-.Ltext0
 15046 123e 38150000 		.4byte	.LVL348-.Ltext0
 15047 1242 0100     		.2byte	0x1
 15048 1244 59       		.byte	0x59
 15049 1245 00000000 		.4byte	0
ARM GAS  /var/folders/28/j9jfyj_n4wz3qtvnym210h2c0000gn/T//ccpoR13X.s 			page 266


 15050 1249 00000000 		.4byte	0
 15051              	.LLST94:
 15052 124d 68120000 		.4byte	.LVL310-.Ltext0
 15053 1251 AC120000 		.4byte	.LVL311-.Ltext0
 15054 1255 0100     		.2byte	0x1
 15055 1257 59       		.byte	0x59
 15056 1258 10140000 		.4byte	.LVL327-.Ltext0
 15057 125c 28140000 		.4byte	.LVL328-.Ltext0
 15058 1260 0100     		.2byte	0x1
 15059 1262 59       		.byte	0x59
 15060 1263 98140000 		.4byte	.LVL340-.Ltext0
 15061 1267 E8140000 		.4byte	.LVL344-.Ltext0
 15062 126b 0100     		.2byte	0x1
 15063 126d 59       		.byte	0x59
 15064 126e 00000000 		.4byte	0
 15065 1272 00000000 		.4byte	0
 15066              	.LLST95:
 15067 1276 98140000 		.4byte	.LVL340-.Ltext0
 15068 127a B8140000 		.4byte	.LVL343-.Ltext0
 15069 127e 0100     		.2byte	0x1
 15070 1280 59       		.byte	0x59
 15071 1281 00000000 		.4byte	0
 15072 1285 00000000 		.4byte	0
 15073              	.LLST96:
 15074 1289 A6140000 		.4byte	.LVL341-.Ltext0
 15075 128d B3140000 		.4byte	.LVL342-1-.Ltext0
 15076 1291 0100     		.2byte	0x1
 15077 1293 53       		.byte	0x53
 15078 1294 00000000 		.4byte	0
 15079 1298 00000000 		.4byte	0
 15080              	.LLST97:
 15081 129c AC120000 		.4byte	.LVL311-.Ltext0
 15082 12a0 F0120000 		.4byte	.LVL312-.Ltext0
 15083 12a4 0100     		.2byte	0x1
 15084 12a6 59       		.byte	0x59
 15085 12a7 FE130000 		.4byte	.LVL326-.Ltext0
 15086 12ab 10140000 		.4byte	.LVL327-.Ltext0
 15087 12af 0100     		.2byte	0x1
 15088 12b1 59       		.byte	0x59
 15089 12b2 E8140000 		.4byte	.LVL344-.Ltext0
 15090 12b6 38150000 		.4byte	.LVL348-.Ltext0
 15091 12ba 0100     		.2byte	0x1
 15092 12bc 59       		.byte	0x59
 15093 12bd 00000000 		.4byte	0
 15094 12c1 00000000 		.4byte	0
 15095              	.LLST98:
 15096 12c5 E8140000 		.4byte	.LVL344-.Ltext0
 15097 12c9 08150000 		.4byte	.LVL347-.Ltext0
 15098 12cd 0100     		.2byte	0x1
 15099 12cf 59       		.byte	0x59
 15100 12d0 00000000 		.4byte	0
 15101 12d4 00000000 		.4byte	0
 15102              	.LLST99:
 15103 12d8 F6140000 		.4byte	.LVL345-.Ltext0
 15104 12dc 03150000 		.4byte	.LVL346-1-.Ltext0
 15105 12e0 0100     		.2byte	0x1
 15106 12e2 53       		.byte	0x53
ARM GAS  /var/folders/28/j9jfyj_n4wz3qtvnym210h2c0000gn/T//ccpoR13X.s 			page 267


 15107 12e3 00000000 		.4byte	0
 15108 12e7 00000000 		.4byte	0
 15109              	.LLST100:
 15110 12eb F0120000 		.4byte	.LVL312-.Ltext0
 15111 12ef FE120000 		.4byte	.LVL313-.Ltext0
 15112 12f3 0100     		.2byte	0x1
 15113 12f5 52       		.byte	0x52
 15114 12f6 00000000 		.4byte	0
 15115 12fa 00000000 		.4byte	0
 15116              	.LLST101:
 15117 12fe FE120000 		.4byte	.LVL313-.Ltext0
 15118 1302 10130000 		.4byte	.LVL314-.Ltext0
 15119 1306 0100     		.2byte	0x1
 15120 1308 52       		.byte	0x52
 15121 1309 00000000 		.4byte	0
 15122 130d 00000000 		.4byte	0
 15123              	.LLST102:
 15124 1311 9E0D0000 		.4byte	.LVL222-.Ltext0
 15125 1315 D80D0000 		.4byte	.LVL223-.Ltext0
 15126 1319 0100     		.2byte	0x1
 15127 131b 58       		.byte	0x58
 15128 131c A80F0000 		.4byte	.LVL253-.Ltext0
 15129 1320 20100000 		.4byte	.LVL258-.Ltext0
 15130 1324 0100     		.2byte	0x1
 15131 1326 58       		.byte	0x58
 15132 1327 E0100000 		.4byte	.LVL273-.Ltext0
 15133 132b 62110000 		.4byte	.LVL278-.Ltext0
 15134 132f 0100     		.2byte	0x1
 15135 1331 58       		.byte	0x58
 15136 1332 00000000 		.4byte	0
 15137 1336 00000000 		.4byte	0
 15138              	.LLST103:
 15139 133a FA0F0000 		.4byte	.LVL254-.Ltext0
 15140 133e 18100000 		.4byte	.LVL257-.Ltext0
 15141 1342 0100     		.2byte	0x1
 15142 1344 58       		.byte	0x58
 15143 1345 00000000 		.4byte	0
 15144 1349 00000000 		.4byte	0
 15145              	.LLST104:
 15146 134d 08100000 		.4byte	.LVL255-.Ltext0
 15147 1351 15100000 		.4byte	.LVL256-1-.Ltext0
 15148 1355 0100     		.2byte	0x1
 15149 1357 53       		.byte	0x53
 15150 1358 00000000 		.4byte	0
 15151 135c 00000000 		.4byte	0
 15152              	.LLST105:
 15153 1360 E4100000 		.4byte	.LVL274-.Ltext0
 15154 1364 62110000 		.4byte	.LVL278-.Ltext0
 15155 1368 0100     		.2byte	0x1
 15156 136a 58       		.byte	0x58
 15157 136b 00000000 		.4byte	0
 15158 136f 00000000 		.4byte	0
 15159              	.LLST106:
 15160 1373 44110000 		.4byte	.LVL275-.Ltext0
 15161 1377 62110000 		.4byte	.LVL278-.Ltext0
 15162 137b 0100     		.2byte	0x1
 15163 137d 58       		.byte	0x58
ARM GAS  /var/folders/28/j9jfyj_n4wz3qtvnym210h2c0000gn/T//ccpoR13X.s 			page 268


 15164 137e 00000000 		.4byte	0
 15165 1382 00000000 		.4byte	0
 15166              	.LLST107:
 15167 1386 52110000 		.4byte	.LVL276-.Ltext0
 15168 138a 5F110000 		.4byte	.LVL277-1-.Ltext0
 15169 138e 0100     		.2byte	0x1
 15170 1390 53       		.byte	0x53
 15171 1391 00000000 		.4byte	0
 15172 1395 00000000 		.4byte	0
 15173              	.LLST108:
 15174 1399 6E0E0000 		.4byte	.LVL237-.Ltext0
 15175 139d CC0E0000 		.4byte	.LVL238-.Ltext0
 15176 13a1 0100     		.2byte	0x1
 15177 13a3 54       		.byte	0x54
 15178 13a4 10130000 		.4byte	.LVL314-.Ltext0
 15179 13a8 B4130000 		.4byte	.LVL318-.Ltext0
 15180 13ac 0100     		.2byte	0x1
 15181 13ae 54       		.byte	0x54
 15182 13af 30140000 		.4byte	.LVL329-.Ltext0
 15183 13b3 36140000 		.4byte	.LVL330-.Ltext0
 15184 13b7 0100     		.2byte	0x1
 15185 13b9 54       		.byte	0x54
 15186 13ba 78140000 		.4byte	.LVL338-.Ltext0
 15187 13be 98140000 		.4byte	.LVL340-.Ltext0
 15188 13c2 0100     		.2byte	0x1
 15189 13c4 54       		.byte	0x54
 15190 13c5 38150000 		.4byte	.LVL348-.Ltext0
 15191 13c9 C0150000 		.4byte	.LVL356-.Ltext0
 15192 13cd 0100     		.2byte	0x1
 15193 13cf 54       		.byte	0x54
 15194 13d0 00000000 		.4byte	0
 15195 13d4 00000000 		.4byte	0
 15196              	.LLST109:
 15197 13d8 10130000 		.4byte	.LVL314-.Ltext0
 15198 13dc 54130000 		.4byte	.LVL315-.Ltext0
 15199 13e0 0100     		.2byte	0x1
 15200 13e2 54       		.byte	0x54
 15201 13e3 78140000 		.4byte	.LVL338-.Ltext0
 15202 13e7 86140000 		.4byte	.LVL339-.Ltext0
 15203 13eb 0100     		.2byte	0x1
 15204 13ed 54       		.byte	0x54
 15205 13ee 7C150000 		.4byte	.LVL352-.Ltext0
 15206 13f2 C0150000 		.4byte	.LVL356-.Ltext0
 15207 13f6 0100     		.2byte	0x1
 15208 13f8 54       		.byte	0x54
 15209 13f9 00000000 		.4byte	0
 15210 13fd 00000000 		.4byte	0
 15211              	.LLST110:
 15212 1401 A4150000 		.4byte	.LVL353-.Ltext0
 15213 1405 C0150000 		.4byte	.LVL356-.Ltext0
 15214 1409 0100     		.2byte	0x1
 15215 140b 54       		.byte	0x54
 15216 140c 00000000 		.4byte	0
 15217 1410 00000000 		.4byte	0
 15218              	.LLST111:
 15219 1414 AE150000 		.4byte	.LVL354-.Ltext0
 15220 1418 BB150000 		.4byte	.LVL355-1-.Ltext0
ARM GAS  /var/folders/28/j9jfyj_n4wz3qtvnym210h2c0000gn/T//ccpoR13X.s 			page 269


 15221 141c 0100     		.2byte	0x1
 15222 141e 53       		.byte	0x53
 15223 141f 00000000 		.4byte	0
 15224 1423 00000000 		.4byte	0
 15225              	.LLST112:
 15226 1427 54130000 		.4byte	.LVL315-.Ltext0
 15227 142b 98130000 		.4byte	.LVL316-.Ltext0
 15228 142f 0100     		.2byte	0x1
 15229 1431 54       		.byte	0x54
 15230 1432 86140000 		.4byte	.LVL339-.Ltext0
 15231 1436 98140000 		.4byte	.LVL340-.Ltext0
 15232 143a 0100     		.2byte	0x1
 15233 143c 54       		.byte	0x54
 15234 143d 38150000 		.4byte	.LVL348-.Ltext0
 15235 1441 7C150000 		.4byte	.LVL352-.Ltext0
 15236 1445 0100     		.2byte	0x1
 15237 1447 54       		.byte	0x54
 15238 1448 00000000 		.4byte	0
 15239 144c 00000000 		.4byte	0
 15240              	.LLST113:
 15241 1450 38150000 		.4byte	.LVL348-.Ltext0
 15242 1454 54150000 		.4byte	.LVL351-.Ltext0
 15243 1458 0100     		.2byte	0x1
 15244 145a 54       		.byte	0x54
 15245 145b 00000000 		.4byte	0
 15246 145f 00000000 		.4byte	0
 15247              	.LLST114:
 15248 1463 42150000 		.4byte	.LVL349-.Ltext0
 15249 1467 4F150000 		.4byte	.LVL350-1-.Ltext0
 15250 146b 0100     		.2byte	0x1
 15251 146d 53       		.byte	0x53
 15252 146e 00000000 		.4byte	0
 15253 1472 00000000 		.4byte	0
 15254              	.LLST115:
 15255 1476 98130000 		.4byte	.LVL316-.Ltext0
 15256 147a A6130000 		.4byte	.LVL317-.Ltext0
 15257 147e 0100     		.2byte	0x1
 15258 1480 52       		.byte	0x52
 15259 1481 00000000 		.4byte	0
 15260 1485 00000000 		.4byte	0
 15261              	.LLST116:
 15262 1489 A6130000 		.4byte	.LVL317-.Ltext0
 15263 148d B4130000 		.4byte	.LVL318-.Ltext0
 15264 1491 0100     		.2byte	0x1
 15265 1493 52       		.byte	0x52
 15266 1494 00000000 		.4byte	0
 15267 1498 00000000 		.4byte	0
 15268              	.LLST117:
 15269 149c 020C0000 		.4byte	.LVL203-.Ltext0
 15270 14a0 520C0000 		.4byte	.LVL213-.Ltext0
 15271 14a4 0100     		.2byte	0x1
 15272 14a6 59       		.byte	0x59
 15273 14a7 480F0000 		.4byte	.LVL244-.Ltext0
 15274 14ab 500F0000 		.4byte	.LVL245-.Ltext0
 15275 14af 0100     		.2byte	0x1
 15276 14b1 59       		.byte	0x59
 15277 14b2 500F0000 		.4byte	.LVL245-.Ltext0
ARM GAS  /var/folders/28/j9jfyj_n4wz3qtvnym210h2c0000gn/T//ccpoR13X.s 			page 270


 15278 14b6 5E0F0000 		.4byte	.LVL247-.Ltext0
 15279 14ba 0200     		.2byte	0x2
 15280 14bc 31       		.byte	0x31
 15281 14bd 9F       		.byte	0x9f
 15282 14be 5E0F0000 		.4byte	.LVL247-.Ltext0
 15283 14c2 680F0000 		.4byte	.LVL248-.Ltext0
 15284 14c6 0100     		.2byte	0x1
 15285 14c8 56       		.byte	0x56
 15286 14c9 680F0000 		.4byte	.LVL248-.Ltext0
 15287 14cd 800F0000 		.4byte	.LVL250-.Ltext0
 15288 14d1 0100     		.2byte	0x1
 15289 14d3 58       		.byte	0x58
 15290 14d4 800F0000 		.4byte	.LVL250-.Ltext0
 15291 14d8 880F0000 		.4byte	.LVL252-.Ltext0
 15292 14dc 0100     		.2byte	0x1
 15293 14de 56       		.byte	0x56
 15294 14df 62110000 		.4byte	.LVL278-.Ltext0
 15295 14e3 6E110000 		.4byte	.LVL281-.Ltext0
 15296 14e7 0100     		.2byte	0x1
 15297 14e9 58       		.byte	0x58
 15298 14ea 84110000 		.4byte	.LVL285-.Ltext0
 15299 14ee 8C110000 		.4byte	.LVL286-.Ltext0
 15300 14f2 0100     		.2byte	0x1
 15301 14f4 59       		.byte	0x59
 15302 14f5 8C110000 		.4byte	.LVL286-.Ltext0
 15303 14f9 90110000 		.4byte	.LVL287-.Ltext0
 15304 14fd 0300     		.2byte	0x3
 15305 14ff 79       		.byte	0x79
 15306 1500 7F       		.sleb128 -1
 15307 1501 9F       		.byte	0x9f
 15308 1502 90110000 		.4byte	.LVL287-.Ltext0
 15309 1506 C6110000 		.4byte	.LVL292-.Ltext0
 15310 150a 0100     		.2byte	0x1
 15311 150c 57       		.byte	0x57
 15312 150d C6110000 		.4byte	.LVL292-.Ltext0
 15313 1511 DE110000 		.4byte	.LVL294-.Ltext0
 15314 1515 0100     		.2byte	0x1
 15315 1517 58       		.byte	0x58
 15316 1518 DE110000 		.4byte	.LVL294-.Ltext0
 15317 151c E6110000 		.4byte	.LVL296-.Ltext0
 15318 1520 0100     		.2byte	0x1
 15319 1522 57       		.byte	0x57
 15320 1523 B4130000 		.4byte	.LVL318-.Ltext0
 15321 1527 B8130000 		.4byte	.LVL319-.Ltext0
 15322 152b 0100     		.2byte	0x1
 15323 152d 57       		.byte	0x57
 15324 152e B8130000 		.4byte	.LVL319-.Ltext0
 15325 1532 C4130000 		.4byte	.LVL320-.Ltext0
 15326 1536 0300     		.2byte	0x3
 15327 1538 79       		.byte	0x79
 15328 1539 7E       		.sleb128 -2
 15329 153a 9F       		.byte	0x9f
 15330 153b C4130000 		.4byte	.LVL320-.Ltext0
 15331 153f D2130000 		.4byte	.LVL322-.Ltext0
 15332 1543 0100     		.2byte	0x1
 15333 1545 57       		.byte	0x57
 15334 1546 D2130000 		.4byte	.LVL322-.Ltext0
ARM GAS  /var/folders/28/j9jfyj_n4wz3qtvnym210h2c0000gn/T//ccpoR13X.s 			page 271


 15335 154a F8130000 		.4byte	.LVL324-.Ltext0
 15336 154e 0100     		.2byte	0x1
 15337 1550 59       		.byte	0x59
 15338 1551 F8130000 		.4byte	.LVL324-.Ltext0
 15339 1555 FE130000 		.4byte	.LVL326-.Ltext0
 15340 1559 0100     		.2byte	0x1
 15341 155b 57       		.byte	0x57
 15342 155c C0150000 		.4byte	.LVL356-.Ltext0
 15343 1560 CC150000 		.4byte	.LVL359-.Ltext0
 15344 1564 0100     		.2byte	0x1
 15345 1566 58       		.byte	0x58
 15346 1567 F6150000 		.4byte	.LVL369-.Ltext0
 15347 156b 00160000 		.4byte	.LVL370-.Ltext0
 15348 156f 0200     		.2byte	0x2
 15349 1571 31       		.byte	0x31
 15350 1572 9F       		.byte	0x9f
 15351 1573 00160000 		.4byte	.LVL370-.Ltext0
 15352 1577 0E160000 		.4byte	.LVL372-.Ltext0
 15353 157b 0200     		.2byte	0x2
 15354 157d 32       		.byte	0x32
 15355 157e 9F       		.byte	0x9f
 15356 157f 0E160000 		.4byte	.LVL372-.Ltext0
 15357 1583 18160000 		.4byte	.LVL373-.Ltext0
 15358 1587 0100     		.2byte	0x1
 15359 1589 57       		.byte	0x57
 15360 158a 18160000 		.4byte	.LVL373-.Ltext0
 15361 158e 2E160000 		.4byte	.LVL375-.Ltext0
 15362 1592 0100     		.2byte	0x1
 15363 1594 58       		.byte	0x58
 15364 1595 2E160000 		.4byte	.LVL375-.Ltext0
 15365 1599 38160000 		.4byte	.LVL377-.Ltext0
 15366 159d 0100     		.2byte	0x1
 15367 159f 57       		.byte	0x57
 15368 15a0 38160000 		.4byte	.LVL377-.Ltext0
 15369 15a4 44160000 		.4byte	.LVL380-.Ltext0
 15370 15a8 0100     		.2byte	0x1
 15371 15aa 58       		.byte	0x58
 15372 15ab 6A160000 		.4byte	.LVL384-.Ltext0
 15373 15af 70160000 		.4byte	.LVL386-.Ltext0
 15374 15b3 0100     		.2byte	0x1
 15375 15b5 59       		.byte	0x59
 15376 15b6 76160000 		.4byte	.LVL388-.Ltext0
 15377 15ba 82160000 		.4byte	.LVL390-.Ltext0
 15378 15be 0100     		.2byte	0x1
 15379 15c0 59       		.byte	0x59
 15380 15c1 00000000 		.4byte	0
 15381 15c5 00000000 		.4byte	0
 15382              	.LLST118:
 15383 15c9 020C0000 		.4byte	.LVL203-.Ltext0
 15384 15cd 400C0000 		.4byte	.LVL210-.Ltext0
 15385 15d1 0100     		.2byte	0x1
 15386 15d3 54       		.byte	0x54
 15387 15d4 480F0000 		.4byte	.LVL244-.Ltext0
 15388 15d8 880F0000 		.4byte	.LVL252-.Ltext0
 15389 15dc 0100     		.2byte	0x1
 15390 15de 54       		.byte	0x54
 15391 15df 62110000 		.4byte	.LVL278-.Ltext0
ARM GAS  /var/folders/28/j9jfyj_n4wz3qtvnym210h2c0000gn/T//ccpoR13X.s 			page 272


 15392 15e3 6E110000 		.4byte	.LVL281-.Ltext0
 15393 15e7 0100     		.2byte	0x1
 15394 15e9 54       		.byte	0x54
 15395 15ea 84110000 		.4byte	.LVL285-.Ltext0
 15396 15ee E6110000 		.4byte	.LVL296-.Ltext0
 15397 15f2 0100     		.2byte	0x1
 15398 15f4 54       		.byte	0x54
 15399 15f5 B4130000 		.4byte	.LVL318-.Ltext0
 15400 15f9 FE130000 		.4byte	.LVL326-.Ltext0
 15401 15fd 0100     		.2byte	0x1
 15402 15ff 54       		.byte	0x54
 15403 1600 C0150000 		.4byte	.LVL356-.Ltext0
 15404 1604 CC150000 		.4byte	.LVL359-.Ltext0
 15405 1608 0100     		.2byte	0x1
 15406 160a 54       		.byte	0x54
 15407 160b F6150000 		.4byte	.LVL369-.Ltext0
 15408 160f 44160000 		.4byte	.LVL380-.Ltext0
 15409 1613 0100     		.2byte	0x1
 15410 1615 54       		.byte	0x54
 15411 1616 6A160000 		.4byte	.LVL384-.Ltext0
 15412 161a 6C160000 		.4byte	.LVL385-.Ltext0
 15413 161e 0100     		.2byte	0x1
 15414 1620 54       		.byte	0x54
 15415 1621 6C160000 		.4byte	.LVL385-.Ltext0
 15416 1625 70160000 		.4byte	.LVL386-.Ltext0
 15417 1629 0200     		.2byte	0x2
 15418 162b 73       		.byte	0x73
 15419 162c 10       		.sleb128 16
 15420 162d 76160000 		.4byte	.LVL388-.Ltext0
 15421 1631 82160000 		.4byte	.LVL390-.Ltext0
 15422 1635 0100     		.2byte	0x1
 15423 1637 54       		.byte	0x54
 15424 1638 00000000 		.4byte	0
 15425 163c 00000000 		.4byte	0
 15426              	.LLST119:
 15427 1640 060C0000 		.4byte	.LVL204-.Ltext0
 15428 1644 820C0000 		.4byte	.LVL216-.Ltext0
 15429 1648 0100     		.2byte	0x1
 15430 164a 5A       		.byte	0x5a
 15431 164b 480F0000 		.4byte	.LVL244-.Ltext0
 15432 164f 880F0000 		.4byte	.LVL252-.Ltext0
 15433 1653 0100     		.2byte	0x1
 15434 1655 5A       		.byte	0x5a
 15435 1656 62110000 		.4byte	.LVL278-.Ltext0
 15436 165a 6E110000 		.4byte	.LVL281-.Ltext0
 15437 165e 0100     		.2byte	0x1
 15438 1660 5A       		.byte	0x5a
 15439 1661 84110000 		.4byte	.LVL285-.Ltext0
 15440 1665 E6110000 		.4byte	.LVL296-.Ltext0
 15441 1669 0100     		.2byte	0x1
 15442 166b 5A       		.byte	0x5a
 15443 166c B4130000 		.4byte	.LVL318-.Ltext0
 15444 1670 FE130000 		.4byte	.LVL326-.Ltext0
 15445 1674 0100     		.2byte	0x1
 15446 1676 5A       		.byte	0x5a
 15447 1677 C0150000 		.4byte	.LVL356-.Ltext0
 15448 167b CC150000 		.4byte	.LVL359-.Ltext0
ARM GAS  /var/folders/28/j9jfyj_n4wz3qtvnym210h2c0000gn/T//ccpoR13X.s 			page 273


 15449 167f 0100     		.2byte	0x1
 15450 1681 5A       		.byte	0x5a
 15451 1682 D6150000 		.4byte	.LVL362-.Ltext0
 15452 1686 E2150000 		.4byte	.LVL364-.Ltext0
 15453 168a 0100     		.2byte	0x1
 15454 168c 5A       		.byte	0x5a
 15455 168d F6150000 		.4byte	.LVL369-.Ltext0
 15456 1691 44160000 		.4byte	.LVL380-.Ltext0
 15457 1695 0100     		.2byte	0x1
 15458 1697 5A       		.byte	0x5a
 15459 1698 6A160000 		.4byte	.LVL384-.Ltext0
 15460 169c 70160000 		.4byte	.LVL386-.Ltext0
 15461 16a0 0100     		.2byte	0x1
 15462 16a2 5A       		.byte	0x5a
 15463 16a3 76160000 		.4byte	.LVL388-.Ltext0
 15464 16a7 82160000 		.4byte	.LVL390-.Ltext0
 15465 16ab 0100     		.2byte	0x1
 15466 16ad 5A       		.byte	0x5a
 15467 16ae 00000000 		.4byte	0
 15468 16b2 00000000 		.4byte	0
 15469              	.LLST120:
 15470 16b6 0C0C0000 		.4byte	.LVL205-.Ltext0
 15471 16ba 1E0C0000 		.4byte	.LVL206-.Ltext0
 15472 16be 0200     		.2byte	0x2
 15473 16c0 30       		.byte	0x30
 15474 16c1 9F       		.byte	0x9f
 15475 16c2 1E0C0000 		.4byte	.LVL206-.Ltext0
 15476 16c6 200C0000 		.4byte	.LVL207-.Ltext0
 15477 16ca 0300     		.2byte	0x3
 15478 16cc 76       		.byte	0x76
 15479 16cd 7F       		.sleb128 -1
 15480 16ce 9F       		.byte	0x9f
 15481 16cf 200C0000 		.4byte	.LVL207-.Ltext0
 15482 16d3 330C0000 		.4byte	.LVL208-1-.Ltext0
 15483 16d7 0100     		.2byte	0x1
 15484 16d9 53       		.byte	0x53
 15485 16da 330C0000 		.4byte	.LVL208-1-.Ltext0
 15486 16de 340C0000 		.4byte	.LVL208-.Ltext0
 15487 16e2 0300     		.2byte	0x3
 15488 16e4 76       		.byte	0x76
 15489 16e5 7F       		.sleb128 -1
 15490 16e6 9F       		.byte	0x9f
 15491 16e7 340C0000 		.4byte	.LVL208-.Ltext0
 15492 16eb 3A0C0000 		.4byte	.LVL209-.Ltext0
 15493 16ef 0100     		.2byte	0x1
 15494 16f1 56       		.byte	0x56
 15495 16f2 3A0C0000 		.4byte	.LVL209-.Ltext0
 15496 16f6 400C0000 		.4byte	.LVL210-.Ltext0
 15497 16fa 0100     		.2byte	0x1
 15498 16fc 58       		.byte	0x58
 15499 16fd 400C0000 		.4byte	.LVL210-.Ltext0
 15500 1701 420C0000 		.4byte	.LVL211-.Ltext0
 15501 1705 0100     		.2byte	0x1
 15502 1707 54       		.byte	0x54
 15503 1708 420C0000 		.4byte	.LVL211-.Ltext0
 15504 170c 4E0C0000 		.4byte	.LVL212-.Ltext0
 15505 1710 0300     		.2byte	0x3
ARM GAS  /var/folders/28/j9jfyj_n4wz3qtvnym210h2c0000gn/T//ccpoR13X.s 			page 274


 15506 1712 74       		.byte	0x74
 15507 1713 7F       		.sleb128 -1
 15508 1714 9F       		.byte	0x9f
 15509 1715 4E0C0000 		.4byte	.LVL212-.Ltext0
 15510 1719 520C0000 		.4byte	.LVL213-.Ltext0
 15511 171d 0100     		.2byte	0x1
 15512 171f 54       		.byte	0x54
 15513 1720 6A160000 		.4byte	.LVL384-.Ltext0
 15514 1724 6C160000 		.4byte	.LVL385-.Ltext0
 15515 1728 0200     		.2byte	0x2
 15516 172a 30       		.byte	0x30
 15517 172b 9F       		.byte	0x9f
 15518 172c 6C160000 		.4byte	.LVL385-.Ltext0
 15519 1730 70160000 		.4byte	.LVL386-.Ltext0
 15520 1734 0100     		.2byte	0x1
 15521 1736 54       		.byte	0x54
 15522 1737 76160000 		.4byte	.LVL388-.Ltext0
 15523 173b 7B160000 		.4byte	.LVL389-1-.Ltext0
 15524 173f 0100     		.2byte	0x1
 15525 1741 53       		.byte	0x53
 15526 1742 7B160000 		.4byte	.LVL389-1-.Ltext0
 15527 1746 82160000 		.4byte	.LVL390-.Ltext0
 15528 174a 0300     		.2byte	0x3
 15529 174c 76       		.byte	0x76
 15530 174d 7F       		.sleb128 -1
 15531 174e 9F       		.byte	0x9f
 15532 174f 00000000 		.4byte	0
 15533 1753 00000000 		.4byte	0
 15534              	.LLST121:
 15535 1757 5A0F0000 		.4byte	.LVL246-.Ltext0
 15536 175b 5E0F0000 		.4byte	.LVL247-.Ltext0
 15537 175f 0200     		.2byte	0x2
 15538 1761 32       		.byte	0x32
 15539 1762 9F       		.byte	0x9f
 15540 1763 5E0F0000 		.4byte	.LVL247-.Ltext0
 15541 1767 880F0000 		.4byte	.LVL252-.Ltext0
 15542 176b 0100     		.2byte	0x1
 15543 176d 57       		.byte	0x57
 15544 176e 62110000 		.4byte	.LVL278-.Ltext0
 15545 1772 66110000 		.4byte	.LVL279-.Ltext0
 15546 1776 0100     		.2byte	0x1
 15547 1778 51       		.byte	0x51
 15548 1779 66110000 		.4byte	.LVL279-.Ltext0
 15549 177d 6E110000 		.4byte	.LVL281-.Ltext0
 15550 1781 0100     		.2byte	0x1
 15551 1783 57       		.byte	0x57
 15552 1784 00000000 		.4byte	0
 15553 1788 00000000 		.4byte	0
 15554              	.LLST122:
 15555 178c BA110000 		.4byte	.LVL290-.Ltext0
 15556 1790 BC110000 		.4byte	.LVL291-.Ltext0
 15557 1794 0200     		.2byte	0x2
 15558 1796 33       		.byte	0x33
 15559 1797 9F       		.byte	0x9f
 15560 1798 BC110000 		.4byte	.LVL291-.Ltext0
 15561 179c E6110000 		.4byte	.LVL296-.Ltext0
 15562 17a0 0100     		.2byte	0x1
ARM GAS  /var/folders/28/j9jfyj_n4wz3qtvnym210h2c0000gn/T//ccpoR13X.s 			page 275


 15563 17a2 56       		.byte	0x56
 15564 17a3 C0150000 		.4byte	.LVL356-.Ltext0
 15565 17a7 C4150000 		.4byte	.LVL357-.Ltext0
 15566 17ab 0100     		.2byte	0x1
 15567 17ad 51       		.byte	0x51
 15568 17ae C4150000 		.4byte	.LVL357-.Ltext0
 15569 17b2 CC150000 		.4byte	.LVL359-.Ltext0
 15570 17b6 0100     		.2byte	0x1
 15571 17b8 56       		.byte	0x56
 15572 17b9 00000000 		.4byte	0
 15573 17bd 00000000 		.4byte	0
 15574              	.LLST123:
 15575 17c1 0C160000 		.4byte	.LVL371-.Ltext0
 15576 17c5 0E160000 		.4byte	.LVL372-.Ltext0
 15577 17c9 0200     		.2byte	0x2
 15578 17cb 33       		.byte	0x33
 15579 17cc 9F       		.byte	0x9f
 15580 17cd 0E160000 		.4byte	.LVL372-.Ltext0
 15581 17d1 38160000 		.4byte	.LVL377-.Ltext0
 15582 17d5 0100     		.2byte	0x1
 15583 17d7 56       		.byte	0x56
 15584 17d8 38160000 		.4byte	.LVL377-.Ltext0
 15585 17dc 3C160000 		.4byte	.LVL378-.Ltext0
 15586 17e0 0100     		.2byte	0x1
 15587 17e2 51       		.byte	0x51
 15588 17e3 3C160000 		.4byte	.LVL378-.Ltext0
 15589 17e7 44160000 		.4byte	.LVL380-.Ltext0
 15590 17eb 0100     		.2byte	0x1
 15591 17ed 56       		.byte	0x56
 15592 17ee 00000000 		.4byte	0
 15593 17f2 00000000 		.4byte	0
 15594              	.LLST124:
 15595 17f6 DE0D0000 		.4byte	.LVL224-.Ltext0
 15596 17fa 260E0000 		.4byte	.LVL232-.Ltext0
 15597 17fe 0100     		.2byte	0x1
 15598 1800 58       		.byte	0x58
 15599 1801 20100000 		.4byte	.LVL258-.Ltext0
 15600 1805 28100000 		.4byte	.LVL259-.Ltext0
 15601 1809 0100     		.2byte	0x1
 15602 180b 58       		.byte	0x58
 15603 180c 28100000 		.4byte	.LVL259-.Ltext0
 15604 1810 38100000 		.4byte	.LVL261-.Ltext0
 15605 1814 0200     		.2byte	0x2
 15606 1816 31       		.byte	0x31
 15607 1817 9F       		.byte	0x9f
 15608 1818 38100000 		.4byte	.LVL261-.Ltext0
 15609 181c 3E100000 		.4byte	.LVL262-.Ltext0
 15610 1820 0100     		.2byte	0x1
 15611 1822 58       		.byte	0x58
 15612 1823 3E100000 		.4byte	.LVL262-.Ltext0
 15613 1827 58100000 		.4byte	.LVL264-.Ltext0
 15614 182b 0100     		.2byte	0x1
 15615 182d 59       		.byte	0x59
 15616 182e 58100000 		.4byte	.LVL264-.Ltext0
 15617 1832 60100000 		.4byte	.LVL266-.Ltext0
 15618 1836 0100     		.2byte	0x1
 15619 1838 58       		.byte	0x58
ARM GAS  /var/folders/28/j9jfyj_n4wz3qtvnym210h2c0000gn/T//ccpoR13X.s 			page 276


 15620 1839 6E110000 		.4byte	.LVL281-.Ltext0
 15621 183d 78110000 		.4byte	.LVL284-.Ltext0
 15622 1841 0100     		.2byte	0x1
 15623 1843 59       		.byte	0x59
 15624 1844 E6110000 		.4byte	.LVL296-.Ltext0
 15625 1848 EE110000 		.4byte	.LVL297-.Ltext0
 15626 184c 0100     		.2byte	0x1
 15627 184e 58       		.byte	0x58
 15628 184f EE110000 		.4byte	.LVL297-.Ltext0
 15629 1853 F2110000 		.4byte	.LVL298-.Ltext0
 15630 1857 0300     		.2byte	0x3
 15631 1859 78       		.byte	0x78
 15632 185a 7F       		.sleb128 -1
 15633 185b 9F       		.byte	0x9f
 15634 185c F2110000 		.4byte	.LVL298-.Ltext0
 15635 1860 FC110000 		.4byte	.LVL299-.Ltext0
 15636 1864 0100     		.2byte	0x1
 15637 1866 59       		.byte	0x59
 15638 1867 FC110000 		.4byte	.LVL299-.Ltext0
 15639 186b 16120000 		.4byte	.LVL301-.Ltext0
 15640 186f 0100     		.2byte	0x1
 15641 1871 5A       		.byte	0x5a
 15642 1872 16120000 		.4byte	.LVL301-.Ltext0
 15643 1876 3A120000 		.4byte	.LVL303-.Ltext0
 15644 187a 0100     		.2byte	0x1
 15645 187c 58       		.byte	0x58
 15646 187d 3A120000 		.4byte	.LVL303-.Ltext0
 15647 1881 46120000 		.4byte	.LVL306-.Ltext0
 15648 1885 0100     		.2byte	0x1
 15649 1887 59       		.byte	0x59
 15650 1888 46120000 		.4byte	.LVL306-.Ltext0
 15651 188c 60120000 		.4byte	.LVL308-.Ltext0
 15652 1890 0100     		.2byte	0x1
 15653 1892 58       		.byte	0x58
 15654 1893 60120000 		.4byte	.LVL308-.Ltext0
 15655 1897 68120000 		.4byte	.LVL310-.Ltext0
 15656 189b 0100     		.2byte	0x1
 15657 189d 59       		.byte	0x59
 15658 189e 36140000 		.4byte	.LVL330-.Ltext0
 15659 18a2 40140000 		.4byte	.LVL331-.Ltext0
 15660 18a6 0200     		.2byte	0x2
 15661 18a8 31       		.byte	0x31
 15662 18a9 9F       		.byte	0x9f
 15663 18aa 40140000 		.4byte	.LVL331-.Ltext0
 15664 18ae 50140000 		.4byte	.LVL333-.Ltext0
 15665 18b2 0200     		.2byte	0x2
 15666 18b4 32       		.byte	0x32
 15667 18b5 9F       		.byte	0x9f
 15668 18b6 50140000 		.4byte	.LVL333-.Ltext0
 15669 18ba 56140000 		.4byte	.LVL334-.Ltext0
 15670 18be 0100     		.2byte	0x1
 15671 18c0 58       		.byte	0x58
 15672 18c1 56140000 		.4byte	.LVL334-.Ltext0
 15673 18c5 70140000 		.4byte	.LVL336-.Ltext0
 15674 18c9 0100     		.2byte	0x1
 15675 18cb 59       		.byte	0x59
 15676 18cc 70140000 		.4byte	.LVL336-.Ltext0
ARM GAS  /var/folders/28/j9jfyj_n4wz3qtvnym210h2c0000gn/T//ccpoR13X.s 			page 277


 15677 18d0 78140000 		.4byte	.LVL338-.Ltext0
 15678 18d4 0100     		.2byte	0x1
 15679 18d6 58       		.byte	0x58
 15680 18d7 CC150000 		.4byte	.LVL359-.Ltext0
 15681 18db D6150000 		.4byte	.LVL362-.Ltext0
 15682 18df 0100     		.2byte	0x1
 15683 18e1 58       		.byte	0x58
 15684 18e2 EC150000 		.4byte	.LVL366-.Ltext0
 15685 18e6 F6150000 		.4byte	.LVL369-.Ltext0
 15686 18ea 0100     		.2byte	0x1
 15687 18ec 59       		.byte	0x59
 15688 18ed 44160000 		.4byte	.LVL380-.Ltext0
 15689 18f1 6A160000 		.4byte	.LVL384-.Ltext0
 15690 18f5 0100     		.2byte	0x1
 15691 18f7 59       		.byte	0x59
 15692 18f8 70160000 		.4byte	.LVL386-.Ltext0
 15693 18fc 76160000 		.4byte	.LVL388-.Ltext0
 15694 1900 0100     		.2byte	0x1
 15695 1902 58       		.byte	0x58
 15696 1903 82160000 		.4byte	.LVL390-.Ltext0
 15697 1907 A0160000 		.4byte	.LFE194-.Ltext0
 15698 190b 0100     		.2byte	0x1
 15699 190d 58       		.byte	0x58
 15700 190e 00000000 		.4byte	0
 15701 1912 00000000 		.4byte	0
 15702              	.LLST125:
 15703 1916 DE0D0000 		.4byte	.LVL224-.Ltext0
 15704 191a 140E0000 		.4byte	.LVL229-.Ltext0
 15705 191e 0100     		.2byte	0x1
 15706 1920 54       		.byte	0x54
 15707 1921 20100000 		.4byte	.LVL258-.Ltext0
 15708 1925 60100000 		.4byte	.LVL266-.Ltext0
 15709 1929 0100     		.2byte	0x1
 15710 192b 54       		.byte	0x54
 15711 192c 6E110000 		.4byte	.LVL281-.Ltext0
 15712 1930 78110000 		.4byte	.LVL284-.Ltext0
 15713 1934 0100     		.2byte	0x1
 15714 1936 54       		.byte	0x54
 15715 1937 E6110000 		.4byte	.LVL296-.Ltext0
 15716 193b 68120000 		.4byte	.LVL310-.Ltext0
 15717 193f 0100     		.2byte	0x1
 15718 1941 54       		.byte	0x54
 15719 1942 36140000 		.4byte	.LVL330-.Ltext0
 15720 1946 78140000 		.4byte	.LVL338-.Ltext0
 15721 194a 0100     		.2byte	0x1
 15722 194c 54       		.byte	0x54
 15723 194d CC150000 		.4byte	.LVL359-.Ltext0
 15724 1951 D6150000 		.4byte	.LVL362-.Ltext0
 15725 1955 0100     		.2byte	0x1
 15726 1957 54       		.byte	0x54
 15727 1958 EC150000 		.4byte	.LVL366-.Ltext0
 15728 195c F6150000 		.4byte	.LVL369-.Ltext0
 15729 1960 0100     		.2byte	0x1
 15730 1962 54       		.byte	0x54
 15731 1963 44160000 		.4byte	.LVL380-.Ltext0
 15732 1967 6A160000 		.4byte	.LVL384-.Ltext0
 15733 196b 0100     		.2byte	0x1
ARM GAS  /var/folders/28/j9jfyj_n4wz3qtvnym210h2c0000gn/T//ccpoR13X.s 			page 278


 15734 196d 54       		.byte	0x54
 15735 196e 70160000 		.4byte	.LVL386-.Ltext0
 15736 1972 72160000 		.4byte	.LVL387-.Ltext0
 15737 1976 0100     		.2byte	0x1
 15738 1978 54       		.byte	0x54
 15739 1979 72160000 		.4byte	.LVL387-.Ltext0
 15740 197d 76160000 		.4byte	.LVL388-.Ltext0
 15741 1981 0200     		.2byte	0x2
 15742 1983 73       		.byte	0x73
 15743 1984 10       		.sleb128 16
 15744 1985 82160000 		.4byte	.LVL390-.Ltext0
 15745 1989 A0160000 		.4byte	.LFE194-.Ltext0
 15746 198d 0100     		.2byte	0x1
 15747 198f 54       		.byte	0x54
 15748 1990 00000000 		.4byte	0
 15749 1994 00000000 		.4byte	0
 15750              	.LLST126:
 15751 1998 E00D0000 		.4byte	.LVL225-.Ltext0
 15752 199c 540E0000 		.4byte	.LVL235-.Ltext0
 15753 19a0 0100     		.2byte	0x1
 15754 19a2 57       		.byte	0x57
 15755 19a3 20100000 		.4byte	.LVL258-.Ltext0
 15756 19a7 60100000 		.4byte	.LVL266-.Ltext0
 15757 19ab 0100     		.2byte	0x1
 15758 19ad 57       		.byte	0x57
 15759 19ae 6E110000 		.4byte	.LVL281-.Ltext0
 15760 19b2 78110000 		.4byte	.LVL284-.Ltext0
 15761 19b6 0100     		.2byte	0x1
 15762 19b8 57       		.byte	0x57
 15763 19b9 E6110000 		.4byte	.LVL296-.Ltext0
 15764 19bd 68120000 		.4byte	.LVL310-.Ltext0
 15765 19c1 0100     		.2byte	0x1
 15766 19c3 57       		.byte	0x57
 15767 19c4 36140000 		.4byte	.LVL330-.Ltext0
 15768 19c8 78140000 		.4byte	.LVL338-.Ltext0
 15769 19cc 0100     		.2byte	0x1
 15770 19ce 57       		.byte	0x57
 15771 19cf CC150000 		.4byte	.LVL359-.Ltext0
 15772 19d3 D6150000 		.4byte	.LVL362-.Ltext0
 15773 19d7 0100     		.2byte	0x1
 15774 19d9 57       		.byte	0x57
 15775 19da E2150000 		.4byte	.LVL364-.Ltext0
 15776 19de F6150000 		.4byte	.LVL369-.Ltext0
 15777 19e2 0100     		.2byte	0x1
 15778 19e4 57       		.byte	0x57
 15779 19e5 44160000 		.4byte	.LVL380-.Ltext0
 15780 19e9 6A160000 		.4byte	.LVL384-.Ltext0
 15781 19ed 0100     		.2byte	0x1
 15782 19ef 57       		.byte	0x57
 15783 19f0 70160000 		.4byte	.LVL386-.Ltext0
 15784 19f4 76160000 		.4byte	.LVL388-.Ltext0
 15785 19f8 0100     		.2byte	0x1
 15786 19fa 57       		.byte	0x57
 15787 19fb 82160000 		.4byte	.LVL390-.Ltext0
 15788 19ff A0160000 		.4byte	.LFE194-.Ltext0
 15789 1a03 0100     		.2byte	0x1
 15790 1a05 57       		.byte	0x57
ARM GAS  /var/folders/28/j9jfyj_n4wz3qtvnym210h2c0000gn/T//ccpoR13X.s 			page 279


 15791 1a06 00000000 		.4byte	0
 15792 1a0a 00000000 		.4byte	0
 15793              	.LLST127:
 15794 1a0e E60D0000 		.4byte	.LVL226-.Ltext0
 15795 1a12 F60D0000 		.4byte	.LVL227-.Ltext0
 15796 1a16 0200     		.2byte	0x2
 15797 1a18 30       		.byte	0x30
 15798 1a19 9F       		.byte	0x9f
 15799 1a1a F60D0000 		.4byte	.LVL227-.Ltext0
 15800 1a1e 0D0E0000 		.4byte	.LVL228-1-.Ltext0
 15801 1a22 0100     		.2byte	0x1
 15802 1a24 53       		.byte	0x53
 15803 1a25 0D0E0000 		.4byte	.LVL228-1-.Ltext0
 15804 1a29 0E0E0000 		.4byte	.LVL228-.Ltext0
 15805 1a2d 0300     		.2byte	0x3
 15806 1a2f 76       		.byte	0x76
 15807 1a30 7F       		.sleb128 -1
 15808 1a31 9F       		.byte	0x9f
 15809 1a32 0E0E0000 		.4byte	.LVL228-.Ltext0
 15810 1a36 140E0000 		.4byte	.LVL229-.Ltext0
 15811 1a3a 0100     		.2byte	0x1
 15812 1a3c 5B       		.byte	0x5b
 15813 1a3d 140E0000 		.4byte	.LVL229-.Ltext0
 15814 1a41 160E0000 		.4byte	.LVL230-.Ltext0
 15815 1a45 0100     		.2byte	0x1
 15816 1a47 54       		.byte	0x54
 15817 1a48 160E0000 		.4byte	.LVL230-.Ltext0
 15818 1a4c 220E0000 		.4byte	.LVL231-.Ltext0
 15819 1a50 0300     		.2byte	0x3
 15820 1a52 74       		.byte	0x74
 15821 1a53 7F       		.sleb128 -1
 15822 1a54 9F       		.byte	0x9f
 15823 1a55 220E0000 		.4byte	.LVL231-.Ltext0
 15824 1a59 260E0000 		.4byte	.LVL232-.Ltext0
 15825 1a5d 0100     		.2byte	0x1
 15826 1a5f 54       		.byte	0x54
 15827 1a60 70160000 		.4byte	.LVL386-.Ltext0
 15828 1a64 72160000 		.4byte	.LVL387-.Ltext0
 15829 1a68 0200     		.2byte	0x2
 15830 1a6a 30       		.byte	0x30
 15831 1a6b 9F       		.byte	0x9f
 15832 1a6c 72160000 		.4byte	.LVL387-.Ltext0
 15833 1a70 76160000 		.4byte	.LVL388-.Ltext0
 15834 1a74 0100     		.2byte	0x1
 15835 1a76 54       		.byte	0x54
 15836 1a77 82160000 		.4byte	.LVL390-.Ltext0
 15837 1a7b 8B160000 		.4byte	.LVL391-1-.Ltext0
 15838 1a7f 0100     		.2byte	0x1
 15839 1a81 53       		.byte	0x53
 15840 1a82 8B160000 		.4byte	.LVL391-1-.Ltext0
 15841 1a86 92160000 		.4byte	.LVL392-.Ltext0
 15842 1a8a 0300     		.2byte	0x3
 15843 1a8c 76       		.byte	0x76
 15844 1a8d 7F       		.sleb128 -1
 15845 1a8e 9F       		.byte	0x9f
 15846 1a8f 00000000 		.4byte	0
 15847 1a93 00000000 		.4byte	0
ARM GAS  /var/folders/28/j9jfyj_n4wz3qtvnym210h2c0000gn/T//ccpoR13X.s 			page 280


 15848              	.LLST128:
 15849 1a97 32100000 		.4byte	.LVL260-.Ltext0
 15850 1a9b 38100000 		.4byte	.LVL261-.Ltext0
 15851 1a9f 0200     		.2byte	0x2
 15852 1aa1 32       		.byte	0x32
 15853 1aa2 9F       		.byte	0x9f
 15854 1aa3 38100000 		.4byte	.LVL261-.Ltext0
 15855 1aa7 60100000 		.4byte	.LVL266-.Ltext0
 15856 1aab 0100     		.2byte	0x1
 15857 1aad 56       		.byte	0x56
 15858 1aae 6E110000 		.4byte	.LVL281-.Ltext0
 15859 1ab2 72110000 		.4byte	.LVL282-.Ltext0
 15860 1ab6 0100     		.2byte	0x1
 15861 1ab8 51       		.byte	0x51
 15862 1ab9 72110000 		.4byte	.LVL282-.Ltext0
 15863 1abd 78110000 		.4byte	.LVL284-.Ltext0
 15864 1ac1 0100     		.2byte	0x1
 15865 1ac3 56       		.byte	0x56
 15866 1ac4 00000000 		.4byte	0
 15867 1ac8 00000000 		.4byte	0
 15868              	.LLST129:
 15869 1acc 3E120000 		.4byte	.LVL304-.Ltext0
 15870 1ad0 40120000 		.4byte	.LVL305-.Ltext0
 15871 1ad4 0200     		.2byte	0x2
 15872 1ad6 34       		.byte	0x34
 15873 1ad7 9F       		.byte	0x9f
 15874 1ad8 40120000 		.4byte	.LVL305-.Ltext0
 15875 1adc 68120000 		.4byte	.LVL310-.Ltext0
 15876 1ae0 0100     		.2byte	0x1
 15877 1ae2 56       		.byte	0x56
 15878 1ae3 CC150000 		.4byte	.LVL359-.Ltext0
 15879 1ae7 D0150000 		.4byte	.LVL360-.Ltext0
 15880 1aeb 0100     		.2byte	0x1
 15881 1aed 51       		.byte	0x51
 15882 1aee D0150000 		.4byte	.LVL360-.Ltext0
 15883 1af2 D6150000 		.4byte	.LVL362-.Ltext0
 15884 1af6 0100     		.2byte	0x1
 15885 1af8 56       		.byte	0x56
 15886 1af9 00000000 		.4byte	0
 15887 1afd 00000000 		.4byte	0
 15888              	.LLST130:
 15889 1b01 4A140000 		.4byte	.LVL332-.Ltext0
 15890 1b05 50140000 		.4byte	.LVL333-.Ltext0
 15891 1b09 0200     		.2byte	0x2
 15892 1b0b 33       		.byte	0x33
 15893 1b0c 9F       		.byte	0x9f
 15894 1b0d 50140000 		.4byte	.LVL333-.Ltext0
 15895 1b11 78140000 		.4byte	.LVL338-.Ltext0
 15896 1b15 0100     		.2byte	0x1
 15897 1b17 56       		.byte	0x56
 15898 1b18 EC150000 		.4byte	.LVL366-.Ltext0
 15899 1b1c F0150000 		.4byte	.LVL367-.Ltext0
 15900 1b20 0100     		.2byte	0x1
 15901 1b22 51       		.byte	0x51
 15902 1b23 F0150000 		.4byte	.LVL367-.Ltext0
 15903 1b27 F6150000 		.4byte	.LVL369-.Ltext0
 15904 1b2b 0100     		.2byte	0x1
ARM GAS  /var/folders/28/j9jfyj_n4wz3qtvnym210h2c0000gn/T//ccpoR13X.s 			page 281


 15905 1b2d 56       		.byte	0x56
 15906 1b2e 00000000 		.4byte	0
 15907 1b32 00000000 		.4byte	0
 15908              		.section	.debug_aranges,"",%progbits
 15909 0000 1C000000 		.4byte	0x1c
 15910 0004 0200     		.2byte	0x2
 15911 0006 00000000 		.4byte	.Ldebug_info0
 15912 000a 04       		.byte	0x4
 15913 000b 00       		.byte	0
 15914 000c 0000     		.2byte	0
 15915 000e 0000     		.2byte	0
 15916 0010 00000000 		.4byte	.Ltext0
 15917 0014 A0160000 		.4byte	.Letext0-.Ltext0
 15918 0018 00000000 		.4byte	0
 15919 001c 00000000 		.4byte	0
 15920              		.section	.debug_ranges,"",%progbits
 15921              	.Ldebug_ranges0:
 15922 0000 60000000 		.4byte	.LBB45-.Ltext0
 15923 0004 64000000 		.4byte	.LBE45-.Ltext0
 15924 0008 66000000 		.4byte	.LBB59-.Ltext0
 15925 000c 68000000 		.4byte	.LBE59-.Ltext0
 15926 0010 88000000 		.4byte	.LBB60-.Ltext0
 15927 0014 8C000000 		.4byte	.LBE60-.Ltext0
 15928 0018 94000000 		.4byte	.LBB61-.Ltext0
 15929 001c F0000000 		.4byte	.LBE61-.Ltext0
 15930 0020 00000000 		.4byte	0
 15931 0024 00000000 		.4byte	0
 15932 0028 60000000 		.4byte	.LBB46-.Ltext0
 15933 002c 64000000 		.4byte	.LBE46-.Ltext0
 15934 0030 66000000 		.4byte	.LBB57-.Ltext0
 15935 0034 68000000 		.4byte	.LBE57-.Ltext0
 15936 0038 BC000000 		.4byte	.LBB58-.Ltext0
 15937 003c F0000000 		.4byte	.LBE58-.Ltext0
 15938 0040 00000000 		.4byte	0
 15939 0044 00000000 		.4byte	0
 15940 0048 60000000 		.4byte	.LBB47-.Ltext0
 15941 004c 64000000 		.4byte	.LBE47-.Ltext0
 15942 0050 66000000 		.4byte	.LBB53-.Ltext0
 15943 0054 68000000 		.4byte	.LBE53-.Ltext0
 15944 0058 CE000000 		.4byte	.LBB54-.Ltext0
 15945 005c D2000000 		.4byte	.LBE54-.Ltext0
 15946 0060 D6000000 		.4byte	.LBB55-.Ltext0
 15947 0064 DE000000 		.4byte	.LBE55-.Ltext0
 15948 0068 E2000000 		.4byte	.LBB56-.Ltext0
 15949 006c EC000000 		.4byte	.LBE56-.Ltext0
 15950 0070 00000000 		.4byte	0
 15951 0074 00000000 		.4byte	0
 15952 0078 F0000000 		.4byte	.LBB62-.Ltext0
 15953 007c F2000000 		.4byte	.LBE62-.Ltext0
 15954 0080 F4000000 		.4byte	.LBB65-.Ltext0
 15955 0084 08010000 		.4byte	.LBE65-.Ltext0
 15956 0088 00000000 		.4byte	0
 15957 008c 00000000 		.4byte	0
 15958 0090 7C010000 		.4byte	.LBB75-.Ltext0
 15959 0094 7E010000 		.4byte	.LBE75-.Ltext0
 15960 0098 98010000 		.4byte	.LBB82-.Ltext0
 15961 009c C8010000 		.4byte	.LBE82-.Ltext0
ARM GAS  /var/folders/28/j9jfyj_n4wz3qtvnym210h2c0000gn/T//ccpoR13X.s 			page 282


 15962 00a0 00000000 		.4byte	0
 15963 00a4 00000000 		.4byte	0
 15964 00a8 7C010000 		.4byte	.LBB76-.Ltext0
 15965 00ac 7E010000 		.4byte	.LBE76-.Ltext0
 15966 00b0 98010000 		.4byte	.LBB80-.Ltext0
 15967 00b4 9A010000 		.4byte	.LBE80-.Ltext0
 15968 00b8 9C010000 		.4byte	.LBB81-.Ltext0
 15969 00bc AE010000 		.4byte	.LBE81-.Ltext0
 15970 00c0 00000000 		.4byte	0
 15971 00c4 00000000 		.4byte	0
 15972 00c8 A4020000 		.4byte	.LBB89-.Ltext0
 15973 00cc BC020000 		.4byte	.LBE89-.Ltext0
 15974 00d0 D2020000 		.4byte	.LBB94-.Ltext0
 15975 00d4 DC020000 		.4byte	.LBE94-.Ltext0
 15976 00d8 00000000 		.4byte	0
 15977 00dc 00000000 		.4byte	0
 15978 00e0 A4020000 		.4byte	.LBB91-.Ltext0
 15979 00e4 BC020000 		.4byte	.LBE91-.Ltext0
 15980 00e8 D2020000 		.4byte	.LBB92-.Ltext0
 15981 00ec DC020000 		.4byte	.LBE92-.Ltext0
 15982 00f0 00000000 		.4byte	0
 15983 00f4 00000000 		.4byte	0
 15984 00f8 16030000 		.4byte	.LBB98-.Ltext0
 15985 00fc 2E030000 		.4byte	.LBE98-.Ltext0
 15986 0100 3E030000 		.4byte	.LBB103-.Ltext0
 15987 0104 48030000 		.4byte	.LBE103-.Ltext0
 15988 0108 00000000 		.4byte	0
 15989 010c 00000000 		.4byte	0
 15990 0110 16030000 		.4byte	.LBB100-.Ltext0
 15991 0114 2E030000 		.4byte	.LBE100-.Ltext0
 15992 0118 3E030000 		.4byte	.LBB101-.Ltext0
 15993 011c 48030000 		.4byte	.LBE101-.Ltext0
 15994 0120 00000000 		.4byte	0
 15995 0124 00000000 		.4byte	0
 15996 0128 D2030000 		.4byte	.LBB104-.Ltext0
 15997 012c DE030000 		.4byte	.LBE104-.Ltext0
 15998 0130 E6030000 		.4byte	.LBB105-.Ltext0
 15999 0134 FC030000 		.4byte	.LBE105-.Ltext0
 16000 0138 00000000 		.4byte	0
 16001 013c 00000000 		.4byte	0
 16002 0140 AA040000 		.4byte	.LBB106-.Ltext0
 16003 0144 EC040000 		.4byte	.LBE106-.Ltext0
 16004 0148 FA040000 		.4byte	.LBB107-.Ltext0
 16005 014c 24050000 		.4byte	.LBE107-.Ltext0
 16006 0150 00000000 		.4byte	0
 16007 0154 00000000 		.4byte	0
 16008 0158 78050000 		.4byte	.LBB108-.Ltext0
 16009 015c 7A050000 		.4byte	.LBE108-.Ltext0
 16010 0160 8C050000 		.4byte	.LBB114-.Ltext0
 16011 0164 92050000 		.4byte	.LBE114-.Ltext0
 16012 0168 96050000 		.4byte	.LBB120-.Ltext0
 16013 016c 98050000 		.4byte	.LBE120-.Ltext0
 16014 0170 9C050000 		.4byte	.LBB122-.Ltext0
 16015 0174 A2050000 		.4byte	.LBE122-.Ltext0
 16016 0178 A6050000 		.4byte	.LBB124-.Ltext0
 16017 017c A8050000 		.4byte	.LBE124-.Ltext0
 16018 0180 00000000 		.4byte	0
ARM GAS  /var/folders/28/j9jfyj_n4wz3qtvnym210h2c0000gn/T//ccpoR13X.s 			page 283


 16019 0184 00000000 		.4byte	0
 16020 0188 92050000 		.4byte	.LBB115-.Ltext0
 16021 018c 96050000 		.4byte	.LBE115-.Ltext0
 16022 0190 98050000 		.4byte	.LBB121-.Ltext0
 16023 0194 9C050000 		.4byte	.LBE121-.Ltext0
 16024 0198 A2050000 		.4byte	.LBB123-.Ltext0
 16025 019c A6050000 		.4byte	.LBE123-.Ltext0
 16026 01a0 A8050000 		.4byte	.LBB125-.Ltext0
 16027 01a4 AA050000 		.4byte	.LBE125-.Ltext0
 16028 01a8 00000000 		.4byte	0
 16029 01ac 00000000 		.4byte	0
 16030 01b0 B4050000 		.4byte	.LBB126-.Ltext0
 16031 01b4 B8050000 		.4byte	.LBE126-.Ltext0
 16032 01b8 BA050000 		.4byte	.LBB133-.Ltext0
 16033 01bc BE050000 		.4byte	.LBE133-.Ltext0
 16034 01c0 C2050000 		.4byte	.LBB140-.Ltext0
 16035 01c4 C6050000 		.4byte	.LBE140-.Ltext0
 16036 01c8 C8050000 		.4byte	.LBB142-.Ltext0
 16037 01cc CA050000 		.4byte	.LBE142-.Ltext0
 16038 01d0 CC050000 		.4byte	.LBB144-.Ltext0
 16039 01d4 D0050000 		.4byte	.LBE144-.Ltext0
 16040 01d8 D6050000 		.4byte	.LBB146-.Ltext0
 16041 01dc E2050000 		.4byte	.LBE146-.Ltext0
 16042 01e0 00000000 		.4byte	0
 16043 01e4 00000000 		.4byte	0
 16044 01e8 BE050000 		.4byte	.LBB134-.Ltext0
 16045 01ec C0050000 		.4byte	.LBE134-.Ltext0
 16046 01f0 C6050000 		.4byte	.LBB141-.Ltext0
 16047 01f4 C8050000 		.4byte	.LBE141-.Ltext0
 16048 01f8 CA050000 		.4byte	.LBB143-.Ltext0
 16049 01fc CC050000 		.4byte	.LBE143-.Ltext0
 16050 0200 D0050000 		.4byte	.LBB145-.Ltext0
 16051 0204 D6050000 		.4byte	.LBE145-.Ltext0
 16052 0208 E2050000 		.4byte	.LBB147-.Ltext0
 16053 020c E8050000 		.4byte	.LBE147-.Ltext0
 16054 0210 00000000 		.4byte	0
 16055 0214 00000000 		.4byte	0
 16056 0218 FE050000 		.4byte	.LBB150-.Ltext0
 16057 021c 02060000 		.4byte	.LBE150-.Ltext0
 16058 0220 06060000 		.4byte	.LBB158-.Ltext0
 16059 0224 0C060000 		.4byte	.LBE158-.Ltext0
 16060 0228 1E060000 		.4byte	.LBB177-.Ltext0
 16061 022c 22060000 		.4byte	.LBE177-.Ltext0
 16062 0230 28060000 		.4byte	.LBB180-.Ltext0
 16063 0234 2A060000 		.4byte	.LBE180-.Ltext0
 16064 0238 3C060000 		.4byte	.LBB184-.Ltext0
 16065 023c 40060000 		.4byte	.LBE184-.Ltext0
 16066 0240 50060000 		.4byte	.LBB189-.Ltext0
 16067 0244 54060000 		.4byte	.LBE189-.Ltext0
 16068 0248 5A060000 		.4byte	.LBB191-.Ltext0
 16069 024c 5C060000 		.4byte	.LBE191-.Ltext0
 16070 0250 00000000 		.4byte	0
 16071 0254 00000000 		.4byte	0
 16072 0258 0C060000 		.4byte	.LBB159-.Ltext0
 16073 025c 10060000 		.4byte	.LBE159-.Ltext0
 16074 0260 24060000 		.4byte	.LBB179-.Ltext0
 16075 0264 28060000 		.4byte	.LBE179-.Ltext0
ARM GAS  /var/folders/28/j9jfyj_n4wz3qtvnym210h2c0000gn/T//ccpoR13X.s 			page 284


 16076 0268 3A060000 		.4byte	.LBB183-.Ltext0
 16077 026c 3C060000 		.4byte	.LBE183-.Ltext0
 16078 0270 44060000 		.4byte	.LBB187-.Ltext0
 16079 0274 4E060000 		.4byte	.LBE187-.Ltext0
 16080 0278 00000000 		.4byte	0
 16081 027c 00000000 		.4byte	0
 16082 0280 10060000 		.4byte	.LBB164-.Ltext0
 16083 0284 16060000 		.4byte	.LBE164-.Ltext0
 16084 0288 2A060000 		.4byte	.LBB181-.Ltext0
 16085 028c 2C060000 		.4byte	.LBE181-.Ltext0
 16086 0290 40060000 		.4byte	.LBB185-.Ltext0
 16087 0294 42060000 		.4byte	.LBE185-.Ltext0
 16088 0298 4E060000 		.4byte	.LBB188-.Ltext0
 16089 029c 50060000 		.4byte	.LBE188-.Ltext0
 16090 02a0 54060000 		.4byte	.LBB190-.Ltext0
 16091 02a4 5A060000 		.4byte	.LBE190-.Ltext0
 16092 02a8 5E060000 		.4byte	.LBB193-.Ltext0
 16093 02ac 62060000 		.4byte	.LBE193-.Ltext0
 16094 02b0 00000000 		.4byte	0
 16095 02b4 00000000 		.4byte	0
 16096 02b8 16060000 		.4byte	.LBB171-.Ltext0
 16097 02bc 1E060000 		.4byte	.LBE171-.Ltext0
 16098 02c0 22060000 		.4byte	.LBB178-.Ltext0
 16099 02c4 24060000 		.4byte	.LBE178-.Ltext0
 16100 02c8 2C060000 		.4byte	.LBB182-.Ltext0
 16101 02cc 34060000 		.4byte	.LBE182-.Ltext0
 16102 02d0 42060000 		.4byte	.LBB186-.Ltext0
 16103 02d4 44060000 		.4byte	.LBE186-.Ltext0
 16104 02d8 62060000 		.4byte	.LBB194-.Ltext0
 16105 02dc 6E060000 		.4byte	.LBE194-.Ltext0
 16106 02e0 00000000 		.4byte	0
 16107 02e4 00000000 		.4byte	0
 16108 02e8 5C060000 		.4byte	.LBB192-.Ltext0
 16109 02ec 5E060000 		.4byte	.LBE192-.Ltext0
 16110 02f0 6E060000 		.4byte	.LBB195-.Ltext0
 16111 02f4 82060000 		.4byte	.LBE195-.Ltext0
 16112 02f8 86060000 		.4byte	.LBB196-.Ltext0
 16113 02fc 8E060000 		.4byte	.LBE196-.Ltext0
 16114 0300 92060000 		.4byte	.LBB197-.Ltext0
 16115 0304 A6060000 		.4byte	.LBE197-.Ltext0
 16116 0308 00000000 		.4byte	0
 16117 030c 00000000 		.4byte	0
 16118 0310 E2080000 		.4byte	.LBB200-.Ltext0
 16119 0314 FE080000 		.4byte	.LBE200-.Ltext0
 16120 0318 02090000 		.4byte	.LBB203-.Ltext0
 16121 031c 06090000 		.4byte	.LBE203-.Ltext0
 16122 0320 00000000 		.4byte	0
 16123 0324 00000000 		.4byte	0
 16124 0328 06090000 		.4byte	.LBB204-.Ltext0
 16125 032c 4E090000 		.4byte	.LBE204-.Ltext0
 16126 0330 52090000 		.4byte	.LBB207-.Ltext0
 16127 0334 56090000 		.4byte	.LBE207-.Ltext0
 16128 0338 00000000 		.4byte	0
 16129 033c 00000000 		.4byte	0
 16130 0340 0A0A0000 		.4byte	.LBB286-.Ltext0
 16131 0344 CC0B0000 		.4byte	.LBE286-.Ltext0
 16132 0348 CE0B0000 		.4byte	.LBB448-.Ltext0
ARM GAS  /var/folders/28/j9jfyj_n4wz3qtvnym210h2c0000gn/T//ccpoR13X.s 			page 285


 16133 034c D40B0000 		.4byte	.LBE448-.Ltext0
 16134 0350 D60B0000 		.4byte	.LBB450-.Ltext0
 16135 0354 DE0B0000 		.4byte	.LBE450-.Ltext0
 16136 0358 C40C0000 		.4byte	.LBB454-.Ltext0
 16137 035c D80D0000 		.4byte	.LBE454-.Ltext0
 16138 0360 640E0000 		.4byte	.LBB457-.Ltext0
 16139 0364 480F0000 		.4byte	.LBE457-.Ltext0
 16140 0368 880F0000 		.4byte	.LBB459-.Ltext0
 16141 036c 20100000 		.4byte	.LBE459-.Ltext0
 16142 0370 60100000 		.4byte	.LBB461-.Ltext0
 16143 0374 62110000 		.4byte	.LBE461-.Ltext0
 16144 0378 68120000 		.4byte	.LBB464-.Ltext0
 16145 037c B4130000 		.4byte	.LBE464-.Ltext0
 16146 0380 FE130000 		.4byte	.LBB466-.Ltext0
 16147 0384 36140000 		.4byte	.LBE466-.Ltext0
 16148 0388 78140000 		.4byte	.LBB468-.Ltext0
 16149 038c C0150000 		.4byte	.LBE468-.Ltext0
 16150 0390 00000000 		.4byte	0
 16151 0394 00000000 		.4byte	0
 16152 0398 C40C0000 		.4byte	.LBB288-.Ltext0
 16153 039c 0A0D0000 		.4byte	.LBE288-.Ltext0
 16154 03a0 D80E0000 		.4byte	.LBB368-.Ltext0
 16155 03a4 480F0000 		.4byte	.LBE368-.Ltext0
 16156 03a8 880F0000 		.4byte	.LBB369-.Ltext0
 16157 03ac A80F0000 		.4byte	.LBE369-.Ltext0
 16158 03b0 60100000 		.4byte	.LBB371-.Ltext0
 16159 03b4 E0100000 		.4byte	.LBE371-.Ltext0
 16160 03b8 00000000 		.4byte	0
 16161 03bc 00000000 		.4byte	0
 16162 03c0 E60C0000 		.4byte	.LBB289-.Ltext0
 16163 03c4 0A0D0000 		.4byte	.LBE289-.Ltext0
 16164 03c8 D80E0000 		.4byte	.LBB296-.Ltext0
 16165 03cc EC0E0000 		.4byte	.LBE296-.Ltext0
 16166 03d0 020F0000 		.4byte	.LBB297-.Ltext0
 16167 03d4 480F0000 		.4byte	.LBE297-.Ltext0
 16168 03d8 00000000 		.4byte	0
 16169 03dc 00000000 		.4byte	0
 16170 03e0 62100000 		.4byte	.LBB298-.Ltext0
 16171 03e4 8A100000 		.4byte	.LBE298-.Ltext0
 16172 03e8 9A100000 		.4byte	.LBB304-.Ltext0
 16173 03ec E0100000 		.4byte	.LBE304-.Ltext0
 16174 03f0 00000000 		.4byte	0
 16175 03f4 00000000 		.4byte	0
 16176 03f8 0A0D0000 		.4byte	.LBB305-.Ltext0
 16177 03fc 7A0D0000 		.4byte	.LBE305-.Ltext0
 16178 0400 68120000 		.4byte	.LBB373-.Ltext0
 16179 0404 10130000 		.4byte	.LBE373-.Ltext0
 16180 0408 FE130000 		.4byte	.LBB375-.Ltext0
 16181 040c 30140000 		.4byte	.LBE375-.Ltext0
 16182 0410 98140000 		.4byte	.LBB378-.Ltext0
 16183 0414 38150000 		.4byte	.LBE378-.Ltext0
 16184 0418 00000000 		.4byte	0
 16185 041c 00000000 		.4byte	0
 16186 0420 68120000 		.4byte	.LBB306-.Ltext0
 16187 0424 AC120000 		.4byte	.LBE306-.Ltext0
 16188 0428 10140000 		.4byte	.LBB325-.Ltext0
 16189 042c 28140000 		.4byte	.LBE325-.Ltext0
ARM GAS  /var/folders/28/j9jfyj_n4wz3qtvnym210h2c0000gn/T//ccpoR13X.s 			page 286


 16190 0430 98140000 		.4byte	.LBB326-.Ltext0
 16191 0434 E8140000 		.4byte	.LBE326-.Ltext0
 16192 0438 00000000 		.4byte	0
 16193 043c 00000000 		.4byte	0
 16194 0440 AC120000 		.4byte	.LBB313-.Ltext0
 16195 0444 F0120000 		.4byte	.LBE313-.Ltext0
 16196 0448 FE130000 		.4byte	.LBB324-.Ltext0
 16197 044c 10140000 		.4byte	.LBE324-.Ltext0
 16198 0450 E8140000 		.4byte	.LBB327-.Ltext0
 16199 0454 38150000 		.4byte	.LBE327-.Ltext0
 16200 0458 00000000 		.4byte	0
 16201 045c 00000000 		.4byte	0
 16202 0460 960D0000 		.4byte	.LBB328-.Ltext0
 16203 0464 D80D0000 		.4byte	.LBE328-.Ltext0
 16204 0468 A80F0000 		.4byte	.LBB370-.Ltext0
 16205 046c 20100000 		.4byte	.LBE370-.Ltext0
 16206 0470 E0100000 		.4byte	.LBB372-.Ltext0
 16207 0474 62110000 		.4byte	.LBE372-.Ltext0
 16208 0478 00000000 		.4byte	0
 16209 047c 00000000 		.4byte	0
 16210 0480 B40D0000 		.4byte	.LBB329-.Ltext0
 16211 0484 D80D0000 		.4byte	.LBE329-.Ltext0
 16212 0488 A80F0000 		.4byte	.LBB336-.Ltext0
 16213 048c BC0F0000 		.4byte	.LBE336-.Ltext0
 16214 0490 D20F0000 		.4byte	.LBB337-.Ltext0
 16215 0494 18100000 		.4byte	.LBE337-.Ltext0
 16216 0498 00000000 		.4byte	0
 16217 049c 00000000 		.4byte	0
 16218 04a0 E4100000 		.4byte	.LBB338-.Ltext0
 16219 04a4 0C110000 		.4byte	.LBE338-.Ltext0
 16220 04a8 1C110000 		.4byte	.LBB344-.Ltext0
 16221 04ac 62110000 		.4byte	.LBE344-.Ltext0
 16222 04b0 00000000 		.4byte	0
 16223 04b4 00000000 		.4byte	0
 16224 04b8 640E0000 		.4byte	.LBB345-.Ltext0
 16225 04bc D20E0000 		.4byte	.LBE345-.Ltext0
 16226 04c0 10130000 		.4byte	.LBB374-.Ltext0
 16227 04c4 B4130000 		.4byte	.LBE374-.Ltext0
 16228 04c8 30140000 		.4byte	.LBB376-.Ltext0
 16229 04cc 36140000 		.4byte	.LBE376-.Ltext0
 16230 04d0 78140000 		.4byte	.LBB377-.Ltext0
 16231 04d4 98140000 		.4byte	.LBE377-.Ltext0
 16232 04d8 38150000 		.4byte	.LBB379-.Ltext0
 16233 04dc C0150000 		.4byte	.LBE379-.Ltext0
 16234 04e0 00000000 		.4byte	0
 16235 04e4 00000000 		.4byte	0
 16236 04e8 10130000 		.4byte	.LBB346-.Ltext0
 16237 04ec 54130000 		.4byte	.LBE346-.Ltext0
 16238 04f0 78140000 		.4byte	.LBB364-.Ltext0
 16239 04f4 86140000 		.4byte	.LBE364-.Ltext0
 16240 04f8 7C150000 		.4byte	.LBB367-.Ltext0
 16241 04fc C0150000 		.4byte	.LBE367-.Ltext0
 16242 0500 00000000 		.4byte	0
 16243 0504 00000000 		.4byte	0
 16244 0508 54130000 		.4byte	.LBB353-.Ltext0
 16245 050c 98130000 		.4byte	.LBE353-.Ltext0
 16246 0510 86140000 		.4byte	.LBB365-.Ltext0
ARM GAS  /var/folders/28/j9jfyj_n4wz3qtvnym210h2c0000gn/T//ccpoR13X.s 			page 287


 16247 0514 98140000 		.4byte	.LBE365-.Ltext0
 16248 0518 38150000 		.4byte	.LBB366-.Ltext0
 16249 051c 7C150000 		.4byte	.LBE366-.Ltext0
 16250 0520 00000000 		.4byte	0
 16251 0524 00000000 		.4byte	0
 16252 0528 CC0B0000 		.4byte	.LBB389-.Ltext0
 16253 052c CE0B0000 		.4byte	.LBE389-.Ltext0
 16254 0530 D40B0000 		.4byte	.LBB449-.Ltext0
 16255 0534 D60B0000 		.4byte	.LBE449-.Ltext0
 16256 0538 DE0B0000 		.4byte	.LBB451-.Ltext0
 16257 053c F60B0000 		.4byte	.LBE451-.Ltext0
 16258 0540 FC0B0000 		.4byte	.LBB452-.Ltext0
 16259 0544 960C0000 		.4byte	.LBE452-.Ltext0
 16260 0548 9C0C0000 		.4byte	.LBB453-.Ltext0
 16261 054c C40C0000 		.4byte	.LBE453-.Ltext0
 16262 0550 D80D0000 		.4byte	.LBB455-.Ltext0
 16263 0554 5A0E0000 		.4byte	.LBE455-.Ltext0
 16264 0558 600E0000 		.4byte	.LBB456-.Ltext0
 16265 055c 640E0000 		.4byte	.LBE456-.Ltext0
 16266 0560 480F0000 		.4byte	.LBB458-.Ltext0
 16267 0564 880F0000 		.4byte	.LBE458-.Ltext0
 16268 0568 20100000 		.4byte	.LBB460-.Ltext0
 16269 056c 60100000 		.4byte	.LBE460-.Ltext0
 16270 0570 62110000 		.4byte	.LBB462-.Ltext0
 16271 0574 7C110000 		.4byte	.LBE462-.Ltext0
 16272 0578 82110000 		.4byte	.LBB463-.Ltext0
 16273 057c 68120000 		.4byte	.LBE463-.Ltext0
 16274 0580 B4130000 		.4byte	.LBB465-.Ltext0
 16275 0584 FE130000 		.4byte	.LBE465-.Ltext0
 16276 0588 36140000 		.4byte	.LBB467-.Ltext0
 16277 058c 78140000 		.4byte	.LBE467-.Ltext0
 16278 0590 C0150000 		.4byte	.LBB469-.Ltext0
 16279 0594 A0160000 		.4byte	.LBE469-.Ltext0
 16280 0598 00000000 		.4byte	0
 16281 059c 00000000 		.4byte	0
 16282 05a0 FC0B0000 		.4byte	.LBB391-.Ltext0
 16283 05a4 8A0C0000 		.4byte	.LBE391-.Ltext0
 16284 05a8 900C0000 		.4byte	.LBB412-.Ltext0
 16285 05ac 960C0000 		.4byte	.LBE412-.Ltext0
 16286 05b0 9C0C0000 		.4byte	.LBB413-.Ltext0
 16287 05b4 C40C0000 		.4byte	.LBE413-.Ltext0
 16288 05b8 540E0000 		.4byte	.LBB415-.Ltext0
 16289 05bc 5A0E0000 		.4byte	.LBE415-.Ltext0
 16290 05c0 600E0000 		.4byte	.LBB416-.Ltext0
 16291 05c4 640E0000 		.4byte	.LBE416-.Ltext0
 16292 05c8 480F0000 		.4byte	.LBB417-.Ltext0
 16293 05cc 880F0000 		.4byte	.LBE417-.Ltext0
 16294 05d0 62110000 		.4byte	.LBB419-.Ltext0
 16295 05d4 6E110000 		.4byte	.LBE419-.Ltext0
 16296 05d8 84110000 		.4byte	.LBB421-.Ltext0
 16297 05dc E6110000 		.4byte	.LBE421-.Ltext0
 16298 05e0 B4130000 		.4byte	.LBB423-.Ltext0
 16299 05e4 FE130000 		.4byte	.LBE423-.Ltext0
 16300 05e8 C0150000 		.4byte	.LBB425-.Ltext0
 16301 05ec CC150000 		.4byte	.LBE425-.Ltext0
 16302 05f0 D6150000 		.4byte	.LBB427-.Ltext0
 16303 05f4 E2150000 		.4byte	.LBE427-.Ltext0
ARM GAS  /var/folders/28/j9jfyj_n4wz3qtvnym210h2c0000gn/T//ccpoR13X.s 			page 288


 16304 05f8 F6150000 		.4byte	.LBB429-.Ltext0
 16305 05fc 44160000 		.4byte	.LBE429-.Ltext0
 16306 0600 6A160000 		.4byte	.LBB431-.Ltext0
 16307 0604 70160000 		.4byte	.LBE431-.Ltext0
 16308 0608 76160000 		.4byte	.LBB433-.Ltext0
 16309 060c 82160000 		.4byte	.LBE433-.Ltext0
 16310 0610 00000000 		.4byte	0
 16311 0614 00000000 		.4byte	0
 16312 0618 0C0C0000 		.4byte	.LBB392-.Ltext0
 16313 061c 520C0000 		.4byte	.LBE392-.Ltext0
 16314 0620 6A160000 		.4byte	.LBB399-.Ltext0
 16315 0624 70160000 		.4byte	.LBE399-.Ltext0
 16316 0628 76160000 		.4byte	.LBB400-.Ltext0
 16317 062c 82160000 		.4byte	.LBE400-.Ltext0
 16318 0630 00000000 		.4byte	0
 16319 0634 00000000 		.4byte	0
 16320 0638 500F0000 		.4byte	.LBB393-.Ltext0
 16321 063c 880F0000 		.4byte	.LBE393-.Ltext0
 16322 0640 62110000 		.4byte	.LBB394-.Ltext0
 16323 0644 6E110000 		.4byte	.LBE394-.Ltext0
 16324 0648 00000000 		.4byte	0
 16325 064c 00000000 		.4byte	0
 16326 0650 8C110000 		.4byte	.LBB395-.Ltext0
 16327 0654 E6110000 		.4byte	.LBE395-.Ltext0
 16328 0658 B4130000 		.4byte	.LBB396-.Ltext0
 16329 065c FE130000 		.4byte	.LBE396-.Ltext0
 16330 0660 C0150000 		.4byte	.LBB397-.Ltext0
 16331 0664 CC150000 		.4byte	.LBE397-.Ltext0
 16332 0668 00000000 		.4byte	0
 16333 066c 00000000 		.4byte	0
 16334 0670 8A0C0000 		.4byte	.LBB401-.Ltext0
 16335 0674 900C0000 		.4byte	.LBE401-.Ltext0
 16336 0678 D80D0000 		.4byte	.LBB414-.Ltext0
 16337 067c 540E0000 		.4byte	.LBE414-.Ltext0
 16338 0680 20100000 		.4byte	.LBB418-.Ltext0
 16339 0684 60100000 		.4byte	.LBE418-.Ltext0
 16340 0688 6E110000 		.4byte	.LBB420-.Ltext0
 16341 068c 78110000 		.4byte	.LBE420-.Ltext0
 16342 0690 E6110000 		.4byte	.LBB422-.Ltext0
 16343 0694 68120000 		.4byte	.LBE422-.Ltext0
 16344 0698 36140000 		.4byte	.LBB424-.Ltext0
 16345 069c 78140000 		.4byte	.LBE424-.Ltext0
 16346 06a0 CC150000 		.4byte	.LBB426-.Ltext0
 16347 06a4 D6150000 		.4byte	.LBE426-.Ltext0
 16348 06a8 E2150000 		.4byte	.LBB428-.Ltext0
 16349 06ac F6150000 		.4byte	.LBE428-.Ltext0
 16350 06b0 44160000 		.4byte	.LBB430-.Ltext0
 16351 06b4 6A160000 		.4byte	.LBE430-.Ltext0
 16352 06b8 70160000 		.4byte	.LBB432-.Ltext0
 16353 06bc 76160000 		.4byte	.LBE432-.Ltext0
 16354 06c0 82160000 		.4byte	.LBB434-.Ltext0
 16355 06c4 A0160000 		.4byte	.LBE434-.Ltext0
 16356 06c8 00000000 		.4byte	0
 16357 06cc 00000000 		.4byte	0
 16358 06d0 E60D0000 		.4byte	.LBB402-.Ltext0
 16359 06d4 260E0000 		.4byte	.LBE402-.Ltext0
 16360 06d8 70160000 		.4byte	.LBB410-.Ltext0
ARM GAS  /var/folders/28/j9jfyj_n4wz3qtvnym210h2c0000gn/T//ccpoR13X.s 			page 289


 16361 06dc 76160000 		.4byte	.LBE410-.Ltext0
 16362 06e0 82160000 		.4byte	.LBB411-.Ltext0
 16363 06e4 A0160000 		.4byte	.LBE411-.Ltext0
 16364 06e8 00000000 		.4byte	0
 16365 06ec 00000000 		.4byte	0
 16366 06f0 28100000 		.4byte	.LBB403-.Ltext0
 16367 06f4 60100000 		.4byte	.LBE403-.Ltext0
 16368 06f8 6E110000 		.4byte	.LBB404-.Ltext0
 16369 06fc 78110000 		.4byte	.LBE404-.Ltext0
 16370 0700 00000000 		.4byte	0
 16371 0704 00000000 		.4byte	0
 16372 0708 EE110000 		.4byte	.LBB405-.Ltext0
 16373 070c 68120000 		.4byte	.LBE405-.Ltext0
 16374 0710 CC150000 		.4byte	.LBB407-.Ltext0
 16375 0714 D6150000 		.4byte	.LBE407-.Ltext0
 16376 0718 44160000 		.4byte	.LBB409-.Ltext0
 16377 071c 6A160000 		.4byte	.LBE409-.Ltext0
 16378 0720 00000000 		.4byte	0
 16379 0724 00000000 		.4byte	0
 16380 0728 36140000 		.4byte	.LBB406-.Ltext0
 16381 072c 78140000 		.4byte	.LBE406-.Ltext0
 16382 0730 EC150000 		.4byte	.LBB408-.Ltext0
 16383 0734 F6150000 		.4byte	.LBE408-.Ltext0
 16384 0738 00000000 		.4byte	0
 16385 073c 00000000 		.4byte	0
 16386              		.section	.debug_line,"",%progbits
 16387              	.Ldebug_line0:
 16388 0000 99090000 		.section	.debug_str,"MS",%progbits,1
 16388      02008203 
 16388      00000201 
 16388      FB0E0D00 
 16388      01010101 
 16389              	.LASF87:
 16390 0000 4B56505F 		.ascii	"KVP_TYPE_APVP\000"
 16390      54595045 
 16390      5F415056 
 16390      5000
 16391              	.LASF253:
 16392 000e 4B56505F 		.ascii	"KVP_Display\000"
 16392      44697370 
 16392      6C617900 
 16393              	.LASF76:
 16394 001a 66726571 		.ascii	"freqDisplayValue\000"
 16394      44697370 
 16394      6C617956 
 16394      616C7565 
 16394      00
 16395              	.LASF311:
 16396 002b 474E5520 		.ascii	"GNU C 4.9.3 20150529 (release) [ARM/embedded-4_9-br"
 16396      4320342E 
 16396      392E3320 
 16396      32303135 
 16396      30353239 
 16397 005e 616E6368 		.ascii	"anch revision 224288] -mcpu=cortex-m4 -mfloat-abi=h"
 16397      20726576 
 16397      6973696F 
 16397      6E203232 
ARM GAS  /var/folders/28/j9jfyj_n4wz3qtvnym210h2c0000gn/T//ccpoR13X.s 			page 290


 16397      34323838 
 16398 0091 61726420 		.ascii	"ard -mfpu=fpv4-sp-d16 -mno-thumb-interwork -mthumb "
 16398      2D6D6670 
 16398      753D6670 
 16398      76342D73 
 16398      702D6431 
 16399 00c4 2D676764 		.ascii	"-ggdb -O2 -fomit-frame-pointer -falign-functions=16"
 16399      62202D4F 
 16399      32202D66 
 16399      6F6D6974 
 16399      2D667261 
 16400 00f7 202D666E 		.ascii	" -fno-math-errno -fsingle-precision-constant\000"
 16400      6F2D6D61 
 16400      74682D65 
 16400      72726E6F 
 16400      202D6673 
 16401              	.LASF298:
 16402 0124 4C43445F 		.ascii	"LCD_drawStringInv\000"
 16402      64726177 
 16402      53747269 
 16402      6E67496E 
 16402      7600
 16403              	.LASF289:
 16404 0136 665F7265 		.ascii	"f_readdir\000"
 16404      61646469 
 16404      7200
 16405              	.LASF315:
 16406 0140 54687265 		.ascii	"ThreadUI\000"
 16406      61645549 
 16406      00
 16407              	.LASF142:
 16408 0149 72656761 		.ascii	"regarm_t\000"
 16408      726D5F74 
 16408      00
 16409              	.LASF287:
 16410 0152 7374726C 		.ascii	"strlen\000"
 16410      656E00
 16411              	.LASF126:
 16412 0159 705F7072 		.ascii	"p_prio\000"
 16412      696F00
 16413              	.LASF284:
 16414 0160 5F5F6275 		.ascii	"__builtin_strcpy\000"
 16414      696C7469 
 16414      6E5F7374 
 16414      72637079 
 16414      00
 16415              	.LASF310:
 16416 0171 646F5F61 		.ascii	"do_axoloti_control\000"
 16416      786F6C6F 
 16416      74695F63 
 16416      6F6E7472 
 16416      6F6C00
 16417              	.LASF206:
 16418 0184 46525F4E 		.ascii	"FR_NOT_READY\000"
 16418      4F545F52 
 16418      45414459 
 16418      00
ARM GAS  /var/folders/28/j9jfyj_n4wz3qtvnym210h2c0000gn/T//ccpoR13X.s 			page 291


 16419              	.LASF190:
 16420 0191 46415446 		.ascii	"FATFS\000"
 16420      5300
 16421              	.LASF121:
 16422 0197 73797374 		.ascii	"systime_t\000"
 16422      696D655F 
 16422      7400
 16423              	.LASF77:
 16424 01a1 66726163 		.ascii	"fractDisplayValue\000"
 16424      74446973 
 16424      706C6179 
 16424      56616C75 
 16424      6500
 16425              	.LASF158:
 16426 01b3 6D5F6F77 		.ascii	"m_owner\000"
 16426      6E657200 
 16427              	.LASF154:
 16428 01bb 735F7175 		.ascii	"s_queue\000"
 16428      65756500 
 16429              	.LASF277:
 16430 01c3 4B767073 		.ascii	"KvpsDisplay\000"
 16430      44697370 
 16430      6C617900 
 16431              	.LASF135:
 16432 01cf 705F6D73 		.ascii	"p_msgqueue\000"
 16432      67717565 
 16432      756500
 16433              	.LASF239:
 16434 01da 456E7465 		.ascii	"EnterMenuLoadFile\000"
 16434      724D656E 
 16434      754C6F61 
 16434      6446696C 
 16434      6500
 16435              	.LASF14:
 16436 01ec 756E7369 		.ascii	"unsigned int\000"
 16436      676E6564 
 16436      20696E74 
 16436      00
 16437              	.LASF214:
 16438 01f9 46525F49 		.ascii	"FR_INVALID_DRIVE\000"
 16438      4E56414C 
 16438      49445F44 
 16438      52495645 
 16438      00
 16439              	.LASF175:
 16440 020a 6E5F6661 		.ascii	"n_fats\000"
 16440      747300
 16441              	.LASF56:
 16442 0211 6D617876 		.ascii	"maxvalue\000"
 16442      616C7565 
 16442      00
 16443              	.LASF70:
 16444 021a 64697370 		.ascii	"displayFunction\000"
 16444      6C617946 
 16444      756E6374 
 16444      696F6E00 
 16445              	.LASF134:
ARM GAS  /var/folders/28/j9jfyj_n4wz3qtvnym210h2c0000gn/T//ccpoR13X.s 			page 292


 16446 022a 705F7761 		.ascii	"p_waiting\000"
 16446      6974696E 
 16446      6700
 16447              	.LASF224:
 16448 0234 52554E4E 		.ascii	"RUNNING\000"
 16448      494E4700 
 16449              	.LASF248:
 16450 023c 656E7472 		.ascii	"entries\000"
 16450      69657300 
 16451              	.LASF68:
 16452 0244 42757474 		.ascii	"ButtonFunction\000"
 16452      6F6E4675 
 16452      6E637469 
 16452      6F6E00
 16453              	.LASF217:
 16454 0253 46525F4D 		.ascii	"FR_MKFS_ABORTED\000"
 16454      4B46535F 
 16454      41424F52 
 16454      54454400 
 16455              	.LASF162:
 16456 0263 77746F62 		.ascii	"wtobjp\000"
 16456      6A7000
 16457              	.LASF189:
 16458 026a 77696E73 		.ascii	"winsect\000"
 16458      65637400 
 16459              	.LASF296:
 16460 0272 4C43445F 		.ascii	"LCD_clearDisplay\000"
 16460      636C6561 
 16460      72446973 
 16460      706C6179 
 16460      00
 16461              	.LASF89:
 16462 0283 4B56505F 		.ascii	"KVP_TYPE_INTDISPLAY\000"
 16462      54595045 
 16462      5F494E54 
 16462      44495350 
 16462      4C415900 
 16463              	.LASF176:
 16464 0297 77666C61 		.ascii	"wflag\000"
 16464      6700
 16465              	.LASF260:
 16466 029d 456E6342 		.ascii	"EncBuffer\000"
 16466      75666665 
 16466      7200
 16467              	.LASF163:
 16468 02a7 65776D61 		.ascii	"ewmask\000"
 16468      736B00
 16469              	.LASF236:
 16470 02ae 5365744B 		.ascii	"SetKVP_APVP\000"
 16470      56505F41 
 16470      50565000 
 16471              	.LASF274:
 16472 02ba 66627566 		.ascii	"fbuff\000"
 16472      6600
 16473              	.LASF221:
 16474 02c0 46525F54 		.ascii	"FR_TOO_MANY_OPEN_FILES\000"
 16474      4F4F5F4D 
ARM GAS  /var/folders/28/j9jfyj_n4wz3qtvnym210h2c0000gn/T//ccpoR13X.s 			page 293


 16474      414E595F 
 16474      4F50454E 
 16474      5F46494C 
 16475              	.LASF240:
 16476 02d7 456E7465 		.ascii	"EnterMenuLoad\000"
 16476      724D656E 
 16476      754C6F61 
 16476      6400
 16477              	.LASF155:
 16478 02e5 735F636E 		.ascii	"s_cnt\000"
 16478      7400
 16479              	.LASF303:
 16480 02eb 4C43445F 		.ascii	"LCD_drawNumber3DInv\000"
 16480      64726177 
 16480      4E756D62 
 16480      65723344 
 16480      496E7600 
 16481              	.LASF107:
 16482 02ff 6B767074 		.ascii	"kvptype\000"
 16482      79706500 
 16483              	.LASF170:
 16484 0307 57434841 		.ascii	"WCHAR\000"
 16484      5200
 16485              	.LASF314:
 16486 030d 5F5F5F53 		.ascii	"___SMMUL\000"
 16486      4D4D554C 
 16486      00
 16487              	.LASF19:
 16488 0316 75696E74 		.ascii	"uint32_t\000"
 16488      33325F74 
 16488      00
 16489              	.LASF316:
 16490 031f 73747263 		.ascii	"strcpy\000"
 16490      707900
 16491              	.LASF306:
 16492 0326 4C43445F 		.ascii	"LCD_drawChar\000"
 16492      64726177 
 16492      43686172 
 16492      00
 16493              	.LASF177:
 16494 0333 6673695F 		.ascii	"fsi_flag\000"
 16494      666C6167 
 16494      00
 16495              	.LASF120:
 16496 033c 6576656E 		.ascii	"eventmask_t\000"
 16496      746D6173 
 16496      6B5F7400 
 16497              	.LASF147:
 16498 0348 725F7072 		.ascii	"r_prio\000"
 16498      696F00
 16499              	.LASF63:
 16500 034f 61727261 		.ascii	"arrayValuePair\000"
 16500      7956616C 
 16500      75655061 
 16500      697200
 16501              	.LASF242:
 16502 035e 6B5F7363 		.ascii	"k_scope_DisplayFunction\000"
ARM GAS  /var/folders/28/j9jfyj_n4wz3qtvnym210h2c0000gn/T//ccpoR13X.s 			page 294


 16502      6F70655F 
 16502      44697370 
 16502      6C617946 
 16502      756E6374 
 16503              	.LASF58:
 16504 0376 666C6F61 		.ascii	"float\000"
 16504      7400
 16505              	.LASF195:
 16506 037c 6C666E5F 		.ascii	"lfn_idx\000"
 16506      69647800 
 16507              	.LASF272:
 16508 0384 70617463 		.ascii	"patchStatus\000"
 16508      68537461 
 16508      74757300 
 16509              	.LASF118:
 16510 0390 74707269 		.ascii	"tprio_t\000"
 16510      6F5F7400 
 16511              	.LASF32:
 16512 0398 62746E5F 		.ascii	"btn_nav_Enter\000"
 16512      6E61765F 
 16512      456E7465 
 16512      7200
 16513              	.LASF191:
 16514 03a6 696E6465 		.ascii	"index\000"
 16514      7800
 16515              	.LASF171:
 16516 03ac 44574F52 		.ascii	"DWORD\000"
 16516      4400
 16517              	.LASF164:
 16518 03b2 7466756E 		.ascii	"tfunc_t\000"
 16518      635F7400 
 16519              	.LASF172:
 16520 03ba 54434841 		.ascii	"TCHAR\000"
 16520      5200
 16521              	.LASF238:
 16522 03c0 72657375 		.ascii	"result\000"
 16522      6C7400
 16523              	.LASF279:
 16524 03c7 546D704D 		.ascii	"TmpMenuKvps\000"
 16524      656E754B 
 16524      76707300 
 16525              	.LASF13:
 16526 03d3 6C6F6E67 		.ascii	"long long unsigned int\000"
 16526      206C6F6E 
 16526      6720756E 
 16526      7369676E 
 16526      65642069 
 16527              	.LASF205:
 16528 03ea 46525F49 		.ascii	"FR_INT_ERR\000"
 16528      4E545F45 
 16528      525200
 16529              	.LASF278:
 16530 03f5 4F626A65 		.ascii	"ObjectKvps\000"
 16530      63744B76 
 16530      707300
 16531              	.LASF92:
 16532 0400 4B56505F 		.ascii	"KVP_TYPE_FRACTDISPLAY\000"
ARM GAS  /var/folders/28/j9jfyj_n4wz3qtvnym210h2c0000gn/T//ccpoR13X.s 			page 295


 16532      54595045 
 16532      5F465241 
 16532      43544449 
 16532      53504C41 
 16533              	.LASF293:
 16534 0416 665F6D6B 		.ascii	"f_mkfs\000"
 16534      667300
 16535              	.LASF122:
 16536 041d 636E745F 		.ascii	"cnt_t\000"
 16536      7400
 16537              	.LASF188:
 16538 0423 64617461 		.ascii	"database\000"
 16538      62617365 
 16538      00
 16539              	.LASF261:
 16540 042c 42746E5F 		.ascii	"Btn_Nav_CurStates\000"
 16540      4E61765F 
 16540      43757253 
 16540      74617465 
 16540      7300
 16541              	.LASF100:
 16542 043e 66726571 		.ascii	"freqdv\000"
 16542      647600
 16543              	.LASF196:
 16544 0445 66646174 		.ascii	"fdate\000"
 16544      6500
 16545              	.LASF276:
 16546 044b 4B767073 		.ascii	"KvpsHead\000"
 16546      48656164 
 16546      00
 16547              	.LASF186:
 16548 0454 66617462 		.ascii	"fatbase\000"
 16548      61736500 
 16549              	.LASF29:
 16550 045c 62746E5F 		.ascii	"btn_nav_Down\000"
 16550      6E61765F 
 16550      446F776E 
 16550      00
 16551              	.LASF252:
 16552 0469 4B56505F 		.ascii	"KVP_DisplayInv\000"
 16552      44697370 
 16552      6C617949 
 16552      6E7600
 16553              	.LASF128:
 16554 0478 705F6E65 		.ascii	"p_newer\000"
 16554      77657200 
 16555              	.LASF22:
 16556 0480 76616C75 		.ascii	"value\000"
 16556      6500
 16557              	.LASF301:
 16558 0486 4C43445F 		.ascii	"LCD_drawStringInvN\000"
 16558      64726177 
 16558      53747269 
 16558      6E67496E 
 16558      764E00
 16559              	.LASF132:
 16560 0499 705F666C 		.ascii	"p_flags\000"
ARM GAS  /var/folders/28/j9jfyj_n4wz3qtvnym210h2c0000gn/T//ccpoR13X.s 			page 296


 16560      61677300 
 16561              	.LASF34:
 16562 04a1 62746E5F 		.ascii	"btn_nav_Back\000"
 16562      6E61765F 
 16562      4261636B 
 16562      00
 16563              	.LASF234:
 16564 04ae 6E76616C 		.ascii	"nval\000"
 16564      00
 16565              	.LASF124:
 16566 04b3 705F6E65 		.ascii	"p_next\000"
 16566      787400
 16567              	.LASF211:
 16568 04ba 46525F45 		.ascii	"FR_EXIST\000"
 16568      58495354 
 16568      00
 16569              	.LASF112:
 16570 04c3 73697A65 		.ascii	"size_t\000"
 16570      5F7400
 16571              	.LASF160:
 16572 04ca 7264796D 		.ascii	"rdymsg\000"
 16572      736700
 16573              	.LASF8:
 16574 04d1 6C6F6E67 		.ascii	"long int\000"
 16574      20696E74 
 16574      00
 16575              	.LASF54:
 16576 04da 42746E5F 		.ascii	"Btn_Nav_States_struct\000"
 16576      4E61765F 
 16576      53746174 
 16576      65735F73 
 16576      74727563 
 16577              	.LASF227:
 16578 04f0 53544152 		.ascii	"STARTFAILED\000"
 16578      54464149 
 16578      4C454400 
 16579              	.LASF113:
 16580 04fc 626F6F6C 		.ascii	"bool_t\000"
 16580      5F7400
 16581              	.LASF212:
 16582 0503 46525F49 		.ascii	"FR_INVALID_OBJECT\000"
 16582      4E56414C 
 16582      49445F4F 
 16582      424A4543 
 16582      5400
 16583              	.LASF308:
 16584 0515 4C43445F 		.ascii	"LCD_drawNumber3D\000"
 16584      64726177 
 16584      4E756D62 
 16584      65723344 
 16584      00
 16585              	.LASF114:
 16586 0526 5F426F6F 		.ascii	"_Bool\000"
 16586      6C00
 16587              	.LASF109:
 16588 052c 6B65796E 		.ascii	"keyname\000"
 16588      616D6500 
ARM GAS  /var/folders/28/j9jfyj_n4wz3qtvnym210h2c0000gn/T//ccpoR13X.s 			page 297


 16589              	.LASF96:
 16590 0534 4B56505F 		.ascii	"KVP_type\000"
 16590      74797065 
 16590      00
 16591              	.LASF173:
 16592 053d 66735F74 		.ascii	"fs_type\000"
 16592      79706500 
 16593              	.LASF183:
 16594 0545 63646972 		.ascii	"cdir\000"
 16594      00
 16595              	.LASF12:
 16596 054a 5F5F7569 		.ascii	"__uint64_t\000"
 16596      6E743634 
 16596      5F7400
 16597              	.LASF219:
 16598 0555 46525F4C 		.ascii	"FR_LOCKED\000"
 16598      4F434B45 
 16598      4400
 16599              	.LASF294:
 16600 055f 50457850 		.ascii	"PExParameterChange\000"
 16600      6172616D 
 16600      65746572 
 16600      4368616E 
 16600      676500
 16601              	.LASF24:
 16602 0572 66696E61 		.ascii	"finalvalue\000"
 16602      6C76616C 
 16602      756500
 16603              	.LASF69:
 16604 057d 566F6964 		.ascii	"VoidFunction\000"
 16604      46756E63 
 16604      74696F6E 
 16604      00
 16605              	.LASF179:
 16606 058a 736F626A 		.ascii	"sobj\000"
 16606      00
 16607              	.LASF156:
 16608 058f 4D757465 		.ascii	"Mutex\000"
 16608      7800
 16609              	.LASF271:
 16610 0595 6473704C 		.ascii	"dspLoadPct\000"
 16610      6F616450 
 16610      637400
 16611              	.LASF101:
 16612 05a0 66726163 		.ascii	"fractdv\000"
 16612      74647600 
 16613              	.LASF209:
 16614 05a8 46525F49 		.ascii	"FR_INVALID_NAME\000"
 16614      4E56414C 
 16614      49445F4E 
 16614      414D4500 
 16615              	.LASF15:
 16616 05b8 696E7438 		.ascii	"int8_t\000"
 16616      5F7400
 16617              	.LASF197:
 16618 05bf 6674696D 		.ascii	"ftime\000"
 16618      6500
ARM GAS  /var/folders/28/j9jfyj_n4wz3qtvnym210h2c0000gn/T//ccpoR13X.s 			page 298


 16619              	.LASF247:
 16620 05c5 75695F69 		.ascii	"ui_init\000"
 16620      6E697400 
 16621              	.LASF130:
 16622 05cd 705F6E61 		.ascii	"p_name\000"
 16622      6D6500
 16623              	.LASF95:
 16624 05d4 4B56505F 		.ascii	"KVP_TYPE_FNCTN\000"
 16624      54595045 
 16624      5F464E43 
 16624      544E00
 16625              	.LASF99:
 16626 05e3 63757374 		.ascii	"custom\000"
 16626      6F6D00
 16627              	.LASF140:
 16628 05ea 54687265 		.ascii	"ThreadsQueue\000"
 16628      61647351 
 16628      75657565 
 16628      00
 16629              	.LASF110:
 16630 05f7 63686172 		.ascii	"char\000"
 16630      00
 16631              	.LASF201:
 16632 05fc 6C667369 		.ascii	"lfsize\000"
 16632      7A6500
 16633              	.LASF288:
 16634 0603 665F6F70 		.ascii	"f_opendir\000"
 16634      656E6469 
 16634      7200
 16635              	.LASF230:
 16636 060d 5365744B 		.ascii	"SetKVP_AVP\000"
 16636      56505F41 
 16636      565000
 16637              	.LASF74:
 16638 0618 696E7444 		.ascii	"intDisplayValue\000"
 16638      6973706C 
 16638      61795661 
 16638      6C756500 
 16639              	.LASF26:
 16640 0628 7369676E 		.ascii	"signals\000"
 16640      616C7300 
 16641              	.LASF149:
 16642 0630 725F6E65 		.ascii	"r_newer\000"
 16642      77657200 
 16643              	.LASF270:
 16644 0638 61646376 		.ascii	"adcvalues\000"
 16644      616C7565 
 16644      7300
 16645              	.LASF123:
 16646 0642 54687265 		.ascii	"Thread\000"
 16646      616400
 16647              	.LASF215:
 16648 0649 46525F4E 		.ascii	"FR_NOT_ENABLED\000"
 16648      4F545F45 
 16648      4E41424C 
 16648      454400
 16649              	.LASF116:
ARM GAS  /var/folders/28/j9jfyj_n4wz3qtvnym210h2c0000gn/T//ccpoR13X.s 			page 299


 16650 0658 74737461 		.ascii	"tstate_t\000"
 16650      74655F74 
 16650      00
 16651              	.LASF267:
 16652 0661 73696E65 		.ascii	"sine2t\000"
 16652      327400
 16653              	.LASF129:
 16654 0668 705F6F6C 		.ascii	"p_older\000"
 16654      64657200 
 16655              	.LASF131:
 16656 0670 705F7374 		.ascii	"p_state\000"
 16656      61746500 
 16657              	.LASF299:
 16658 0678 6368436F 		.ascii	"chCoreAlloc\000"
 16658      7265416C 
 16658      6C6F6300 
 16659              	.LASF16:
 16660 0684 75696E74 		.ascii	"uint8_t\000"
 16660      385F7400 
 16661              	.LASF305:
 16662 068c 4C43445F 		.ascii	"LCD_drawIBAR\000"
 16662      64726177 
 16662      49424152 
 16662      00
 16663              	.LASF255:
 16664 0699 55495570 		.ascii	"UIUpdateLCD\000"
 16664      64617465 
 16664      4C434400 
 16665              	.LASF180:
 16666 06a5 6C617374 		.ascii	"last_clust\000"
 16666      5F636C75 
 16666      737400
 16667              	.LASF182:
 16668 06b0 6673695F 		.ascii	"fsi_sector\000"
 16668      73656374 
 16668      6F7200
 16669              	.LASF285:
 16670 06bb 4C6F6164 		.ascii	"LoadPatch\000"
 16670      50617463 
 16670      6800
 16671              	.LASF194:
 16672 06c5 73656374 		.ascii	"sect\000"
 16672      00
 16673              	.LASF181:
 16674 06ca 66726565 		.ascii	"free_clust\000"
 16674      5F636C75 
 16674      737400
 16675              	.LASF67:
 16676 06d5 44697370 		.ascii	"DisplayFunction\000"
 16676      6C617946 
 16676      756E6374 
 16676      696F6E00 
 16677              	.LASF90:
 16678 06e5 4B56505F 		.ascii	"KVP_TYPE_PITCHDISPLAY\000"
 16678      54595045 
 16678      5F504954 
 16678      43484449 
ARM GAS  /var/folders/28/j9jfyj_n4wz3qtvnym210h2c0000gn/T//ccpoR13X.s 			page 300


 16678      53504C41 
 16679              	.LASF264:
 16680 06fb 70436F6E 		.ascii	"pControlUpdate\000"
 16680      74726F6C 
 16680      55706461 
 16680      746500
 16681              	.LASF228:
 16682 070a 70617463 		.ascii	"patchStatus_t\000"
 16682      68537461 
 16682      7475735F 
 16682      7400
 16683              	.LASF216:
 16684 0718 46525F4E 		.ascii	"FR_NO_FILESYSTEM\000"
 16684      4F5F4649 
 16684      4C455359 
 16684      5354454D 
 16684      00
 16685              	.LASF11:
 16686 0729 6C6F6E67 		.ascii	"long long int\000"
 16686      206C6F6E 
 16686      6720696E 
 16686      7400
 16687              	.LASF302:
 16688 0737 4C43445F 		.ascii	"LCD_drawCharInv\000"
 16688      64726177 
 16688      43686172 
 16688      496E7600 
 16689              	.LASF185:
 16690 0747 6673697A 		.ascii	"fsize\000"
 16690      6500
 16691              	.LASF146:
 16692 074d 725F7175 		.ascii	"r_queue\000"
 16692      65756500 
 16693              	.LASF231:
 16694 0755 456E7465 		.ascii	"EnterMenuFormat\000"
 16694      724D656E 
 16694      75466F72 
 16694      6D617400 
 16695              	.LASF295:
 16696 0765 4C43445F 		.ascii	"LCD_setPixel\000"
 16696      73657450 
 16696      6978656C 
 16696      00
 16697              	.LASF233:
 16698 0772 4B56505F 		.ascii	"KVP_Increment\000"
 16698      496E6372 
 16698      656D656E 
 16698      7400
 16699              	.LASF119:
 16700 0780 6D73675F 		.ascii	"msg_t\000"
 16700      7400
 16701              	.LASF145:
 16702 0786 636F6E74 		.ascii	"context\000"
 16702      65787400 
 16703              	.LASF222:
 16704 078e 46525F49 		.ascii	"FR_INVALID_PARAMETER\000"
 16704      4E56414C 
ARM GAS  /var/folders/28/j9jfyj_n4wz3qtvnym210h2c0000gn/T//ccpoR13X.s 			page 301


 16704      49445F50 
 16704      4152414D 
 16704      45544552 
 16705              	.LASF307:
 16706 07a3 4C43445F 		.ascii	"LCD_drawNumber5D\000"
 16706      64726177 
 16706      4E756D62 
 16706      65723544 
 16706      00
 16707              	.LASF207:
 16708 07b4 46525F4E 		.ascii	"FR_NO_FILE\000"
 16708      4F5F4649 
 16708      4C4500
 16709              	.LASF168:
 16710 07bf 42595445 		.ascii	"BYTE\000"
 16710      00
 16711              	.LASF4:
 16712 07c4 5F5F696E 		.ascii	"__int16_t\000"
 16712      7431365F 
 16712      7400
 16713              	.LASF169:
 16714 07ce 574F5244 		.ascii	"WORD\000"
 16714      00
 16715              	.LASF174:
 16716 07d3 6373697A 		.ascii	"csize\000"
 16716      6500
 16717              	.LASF57:
 16718 07d9 6956616C 		.ascii	"iValuePair\000"
 16718      75655061 
 16718      697200
 16719              	.LASF275:
 16720 07e4 6C65645F 		.ascii	"led_buffer\000"
 16720      62756666 
 16720      657200
 16721              	.LASF25:
 16722 07ef 7066756E 		.ascii	"pfunction\000"
 16722      6374696F 
 16722      6E00
 16723              	.LASF91:
 16724 07f9 4B56505F 		.ascii	"KVP_TYPE_FREQDISPLAY\000"
 16724      54595045 
 16724      5F465245 
 16724      51444953 
 16724      504C4159 
 16725              	.LASF106:
 16726 080e 4B657956 		.ascii	"KeyValuePair\000"
 16726      616C7565 
 16726      50616972 
 16726      00
 16727              	.LASF153:
 16728 081b 53656D61 		.ascii	"Semaphore\000"
 16728      70686F72 
 16728      6500
 16729              	.LASF150:
 16730 0825 725F6F6C 		.ascii	"r_older\000"
 16730      64657200 
 16731              	.LASF55:
ARM GAS  /var/folders/28/j9jfyj_n4wz3qtvnym210h2c0000gn/T//ccpoR13X.s 			page 302


 16732 082d 6D696E76 		.ascii	"minvalue\000"
 16732      616C7565 
 16732      00
 16733              	.LASF184:
 16734 0836 6E5F6661 		.ascii	"n_fatent\000"
 16734      74656E74 
 16734      00
 16735              	.LASF78:
 16736 083f 69705661 		.ascii	"ipValuePair\000"
 16736      6C756550 
 16736      61697200 
 16737              	.LASF280:
 16738 084b 4144436B 		.ascii	"ADCkvps\000"
 16738      76707300 
 16739              	.LASF33:
 16740 0853 62746E5F 		.ascii	"btn_nav_Shift\000"
 16740      6E61765F 
 16740      53686966 
 16740      7400
 16741              	.LASF237:
 16742 0861 5365744B 		.ascii	"SetKVP_IVP\000"
 16742      56505F49 
 16742      565000
 16743              	.LASF199:
 16744 086c 666E616D 		.ascii	"fname\000"
 16744      6500
 16745              	.LASF300:
 16746 0872 63685468 		.ascii	"chThdCreateStatic\000"
 16746      64437265 
 16746      61746553 
 16746      74617469 
 16746      6300
 16747              	.LASF136:
 16748 0884 705F6D73 		.ascii	"p_msg\000"
 16748      6700
 16749              	.LASF0:
 16750 088a 5F5F696E 		.ascii	"__int8_t\000"
 16750      74385F74 
 16750      00
 16751              	.LASF210:
 16752 0893 46525F44 		.ascii	"FR_DENIED\000"
 16752      454E4945 
 16752      4400
 16753              	.LASF115:
 16754 089d 746D6F64 		.ascii	"tmode_t\000"
 16754      655F7400 
 16755              	.LASF246:
 16756 08a5 6B5F7661 		.ascii	"k_value_DisplayFunction\000"
 16756      6C75655F 
 16756      44697370 
 16756      6C617946 
 16756      756E6374 
 16757              	.LASF139:
 16758 08bd 705F7265 		.ascii	"p_realprio\000"
 16758      616C7072 
 16758      696F00
 16759              	.LASF60:
ARM GAS  /var/folders/28/j9jfyj_n4wz3qtvnym210h2c0000gn/T//ccpoR13X.s 			page 303


 16760 08c8 61727261 		.ascii	"array\000"
 16760      7900
 16761              	.LASF93:
 16762 08ce 4B56505F 		.ascii	"KVP_TYPE_IPVP\000"
 16762      54595045 
 16762      5F495056 
 16762      5000
 16763              	.LASF225:
 16764 08dc 53544F50 		.ascii	"STOPPED\000"
 16764      50454400 
 16765              	.LASF94:
 16766 08e4 4B56505F 		.ascii	"KVP_TYPE_U7VP\000"
 16766      54595045 
 16766      5F553756 
 16766      5000
 16767              	.LASF166:
 16768 08f2 6C6F6E67 		.ascii	"long double\000"
 16768      20646F75 
 16768      626C6500 
 16769              	.LASF103:
 16770 08fe 75377670 		.ascii	"u7vp\000"
 16770      00
 16771              	.LASF36:
 16772 0903 62746E5F 		.ascii	"btn_1\000"
 16772      3100
 16773              	.LASF37:
 16774 0909 62746E5F 		.ascii	"btn_2\000"
 16774      3200
 16775              	.LASF38:
 16776 090f 62746E5F 		.ascii	"btn_3\000"
 16776      3300
 16777              	.LASF144:
 16778 0915 696E7463 		.ascii	"intctx\000"
 16778      747800
 16779              	.LASF40:
 16780 091c 62746E5F 		.ascii	"btn_5\000"
 16780      3500
 16781              	.LASF41:
 16782 0922 62746E5F 		.ascii	"btn_6\000"
 16782      3600
 16783              	.LASF42:
 16784 0928 62746E5F 		.ascii	"btn_7\000"
 16784      3700
 16785              	.LASF43:
 16786 092e 62746E5F 		.ascii	"btn_8\000"
 16786      3800
 16787              	.LASF44:
 16788 0934 62746E5F 		.ascii	"btn_9\000"
 16788      3900
 16789              	.LASF282:
 16790 093a 4C6F6164 		.ascii	"LoadMenu\000"
 16790      4D656E75 
 16790      00
 16791              	.LASF208:
 16792 0943 46525F4E 		.ascii	"FR_NO_PATH\000"
 16792      4F5F5041 
 16792      544800
ARM GAS  /var/folders/28/j9jfyj_n4wz3qtvnym210h2c0000gn/T//ccpoR13X.s 			page 304


 16793              	.LASF73:
 16794 094e 63757374 		.ascii	"customUIFunctions\000"
 16794      6F6D5549 
 16794      46756E63 
 16794      74696F6E 
 16794      7300
 16795              	.LASF254:
 16796 0960 5549506F 		.ascii	"UIPollButtons2\000"
 16796      6C6C4275 
 16796      74746F6E 
 16796      733200
 16797              	.LASF204:
 16798 096f 46525F44 		.ascii	"FR_DISK_ERR\000"
 16798      49534B5F 
 16798      45525200 
 16799              	.LASF251:
 16800 097b 4B56505F 		.ascii	"KVP_RegisterObject\000"
 16800      52656769 
 16800      73746572 
 16800      4F626A65 
 16800      637400
 16801              	.LASF108:
 16802 098e 70617265 		.ascii	"parent\000"
 16802      6E7400
 16803              	.LASF5:
 16804 0995 73686F72 		.ascii	"short int\000"
 16804      7420696E 
 16804      7400
 16805              	.LASF151:
 16806 099f 725F6375 		.ascii	"r_current\000"
 16806      7272656E 
 16806      7400
 16807              	.LASF137:
 16808 09a9 705F6570 		.ascii	"p_epending\000"
 16808      656E6469 
 16808      6E6700
 16809              	.LASF157:
 16810 09b4 6D5F7175 		.ascii	"m_queue\000"
 16810      65756500 
 16811              	.LASF117:
 16812 09bc 74736C69 		.ascii	"tslices_t\000"
 16812      6365735F 
 16812      7400
 16813              	.LASF266:
 16814 09c6 49544D5F 		.ascii	"ITM_RxBuffer\000"
 16814      52784275 
 16814      66666572 
 16814      00
 16815              	.LASF259:
 16816 09d3 42746E5F 		.ascii	"Btn_Nav_And\000"
 16816      4E61765F 
 16816      416E6400 
 16817              	.LASF61:
 16818 09df 6C656E67 		.ascii	"length\000"
 16818      746800
 16819              	.LASF17:
 16820 09e6 696E7431 		.ascii	"int16_t\000"
ARM GAS  /var/folders/28/j9jfyj_n4wz3qtvnym210h2c0000gn/T//ccpoR13X.s 			page 305


 16820      365F7400 
 16821              	.LASF104:
 16822 09ee 666E6374 		.ascii	"fnctnvp\000"
 16822      6E767000 
 16823              	.LASF243:
 16824 09f6 6B5F7363 		.ascii	"k_scope_DisplayFunction2\000"
 16824      6F70655F 
 16824      44697370 
 16824      6C617946 
 16824      756E6374 
 16825              	.LASF244:
 16826 0a0f 6B5F7363 		.ascii	"k_scope_DisplayFunction3\000"
 16826      6F70655F 
 16826      44697370 
 16826      6C617946 
 16826      756E6374 
 16827              	.LASF245:
 16828 0a28 6B5F7363 		.ascii	"k_scope_DisplayFunction4\000"
 16828      6F70655F 
 16828      44697370 
 16828      6C617946 
 16828      756E6374 
 16829              	.LASF309:
 16830 0a41 4C43445F 		.ascii	"LCD_drawStringN\000"
 16830      64726177 
 16830      53747269 
 16830      6E674E00 
 16831              	.LASF20:
 16832 0a51 75696E74 		.ascii	"uint64_t\000"
 16832      36345F74 
 16832      00
 16833              	.LASF127:
 16834 0a5a 705F6374 		.ascii	"p_ctx\000"
 16834      7800
 16835              	.LASF312:
 16836 0a60 75692E63 		.ascii	"ui.c\000"
 16836      00
 16837              	.LASF83:
 16838 0a65 4B56505F 		.ascii	"KVP_TYPE_FVP\000"
 16838      54595045 
 16838      5F465650 
 16838      00
 16839              	.LASF265:
 16840 0a72 726C6973 		.ascii	"rlist\000"
 16840      7400
 16841              	.LASF71:
 16842 0a78 62757474 		.ascii	"buttonFunction\000"
 16842      6F6E4675 
 16842      6E637469 
 16842      6F6E00
 16843              	.LASF226:
 16844 0a87 53544F50 		.ascii	"STOPPING\000"
 16844      50494E47 
 16844      00
 16845              	.LASF85:
 16846 0a90 4B56505F 		.ascii	"KVP_TYPE_AVP\000"
 16846      54595045 
ARM GAS  /var/folders/28/j9jfyj_n4wz3qtvnym210h2c0000gn/T//ccpoR13X.s 			page 306


 16846      5F415650 
 16846      00
 16847              	.LASF268:
 16848 0a9d 77696E64 		.ascii	"windowt\000"
 16848      6F777400 
 16849              	.LASF235:
 16850 0aa5 4B56505F 		.ascii	"KVP_Decrement\000"
 16850      44656372 
 16850      656D656E 
 16850      7400
 16851              	.LASF7:
 16852 0ab3 5F5F696E 		.ascii	"__int32_t\000"
 16852      7433325F 
 16852      7400
 16853              	.LASF1:
 16854 0abd 5F5F7569 		.ascii	"__uint8_t\000"
 16854      6E74385F 
 16854      7400
 16855              	.LASF297:
 16856 0ac7 4C43445F 		.ascii	"LCD_drawString\000"
 16856      64726177 
 16856      53747269 
 16856      6E6700
 16857              	.LASF187:
 16858 0ad6 64697262 		.ascii	"dirbase\000"
 16858      61736500 
 16859              	.LASF198:
 16860 0ade 66617474 		.ascii	"fattrib\000"
 16860      72696200 
 16861              	.LASF241:
 16862 0ae6 5365744B 		.ascii	"SetKVP_IPVP\000"
 16862      56505F49 
 16862      50565000 
 16863              	.LASF250:
 16864 0af2 4B56505F 		.ascii	"KVP_ClearObjects\000"
 16864      436C6561 
 16864      724F626A 
 16864      65637473 
 16864      00
 16865              	.LASF167:
 16866 0b03 55494E54 		.ascii	"UINT\000"
 16866      00
 16867              	.LASF178:
 16868 0b08 6E5F726F 		.ascii	"n_rootdir\000"
 16868      6F746469 
 16868      7200
 16869              	.LASF291:
 16870 0b12 50457852 		.ascii	"PExReceive\000"
 16870      65636569 
 16870      766500
 16871              	.LASF45:
 16872 0b1d 62746E5F 		.ascii	"btn_10\000"
 16872      313000
 16873              	.LASF72:
 16874 0b24 75736572 		.ascii	"userdata\000"
 16874      64617461 
 16874      00
ARM GAS  /var/folders/28/j9jfyj_n4wz3qtvnym210h2c0000gn/T//ccpoR13X.s 			page 307


 16875              	.LASF47:
 16876 0b2d 62746E5F 		.ascii	"btn_12\000"
 16876      313200
 16877              	.LASF48:
 16878 0b34 62746E5F 		.ascii	"btn_13\000"
 16878      313300
 16879              	.LASF49:
 16880 0b3b 62746E5F 		.ascii	"btn_14\000"
 16880      313400
 16881              	.LASF281:
 16882 0b42 6D656D70 		.ascii	"memp\000"
 16882      00
 16883              	.LASF51:
 16884 0b47 62746E5F 		.ascii	"btn_16\000"
 16884      313600
 16885              	.LASF125:
 16886 0b4e 705F7072 		.ascii	"p_prev\000"
 16886      657600
 16887              	.LASF262:
 16888 0b55 42746E5F 		.ascii	"Btn_Nav_PrevStates\000"
 16888      4E61765F 
 16888      50726576 
 16888      53746174 
 16888      657300
 16889              	.LASF21:
 16890 0b68 73697A65 		.ascii	"sizetype\000"
 16890      74797065 
 16890      00
 16891              	.LASF273:
 16892 0b71 66735F72 		.ascii	"fs_ready\000"
 16892      65616479 
 16892      00
 16893              	.LASF10:
 16894 0b7a 6C6F6E67 		.ascii	"long unsigned int\000"
 16894      20756E73 
 16894      69676E65 
 16894      6420696E 
 16894      7400
 16895              	.LASF138:
 16896 0b8c 705F6D74 		.ascii	"p_mtxlist\000"
 16896      786C6973 
 16896      7400
 16897              	.LASF223:
 16898 0b96 46524553 		.ascii	"FRESULT\000"
 16898      554C5400 
 16899              	.LASF35:
 16900 0b9e 756E7573 		.ascii	"unused\000"
 16900      656400
 16901              	.LASF249:
 16902 0ba5 5549476F 		.ascii	"UIGoSafe\000"
 16902      53616665 
 16902      00
 16903              	.LASF200:
 16904 0bae 6C666E61 		.ascii	"lfname\000"
 16904      6D6500
 16905              	.LASF46:
 16906 0bb5 62746E5F 		.ascii	"btn_11\000"
ARM GAS  /var/folders/28/j9jfyj_n4wz3qtvnym210h2c0000gn/T//ccpoR13X.s 			page 308


 16906      313100
 16907              	.LASF18:
 16908 0bbc 696E7433 		.ascii	"int32_t\000"
 16908      325F7400 
 16909              	.LASF98:
 16910 0bc4 61707670 		.ascii	"apvp\000"
 16910      00
 16911              	.LASF203:
 16912 0bc9 46525F4F 		.ascii	"FR_OK\000"
 16912      4B00
 16913              	.LASF50:
 16914 0bcf 62746E5F 		.ascii	"btn_15\000"
 16914      313500
 16915              	.LASF290:
 16916 0bd6 50457854 		.ascii	"PExTransmit\000"
 16916      72616E73 
 16916      6D697400 
 16917              	.LASF193:
 16918 0be2 636C7573 		.ascii	"clust\000"
 16918      7400
 16919              	.LASF3:
 16920 0be8 756E7369 		.ascii	"unsigned char\000"
 16920      676E6564 
 16920      20636861 
 16920      7200
 16921              	.LASF9:
 16922 0bf6 5F5F7569 		.ascii	"__uint32_t\000"
 16922      6E743332 
 16922      5F7400
 16923              	.LASF52:
 16924 0c01 6669656C 		.ascii	"fields\000"
 16924      647300
 16925              	.LASF256:
 16926 0c08 6C696E65 		.ascii	"line\000"
 16926      00
 16927              	.LASF152:
 16928 0c0d 52656164 		.ascii	"ReadyList\000"
 16928      794C6973 
 16928      7400
 16929              	.LASF269:
 16930 0c17 70697463 		.ascii	"pitcht\000"
 16930      687400
 16931              	.LASF31:
 16932 0c1e 62746E5F 		.ascii	"btn_nav_Right\000"
 16932      6E61765F 
 16932      52696768 
 16932      7400
 16933              	.LASF80:
 16934 0c2c 666E6374 		.ascii	"fnctn\000"
 16934      6E00
 16935              	.LASF292:
 16936 0c32 63685468 		.ascii	"chThdSleep\000"
 16936      64536C65 
 16936      657000
 16937              	.LASF86:
 16938 0c3d 4B56505F 		.ascii	"KVP_TYPE_IDVP\000"
 16938      54595045 
ARM GAS  /var/folders/28/j9jfyj_n4wz3qtvnym210h2c0000gn/T//ccpoR13X.s 			page 309


 16938      5F494456 
 16938      5000
 16939              	.LASF133:
 16940 0c4b 705F7072 		.ascii	"p_preempt\000"
 16940      65656D70 
 16940      7400
 16941              	.LASF30:
 16942 0c55 62746E5F 		.ascii	"btn_nav_Left\000"
 16942      6E61765F 
 16942      4C656674 
 16942      00
 16943              	.LASF59:
 16944 0c62 6656616C 		.ascii	"fValuePair\000"
 16944      75655061 
 16944      697200
 16945              	.LASF218:
 16946 0c6d 46525F54 		.ascii	"FR_TIMEOUT\000"
 16946      494D454F 
 16946      555400
 16947              	.LASF283:
 16948 0c78 41786F6C 		.ascii	"AxolotiControlUpdate\000"
 16948      6F746943 
 16948      6F6E7472 
 16948      6F6C5570 
 16948      64617465 
 16949              	.LASF220:
 16950 0c8d 46525F4E 		.ascii	"FR_NOT_ENOUGH_CORE\000"
 16950      4F545F45 
 16950      4E4F5547 
 16950      485F434F 
 16950      524500
 16951              	.LASF258:
 16952 0ca0 42746E5F 		.ascii	"Btn_Nav_Or\000"
 16952      4E61765F 
 16952      4F7200
 16953              	.LASF263:
 16954 0cab 4F626A65 		.ascii	"ObjectKvpRoot\000"
 16954      63744B76 
 16954      70526F6F 
 16954      7400
 16955              	.LASF229:
 16956 0cb9 6B65794E 		.ascii	"keyName\000"
 16956      616D6500 
 16957              	.LASF105:
 16958 0cc1 5F506172 		.ascii	"_ParameterExchange\000"
 16958      616D6574 
 16958      65724578 
 16958      6368616E 
 16958      676500
 16959              	.LASF84:
 16960 0cd4 4B56505F 		.ascii	"KVP_TYPE_SVP\000"
 16960      54595045 
 16960      5F535650 
 16960      00
 16961              	.LASF23:
 16962 0ce1 6D6F6476 		.ascii	"modvalue\000"
 16962      616C7565 
ARM GAS  /var/folders/28/j9jfyj_n4wz3qtvnym210h2c0000gn/T//ccpoR13X.s 			page 310


 16962      00
 16963              	.LASF53:
 16964 0cea 776F7264 		.ascii	"word\000"
 16964      00
 16965              	.LASF75:
 16966 0cef 70697463 		.ascii	"pitchDisplayValue\000"
 16966      68446973 
 16966      706C6179 
 16966      56616C75 
 16966      6500
 16967              	.LASF257:
 16968 0d01 77615468 		.ascii	"waThreadUI\000"
 16968      72656164 
 16968      554900
 16969              	.LASF159:
 16970 0d0c 6D5F6E65 		.ascii	"m_next\000"
 16970      787400
 16971              	.LASF2:
 16972 0d13 7369676E 		.ascii	"signed char\000"
 16972      65642063 
 16972      68617200 
 16973              	.LASF82:
 16974 0d1f 4B56505F 		.ascii	"KVP_TYPE_IVP\000"
 16974      54595045 
 16974      5F495650 
 16974      00
 16975              	.LASF6:
 16976 0d2c 73686F72 		.ascii	"short unsigned int\000"
 16976      7420756E 
 16976      7369676E 
 16976      65642069 
 16976      6E7400
 16977              	.LASF148:
 16978 0d3f 725F6374 		.ascii	"r_ctx\000"
 16978      7800
 16979              	.LASF143:
 16980 0d45 73746B61 		.ascii	"stkalign_t\000"
 16980      6C69676E 
 16980      5F7400
 16981              	.LASF286:
 16982 0d50 6D656D63 		.ascii	"memcpy\000"
 16982      707900
 16983              	.LASF65:
 16984 0d57 7356616C 		.ascii	"sValuePair\000"
 16984      75655061 
 16984      697200
 16985              	.LASF232:
 16986 0d62 5365744B 		.ascii	"SetKVP_FNCTN\000"
 16986      56505F46 
 16986      4E43544E 
 16986      00
 16987              	.LASF62:
 16988 0d6f 63757272 		.ascii	"current\000"
 16988      656E7400 
 16989              	.LASF66:
 16990 0d77 61727261 		.ascii	"arrayPtrValuePair\000"
 16990      79507472 
ARM GAS  /var/folders/28/j9jfyj_n4wz3qtvnym210h2c0000gn/T//ccpoR13X.s 			page 311


 16990      56616C75 
 16990      65506169 
 16990      7200
 16991              	.LASF102:
 16992 0d89 69707670 		.ascii	"ipvp\000"
 16992      00
 16993              	.LASF165:
 16994 0d8e 646F7562 		.ascii	"double\000"
 16994      6C6500
 16995              	.LASF81:
 16996 0d95 666E6374 		.ascii	"fnctnValuePair\000"
 16996      6E56616C 
 16996      75655061 
 16996      697200
 16997              	.LASF28:
 16998 0da4 62746E5F 		.ascii	"btn_nav_Up\000"
 16998      6E61765F 
 16998      557000
 16999              	.LASF111:
 17000 0daf 4B657956 		.ascii	"KeyValuePair_s\000"
 17000      616C7565 
 17000      50616972 
 17000      5F7300
 17001              	.LASF88:
 17002 0dbe 4B56505F 		.ascii	"KVP_TYPE_CUSTOM\000"
 17002      54595045 
 17002      5F435553 
 17002      544F4D00 
 17003              	.LASF313:
 17004 0dce 2F557365 		.ascii	"/Users/ryanmcgill/Documents/VONGON/SELECTOR/axoloti"
 17004      72732F72 
 17004      79616E6D 
 17004      6367696C 
 17004      6C2F446F 
 17005 0e01 2F666972 		.ascii	"/firmware\000"
 17005      6D776172 
 17005      6500
 17006              	.LASF39:
 17007 0e0b 62746E5F 		.ascii	"btn_4\000"
 17007      3400
 17008              	.LASF97:
 17009 0e11 69647670 		.ascii	"idvp\000"
 17009      00
 17010              	.LASF213:
 17011 0e16 46525F57 		.ascii	"FR_WRITE_PROTECTED\000"
 17011      52495445 
 17011      5F50524F 
 17011      54454354 
 17011      454400
 17012              	.LASF202:
 17013 0e29 46494C49 		.ascii	"FILINFO\000"
 17013      4E464F00 
 17014              	.LASF161:
 17015 0e31 65786974 		.ascii	"exitcode\000"
 17015      636F6465 
 17015      00
 17016              	.LASF304:
ARM GAS  /var/folders/28/j9jfyj_n4wz3qtvnym210h2c0000gn/T//ccpoR13X.s 			page 312


 17017 0e3a 4C43445F 		.ascii	"LCD_drawNumber5DInv\000"
 17017      64726177 
 17017      4E756D62 
 17017      65723544 
 17017      496E7600 
 17018              	.LASF79:
 17019 0e4e 75375661 		.ascii	"u7ValuePair\000"
 17019      6C756550 
 17019      61697200 
 17020              	.LASF64:
 17021 0e5a 696E7444 		.ascii	"intDbgValuePairBar\000"
 17021      62675661 
 17021      6C756550 
 17021      61697242 
 17021      617200
 17022              	.LASF141:
 17023 0e6d 54687265 		.ascii	"ThreadsList\000"
 17023      6164734C 
 17023      69737400 
 17024              	.LASF192:
 17025 0e79 73636C75 		.ascii	"sclust\000"
 17025      737400
 17026              	.LASF27:
 17027 0e80 50617261 		.ascii	"ParameterExchange_t\000"
 17027      6D657465 
 17027      72457863 
 17027      68616E67 
 17027      655F7400 
 17028              		.ident	"GCC: (GNU Tools for ARM Embedded Processors) 4.9.3 20150529 (release) [ARM/embedded-4_9-br
ARM GAS  /var/folders/28/j9jfyj_n4wz3qtvnym210h2c0000gn/T//ccpoR13X.s 			page 313


DEFINED SYMBOLS
                            *ABS*:0000000000000000 ui.c
/var/folders/28/j9jfyj_n4wz3qtvnym210h2c0000gn/T//ccpoR13X.s:20     .text:0000000000000000 $t
/var/folders/28/j9jfyj_n4wz3qtvnym210h2c0000gn/T//ccpoR13X.s:26     .text:0000000000000000 EnterMenuLoadFile
/var/folders/28/j9jfyj_n4wz3qtvnym210h2c0000gn/T//ccpoR13X.s:74     .text:0000000000000038 $d
                            *COM*:0000000000000018 LoadMenu
/var/folders/28/j9jfyj_n4wz3qtvnym210h2c0000gn/T//ccpoR13X.s:78     .text:000000000000003c $t
/var/folders/28/j9jfyj_n4wz3qtvnym210h2c0000gn/T//ccpoR13X.s:84     .text:0000000000000040 EnterMenuLoad
/var/folders/28/j9jfyj_n4wz3qtvnym210h2c0000gn/T//ccpoR13X.s:295    .text:0000000000000110 $d
                            *COM*:0000000000000004 memp
                            *COM*:0000000000000168 TmpMenuKvps
                            *COM*:0000000000000004 KvpsDisplay
                            *COM*:0000000000000018 KvpsHead
/var/folders/28/j9jfyj_n4wz3qtvnym210h2c0000gn/T//ccpoR13X.s:307    .text:0000000000000134 $t
/var/folders/28/j9jfyj_n4wz3qtvnym210h2c0000gn/T//ccpoR13X.s:312    .text:0000000000000140 ThreadUI
/var/folders/28/j9jfyj_n4wz3qtvnym210h2c0000gn/T//ccpoR13X.s:354    .text:0000000000000164 $d
/var/folders/28/j9jfyj_n4wz3qtvnym210h2c0000gn/T//ccpoR13X.s:360    .text:0000000000000170 $t
/var/folders/28/j9jfyj_n4wz3qtvnym210h2c0000gn/T//ccpoR13X.s:366    .text:0000000000000170 EnterMenuFormat
/var/folders/28/j9jfyj_n4wz3qtvnym210h2c0000gn/T//ccpoR13X.s:467    .text:00000000000001b4 $d
/var/folders/28/j9jfyj_n4wz3qtvnym210h2c0000gn/T//ccpoR13X.s:477    .text:00000000000001c8 $t
/var/folders/28/j9jfyj_n4wz3qtvnym210h2c0000gn/T//ccpoR13X.s:483    .text:00000000000001d0 SetKVP_APVP
/var/folders/28/j9jfyj_n4wz3qtvnym210h2c0000gn/T//ccpoR13X.s:531    .text:00000000000001f0 SetKVP_AVP
/var/folders/28/j9jfyj_n4wz3qtvnym210h2c0000gn/T//ccpoR13X.s:579    .text:0000000000000210 SetKVP_IVP
/var/folders/28/j9jfyj_n4wz3qtvnym210h2c0000gn/T//ccpoR13X.s:625    .text:0000000000000230 SetKVP_IPVP
/var/folders/28/j9jfyj_n4wz3qtvnym210h2c0000gn/T//ccpoR13X.s:678    .text:0000000000000250 SetKVP_FNCTN
/var/folders/28/j9jfyj_n4wz3qtvnym210h2c0000gn/T//ccpoR13X.s:712    .text:0000000000000270 KVP_Increment
/var/folders/28/j9jfyj_n4wz3qtvnym210h2c0000gn/T//ccpoR13X.s:726    .text:000000000000027a $d
/var/folders/28/j9jfyj_n4wz3qtvnym210h2c0000gn/T//ccpoR13X.s:825    .text:00000000000002e0 KVP_Decrement
/var/folders/28/j9jfyj_n4wz3qtvnym210h2c0000gn/T//ccpoR13X.s:839    .text:00000000000002ea $d
/var/folders/28/j9jfyj_n4wz3qtvnym210h2c0000gn/T//ccpoR13X.s:935    .text:0000000000000350 k_scope_DisplayFunction
/var/folders/28/j9jfyj_n4wz3qtvnym210h2c0000gn/T//ccpoR13X.s:1086   .text:0000000000000408 $d
/var/folders/28/j9jfyj_n4wz3qtvnym210h2c0000gn/T//ccpoR13X.s:1094   .text:000000000000041c $t
/var/folders/28/j9jfyj_n4wz3qtvnym210h2c0000gn/T//ccpoR13X.s:1100   .text:0000000000000420 k_scope_DisplayFunction2
/var/folders/28/j9jfyj_n4wz3qtvnym210h2c0000gn/T//ccpoR13X.s:1289   .text:000000000000050c $d
/var/folders/28/j9jfyj_n4wz3qtvnym210h2c0000gn/T//ccpoR13X.s:1299   .text:0000000000000524 $t
/var/folders/28/j9jfyj_n4wz3qtvnym210h2c0000gn/T//ccpoR13X.s:1305   .text:0000000000000530 k_scope_DisplayFunction3
/var/folders/28/j9jfyj_n4wz3qtvnym210h2c0000gn/T//ccpoR13X.s:1323   .text:0000000000000540 k_scope_DisplayFunction4
/var/folders/28/j9jfyj_n4wz3qtvnym210h2c0000gn/T//ccpoR13X.s:1341   .text:0000000000000550 k_value_DisplayFunction
/var/folders/28/j9jfyj_n4wz3qtvnym210h2c0000gn/T//ccpoR13X.s:1359   .text:0000000000000560 UIGoSafe
/var/folders/28/j9jfyj_n4wz3qtvnym210h2c0000gn/T//ccpoR13X.s:1374   .text:0000000000000568 $d
/var/folders/28/j9jfyj_n4wz3qtvnym210h2c0000gn/T//ccpoR13X.s:1379   .text:0000000000000570 $t
/var/folders/28/j9jfyj_n4wz3qtvnym210h2c0000gn/T//ccpoR13X.s:1385   .text:0000000000000570 ui_init
/var/folders/28/j9jfyj_n4wz3qtvnym210h2c0000gn/T//ccpoR13X.s:1853   .text:00000000000006d0 $d
                            *COM*:0000000000000004 Btn_Nav_Or
                            *COM*:0000000000000004 Btn_Nav_And
                            *COM*:0000000000000048 ADCkvps
                            *COM*:0000000000000004 ObjectKvpRoot
                            *COM*:0000000000000400 ObjectKvps
/var/folders/28/j9jfyj_n4wz3qtvnym210h2c0000gn/T//ccpoR13X.s:1883   .text:0000000000000734 $t
/var/folders/28/j9jfyj_n4wz3qtvnym210h2c0000gn/T//ccpoR13X.s:1889   .text:0000000000000740 KVP_ClearObjects
/var/folders/28/j9jfyj_n4wz3qtvnym210h2c0000gn/T//ccpoR13X.s:1912   .text:0000000000000750 $d
/var/folders/28/j9jfyj_n4wz3qtvnym210h2c0000gn/T//ccpoR13X.s:1918   .text:000000000000075c $t
/var/folders/28/j9jfyj_n4wz3qtvnym210h2c0000gn/T//ccpoR13X.s:1924   .text:0000000000000760 KVP_RegisterObject
/var/folders/28/j9jfyj_n4wz3qtvnym210h2c0000gn/T//ccpoR13X.s:1954   .text:0000000000000778 $d
/var/folders/28/j9jfyj_n4wz3qtvnym210h2c0000gn/T//ccpoR13X.s:1959   .text:0000000000000780 $t
/var/folders/28/j9jfyj_n4wz3qtvnym210h2c0000gn/T//ccpoR13X.s:1965   .text:0000000000000780 KVP_DisplayInv
/var/folders/28/j9jfyj_n4wz3qtvnym210h2c0000gn/T//ccpoR13X.s:1995   .text:0000000000000798 $d
ARM GAS  /var/folders/28/j9jfyj_n4wz3qtvnym210h2c0000gn/T//ccpoR13X.s 			page 314


/var/folders/28/j9jfyj_n4wz3qtvnym210h2c0000gn/T//ccpoR13X.s:2212   .text:0000000000000868 $d
/var/folders/28/j9jfyj_n4wz3qtvnym210h2c0000gn/T//ccpoR13X.s:2219   .text:0000000000000878 $t
/var/folders/28/j9jfyj_n4wz3qtvnym210h2c0000gn/T//ccpoR13X.s:2225   .text:0000000000000880 KVP_Display
/var/folders/28/j9jfyj_n4wz3qtvnym210h2c0000gn/T//ccpoR13X.s:2258   .text:000000000000089e $d
/var/folders/28/j9jfyj_n4wz3qtvnym210h2c0000gn/T//ccpoR13X.s:2604   .text:00000000000009e4 $d
/var/folders/28/j9jfyj_n4wz3qtvnym210h2c0000gn/T//ccpoR13X.s:2612   .text:00000000000009f8 $t
/var/folders/28/j9jfyj_n4wz3qtvnym210h2c0000gn/T//ccpoR13X.s:2618   .text:0000000000000a00 AxolotiControlUpdate
/var/folders/28/j9jfyj_n4wz3qtvnym210h2c0000gn/T//ccpoR13X.s:3101   .text:0000000000000ca0 $d
                            *COM*:0000000000000004 Btn_Nav_CurStates
                            *COM*:0000000000000004 Btn_Nav_PrevStates
/var/folders/28/j9jfyj_n4wz3qtvnym210h2c0000gn/T//ccpoR13X.s:3119   .text:0000000000000cc4 $t
/var/folders/28/j9jfyj_n4wz3qtvnym210h2c0000gn/T//ccpoR13X.s:3147   .text:0000000000000cf0 $d
/var/folders/28/j9jfyj_n4wz3qtvnym210h2c0000gn/T//ccpoR13X.s:3161   .text:0000000000000d0a $t
/var/folders/28/j9jfyj_n4wz3qtvnym210h2c0000gn/T//ccpoR13X.s:3276   .text:0000000000000dbe $d
/var/folders/28/j9jfyj_n4wz3qtvnym210h2c0000gn/T//ccpoR13X.s:3290   .text:0000000000000dd8 $t
/var/folders/28/j9jfyj_n4wz3qtvnym210h2c0000gn/T//ccpoR13X.s:3640   .text:0000000000000f90 $d
                            *COM*:0000000000000004 EncBuffer
/var/folders/28/j9jfyj_n4wz3qtvnym210h2c0000gn/T//ccpoR13X.s:3653   .text:0000000000000fa8 $t
/var/folders/28/j9jfyj_n4wz3qtvnym210h2c0000gn/T//ccpoR13X.s:3804   .text:000000000000106e $d
/var/folders/28/j9jfyj_n4wz3qtvnym210h2c0000gn/T//ccpoR13X.s:3913   .text:00000000000010f0 $d
/var/folders/28/j9jfyj_n4wz3qtvnym210h2c0000gn/T//ccpoR13X.s:4230   .text:0000000000001278 $d
/var/folders/28/j9jfyj_n4wz3qtvnym210h2c0000gn/T//ccpoR13X.s:4244   .text:00000000000012ac $t
/var/folders/28/j9jfyj_n4wz3qtvnym210h2c0000gn/T//ccpoR13X.s:4258   .text:00000000000012bc $d
/var/folders/28/j9jfyj_n4wz3qtvnym210h2c0000gn/T//ccpoR13X.s:4272   .text:00000000000012f0 $t
/var/folders/28/j9jfyj_n4wz3qtvnym210h2c0000gn/T//ccpoR13X.s:4304   .text:000000000000130c $d
/var/folders/28/j9jfyj_n4wz3qtvnym210h2c0000gn/T//ccpoR13X.s:4314   .text:0000000000001310 $t
/var/folders/28/j9jfyj_n4wz3qtvnym210h2c0000gn/T//ccpoR13X.s:4321   .text:0000000000001320 $d
/var/folders/28/j9jfyj_n4wz3qtvnym210h2c0000gn/T//ccpoR13X.s:4335   .text:0000000000001354 $t
/var/folders/28/j9jfyj_n4wz3qtvnym210h2c0000gn/T//ccpoR13X.s:4349   .text:0000000000001364 $d
/var/folders/28/j9jfyj_n4wz3qtvnym210h2c0000gn/T//ccpoR13X.s:4363   .text:0000000000001398 $t
/var/folders/28/j9jfyj_n4wz3qtvnym210h2c0000gn/T//ccpoR13X.s:5004   .text:0000000000001698 $d
/var/folders/28/j9jfyj_n4wz3qtvnym210h2c0000gn/T//ccpoR13X.s:5032   .data:0000000000000000 pControlUpdate
/var/folders/28/j9jfyj_n4wz3qtvnym210h2c0000gn/T//ccpoR13X.s:5028   .data:0000000000000000 $d
/var/folders/28/j9jfyj_n4wz3qtvnym210h2c0000gn/T//ccpoR13X.s:5035   .rodata.str1.4:0000000000000000 $d
/var/folders/28/j9jfyj_n4wz3qtvnym210h2c0000gn/T//ccpoR13X.s:5117   .bss:0000000000000000 $d
/var/folders/28/j9jfyj_n4wz3qtvnym210h2c0000gn/T//ccpoR13X.s:5121   .bss:0000000000000000 waThreadUI
                     .debug_frame:0000000000000010 $d
/var/folders/28/j9jfyj_n4wz3qtvnym210h2c0000gn/T//ccpoR13X.s:739    .text:0000000000000287 $d
/var/folders/28/j9jfyj_n4wz3qtvnym210h2c0000gn/T//ccpoR13X.s:739    .text:0000000000000288 $t
/var/folders/28/j9jfyj_n4wz3qtvnym210h2c0000gn/T//ccpoR13X.s:852    .text:00000000000002f7 $d
/var/folders/28/j9jfyj_n4wz3qtvnym210h2c0000gn/T//ccpoR13X.s:852    .text:00000000000002f8 $t
/var/folders/28/j9jfyj_n4wz3qtvnym210h2c0000gn/T//ccpoR13X.s:2008   .text:00000000000007a5 $d
/var/folders/28/j9jfyj_n4wz3qtvnym210h2c0000gn/T//ccpoR13X.s:2008   .text:00000000000007a6 $t
/var/folders/28/j9jfyj_n4wz3qtvnym210h2c0000gn/T//ccpoR13X.s:2271   .text:00000000000008ab $d
/var/folders/28/j9jfyj_n4wz3qtvnym210h2c0000gn/T//ccpoR13X.s:2271   .text:00000000000008ac $t
/var/folders/28/j9jfyj_n4wz3qtvnym210h2c0000gn/T//ccpoR13X.s:3817   .text:000000000000107b $d
/var/folders/28/j9jfyj_n4wz3qtvnym210h2c0000gn/T//ccpoR13X.s:3817   .text:000000000000107c $t
/var/folders/28/j9jfyj_n4wz3qtvnym210h2c0000gn/T//ccpoR13X.s:3926   .text:00000000000010fd $d
/var/folders/28/j9jfyj_n4wz3qtvnym210h2c0000gn/T//ccpoR13X.s:3926   .text:00000000000010fe $t

UNDEFINED SYMBOLS
strcpy
LoadPatch
f_opendir
f_readdir
strlen
memcpy
ARM GAS  /var/folders/28/j9jfyj_n4wz3qtvnym210h2c0000gn/T//ccpoR13X.s 			page 315


fbuff
PExTransmit
PExReceive
chThdSleep
rlist
f_mkfs
PExParameterChange
LCD_clearDisplay
LCD_setPixel
LCD_drawString
LCD_drawStringInv
chCoreAlloc
chThdCreateStatic
fs_ready
patchStatus
dspLoadPct
adcvalues
LCD_drawStringInvN
LCD_drawCharInv
LCD_drawNumber3DInv
LCD_drawNumber5DInv
LCD_drawIBAR
LCD_drawStringN
LCD_drawChar
LCD_drawNumber3D
LCD_drawNumber5D
do_axoloti_control
led_buffer
